ARM GAS  /tmp/ccisCKci.s 			page 1


   1              		.cpu cortex-m4
   2              		.eabi_attribute 27, 1
   3              		.eabi_attribute 28, 1
   4              		.eabi_attribute 20, 1
   5              		.eabi_attribute 21, 1
   6              		.eabi_attribute 23, 3
   7              		.eabi_attribute 24, 1
   8              		.eabi_attribute 25, 1
   9              		.eabi_attribute 26, 1
  10              		.eabi_attribute 30, 1
  11              		.eabi_attribute 34, 1
  12              		.eabi_attribute 18, 4
  13              		.file	"error.c"
  14              		.text
  15              	.Ltext0:
  16              		.cfi_sections	.debug_frame
  17              		.section	.rodata.wc_GetErrorString.str1.4,"aMS",%progbits,1
  18              		.align	2
  19              	.LC0:
  20 0000 756E6B6E 		.ascii	"unknown error number\000"
  20      6F776E20 
  20      6572726F 
  20      72206E75 
  20      6D626572 
  21 0015 000000   		.align	2
  22              	.LC1:
  23 0018 72656164 		.ascii	"reading random device error\000"
  23      696E6720 
  23      72616E64 
  23      6F6D2064 
  23      65766963 
  24              		.align	2
  25              	.LC2:
  26 0034 77696E64 		.ascii	"windows crypt init error\000"
  26      6F777320 
  26      63727970 
  26      7420696E 
  26      69742065 
  27 004d 000000   		.align	2
  28              	.LC3:
  29 0050 77696E64 		.ascii	"windows crypt generation error\000"
  29      6F777320 
  29      63727970 
  29      74206765 
  29      6E657261 
  30 006f 00       		.align	2
  31              	.LC4:
  32 0070 72616E64 		.ascii	"random device read would block error\000"
  32      6F6D2064 
  32      65766963 
  32      65207265 
  32      61642077 
  33 0095 000000   		.align	2
  34              	.LC5:
  35 0098 42616420 		.ascii	"Bad mutex, operation failed\000"
  35      6D757465 
  35      782C206F 
ARM GAS  /tmp/ccisCKci.s 			page 2


  35      70657261 
  35      74696F6E 
  36              		.align	2
  37              	.LC6:
  38 00b4 54696D65 		.ascii	"Timeout error\000"
  38      6F757420 
  38      6572726F 
  38      7200
  39 00c2 0000     		.align	2
  40              	.LC7:
  41 00c4 776F6C66 		.ascii	"wolfCrypt Operation Pending (would block / eagain) "
  41      43727970 
  41      74204F70 
  41      65726174 
  41      696F6E20 
  42 00f7 6572726F 		.ascii	"error\000"
  42      7200
  43 00fd 000000   		.align	2
  44              	.LC8:
  45 0100 776F6C66 		.ascii	"wolfCrypt operation not pending error\000"
  45      43727970 
  45      74206F70 
  45      65726174 
  45      696F6E20 
  46 0126 0000     		.align	2
  47              	.LC9:
  48 0128 6D705F69 		.ascii	"mp_init error state\000"
  48      6E697420 
  48      6572726F 
  48      72207374 
  48      61746500 
  49              		.align	2
  50              	.LC10:
  51 013c 6D705F72 		.ascii	"mp_read error state\000"
  51      65616420 
  51      6572726F 
  51      72207374 
  51      61746500 
  52              		.align	2
  53              	.LC11:
  54 0150 6D705F65 		.ascii	"mp_exptmod error state\000"
  54      7870746D 
  54      6F642065 
  54      72726F72 
  54      20737461 
  55 0167 00       		.align	2
  56              	.LC12:
  57 0168 6D705F74 		.ascii	"mp_to_xxx error state, can't convert\000"
  57      6F5F7878 
  57      78206572 
  57      726F7220 
  57      73746174 
  58 018d 000000   		.align	2
  59              	.LC13:
  60 0190 6D705F73 		.ascii	"mp_sub error state, can't subtract\000"
  60      75622065 
  60      72726F72 
ARM GAS  /tmp/ccisCKci.s 			page 3


  60      20737461 
  60      74652C20 
  61 01b3 00       		.align	2
  62              	.LC14:
  63 01b4 6D705F61 		.ascii	"mp_add error state, can't add\000"
  63      64642065 
  63      72726F72 
  63      20737461 
  63      74652C20 
  64 01d2 0000     		.align	2
  65              	.LC15:
  66 01d4 6D705F6D 		.ascii	"mp_mul error state, can't multiply\000"
  66      756C2065 
  66      72726F72 
  66      20737461 
  66      74652C20 
  67 01f7 00       		.align	2
  68              	.LC16:
  69 01f8 6D705F6D 		.ascii	"mp_mulmod error state, can't multiply mod\000"
  69      756C6D6F 
  69      64206572 
  69      726F7220 
  69      73746174 
  70 0222 0000     		.align	2
  71              	.LC17:
  72 0224 6D705F6D 		.ascii	"mp_mod error state, can't mod\000"
  72      6F642065 
  72      72726F72 
  72      20737461 
  72      74652C20 
  73 0242 0000     		.align	2
  74              	.LC18:
  75 0244 6D705F69 		.ascii	"mp_invmod error state, can't inv mod\000"
  75      6E766D6F 
  75      64206572 
  75      726F7220 
  75      73746174 
  76 0269 000000   		.align	2
  77              	.LC19:
  78 026c 6D705F63 		.ascii	"mp_cmp error state\000"
  78      6D702065 
  78      72726F72 
  78      20737461 
  78      746500
  79 027f 00       		.align	2
  80              	.LC20:
  81 0280 6D70207A 		.ascii	"mp zero result, not expected\000"
  81      65726F20 
  81      72657375 
  81      6C742C20 
  81      6E6F7420 
  82 029d 000000   		.align	2
  83              	.LC21:
  84 02a0 6F757420 		.ascii	"out of memory error\000"
  84      6F66206D 
  84      656D6F72 
  84      79206572 
ARM GAS  /tmp/ccisCKci.s 			page 4


  84      726F7200 
  85              		.align	2
  86              	.LC22:
  87 02b4 56617269 		.ascii	"Variable state modified by different thread\000"
  87      61626C65 
  87      20737461 
  87      7465206D 
  87      6F646966 
  88              		.align	2
  89              	.LC23:
  90 02e0 52534120 		.ascii	"RSA wrong block type for RSA function\000"
  90      77726F6E 
  90      6720626C 
  90      6F636B20 
  90      74797065 
  91 0306 0000     		.align	2
  92              	.LC24:
  93 0308 52534120 		.ascii	"RSA buffer error, output too small or input too big"
  93      62756666 
  93      65722065 
  93      72726F72 
  93      2C206F75 
  94 033b 00       		.ascii	"\000"
  95              		.align	2
  96              	.LC25:
  97 033c 42756666 		.ascii	"Buffer error, output too small or input too big\000"
  97      65722065 
  97      72726F72 
  97      2C206F75 
  97      74707574 
  98              		.align	2
  99              	.LC26:
 100 036c 53657474 		.ascii	"Setting Cert AlgoID error\000"
 100      696E6720 
 100      43657274 
 100      20416C67 
 100      6F494420 
 101 0386 0000     		.align	2
 102              	.LC27:
 103 0388 53657474 		.ascii	"Setting Cert Public Key error\000"
 103      696E6720 
 103      43657274 
 103      20507562 
 103      6C696320 
 104 03a6 0000     		.align	2
 105              	.LC28:
 106 03a8 53657474 		.ascii	"Setting Cert Date validity error\000"
 106      696E6720 
 106      43657274 
 106      20446174 
 106      65207661 
 107 03c9 000000   		.align	2
 108              	.LC29:
 109 03cc 53657474 		.ascii	"Setting Cert Subject name error\000"
 109      696E6720 
 109      43657274 
 109      20537562 
ARM GAS  /tmp/ccisCKci.s 			page 5


 109      6A656374 
 110              		.align	2
 111              	.LC30:
 112 03ec 53657474 		.ascii	"Setting Cert Issuer name error\000"
 112      696E6720 
 112      43657274 
 112      20497373 
 112      75657220 
 113 040b 00       		.align	2
 114              	.LC31:
 115 040c 53657474 		.ascii	"Setting basic constraint CA true error\000"
 115      696E6720 
 115      62617369 
 115      6320636F 
 115      6E737472 
 116 0433 00       		.align	2
 117              	.LC32:
 118 0434 53657474 		.ascii	"Setting extensions error\000"
 118      696E6720 
 118      65787465 
 118      6E73696F 
 118      6E732065 
 119 044d 000000   		.align	2
 120              	.LC33:
 121 0450 41534E20 		.ascii	"ASN parsing error, invalid input\000"
 121      70617273 
 121      696E6720 
 121      6572726F 
 121      722C2069 
 122 0471 000000   		.align	2
 123              	.LC34:
 124 0474 41534E20 		.ascii	"ASN version error, invalid number\000"
 124      76657273 
 124      696F6E20 
 124      6572726F 
 124      722C2069 
 125 0496 0000     		.align	2
 126              	.LC35:
 127 0498 41534E20 		.ascii	"ASN get big int error, invalid data\000"
 127      67657420 
 127      62696720 
 127      696E7420 
 127      6572726F 
 128              		.align	2
 129              	.LC36:
 130 04bc 41534E20 		.ascii	"ASN key init error, invalid input\000"
 130      6B657920 
 130      696E6974 
 130      20657272 
 130      6F722C20 
 131 04de 0000     		.align	2
 132              	.LC37:
 133 04e0 41534E20 		.ascii	"ASN object id error, invalid id\000"
 133      6F626A65 
 133      63742069 
 133      64206572 
 133      726F722C 
ARM GAS  /tmp/ccisCKci.s 			page 6


 134              		.align	2
 135              	.LC38:
 136 0500 41534E20 		.ascii	"ASN tag error, not null\000"
 136      74616720 
 136      6572726F 
 136      722C206E 
 136      6F74206E 
 137              		.align	2
 138              	.LC39:
 139 0518 41534E20 		.ascii	"ASN expect error, not zero\000"
 139      65787065 
 139      63742065 
 139      72726F72 
 139      2C206E6F 
 140 0533 00       		.align	2
 141              	.LC40:
 142 0534 41534E20 		.ascii	"ASN bit string error, wrong id\000"
 142      62697420 
 142      73747269 
 142      6E672065 
 142      72726F72 
 143 0553 00       		.align	2
 144              	.LC41:
 145 0554 41534E20 		.ascii	"ASN oid error, unknown sum id\000"
 145      6F696420 
 145      6572726F 
 145      722C2075 
 145      6E6B6E6F 
 146 0572 0000     		.align	2
 147              	.LC42:
 148 0574 41534E20 		.ascii	"ASN date error, bad size\000"
 148      64617465 
 148      20657272 
 148      6F722C20 
 148      62616420 
 149 058d 000000   		.align	2
 150              	.LC43:
 151 0590 41534E20 		.ascii	"ASN date error, current date before\000"
 151      64617465 
 151      20657272 
 151      6F722C20 
 151      63757272 
 152              		.align	2
 153              	.LC44:
 154 05b4 41534E20 		.ascii	"ASN date error, current date after\000"
 154      64617465 
 154      20657272 
 154      6F722C20 
 154      63757272 
 155 05d7 00       		.align	2
 156              	.LC45:
 157 05d8 41534E20 		.ascii	"ASN signature error, mismatched oid\000"
 157      7369676E 
 157      61747572 
 157      65206572 
 157      726F722C 
 158              		.align	2
ARM GAS  /tmp/ccisCKci.s 			page 7


 159              	.LC46:
 160 05fc 41534E20 		.ascii	"ASN time error, unknown time type\000"
 160      74696D65 
 160      20657272 
 160      6F722C20 
 160      756E6B6E 
 161 061e 0000     		.align	2
 162              	.LC47:
 163 0620 41534E20 		.ascii	"ASN input error, not enough data\000"
 163      696E7075 
 163      74206572 
 163      726F722C 
 163      206E6F74 
 164 0641 000000   		.align	2
 165              	.LC48:
 166 0644 41534E20 		.ascii	"ASN sig error, confirm failure\000"
 166      73696720 
 166      6572726F 
 166      722C2063 
 166      6F6E6669 
 167 0663 00       		.align	2
 168              	.LC49:
 169 0664 41534E20 		.ascii	"ASN sig error, unsupported hash type\000"
 169      73696720 
 169      6572726F 
 169      722C2075 
 169      6E737570 
 170 0689 000000   		.align	2
 171              	.LC50:
 172 068c 41534E20 		.ascii	"ASN sig error, unsupported key type\000"
 172      73696720 
 172      6572726F 
 172      722C2075 
 172      6E737570 
 173              		.align	2
 174              	.LC51:
 175 06b0 41534E20 		.ascii	"ASN NTRU key decode error, invalid input\000"
 175      4E545255 
 175      206B6579 
 175      20646563 
 175      6F646520 
 176 06d9 000000   		.align	2
 177              	.LC52:
 178 06dc 582E3530 		.ascii	"X.509 Critical extension ignored or invalid\000"
 178      39204372 
 178      69746963 
 178      616C2065 
 178      7874656E 
 179              		.align	2
 180              	.LC53:
 181 0708 41534E20 		.ascii	"ASN alternate name error\000"
 181      616C7465 
 181      726E6174 
 181      65206E61 
 181      6D652065 
 182 0721 000000   		.align	2
 183              	.LC54:
ARM GAS  /tmp/ccisCKci.s 			page 8


 184 0724 45434320 		.ascii	"ECC input argument wrong type, invalid input\000"
 184      696E7075 
 184      74206172 
 184      67756D65 
 184      6E742077 
 185 0751 000000   		.align	2
 186              	.LC55:
 187 0754 45434320 		.ascii	"ECC ASN1 bad key data, invalid input\000"
 187      41534E31 
 187      20626164 
 187      206B6579 
 187      20646174 
 188 0779 000000   		.align	2
 189              	.LC56:
 190 077c 45434320 		.ascii	"ECC curve sum OID unsupported, invalid input\000"
 190      63757276 
 190      65207375 
 190      6D204F49 
 190      4420756E 
 191 07a9 000000   		.align	2
 192              	.LC57:
 193 07ac 42616420 		.ascii	"Bad function argument\000"
 193      66756E63 
 193      74696F6E 
 193      20617267 
 193      756D656E 
 194 07c2 0000     		.align	2
 195              	.LC58:
 196 07c4 46656174 		.ascii	"Feature not compiled in\000"
 196      75726520 
 196      6E6F7420 
 196      636F6D70 
 196      696C6564 
 197              		.align	2
 198              	.LC59:
 199 07dc 556E6963 		.ascii	"Unicode password too big\000"
 199      6F646520 
 199      70617373 
 199      776F7264 
 199      20746F6F 
 200 07f5 000000   		.align	2
 201              	.LC60:
 202 07f8 4E6F2070 		.ascii	"No password provided by user\000"
 202      61737377 
 202      6F726420 
 202      70726F76 
 202      69646564 
 203 0815 000000   		.align	2
 204              	.LC61:
 205 0818 416C7420 		.ascii	"Alt Name problem, too big\000"
 205      4E616D65 
 205      2070726F 
 205      626C656D 
 205      2C20746F 
 206 0832 0000     		.align	2
 207              	.LC62:
 208 0834 4145532D 		.ascii	"AES-GCM Authentication check fail\000"
ARM GAS  /tmp/ccisCKci.s 			page 9


 208      47434D20 
 208      41757468 
 208      656E7469 
 208      63617469 
 209 0856 0000     		.align	2
 210              	.LC63:
 211 0858 4145532D 		.ascii	"AES-CCM Authentication check fail\000"
 211      43434D20 
 211      41757468 
 211      656E7469 
 211      63617469 
 212 087a 0000     		.align	2
 213              	.LC64:
 214 087c 4173796E 		.ascii	"Async Init error\000"
 214      6320496E 
 214      69742065 
 214      72726F72 
 214      00
 215 088d 000000   		.align	2
 216              	.LC65:
 217 0890 436F6D70 		.ascii	"Compress Init error\000"
 217      72657373 
 217      20496E69 
 217      74206572 
 217      726F7200 
 218              		.align	2
 219              	.LC66:
 220 08a4 436F6D70 		.ascii	"Compress error\000"
 220      72657373 
 220      20657272 
 220      6F7200
 221 08b3 00       		.align	2
 222              	.LC67:
 223 08b4 4465436F 		.ascii	"DeCompress Init error\000"
 223      6D707265 
 223      73732049 
 223      6E697420 
 223      6572726F 
 224 08ca 0000     		.align	2
 225              	.LC68:
 226 08cc 4465436F 		.ascii	"DeCompress error\000"
 226      6D707265 
 226      73732065 
 226      72726F72 
 226      00
 227 08dd 000000   		.align	2
 228              	.LC69:
 229 08e0 42616420 		.ascii	"Bad alignment error, no alloc help\000"
 229      616C6967 
 229      6E6D656E 
 229      74206572 
 229      726F722C 
 230 0903 00       		.align	2
 231              	.LC70:
 232 0904 41534E20 		.ascii	"ASN no signer error to confirm failure\000"
 232      6E6F2073 
 232      69676E65 
ARM GAS  /tmp/ccisCKci.s 			page 10


 232      72206572 
 232      726F7220 
 233 092b 00       		.align	2
 234              	.LC71:
 235 092c 41534E20 		.ascii	"ASN CRL sig error, confirm failure\000"
 235      43524C20 
 235      73696720 
 235      6572726F 
 235      722C2063 
 236 094f 00       		.align	2
 237              	.LC72:
 238 0950 41534E20 		.ascii	"ASN CRL no signer error to confirm failure\000"
 238      43524C20 
 238      6E6F2073 
 238      69676E65 
 238      72206572 
 239 097b 00       		.align	2
 240              	.LC73:
 241 097c 41534E20 		.ascii	"ASN OCSP sig error, confirm failure\000"
 241      4F435350 
 241      20736967 
 241      20657272 
 241      6F722C20 
 242              		.align	2
 243              	.LC74:
 244 09a0 41534E20 		.ascii	"ASN no PEM Header Error\000"
 244      6E6F2050 
 244      454D2048 
 244      65616465 
 244      72204572 
 245              		.align	2
 246              	.LC75:
 247 09b8 42616420 		.ascii	"Bad state operation\000"
 247      73746174 
 247      65206F70 
 247      65726174 
 247      696F6E00 
 248              		.align	2
 249              	.LC76:
 250 09cc 42616420 		.ascii	"Bad padding, message wrong length\000"
 250      70616464 
 250      696E672C 
 250      206D6573 
 250      73616765 
 251 09ee 0000     		.align	2
 252              	.LC77:
 253 09f0 53657474 		.ascii	"Setting cert request attributes error\000"
 253      696E6720 
 253      63657274 
 253      20726571 
 253      75657374 
 254 0a16 0000     		.align	2
 255              	.LC78:
 256 0a18 504B4353 		.ascii	"PKCS#7 error: mismatched OID value\000"
 256      23372065 
 256      72726F72 
 256      3A206D69 
ARM GAS  /tmp/ccisCKci.s 			page 11


 256      736D6174 
 257 0a3b 00       		.align	2
 258              	.LC79:
 259 0a3c 504B4353 		.ascii	"PKCS#7 error: no matching recipient found\000"
 259      23372065 
 259      72726F72 
 259      3A206E6F 
 259      206D6174 
 260 0a66 0000     		.align	2
 261              	.LC80:
 262 0a68 504B4353 		.ascii	"PKCS#7 operations wants more input, call again\000"
 262      2337206F 
 262      70657261 
 262      74696F6E 
 262      73207761 
 263 0a97 00       		.align	2
 264              	.LC81:
 265 0a98 46495053 		.ascii	"FIPS mode not allowed error\000"
 265      206D6F64 
 265      65206E6F 
 265      7420616C 
 265      6C6F7765 
 266              		.align	2
 267              	.LC82:
 268 0ab4 4E616D65 		.ascii	"Name Constraint error\000"
 268      20436F6E 
 268      73747261 
 268      696E7420 
 268      6572726F 
 269 0aca 0000     		.align	2
 270              	.LC83:
 271 0acc 52616E64 		.ascii	"Random Number Generator failed\000"
 271      6F6D204E 
 271      756D6265 
 271      72204765 
 271      6E657261 
 272 0aeb 00       		.align	2
 273              	.LC84:
 274 0aec 46495053 		.ascii	"FIPS Mode HMAC Minimum Key Length error\000"
 274      204D6F64 
 274      6520484D 
 274      4143204D 
 274      696E696D 
 275              		.align	2
 276              	.LC85:
 277 0b14 52736120 		.ascii	"Rsa Padding error\000"
 277      50616464 
 277      696E6720 
 277      6572726F 
 277      7200
 278 0b26 0000     		.align	2
 279              	.LC86:
 280 0b28 4F757470 		.ascii	"Output length only set, not for other use error\000"
 280      7574206C 
 280      656E6774 
 280      68206F6E 
 280      6C792073 
ARM GAS  /tmp/ccisCKci.s 			page 12


 281              		.align	2
 282              	.LC87:
 283 0b58 496E2043 		.ascii	"In Core Integrity check FIPS error\000"
 283      6F726520 
 283      496E7465 
 283      67726974 
 283      79206368 
 284 0b7b 00       		.align	2
 285              	.LC88:
 286 0b7c 41455320 		.ascii	"AES Known Answer Test check FIPS error\000"
 286      4B6E6F77 
 286      6E20416E 
 286      73776572 
 286      20546573 
 287 0ba3 00       		.align	2
 288              	.LC89:
 289 0ba4 44455333 		.ascii	"DES3 Known Answer Test check FIPS error\000"
 289      204B6E6F 
 289      776E2041 
 289      6E737765 
 289      72205465 
 290              		.align	2
 291              	.LC90:
 292 0bcc 484D4143 		.ascii	"HMAC Known Answer Test check FIPS error\000"
 292      204B6E6F 
 292      776E2041 
 292      6E737765 
 292      72205465 
 293              		.align	2
 294              	.LC91:
 295 0bf4 52534120 		.ascii	"RSA Known Answer Test check FIPS error\000"
 295      4B6E6F77 
 295      6E20416E 
 295      73776572 
 295      20546573 
 296 0c1b 00       		.align	2
 297              	.LC92:
 298 0c1c 44524247 		.ascii	"DRBG Known Answer Test check FIPS error\000"
 298      204B6E6F 
 298      776E2041 
 298      6E737765 
 298      72205465 
 299              		.align	2
 300              	.LC93:
 301 0c44 44524247 		.ascii	"DRBG Continuous Test FIPS error\000"
 301      20436F6E 
 301      74696E75 
 301      6F757320 
 301      54657374 
 302              		.align	2
 303              	.LC94:
 304 0c64 41455347 		.ascii	"AESGCM Known Answer Test check FIPS error\000"
 304      434D204B 
 304      6E6F776E 
 304      20416E73 
 304      77657220 
 305 0c8e 0000     		.align	2
ARM GAS  /tmp/ccisCKci.s 			page 13


 306              	.LC95:
 307 0c90 54687265 		.ascii	"Thread Storage Key Create error\000"
 307      61642053 
 307      746F7261 
 307      6765204B 
 307      65792043 
 308              		.align	2
 309              	.LC96:
 310 0cb0 54687265 		.ascii	"Thread Storage Set error\000"
 310      61642053 
 310      746F7261 
 310      67652053 
 310      65742065 
 311 0cc9 000000   		.align	2
 312              	.LC97:
 313 0ccc 4D414320 		.ascii	"MAC comparison failed\000"
 313      636F6D70 
 313      61726973 
 313      6F6E2066 
 313      61696C65 
 314 0ce2 0000     		.align	2
 315              	.LC98:
 316 0ce4 45434320 		.ascii	"ECC is point on curve failed\000"
 316      69732070 
 316      6F696E74 
 316      206F6E20 
 316      63757276 
 317 0d01 000000   		.align	2
 318              	.LC99:
 319 0d04 20454343 		.ascii	" ECC point at infinity error\000"
 319      20706F69 
 319      6E742061 
 319      7420696E 
 319      66696E69 
 320 0d21 000000   		.align	2
 321              	.LC100:
 322 0d24 20454343 		.ascii	" ECC Qx or Qy out of range error\000"
 322      20517820 
 322      6F722051 
 322      79206F75 
 322      74206F66 
 323 0d45 000000   		.align	2
 324              	.LC101:
 325 0d48 20454343 		.ascii	" ECC private key is not valid error\000"
 325      20707269 
 325      76617465 
 325      206B6579 
 325      20697320 
 326              		.align	2
 327              	.LC102:
 328 0d6c 53525020 		.ascii	"SRP function called in the wrong order error\000"
 328      66756E63 
 328      74696F6E 
 328      2063616C 
 328      6C656420 
 329 0d99 000000   		.align	2
 330              	.LC103:
ARM GAS  /tmp/ccisCKci.s 			page 14


 331 0d9c 53525020 		.ascii	"SRP proof verification error\000"
 331      70726F6F 
 331      66207665 
 331      72696669 
 331      63617469 
 332 0db9 000000   		.align	2
 333              	.LC104:
 334 0dbc 53525020 		.ascii	"SRP bad key values error\000"
 334      62616420 
 334      6B657920 
 334      76616C75 
 334      65732065 
 335 0dd5 000000   		.align	2
 336              	.LC105:
 337 0dd8 41534E20 		.ascii	"ASN no Subject Key Identifier found error\000"
 337      6E6F2053 
 337      75626A65 
 337      6374204B 
 337      65792049 
 338 0e02 0000     		.align	2
 339              	.LC106:
 340 0e04 41534E20 		.ascii	"ASN no Authority Key Identifier found error\000"
 340      6E6F2041 
 340      7574686F 
 340      72697479 
 340      204B6579 
 341              		.align	2
 342              	.LC107:
 343 0e30 41534E20 		.ascii	"ASN no Key Usage found error\000"
 343      6E6F204B 
 343      65792055 
 343      73616765 
 343      20666F75 
 344 0e4d 000000   		.align	2
 345              	.LC108:
 346 0e50 53657474 		.ascii	"Setting Subject Key Identifier error\000"
 346      696E6720 
 346      5375626A 
 346      65637420 
 346      4B657920 
 347 0e75 000000   		.align	2
 348              	.LC109:
 349 0e78 53657474 		.ascii	"Setting Authority Key Identifier error\000"
 349      696E6720 
 349      41757468 
 349      6F726974 
 349      79204B65 
 350 0e9f 00       		.align	2
 351              	.LC110:
 352 0ea0 4B657920 		.ascii	"Key Usage value error\000"
 352      55736167 
 352      65207661 
 352      6C756520 
 352      6572726F 
 353 0eb6 0000     		.align	2
 354              	.LC111:
 355 0eb8 45787465 		.ascii	"Extended Key Usage value error\000"
ARM GAS  /tmp/ccisCKci.s 			page 15


 355      6E646564 
 355      204B6579 
 355      20557361 
 355      67652076 
 356 0ed7 00       		.align	2
 357              	.LC112:
 358 0ed8 53657474 		.ascii	"Setting Certificate Policies error\000"
 358      696E6720 
 358      43657274 
 358      69666963 
 358      61746520 
 359 0efb 00       		.align	2
 360              	.LC113:
 361 0efc 776F6C66 		.ascii	"wolfCrypt Initialize Failure error\000"
 361      43727970 
 361      7420496E 
 361      69746961 
 361      6C697A65 
 362 0f1f 00       		.align	2
 363              	.LC114:
 364 0f20 5369676E 		.ascii	"Signature verify error\000"
 364      61747572 
 364      65207665 
 364      72696679 
 364      20657272 
 365 0f37 00       		.align	2
 366              	.LC115:
 367 0f38 42616420 		.ascii	"Bad condition variable operation error\000"
 367      636F6E64 
 367      6974696F 
 367      6E207661 
 367      72696162 
 368 0f5f 00       		.align	2
 369              	.LC116:
 370 0f60 5369676E 		.ascii	"Signature type not enabled/available\000"
 370      61747572 
 370      65207479 
 370      7065206E 
 370      6F742065 
 371 0f85 000000   		.align	2
 372              	.LC117:
 373 0f88 48617368 		.ascii	"Hash type not enabled/available\000"
 373      20747970 
 373      65206E6F 
 373      7420656E 
 373      61626C65 
 374              		.align	2
 375              	.LC118:
 376 0fa8 4B657920 		.ascii	"Key size error, either too small or large\000"
 376      73697A65 
 376      20657272 
 376      6F722C20 
 376      65697468 
 377 0fd2 0000     		.align	2
 378              	.LC119:
 379 0fd4 436F756E 		.ascii	"Country code size error, either too small or large\000"
 379      74727920 
ARM GAS  /tmp/ccisCKci.s 			page 16


 379      636F6465 
 379      2073697A 
 379      65206572 
 380 1007 00       		.align	2
 381              	.LC120:
 382 1008 524E4720 		.ascii	"RNG required but not provided\000"
 382      72657175 
 382      69726564 
 382      20627574 
 382      206E6F74 
 383 1026 0000     		.align	2
 384              	.LC121:
 385 1028 41534E20 		.ascii	"ASN CA path length value too large error\000"
 385      43412070 
 385      61746820 
 385      6C656E67 
 385      74682076 
 386 1051 000000   		.align	2
 387              	.LC122:
 388 1054 41534E20 		.ascii	"ASN CA path length larger than signer error\000"
 388      43412070 
 388      61746820 
 388      6C656E67 
 388      7468206C 
 389              		.align	2
 390              	.LC123:
 391 1080 556E7375 		.ascii	"Unsupported key wrap algorithm error\000"
 391      70706F72 
 391      74656420 
 391      6B657920 
 391      77726170 
 392 10a5 000000   		.align	2
 393              	.LC124:
 394 10a8 44656372 		.ascii	"Decrypted AES key wrap IV does not match expected\000"
 394      79707465 
 394      64204145 
 394      53206B65 
 394      79207772 
 395 10da 0000     		.align	2
 396              	.LC125:
 397 10dc 776F6C66 		.ascii	"wolfcrypt cleanup failed\000"
 397      63727970 
 397      7420636C 
 397      65616E75 
 397      70206661 
 398 10f5 000000   		.align	2
 399              	.LC126:
 400 10f8 776F6C66 		.ascii	"wolfcrypt FIPS ECC CDH Known Answer Test Failure\000"
 400      63727970 
 400      74204649 
 400      50532045 
 400      43432043 
 401 1129 000000   		.align	2
 402              	.LC127:
 403 112c 44482043 		.ascii	"DH Check Public Key failure\000"
 403      6865636B 
 403      20507562 
ARM GAS  /tmp/ccisCKci.s 			page 17


 403      6C696320 
 403      4B657920 
 404              		.align	2
 405              	.LC128:
 406 1148 42616420 		.ascii	"Bad path for opendir error\000"
 406      70617468 
 406      20666F72 
 406      206F7065 
 406      6E646972 
 407 1163 00       		.align	2
 408              	.LC129:
 409 1164 4173796E 		.ascii	"Async operation error\000"
 409      63206F70 
 409      65726174 
 409      696F6E20 
 409      6572726F 
 410 117a 0000     		.align	2
 411              	.LC130:
 412 117c 496E7661 		.ascii	"Invalid OCSP Responder, missing specific key usage "
 412      6C696420 
 412      4F435350 
 412      20526573 
 412      706F6E64 
 413 11af 65787465 		.ascii	"extensions\000"
 413      6E73696F 
 413      6E7300
 414 11ba 0000     		.align	2
 415              	.LC131:
 416 11bc 496E7661 		.ascii	"Invalid use of private only ECC key\000"
 416      6C696420 
 416      75736520 
 416      6F662070 
 416      72697661 
 417              		.align	2
 418              	.LC132:
 419 11e0 4572726F 		.ascii	"Error with hardware crypto use\000"
 419      72207769 
 419      74682068 
 419      61726477 
 419      61726520 
 420 11ff 00       		.align	2
 421              	.LC133:
 422 1200 48617264 		.ascii	"Hardware waiting on resource\000"
 422      77617265 
 422      20776169 
 422      74696E67 
 422      206F6E20 
 423 121d 000000   		.align	2
 424              	.LC134:
 425 1220 50535320 		.ascii	"PSS - Length of salt is too big for hash algorithm\000"
 425      2D204C65 
 425      6E677468 
 425      206F6620 
 425      73616C74 
 426 1253 00       		.align	2
 427              	.LC135:
 428 1254 556E6162 		.ascii	"Unable to find a prime for RSA key\000"
ARM GAS  /tmp/ccisCKci.s 			page 18


 428      6C652074 
 428      6F206669 
 428      6E642061 
 428      20707269 
 429 1277 00       		.align	2
 430              	.LC136:
 431 1278 556E6162 		.ascii	"Unable to decode an indefinite length encoded messa"
 431      6C652074 
 431      6F206465 
 431      636F6465 
 431      20616E20 
 432 12ab 676500   		.ascii	"ge\000"
 433 12ae 0000     		.align	2
 434              	.LC137:
 435 12b0 43697068 		.ascii	"Ciphertext to decrypt is out of range\000"
 435      65727465 
 435      78742074 
 435      6F206465 
 435      63727970 
 436 12d6 0000     		.align	2
 437              	.LC138:
 438 12d8 776F6C66 		.ascii	"wolfcrypt FIPS RSA-PSS Pairwise Agreement Test Fail"
 438      63727970 
 438      74204649 
 438      50532052 
 438      53412D50 
 439 130b 75726500 		.ascii	"ure\000"
 440 130f 00       		.align	2
 441              	.LC139:
 442 1310 776F6C66 		.ascii	"wolfcrypt FIPS ECDSA Pairwise Agreement Test Failur"
 442      63727970 
 442      74204649 
 442      50532045 
 442      43445341 
 443 1343 6500     		.ascii	"e\000"
 444 1345 000000   		.align	2
 445              	.LC140:
 446 1348 776F6C66 		.ascii	"wolfcrypt FIPS DH Known Answer Test Failure\000"
 446      63727970 
 446      74204649 
 446      50532044 
 446      48204B6E 
 447              		.align	2
 448              	.LC141:
 449 1374 41455343 		.ascii	"AESCCM Known Answer Test check FIPS error\000"
 449      434D204B 
 449      6E6F776E 
 449      20416E73 
 449      77657220 
 450 139e 0000     		.align	2
 451              	.LC142:
 452 13a0 5348412D 		.ascii	"SHA-3 Known Answer Test check FIPS error\000"
 452      33204B6E 
 452      6F776E20 
 452      416E7377 
 452      65722054 
 453 13c9 000000   		.align	2
ARM GAS  /tmp/ccisCKci.s 			page 19


 454              	.LC143:
 455 13cc 776F6C66 		.ascii	"wolfcrypt FIPS ECDHE Known Answer Test Failure\000"
 455      63727970 
 455      74204649 
 455      50532045 
 455      43444845 
 456 13fb 00       		.align	2
 457              	.LC144:
 458 13fc 4145532D 		.ascii	"AES-GCM invocation counter overflow\000"
 458      47434D20 
 458      696E766F 
 458      63617469 
 458      6F6E2063 
 459              		.align	2
 460              	.LC145:
 461 1420 4145532D 		.ascii	"AES-CCM invocation counter overflow\000"
 461      43434D20 
 461      696E766F 
 461      63617469 
 461      6F6E2063 
 462              		.align	2
 463              	.LC146:
 464 1444 52534120 		.ascii	"RSA Key Pair-Wise Consistency check fail\000"
 464      4B657920 
 464      50616972 
 464      2D576973 
 464      6520436F 
 465 146d 000000   		.align	2
 466              	.LC147:
 467 1470 44482043 		.ascii	"DH Check Private Key failure\000"
 467      6865636B 
 467      20507269 
 467      76617465 
 467      204B6579 
 468 148d 000000   		.align	2
 469              	.LC148:
 470 1490 41465F41 		.ascii	"AF_ALG socket error\000"
 470      4C472073 
 470      6F636B65 
 470      74206572 
 470      726F7200 
 471              		.align	2
 472              	.LC149:
 473 14a4 4572726F 		.ascii	"Error with /dev/crypto\000"
 473      72207769 
 473      7468202F 
 473      6465762F 
 473      63727970 
 474 14bb 00       		.align	2
 475              	.LC150:
 476 14bc 7A6C6962 		.ascii	"zlib init error\000"
 476      20696E69 
 476      74206572 
 476      726F7200 
 477              		.align	2
 478              	.LC151:
 479 14cc 7A6C6962 		.ascii	"zlib compress error\000"
ARM GAS  /tmp/ccisCKci.s 			page 20


 479      20636F6D 
 479      70726573 
 479      73206572 
 479      726F7200 
 480              		.align	2
 481              	.LC152:
 482 14e0 7A6C6962 		.ascii	"zlib decompress error\000"
 482      20646563 
 482      6F6D7072 
 482      65737320 
 482      6572726F 
 483 14f6 0000     		.align	2
 484              	.LC153:
 485 14f8 4E6F2073 		.ascii	"No signer in PKCS#7 signed data\000"
 485      69676E65 
 485      7220696E 
 485      20504B43 
 485      53233720 
 486              		.align	2
 487              	.LC154:
 488 1518 43727970 		.ascii	"Crypto callback unavailable\000"
 488      746F2063 
 488      616C6C62 
 488      61636B20 
 488      756E6176 
 489              		.align	2
 490              	.LC155:
 491 1534 5369676E 		.ascii	"Signature found but no certificate to verify\000"
 491      61747572 
 491      6520666F 
 491      756E6420 
 491      62757420 
 492 1561 000000   		.align	2
 493              	.LC156:
 494 1564 50535320 		.ascii	"PSS - Salt length unable to be recovered\000"
 494      2D205361 
 494      6C74206C 
 494      656E6774 
 494      6820756E 
 495 158d 000000   		.align	2
 496              	.LC157:
 497 1590 776F6C66 		.ascii	"wolfcrypt - ChaCha20_Poly1305 limit overflow 4GB\000"
 497      63727970 
 497      74202D20 
 497      43686143 
 497      68613230 
 498 15c1 000000   		.align	2
 499              	.LC158:
 500 15c4 41534E20 		.ascii	"ASN self-signed certificate error\000"
 500      73656C66 
 500      2D736967 
 500      6E656420 
 500      63657274 
 501 15e6 0000     		.align	2
 502              	.LC159:
 503 15e8 6F70656E 		.ascii	"opening random device error\000"
 503      696E6720 
ARM GAS  /tmp/ccisCKci.s 			page 21


 503      72616E64 
 503      6F6D2064 
 503      65766963 
 504              		.section	.text.wc_GetErrorString,"ax",%progbits
 505              		.align	1
 506              		.global	wc_GetErrorString
 507              		.arch armv7e-m
 508              		.syntax unified
 509              		.thumb
 510              		.thumb_func
 511              		.fpu fpv4-sp-d16
 513              	wc_GetErrorString:
 514              	.LVL0:
 515              	.LFB136:
 516              		.file 1 "Middlewares/Third_Party/wolfSSL_wolfSSL_wolfSSL/wolfssl/wolfcrypt/src/error.c"
   1:Middlewares/Third_Party/wolfSSL_wolfSSL_wolfSSL/wolfssl/wolfcrypt/src/error.c **** /* error.c
   2:Middlewares/Third_Party/wolfSSL_wolfSSL_wolfSSL/wolfssl/wolfcrypt/src/error.c ****  *
   3:Middlewares/Third_Party/wolfSSL_wolfSSL_wolfSSL/wolfssl/wolfcrypt/src/error.c ****  * Copyright (C) 2006-2020 wolfSSL Inc.
   4:Middlewares/Third_Party/wolfSSL_wolfSSL_wolfSSL/wolfssl/wolfcrypt/src/error.c ****  *
   5:Middlewares/Third_Party/wolfSSL_wolfSSL_wolfSSL/wolfssl/wolfcrypt/src/error.c ****  * This file is part of wolfSSL.
   6:Middlewares/Third_Party/wolfSSL_wolfSSL_wolfSSL/wolfssl/wolfcrypt/src/error.c ****  *
   7:Middlewares/Third_Party/wolfSSL_wolfSSL_wolfSSL/wolfssl/wolfcrypt/src/error.c ****  * wolfSSL is free software; you can redistribute it and/or modify
   8:Middlewares/Third_Party/wolfSSL_wolfSSL_wolfSSL/wolfssl/wolfcrypt/src/error.c ****  * it under the terms of the GNU General Public License as published by
   9:Middlewares/Third_Party/wolfSSL_wolfSSL_wolfSSL/wolfssl/wolfcrypt/src/error.c ****  * the Free Software Foundation; either version 2 of the License, or
  10:Middlewares/Third_Party/wolfSSL_wolfSSL_wolfSSL/wolfssl/wolfcrypt/src/error.c ****  * (at your option) any later version.
  11:Middlewares/Third_Party/wolfSSL_wolfSSL_wolfSSL/wolfssl/wolfcrypt/src/error.c ****  *
  12:Middlewares/Third_Party/wolfSSL_wolfSSL_wolfSSL/wolfssl/wolfcrypt/src/error.c ****  * wolfSSL is distributed in the hope that it will be useful,
  13:Middlewares/Third_Party/wolfSSL_wolfSSL_wolfSSL/wolfssl/wolfcrypt/src/error.c ****  * but WITHOUT ANY WARRANTY; without even the implied warranty of
  14:Middlewares/Third_Party/wolfSSL_wolfSSL_wolfSSL/wolfssl/wolfcrypt/src/error.c ****  * MERCHANTABILITY or FITNESS FOR A PARTICULAR PURPOSE.  See the
  15:Middlewares/Third_Party/wolfSSL_wolfSSL_wolfSSL/wolfssl/wolfcrypt/src/error.c ****  * GNU General Public License for more details.
  16:Middlewares/Third_Party/wolfSSL_wolfSSL_wolfSSL/wolfssl/wolfcrypt/src/error.c ****  *
  17:Middlewares/Third_Party/wolfSSL_wolfSSL_wolfSSL/wolfssl/wolfcrypt/src/error.c ****  * You should have received a copy of the GNU General Public License
  18:Middlewares/Third_Party/wolfSSL_wolfSSL_wolfSSL/wolfssl/wolfcrypt/src/error.c ****  * along with this program; if not, write to the Free Software
  19:Middlewares/Third_Party/wolfSSL_wolfSSL_wolfSSL/wolfssl/wolfcrypt/src/error.c ****  * Foundation, Inc., 51 Franklin Street, Fifth Floor, Boston, MA 02110-1335, USA
  20:Middlewares/Third_Party/wolfSSL_wolfSSL_wolfSSL/wolfssl/wolfcrypt/src/error.c ****  */
  21:Middlewares/Third_Party/wolfSSL_wolfSSL_wolfSSL/wolfssl/wolfcrypt/src/error.c **** 
  22:Middlewares/Third_Party/wolfSSL_wolfSSL_wolfSSL/wolfssl/wolfcrypt/src/error.c **** 
  23:Middlewares/Third_Party/wolfSSL_wolfSSL_wolfSSL/wolfssl/wolfcrypt/src/error.c **** #ifdef HAVE_CONFIG_H
  24:Middlewares/Third_Party/wolfSSL_wolfSSL_wolfSSL/wolfssl/wolfcrypt/src/error.c ****     #include <config.h>
  25:Middlewares/Third_Party/wolfSSL_wolfSSL_wolfSSL/wolfssl/wolfcrypt/src/error.c **** #endif
  26:Middlewares/Third_Party/wolfSSL_wolfSSL_wolfSSL/wolfssl/wolfcrypt/src/error.c **** 
  27:Middlewares/Third_Party/wolfSSL_wolfSSL_wolfSSL/wolfssl/wolfcrypt/src/error.c **** #include <wolfssl/wolfcrypt/settings.h>
  28:Middlewares/Third_Party/wolfSSL_wolfSSL_wolfSSL/wolfssl/wolfcrypt/src/error.c **** 
  29:Middlewares/Third_Party/wolfSSL_wolfSSL_wolfSSL/wolfssl/wolfcrypt/src/error.c **** #include <wolfssl/wolfcrypt/error-crypt.h>
  30:Middlewares/Third_Party/wolfSSL_wolfSSL_wolfSSL/wolfssl/wolfcrypt/src/error.c **** 
  31:Middlewares/Third_Party/wolfSSL_wolfSSL_wolfSSL/wolfssl/wolfcrypt/src/error.c **** #ifdef _MSC_VER
  32:Middlewares/Third_Party/wolfSSL_wolfSSL_wolfSSL/wolfssl/wolfcrypt/src/error.c ****     /* 4996 warning to use MS extensions e.g., strcpy_s instead of XSTRNCPY */
  33:Middlewares/Third_Party/wolfSSL_wolfSSL_wolfSSL/wolfssl/wolfcrypt/src/error.c ****     #pragma warning(disable: 4996)
  34:Middlewares/Third_Party/wolfSSL_wolfSSL_wolfSSL/wolfssl/wolfcrypt/src/error.c **** #endif
  35:Middlewares/Third_Party/wolfSSL_wolfSSL_wolfSSL/wolfssl/wolfcrypt/src/error.c **** 
  36:Middlewares/Third_Party/wolfSSL_wolfSSL_wolfSSL/wolfssl/wolfcrypt/src/error.c **** #ifndef NO_ERROR_STRINGS
  37:Middlewares/Third_Party/wolfSSL_wolfSSL_wolfSSL/wolfssl/wolfcrypt/src/error.c **** const char* wc_GetErrorString(int error)
  38:Middlewares/Third_Party/wolfSSL_wolfSSL_wolfSSL/wolfssl/wolfcrypt/src/error.c **** {
 517              		.loc 1 38 1 view -0
 518              		.cfi_startproc
 519              		@ args = 0, pretend = 0, frame = 0
 520              		@ frame_needed = 0, uses_anonymous_args = 0
ARM GAS  /tmp/ccisCKci.s 			page 22


 521              		@ link register save eliminated.
  39:Middlewares/Third_Party/wolfSSL_wolfSSL_wolfSSL/wolfssl/wolfcrypt/src/error.c ****     switch (error) {
 522              		.loc 1 39 5 view .LVU1
 523 0000 00F21310 		addw	r0, r0, #275
 524              	.LVL1:
 525              		.loc 1 39 5 is_stmt 0 view .LVU2
 526 0004 AE28     		cmp	r0, #174
 527 0006 00F2EB82 		bhi	.L2
 528 000a DFE810F0 		tbh	[pc, r0, lsl #1]
 529              	.L4:
 530 000e E702     		.2byte	(.L163-.L4)/2
 531 0010 E502     		.2byte	(.L162-.L4)/2
 532 0012 E302     		.2byte	(.L161-.L4)/2
 533 0014 E102     		.2byte	(.L160-.L4)/2
 534 0016 DF02     		.2byte	(.L159-.L4)/2
 535 0018 4F01     		.2byte	(.L158-.L4)/2
 536 001a DD02     		.2byte	(.L157-.L4)/2
 537 001c DB02     		.2byte	(.L156-.L4)/2
 538 001e D902     		.2byte	(.L155-.L4)/2
 539 0020 D702     		.2byte	(.L154-.L4)/2
 540 0022 D502     		.2byte	(.L153-.L4)/2
 541 0024 D302     		.2byte	(.L152-.L4)/2
 542 0026 D102     		.2byte	(.L151-.L4)/2
 543 0028 CF02     		.2byte	(.L150-.L4)/2
 544 002a CD02     		.2byte	(.L149-.L4)/2
 545 002c CB02     		.2byte	(.L148-.L4)/2
 546 002e C902     		.2byte	(.L147-.L4)/2
 547 0030 C702     		.2byte	(.L146-.L4)/2
 548 0032 C502     		.2byte	(.L145-.L4)/2
 549 0034 C302     		.2byte	(.L144-.L4)/2
 550 0036 C102     		.2byte	(.L143-.L4)/2
 551 0038 BF02     		.2byte	(.L142-.L4)/2
 552 003a BD02     		.2byte	(.L141-.L4)/2
 553 003c BB02     		.2byte	(.L140-.L4)/2
 554 003e B902     		.2byte	(.L139-.L4)/2
 555 0040 B702     		.2byte	(.L138-.L4)/2
 556 0042 B502     		.2byte	(.L137-.L4)/2
 557 0044 B302     		.2byte	(.L136-.L4)/2
 558 0046 8D01     		.2byte	(.L135-.L4)/2
 559 0048 B102     		.2byte	(.L134-.L4)/2
 560 004a AD02     		.2byte	(.L133-.L4)/2
 561 004c AB02     		.2byte	(.L132-.L4)/2
 562 004e A902     		.2byte	(.L131-.L4)/2
 563 0050 AB01     		.2byte	(.L130-.L4)/2
 564 0052 A901     		.2byte	(.L129-.L4)/2
 565 0054 A701     		.2byte	(.L128-.L4)/2
 566 0056 A501     		.2byte	(.L127-.L4)/2
 567 0058 A301     		.2byte	(.L126-.L4)/2
 568 005a A101     		.2byte	(.L125-.L4)/2
 569 005c 9F01     		.2byte	(.L124-.L4)/2
 570 005e 9D01     		.2byte	(.L123-.L4)/2
 571 0060 9B01     		.2byte	(.L122-.L4)/2
 572 0062 E902     		.2byte	(.L2-.L4)/2
 573 0064 9901     		.2byte	(.L121-.L4)/2
 574 0066 9701     		.2byte	(.L120-.L4)/2
 575 0068 9501     		.2byte	(.L119-.L4)/2
 576 006a 9301     		.2byte	(.L118-.L4)/2
ARM GAS  /tmp/ccisCKci.s 			page 23


 577 006c 9101     		.2byte	(.L117-.L4)/2
 578 006e 8F01     		.2byte	(.L116-.L4)/2
 579 0070 8B01     		.2byte	(.L115-.L4)/2
 580 0072 8901     		.2byte	(.L114-.L4)/2
 581 0074 8701     		.2byte	(.L113-.L4)/2
 582 0076 8501     		.2byte	(.L112-.L4)/2
 583 0078 8301     		.2byte	(.L111-.L4)/2
 584 007a 8101     		.2byte	(.L110-.L4)/2
 585 007c 7F01     		.2byte	(.L109-.L4)/2
 586 007e 7D01     		.2byte	(.L108-.L4)/2
 587 0080 7B01     		.2byte	(.L107-.L4)/2
 588 0082 7701     		.2byte	(.L106-.L4)/2
 589 0084 7901     		.2byte	(.L105-.L4)/2
 590 0086 7501     		.2byte	(.L104-.L4)/2
 591 0088 7301     		.2byte	(.L103-.L4)/2
 592 008a 7101     		.2byte	(.L102-.L4)/2
 593 008c 6F01     		.2byte	(.L101-.L4)/2
 594 008e 6D01     		.2byte	(.L100-.L4)/2
 595 0090 6B01     		.2byte	(.L99-.L4)/2
 596 0092 6901     		.2byte	(.L98-.L4)/2
 597 0094 6701     		.2byte	(.L97-.L4)/2
 598 0096 6501     		.2byte	(.L96-.L4)/2
 599 0098 6301     		.2byte	(.L95-.L4)/2
 600 009a 6101     		.2byte	(.L94-.L4)/2
 601 009c 5F01     		.2byte	(.L93-.L4)/2
 602 009e 5D01     		.2byte	(.L92-.L4)/2
 603 00a0 5B01     		.2byte	(.L91-.L4)/2
 604 00a2 5901     		.2byte	(.L90-.L4)/2
 605 00a4 5701     		.2byte	(.L89-.L4)/2
 606 00a6 5501     		.2byte	(.L88-.L4)/2
 607 00a8 5301     		.2byte	(.L87-.L4)/2
 608 00aa 5101     		.2byte	(.L86-.L4)/2
 609 00ac 4D01     		.2byte	(.L85-.L4)/2
 610 00ae 4B01     		.2byte	(.L84-.L4)/2
 611 00b0 4901     		.2byte	(.L83-.L4)/2
 612 00b2 4701     		.2byte	(.L82-.L4)/2
 613 00b4 4501     		.2byte	(.L81-.L4)/2
 614 00b6 4101     		.2byte	(.L80-.L4)/2
 615 00b8 3F01     		.2byte	(.L79-.L4)/2
 616 00ba 3D01     		.2byte	(.L78-.L4)/2
 617 00bc 3B01     		.2byte	(.L77-.L4)/2
 618 00be 3901     		.2byte	(.L76-.L4)/2
 619 00c0 3701     		.2byte	(.L75-.L4)/2
 620 00c2 3501     		.2byte	(.L74-.L4)/2
 621 00c4 3301     		.2byte	(.L73-.L4)/2
 622 00c6 3101     		.2byte	(.L72-.L4)/2
 623 00c8 2F01     		.2byte	(.L71-.L4)/2
 624 00ca 2D01     		.2byte	(.L70-.L4)/2
 625 00cc 2B01     		.2byte	(.L69-.L4)/2
 626 00ce E902     		.2byte	(.L2-.L4)/2
 627 00d0 AF02     		.2byte	(.L68-.L4)/2
 628 00d2 2901     		.2byte	(.L67-.L4)/2
 629 00d4 2701     		.2byte	(.L66-.L4)/2
 630 00d6 2501     		.2byte	(.L65-.L4)/2
 631 00d8 2301     		.2byte	(.L64-.L4)/2
 632 00da 2101     		.2byte	(.L63-.L4)/2
 633 00dc 1F01     		.2byte	(.L62-.L4)/2
ARM GAS  /tmp/ccisCKci.s 			page 24


 634 00de 1D01     		.2byte	(.L61-.L4)/2
 635 00e0 1B01     		.2byte	(.L60-.L4)/2
 636 00e2 E902     		.2byte	(.L2-.L4)/2
 637 00e4 E902     		.2byte	(.L2-.L4)/2
 638 00e6 E902     		.2byte	(.L2-.L4)/2
 639 00e8 E902     		.2byte	(.L2-.L4)/2
 640 00ea E902     		.2byte	(.L2-.L4)/2
 641 00ec E902     		.2byte	(.L2-.L4)/2
 642 00ee E902     		.2byte	(.L2-.L4)/2
 643 00f0 4301     		.2byte	(.L59-.L4)/2
 644 00f2 1901     		.2byte	(.L58-.L4)/2
 645 00f4 1701     		.2byte	(.L57-.L4)/2
 646 00f6 1501     		.2byte	(.L56-.L4)/2
 647 00f8 1301     		.2byte	(.L55-.L4)/2
 648 00fa 1101     		.2byte	(.L54-.L4)/2
 649 00fc 0F01     		.2byte	(.L53-.L4)/2
 650 00fe 0D01     		.2byte	(.L52-.L4)/2
 651 0100 0B01     		.2byte	(.L51-.L4)/2
 652 0102 0901     		.2byte	(.L50-.L4)/2
 653 0104 0701     		.2byte	(.L49-.L4)/2
 654 0106 0501     		.2byte	(.L48-.L4)/2
 655 0108 0301     		.2byte	(.L47-.L4)/2
 656 010a 0101     		.2byte	(.L46-.L4)/2
 657 010c FF00     		.2byte	(.L45-.L4)/2
 658 010e FD00     		.2byte	(.L44-.L4)/2
 659 0110 FB00     		.2byte	(.L43-.L4)/2
 660 0112 F900     		.2byte	(.L42-.L4)/2
 661 0114 F700     		.2byte	(.L41-.L4)/2
 662 0116 F500     		.2byte	(.L40-.L4)/2
 663 0118 F300     		.2byte	(.L39-.L4)/2
 664 011a F100     		.2byte	(.L38-.L4)/2
 665 011c EF00     		.2byte	(.L37-.L4)/2
 666 011e ED00     		.2byte	(.L36-.L4)/2
 667 0120 EB00     		.2byte	(.L35-.L4)/2
 668 0122 E900     		.2byte	(.L34-.L4)/2
 669 0124 E700     		.2byte	(.L33-.L4)/2
 670 0126 E500     		.2byte	(.L32-.L4)/2
 671 0128 E300     		.2byte	(.L31-.L4)/2
 672 012a E100     		.2byte	(.L30-.L4)/2
 673 012c DF00     		.2byte	(.L29-.L4)/2
 674 012e DD00     		.2byte	(.L28-.L4)/2
 675 0130 DB00     		.2byte	(.L27-.L4)/2
 676 0132 E902     		.2byte	(.L2-.L4)/2
 677 0134 E902     		.2byte	(.L2-.L4)/2
 678 0136 E902     		.2byte	(.L2-.L4)/2
 679 0138 D900     		.2byte	(.L26-.L4)/2
 680 013a D700     		.2byte	(.L25-.L4)/2
 681 013c E902     		.2byte	(.L2-.L4)/2
 682 013e E902     		.2byte	(.L2-.L4)/2
 683 0140 E902     		.2byte	(.L2-.L4)/2
 684 0142 D500     		.2byte	(.L24-.L4)/2
 685 0144 D300     		.2byte	(.L23-.L4)/2
 686 0146 D100     		.2byte	(.L22-.L4)/2
 687 0148 CF00     		.2byte	(.L21-.L4)/2
 688 014a CD00     		.2byte	(.L20-.L4)/2
 689 014c CB00     		.2byte	(.L19-.L4)/2
 690 014e C900     		.2byte	(.L18-.L4)/2
ARM GAS  /tmp/ccisCKci.s 			page 25


 691 0150 C700     		.2byte	(.L17-.L4)/2
 692 0152 C500     		.2byte	(.L16-.L4)/2
 693 0154 C300     		.2byte	(.L15-.L4)/2
 694 0156 C100     		.2byte	(.L14-.L4)/2
 695 0158 BF00     		.2byte	(.L13-.L4)/2
 696 015a BD00     		.2byte	(.L12-.L4)/2
 697 015c BB00     		.2byte	(.L11-.L4)/2
 698 015e B900     		.2byte	(.L10-.L4)/2
 699 0160 B700     		.2byte	(.L9-.L4)/2
 700 0162 B500     		.2byte	(.L8-.L4)/2
 701 0164 B300     		.2byte	(.L7-.L4)/2
 702 0166 B100     		.2byte	(.L6-.L4)/2
 703 0168 EB02     		.2byte	(.L164-.L4)/2
 704 016a AF00     		.2byte	(.L3-.L4)/2
 705              		.p2align 1
 706              	.L3:
  40:Middlewares/Third_Party/wolfSSL_wolfSSL_wolfSSL/wolfssl/wolfcrypt/src/error.c **** 
  41:Middlewares/Third_Party/wolfSSL_wolfSSL_wolfSSL/wolfssl/wolfcrypt/src/error.c ****     case OPEN_RAN_E :
  42:Middlewares/Third_Party/wolfSSL_wolfSSL_wolfSSL/wolfssl/wolfcrypt/src/error.c ****         return "opening random device error";
  43:Middlewares/Third_Party/wolfSSL_wolfSSL_wolfSSL/wolfssl/wolfcrypt/src/error.c **** 
  44:Middlewares/Third_Party/wolfSSL_wolfSSL_wolfSSL/wolfssl/wolfcrypt/src/error.c ****     case READ_RAN_E :
  45:Middlewares/Third_Party/wolfSSL_wolfSSL_wolfSSL/wolfssl/wolfcrypt/src/error.c ****         return "reading random device error";
  46:Middlewares/Third_Party/wolfSSL_wolfSSL_wolfSSL/wolfssl/wolfcrypt/src/error.c **** 
  47:Middlewares/Third_Party/wolfSSL_wolfSSL_wolfSSL/wolfssl/wolfcrypt/src/error.c ****     case WINCRYPT_E :
  48:Middlewares/Third_Party/wolfSSL_wolfSSL_wolfSSL/wolfssl/wolfcrypt/src/error.c ****         return "windows crypt init error";
  49:Middlewares/Third_Party/wolfSSL_wolfSSL_wolfSSL/wolfssl/wolfcrypt/src/error.c **** 
  50:Middlewares/Third_Party/wolfSSL_wolfSSL_wolfSSL/wolfssl/wolfcrypt/src/error.c ****     case CRYPTGEN_E :
  51:Middlewares/Third_Party/wolfSSL_wolfSSL_wolfSSL/wolfssl/wolfcrypt/src/error.c ****         return "windows crypt generation error";
  52:Middlewares/Third_Party/wolfSSL_wolfSSL_wolfSSL/wolfssl/wolfcrypt/src/error.c **** 
  53:Middlewares/Third_Party/wolfSSL_wolfSSL_wolfSSL/wolfssl/wolfcrypt/src/error.c ****     case RAN_BLOCK_E :
  54:Middlewares/Third_Party/wolfSSL_wolfSSL_wolfSSL/wolfssl/wolfcrypt/src/error.c ****         return "random device read would block error";
  55:Middlewares/Third_Party/wolfSSL_wolfSSL_wolfSSL/wolfssl/wolfcrypt/src/error.c **** 
  56:Middlewares/Third_Party/wolfSSL_wolfSSL_wolfSSL/wolfssl/wolfcrypt/src/error.c ****     case BAD_MUTEX_E :
  57:Middlewares/Third_Party/wolfSSL_wolfSSL_wolfSSL/wolfssl/wolfcrypt/src/error.c ****         return "Bad mutex, operation failed";
  58:Middlewares/Third_Party/wolfSSL_wolfSSL_wolfSSL/wolfssl/wolfcrypt/src/error.c **** 
  59:Middlewares/Third_Party/wolfSSL_wolfSSL_wolfSSL/wolfssl/wolfcrypt/src/error.c ****     case WC_TIMEOUT_E:
  60:Middlewares/Third_Party/wolfSSL_wolfSSL_wolfSSL/wolfssl/wolfcrypt/src/error.c ****         return "Timeout error";
  61:Middlewares/Third_Party/wolfSSL_wolfSSL_wolfSSL/wolfssl/wolfcrypt/src/error.c **** 
  62:Middlewares/Third_Party/wolfSSL_wolfSSL_wolfSSL/wolfssl/wolfcrypt/src/error.c ****     case WC_PENDING_E:
  63:Middlewares/Third_Party/wolfSSL_wolfSSL_wolfSSL/wolfssl/wolfcrypt/src/error.c ****         return "wolfCrypt Operation Pending (would block / eagain) error";
  64:Middlewares/Third_Party/wolfSSL_wolfSSL_wolfSSL/wolfssl/wolfcrypt/src/error.c **** 
  65:Middlewares/Third_Party/wolfSSL_wolfSSL_wolfSSL/wolfssl/wolfcrypt/src/error.c ****     case WC_NOT_PENDING_E:
  66:Middlewares/Third_Party/wolfSSL_wolfSSL_wolfSSL/wolfssl/wolfcrypt/src/error.c ****         return "wolfCrypt operation not pending error";
  67:Middlewares/Third_Party/wolfSSL_wolfSSL_wolfSSL/wolfssl/wolfcrypt/src/error.c **** 
  68:Middlewares/Third_Party/wolfSSL_wolfSSL_wolfSSL/wolfssl/wolfcrypt/src/error.c ****     case MP_INIT_E :
  69:Middlewares/Third_Party/wolfSSL_wolfSSL_wolfSSL/wolfssl/wolfcrypt/src/error.c ****         return "mp_init error state";
  70:Middlewares/Third_Party/wolfSSL_wolfSSL_wolfSSL/wolfssl/wolfcrypt/src/error.c **** 
  71:Middlewares/Third_Party/wolfSSL_wolfSSL_wolfSSL/wolfssl/wolfcrypt/src/error.c ****     case MP_READ_E :
  72:Middlewares/Third_Party/wolfSSL_wolfSSL_wolfSSL/wolfssl/wolfcrypt/src/error.c ****         return "mp_read error state";
  73:Middlewares/Third_Party/wolfSSL_wolfSSL_wolfSSL/wolfssl/wolfcrypt/src/error.c **** 
  74:Middlewares/Third_Party/wolfSSL_wolfSSL_wolfSSL/wolfssl/wolfcrypt/src/error.c ****     case MP_EXPTMOD_E :
  75:Middlewares/Third_Party/wolfSSL_wolfSSL_wolfSSL/wolfssl/wolfcrypt/src/error.c ****         return "mp_exptmod error state";
  76:Middlewares/Third_Party/wolfSSL_wolfSSL_wolfSSL/wolfssl/wolfcrypt/src/error.c **** 
  77:Middlewares/Third_Party/wolfSSL_wolfSSL_wolfSSL/wolfssl/wolfcrypt/src/error.c ****     case MP_TO_E :
  78:Middlewares/Third_Party/wolfSSL_wolfSSL_wolfSSL/wolfssl/wolfcrypt/src/error.c ****         return "mp_to_xxx error state, can't convert";
  79:Middlewares/Third_Party/wolfSSL_wolfSSL_wolfSSL/wolfssl/wolfcrypt/src/error.c **** 
  80:Middlewares/Third_Party/wolfSSL_wolfSSL_wolfSSL/wolfssl/wolfcrypt/src/error.c ****     case MP_SUB_E :
ARM GAS  /tmp/ccisCKci.s 			page 26


  81:Middlewares/Third_Party/wolfSSL_wolfSSL_wolfSSL/wolfssl/wolfcrypt/src/error.c ****         return "mp_sub error state, can't subtract";
  82:Middlewares/Third_Party/wolfSSL_wolfSSL_wolfSSL/wolfssl/wolfcrypt/src/error.c **** 
  83:Middlewares/Third_Party/wolfSSL_wolfSSL_wolfSSL/wolfssl/wolfcrypt/src/error.c ****     case MP_ADD_E :
  84:Middlewares/Third_Party/wolfSSL_wolfSSL_wolfSSL/wolfssl/wolfcrypt/src/error.c ****         return "mp_add error state, can't add";
  85:Middlewares/Third_Party/wolfSSL_wolfSSL_wolfSSL/wolfssl/wolfcrypt/src/error.c **** 
  86:Middlewares/Third_Party/wolfSSL_wolfSSL_wolfSSL/wolfssl/wolfcrypt/src/error.c ****     case MP_MUL_E :
  87:Middlewares/Third_Party/wolfSSL_wolfSSL_wolfSSL/wolfssl/wolfcrypt/src/error.c ****         return "mp_mul error state, can't multiply";
  88:Middlewares/Third_Party/wolfSSL_wolfSSL_wolfSSL/wolfssl/wolfcrypt/src/error.c **** 
  89:Middlewares/Third_Party/wolfSSL_wolfSSL_wolfSSL/wolfssl/wolfcrypt/src/error.c ****     case MP_MULMOD_E :
  90:Middlewares/Third_Party/wolfSSL_wolfSSL_wolfSSL/wolfssl/wolfcrypt/src/error.c ****         return "mp_mulmod error state, can't multiply mod";
  91:Middlewares/Third_Party/wolfSSL_wolfSSL_wolfSSL/wolfssl/wolfcrypt/src/error.c **** 
  92:Middlewares/Third_Party/wolfSSL_wolfSSL_wolfSSL/wolfssl/wolfcrypt/src/error.c ****     case MP_MOD_E :
  93:Middlewares/Third_Party/wolfSSL_wolfSSL_wolfSSL/wolfssl/wolfcrypt/src/error.c ****         return "mp_mod error state, can't mod";
  94:Middlewares/Third_Party/wolfSSL_wolfSSL_wolfSSL/wolfssl/wolfcrypt/src/error.c **** 
  95:Middlewares/Third_Party/wolfSSL_wolfSSL_wolfSSL/wolfssl/wolfcrypt/src/error.c ****     case MP_INVMOD_E :
  96:Middlewares/Third_Party/wolfSSL_wolfSSL_wolfSSL/wolfssl/wolfcrypt/src/error.c ****         return "mp_invmod error state, can't inv mod";
  97:Middlewares/Third_Party/wolfSSL_wolfSSL_wolfSSL/wolfssl/wolfcrypt/src/error.c **** 
  98:Middlewares/Third_Party/wolfSSL_wolfSSL_wolfSSL/wolfssl/wolfcrypt/src/error.c ****     case MP_CMP_E :
  99:Middlewares/Third_Party/wolfSSL_wolfSSL_wolfSSL/wolfssl/wolfcrypt/src/error.c ****         return "mp_cmp error state";
 100:Middlewares/Third_Party/wolfSSL_wolfSSL_wolfSSL/wolfssl/wolfcrypt/src/error.c **** 
 101:Middlewares/Third_Party/wolfSSL_wolfSSL_wolfSSL/wolfssl/wolfcrypt/src/error.c ****     case MP_ZERO_E :
 102:Middlewares/Third_Party/wolfSSL_wolfSSL_wolfSSL/wolfssl/wolfcrypt/src/error.c ****         return "mp zero result, not expected";
 103:Middlewares/Third_Party/wolfSSL_wolfSSL_wolfSSL/wolfssl/wolfcrypt/src/error.c **** 
 104:Middlewares/Third_Party/wolfSSL_wolfSSL_wolfSSL/wolfssl/wolfcrypt/src/error.c ****     case MEMORY_E :
 105:Middlewares/Third_Party/wolfSSL_wolfSSL_wolfSSL/wolfssl/wolfcrypt/src/error.c ****         return "out of memory error";
 106:Middlewares/Third_Party/wolfSSL_wolfSSL_wolfSSL/wolfssl/wolfcrypt/src/error.c **** 
 107:Middlewares/Third_Party/wolfSSL_wolfSSL_wolfSSL/wolfssl/wolfcrypt/src/error.c ****     case VAR_STATE_CHANGE_E :
 108:Middlewares/Third_Party/wolfSSL_wolfSSL_wolfSSL/wolfssl/wolfcrypt/src/error.c ****         return "Variable state modified by different thread";
 109:Middlewares/Third_Party/wolfSSL_wolfSSL_wolfSSL/wolfssl/wolfcrypt/src/error.c **** 
 110:Middlewares/Third_Party/wolfSSL_wolfSSL_wolfSSL/wolfssl/wolfcrypt/src/error.c ****     case RSA_WRONG_TYPE_E :
 111:Middlewares/Third_Party/wolfSSL_wolfSSL_wolfSSL/wolfssl/wolfcrypt/src/error.c ****         return "RSA wrong block type for RSA function";
 112:Middlewares/Third_Party/wolfSSL_wolfSSL_wolfSSL/wolfssl/wolfcrypt/src/error.c **** 
 113:Middlewares/Third_Party/wolfSSL_wolfSSL_wolfSSL/wolfssl/wolfcrypt/src/error.c ****     case RSA_BUFFER_E :
 114:Middlewares/Third_Party/wolfSSL_wolfSSL_wolfSSL/wolfssl/wolfcrypt/src/error.c ****         return "RSA buffer error, output too small or input too big";
 115:Middlewares/Third_Party/wolfSSL_wolfSSL_wolfSSL/wolfssl/wolfcrypt/src/error.c **** 
 116:Middlewares/Third_Party/wolfSSL_wolfSSL_wolfSSL/wolfssl/wolfcrypt/src/error.c ****     case BUFFER_E :
 117:Middlewares/Third_Party/wolfSSL_wolfSSL_wolfSSL/wolfssl/wolfcrypt/src/error.c ****         return "Buffer error, output too small or input too big";
 118:Middlewares/Third_Party/wolfSSL_wolfSSL_wolfSSL/wolfssl/wolfcrypt/src/error.c **** 
 119:Middlewares/Third_Party/wolfSSL_wolfSSL_wolfSSL/wolfssl/wolfcrypt/src/error.c ****     case ALGO_ID_E :
 120:Middlewares/Third_Party/wolfSSL_wolfSSL_wolfSSL/wolfssl/wolfcrypt/src/error.c ****         return "Setting Cert AlgoID error";
 121:Middlewares/Third_Party/wolfSSL_wolfSSL_wolfSSL/wolfssl/wolfcrypt/src/error.c **** 
 122:Middlewares/Third_Party/wolfSSL_wolfSSL_wolfSSL/wolfssl/wolfcrypt/src/error.c ****     case PUBLIC_KEY_E :
 123:Middlewares/Third_Party/wolfSSL_wolfSSL_wolfSSL/wolfssl/wolfcrypt/src/error.c ****         return "Setting Cert Public Key error";
 124:Middlewares/Third_Party/wolfSSL_wolfSSL_wolfSSL/wolfssl/wolfcrypt/src/error.c **** 
 125:Middlewares/Third_Party/wolfSSL_wolfSSL_wolfSSL/wolfssl/wolfcrypt/src/error.c ****     case DATE_E :
 126:Middlewares/Third_Party/wolfSSL_wolfSSL_wolfSSL/wolfssl/wolfcrypt/src/error.c ****         return "Setting Cert Date validity error";
 127:Middlewares/Third_Party/wolfSSL_wolfSSL_wolfSSL/wolfssl/wolfcrypt/src/error.c **** 
 128:Middlewares/Third_Party/wolfSSL_wolfSSL_wolfSSL/wolfssl/wolfcrypt/src/error.c ****     case SUBJECT_E :
 129:Middlewares/Third_Party/wolfSSL_wolfSSL_wolfSSL/wolfssl/wolfcrypt/src/error.c ****         return "Setting Cert Subject name error";
 130:Middlewares/Third_Party/wolfSSL_wolfSSL_wolfSSL/wolfssl/wolfcrypt/src/error.c **** 
 131:Middlewares/Third_Party/wolfSSL_wolfSSL_wolfSSL/wolfssl/wolfcrypt/src/error.c ****     case ISSUER_E :
 132:Middlewares/Third_Party/wolfSSL_wolfSSL_wolfSSL/wolfssl/wolfcrypt/src/error.c ****         return "Setting Cert Issuer name error";
 133:Middlewares/Third_Party/wolfSSL_wolfSSL_wolfSSL/wolfssl/wolfcrypt/src/error.c **** 
 134:Middlewares/Third_Party/wolfSSL_wolfSSL_wolfSSL/wolfssl/wolfcrypt/src/error.c ****     case CA_TRUE_E :
 135:Middlewares/Third_Party/wolfSSL_wolfSSL_wolfSSL/wolfssl/wolfcrypt/src/error.c ****         return "Setting basic constraint CA true error";
 136:Middlewares/Third_Party/wolfSSL_wolfSSL_wolfSSL/wolfssl/wolfcrypt/src/error.c **** 
 137:Middlewares/Third_Party/wolfSSL_wolfSSL_wolfSSL/wolfssl/wolfcrypt/src/error.c ****     case EXTENSIONS_E :
ARM GAS  /tmp/ccisCKci.s 			page 27


 138:Middlewares/Third_Party/wolfSSL_wolfSSL_wolfSSL/wolfssl/wolfcrypt/src/error.c ****         return "Setting extensions error";
 139:Middlewares/Third_Party/wolfSSL_wolfSSL_wolfSSL/wolfssl/wolfcrypt/src/error.c **** 
 140:Middlewares/Third_Party/wolfSSL_wolfSSL_wolfSSL/wolfssl/wolfcrypt/src/error.c ****     case ASN_PARSE_E :
 141:Middlewares/Third_Party/wolfSSL_wolfSSL_wolfSSL/wolfssl/wolfcrypt/src/error.c ****         return "ASN parsing error, invalid input";
 142:Middlewares/Third_Party/wolfSSL_wolfSSL_wolfSSL/wolfssl/wolfcrypt/src/error.c **** 
 143:Middlewares/Third_Party/wolfSSL_wolfSSL_wolfSSL/wolfssl/wolfcrypt/src/error.c ****     case ASN_VERSION_E :
 144:Middlewares/Third_Party/wolfSSL_wolfSSL_wolfSSL/wolfssl/wolfcrypt/src/error.c ****         return "ASN version error, invalid number";
 145:Middlewares/Third_Party/wolfSSL_wolfSSL_wolfSSL/wolfssl/wolfcrypt/src/error.c **** 
 146:Middlewares/Third_Party/wolfSSL_wolfSSL_wolfSSL/wolfssl/wolfcrypt/src/error.c ****     case ASN_GETINT_E :
 147:Middlewares/Third_Party/wolfSSL_wolfSSL_wolfSSL/wolfssl/wolfcrypt/src/error.c ****         return "ASN get big int error, invalid data";
 148:Middlewares/Third_Party/wolfSSL_wolfSSL_wolfSSL/wolfssl/wolfcrypt/src/error.c **** 
 149:Middlewares/Third_Party/wolfSSL_wolfSSL_wolfSSL/wolfssl/wolfcrypt/src/error.c ****     case ASN_RSA_KEY_E :
 150:Middlewares/Third_Party/wolfSSL_wolfSSL_wolfSSL/wolfssl/wolfcrypt/src/error.c ****         return "ASN key init error, invalid input";
 151:Middlewares/Third_Party/wolfSSL_wolfSSL_wolfSSL/wolfssl/wolfcrypt/src/error.c **** 
 152:Middlewares/Third_Party/wolfSSL_wolfSSL_wolfSSL/wolfssl/wolfcrypt/src/error.c ****     case ASN_OBJECT_ID_E :
 153:Middlewares/Third_Party/wolfSSL_wolfSSL_wolfSSL/wolfssl/wolfcrypt/src/error.c ****         return "ASN object id error, invalid id";
 154:Middlewares/Third_Party/wolfSSL_wolfSSL_wolfSSL/wolfssl/wolfcrypt/src/error.c **** 
 155:Middlewares/Third_Party/wolfSSL_wolfSSL_wolfSSL/wolfssl/wolfcrypt/src/error.c ****     case ASN_TAG_NULL_E :
 156:Middlewares/Third_Party/wolfSSL_wolfSSL_wolfSSL/wolfssl/wolfcrypt/src/error.c ****         return "ASN tag error, not null";
 157:Middlewares/Third_Party/wolfSSL_wolfSSL_wolfSSL/wolfssl/wolfcrypt/src/error.c **** 
 158:Middlewares/Third_Party/wolfSSL_wolfSSL_wolfSSL/wolfssl/wolfcrypt/src/error.c ****     case ASN_EXPECT_0_E :
 159:Middlewares/Third_Party/wolfSSL_wolfSSL_wolfSSL/wolfssl/wolfcrypt/src/error.c ****         return "ASN expect error, not zero";
 160:Middlewares/Third_Party/wolfSSL_wolfSSL_wolfSSL/wolfssl/wolfcrypt/src/error.c **** 
 161:Middlewares/Third_Party/wolfSSL_wolfSSL_wolfSSL/wolfssl/wolfcrypt/src/error.c ****     case ASN_BITSTR_E :
 162:Middlewares/Third_Party/wolfSSL_wolfSSL_wolfSSL/wolfssl/wolfcrypt/src/error.c ****         return "ASN bit string error, wrong id";
 163:Middlewares/Third_Party/wolfSSL_wolfSSL_wolfSSL/wolfssl/wolfcrypt/src/error.c **** 
 164:Middlewares/Third_Party/wolfSSL_wolfSSL_wolfSSL/wolfssl/wolfcrypt/src/error.c ****     case ASN_UNKNOWN_OID_E :
 165:Middlewares/Third_Party/wolfSSL_wolfSSL_wolfSSL/wolfssl/wolfcrypt/src/error.c ****         return "ASN oid error, unknown sum id";
 166:Middlewares/Third_Party/wolfSSL_wolfSSL_wolfSSL/wolfssl/wolfcrypt/src/error.c **** 
 167:Middlewares/Third_Party/wolfSSL_wolfSSL_wolfSSL/wolfssl/wolfcrypt/src/error.c ****     case ASN_DATE_SZ_E :
 168:Middlewares/Third_Party/wolfSSL_wolfSSL_wolfSSL/wolfssl/wolfcrypt/src/error.c ****         return "ASN date error, bad size";
 169:Middlewares/Third_Party/wolfSSL_wolfSSL_wolfSSL/wolfssl/wolfcrypt/src/error.c **** 
 170:Middlewares/Third_Party/wolfSSL_wolfSSL_wolfSSL/wolfssl/wolfcrypt/src/error.c ****     case ASN_BEFORE_DATE_E :
 171:Middlewares/Third_Party/wolfSSL_wolfSSL_wolfSSL/wolfssl/wolfcrypt/src/error.c ****         return "ASN date error, current date before";
 172:Middlewares/Third_Party/wolfSSL_wolfSSL_wolfSSL/wolfssl/wolfcrypt/src/error.c **** 
 173:Middlewares/Third_Party/wolfSSL_wolfSSL_wolfSSL/wolfssl/wolfcrypt/src/error.c ****     case ASN_AFTER_DATE_E :
 174:Middlewares/Third_Party/wolfSSL_wolfSSL_wolfSSL/wolfssl/wolfcrypt/src/error.c ****         return "ASN date error, current date after";
 175:Middlewares/Third_Party/wolfSSL_wolfSSL_wolfSSL/wolfssl/wolfcrypt/src/error.c **** 
 176:Middlewares/Third_Party/wolfSSL_wolfSSL_wolfSSL/wolfssl/wolfcrypt/src/error.c ****     case ASN_SIG_OID_E :
 177:Middlewares/Third_Party/wolfSSL_wolfSSL_wolfSSL/wolfssl/wolfcrypt/src/error.c ****         return "ASN signature error, mismatched oid";
 178:Middlewares/Third_Party/wolfSSL_wolfSSL_wolfSSL/wolfssl/wolfcrypt/src/error.c **** 
 179:Middlewares/Third_Party/wolfSSL_wolfSSL_wolfSSL/wolfssl/wolfcrypt/src/error.c ****     case ASN_TIME_E :
 180:Middlewares/Third_Party/wolfSSL_wolfSSL_wolfSSL/wolfssl/wolfcrypt/src/error.c ****         return "ASN time error, unknown time type";
 181:Middlewares/Third_Party/wolfSSL_wolfSSL_wolfSSL/wolfssl/wolfcrypt/src/error.c **** 
 182:Middlewares/Third_Party/wolfSSL_wolfSSL_wolfSSL/wolfssl/wolfcrypt/src/error.c ****     case ASN_INPUT_E :
 183:Middlewares/Third_Party/wolfSSL_wolfSSL_wolfSSL/wolfssl/wolfcrypt/src/error.c ****         return "ASN input error, not enough data";
 184:Middlewares/Third_Party/wolfSSL_wolfSSL_wolfSSL/wolfssl/wolfcrypt/src/error.c **** 
 185:Middlewares/Third_Party/wolfSSL_wolfSSL_wolfSSL/wolfssl/wolfcrypt/src/error.c ****     case ASN_SIG_CONFIRM_E :
 186:Middlewares/Third_Party/wolfSSL_wolfSSL_wolfSSL/wolfssl/wolfcrypt/src/error.c ****         return "ASN sig error, confirm failure";
 187:Middlewares/Third_Party/wolfSSL_wolfSSL_wolfSSL/wolfssl/wolfcrypt/src/error.c **** 
 188:Middlewares/Third_Party/wolfSSL_wolfSSL_wolfSSL/wolfssl/wolfcrypt/src/error.c ****     case ASN_SIG_HASH_E :
 189:Middlewares/Third_Party/wolfSSL_wolfSSL_wolfSSL/wolfssl/wolfcrypt/src/error.c ****         return "ASN sig error, unsupported hash type";
 190:Middlewares/Third_Party/wolfSSL_wolfSSL_wolfSSL/wolfssl/wolfcrypt/src/error.c **** 
 191:Middlewares/Third_Party/wolfSSL_wolfSSL_wolfSSL/wolfssl/wolfcrypt/src/error.c ****     case ASN_SIG_KEY_E :
 192:Middlewares/Third_Party/wolfSSL_wolfSSL_wolfSSL/wolfssl/wolfcrypt/src/error.c ****         return "ASN sig error, unsupported key type";
 193:Middlewares/Third_Party/wolfSSL_wolfSSL_wolfSSL/wolfssl/wolfcrypt/src/error.c **** 
 194:Middlewares/Third_Party/wolfSSL_wolfSSL_wolfSSL/wolfssl/wolfcrypt/src/error.c ****     case ASN_DH_KEY_E :
ARM GAS  /tmp/ccisCKci.s 			page 28


 195:Middlewares/Third_Party/wolfSSL_wolfSSL_wolfSSL/wolfssl/wolfcrypt/src/error.c ****         return "ASN key init error, invalid input";
 196:Middlewares/Third_Party/wolfSSL_wolfSSL_wolfSSL/wolfssl/wolfcrypt/src/error.c **** 
 197:Middlewares/Third_Party/wolfSSL_wolfSSL_wolfSSL/wolfssl/wolfcrypt/src/error.c ****     case ASN_NTRU_KEY_E :
 198:Middlewares/Third_Party/wolfSSL_wolfSSL_wolfSSL/wolfssl/wolfcrypt/src/error.c ****         return "ASN NTRU key decode error, invalid input";
 199:Middlewares/Third_Party/wolfSSL_wolfSSL_wolfSSL/wolfssl/wolfcrypt/src/error.c **** 
 200:Middlewares/Third_Party/wolfSSL_wolfSSL_wolfSSL/wolfssl/wolfcrypt/src/error.c ****     case ASN_CRIT_EXT_E:
 201:Middlewares/Third_Party/wolfSSL_wolfSSL_wolfSSL/wolfssl/wolfcrypt/src/error.c ****         return "X.509 Critical extension ignored or invalid";
 202:Middlewares/Third_Party/wolfSSL_wolfSSL_wolfSSL/wolfssl/wolfcrypt/src/error.c **** 
 203:Middlewares/Third_Party/wolfSSL_wolfSSL_wolfSSL/wolfssl/wolfcrypt/src/error.c ****     case ASN_ALT_NAME_E:
 204:Middlewares/Third_Party/wolfSSL_wolfSSL_wolfSSL/wolfssl/wolfcrypt/src/error.c ****         return "ASN alternate name error";
 205:Middlewares/Third_Party/wolfSSL_wolfSSL_wolfSSL/wolfssl/wolfcrypt/src/error.c **** 
 206:Middlewares/Third_Party/wolfSSL_wolfSSL_wolfSSL/wolfssl/wolfcrypt/src/error.c ****     case ECC_BAD_ARG_E :
 207:Middlewares/Third_Party/wolfSSL_wolfSSL_wolfSSL/wolfssl/wolfcrypt/src/error.c ****         return "ECC input argument wrong type, invalid input";
 208:Middlewares/Third_Party/wolfSSL_wolfSSL_wolfSSL/wolfssl/wolfcrypt/src/error.c **** 
 209:Middlewares/Third_Party/wolfSSL_wolfSSL_wolfSSL/wolfssl/wolfcrypt/src/error.c ****     case ASN_ECC_KEY_E :
 210:Middlewares/Third_Party/wolfSSL_wolfSSL_wolfSSL/wolfssl/wolfcrypt/src/error.c ****         return "ECC ASN1 bad key data, invalid input";
 211:Middlewares/Third_Party/wolfSSL_wolfSSL_wolfSSL/wolfssl/wolfcrypt/src/error.c **** 
 212:Middlewares/Third_Party/wolfSSL_wolfSSL_wolfSSL/wolfssl/wolfcrypt/src/error.c ****     case ECC_CURVE_OID_E :
 213:Middlewares/Third_Party/wolfSSL_wolfSSL_wolfSSL/wolfssl/wolfcrypt/src/error.c ****         return "ECC curve sum OID unsupported, invalid input";
 214:Middlewares/Third_Party/wolfSSL_wolfSSL_wolfSSL/wolfssl/wolfcrypt/src/error.c **** 
 215:Middlewares/Third_Party/wolfSSL_wolfSSL_wolfSSL/wolfssl/wolfcrypt/src/error.c ****     case BAD_FUNC_ARG :
 216:Middlewares/Third_Party/wolfSSL_wolfSSL_wolfSSL/wolfssl/wolfcrypt/src/error.c ****         return "Bad function argument";
 217:Middlewares/Third_Party/wolfSSL_wolfSSL_wolfSSL/wolfssl/wolfcrypt/src/error.c **** 
 218:Middlewares/Third_Party/wolfSSL_wolfSSL_wolfSSL/wolfssl/wolfcrypt/src/error.c ****     case NOT_COMPILED_IN :
 219:Middlewares/Third_Party/wolfSSL_wolfSSL_wolfSSL/wolfssl/wolfcrypt/src/error.c ****         return "Feature not compiled in";
 220:Middlewares/Third_Party/wolfSSL_wolfSSL_wolfSSL/wolfssl/wolfcrypt/src/error.c **** 
 221:Middlewares/Third_Party/wolfSSL_wolfSSL_wolfSSL/wolfssl/wolfcrypt/src/error.c ****     case UNICODE_SIZE_E :
 222:Middlewares/Third_Party/wolfSSL_wolfSSL_wolfSSL/wolfssl/wolfcrypt/src/error.c ****         return "Unicode password too big";
 223:Middlewares/Third_Party/wolfSSL_wolfSSL_wolfSSL/wolfssl/wolfcrypt/src/error.c **** 
 224:Middlewares/Third_Party/wolfSSL_wolfSSL_wolfSSL/wolfssl/wolfcrypt/src/error.c ****     case NO_PASSWORD :
 225:Middlewares/Third_Party/wolfSSL_wolfSSL_wolfSSL/wolfssl/wolfcrypt/src/error.c ****         return "No password provided by user";
 226:Middlewares/Third_Party/wolfSSL_wolfSSL_wolfSSL/wolfssl/wolfcrypt/src/error.c **** 
 227:Middlewares/Third_Party/wolfSSL_wolfSSL_wolfSSL/wolfssl/wolfcrypt/src/error.c ****     case ALT_NAME_E :
 228:Middlewares/Third_Party/wolfSSL_wolfSSL_wolfSSL/wolfssl/wolfcrypt/src/error.c ****         return "Alt Name problem, too big";
 229:Middlewares/Third_Party/wolfSSL_wolfSSL_wolfSSL/wolfssl/wolfcrypt/src/error.c **** 
 230:Middlewares/Third_Party/wolfSSL_wolfSSL_wolfSSL/wolfssl/wolfcrypt/src/error.c ****     case AES_GCM_AUTH_E:
 231:Middlewares/Third_Party/wolfSSL_wolfSSL_wolfSSL/wolfssl/wolfcrypt/src/error.c ****         return "AES-GCM Authentication check fail";
 232:Middlewares/Third_Party/wolfSSL_wolfSSL_wolfSSL/wolfssl/wolfcrypt/src/error.c **** 
 233:Middlewares/Third_Party/wolfSSL_wolfSSL_wolfSSL/wolfssl/wolfcrypt/src/error.c ****     case AES_CCM_AUTH_E:
 234:Middlewares/Third_Party/wolfSSL_wolfSSL_wolfSSL/wolfssl/wolfcrypt/src/error.c ****         return "AES-CCM Authentication check fail";
 235:Middlewares/Third_Party/wolfSSL_wolfSSL_wolfSSL/wolfssl/wolfcrypt/src/error.c **** 
 236:Middlewares/Third_Party/wolfSSL_wolfSSL_wolfSSL/wolfssl/wolfcrypt/src/error.c ****     case ASYNC_INIT_E:
 237:Middlewares/Third_Party/wolfSSL_wolfSSL_wolfSSL/wolfssl/wolfcrypt/src/error.c ****         return "Async Init error";
 238:Middlewares/Third_Party/wolfSSL_wolfSSL_wolfSSL/wolfssl/wolfcrypt/src/error.c **** 
 239:Middlewares/Third_Party/wolfSSL_wolfSSL_wolfSSL/wolfssl/wolfcrypt/src/error.c ****     case COMPRESS_INIT_E:
 240:Middlewares/Third_Party/wolfSSL_wolfSSL_wolfSSL/wolfssl/wolfcrypt/src/error.c ****         return "Compress Init error";
 241:Middlewares/Third_Party/wolfSSL_wolfSSL_wolfSSL/wolfssl/wolfcrypt/src/error.c **** 
 242:Middlewares/Third_Party/wolfSSL_wolfSSL_wolfSSL/wolfssl/wolfcrypt/src/error.c ****     case COMPRESS_E:
 243:Middlewares/Third_Party/wolfSSL_wolfSSL_wolfSSL/wolfssl/wolfcrypt/src/error.c ****         return "Compress error";
 244:Middlewares/Third_Party/wolfSSL_wolfSSL_wolfSSL/wolfssl/wolfcrypt/src/error.c **** 
 245:Middlewares/Third_Party/wolfSSL_wolfSSL_wolfSSL/wolfssl/wolfcrypt/src/error.c ****     case DECOMPRESS_INIT_E:
 246:Middlewares/Third_Party/wolfSSL_wolfSSL_wolfSSL/wolfssl/wolfcrypt/src/error.c ****         return "DeCompress Init error";
 247:Middlewares/Third_Party/wolfSSL_wolfSSL_wolfSSL/wolfssl/wolfcrypt/src/error.c **** 
 248:Middlewares/Third_Party/wolfSSL_wolfSSL_wolfSSL/wolfssl/wolfcrypt/src/error.c ****     case DECOMPRESS_E:
 249:Middlewares/Third_Party/wolfSSL_wolfSSL_wolfSSL/wolfssl/wolfcrypt/src/error.c ****         return "DeCompress error";
 250:Middlewares/Third_Party/wolfSSL_wolfSSL_wolfSSL/wolfssl/wolfcrypt/src/error.c **** 
 251:Middlewares/Third_Party/wolfSSL_wolfSSL_wolfSSL/wolfssl/wolfcrypt/src/error.c ****     case BAD_ALIGN_E:
ARM GAS  /tmp/ccisCKci.s 			page 29


 252:Middlewares/Third_Party/wolfSSL_wolfSSL_wolfSSL/wolfssl/wolfcrypt/src/error.c ****         return "Bad alignment error, no alloc help";
 253:Middlewares/Third_Party/wolfSSL_wolfSSL_wolfSSL/wolfssl/wolfcrypt/src/error.c **** 
 254:Middlewares/Third_Party/wolfSSL_wolfSSL_wolfSSL/wolfssl/wolfcrypt/src/error.c ****     case ASN_NO_SIGNER_E :
 255:Middlewares/Third_Party/wolfSSL_wolfSSL_wolfSSL/wolfssl/wolfcrypt/src/error.c ****         return "ASN no signer error to confirm failure";
 256:Middlewares/Third_Party/wolfSSL_wolfSSL_wolfSSL/wolfssl/wolfcrypt/src/error.c **** 
 257:Middlewares/Third_Party/wolfSSL_wolfSSL_wolfSSL/wolfssl/wolfcrypt/src/error.c ****     case ASN_CRL_CONFIRM_E :
 258:Middlewares/Third_Party/wolfSSL_wolfSSL_wolfSSL/wolfssl/wolfcrypt/src/error.c ****         return "ASN CRL sig error, confirm failure";
 259:Middlewares/Third_Party/wolfSSL_wolfSSL_wolfSSL/wolfssl/wolfcrypt/src/error.c **** 
 260:Middlewares/Third_Party/wolfSSL_wolfSSL_wolfSSL/wolfssl/wolfcrypt/src/error.c ****     case ASN_CRL_NO_SIGNER_E :
 261:Middlewares/Third_Party/wolfSSL_wolfSSL_wolfSSL/wolfssl/wolfcrypt/src/error.c ****         return "ASN CRL no signer error to confirm failure";
 262:Middlewares/Third_Party/wolfSSL_wolfSSL_wolfSSL/wolfssl/wolfcrypt/src/error.c **** 
 263:Middlewares/Third_Party/wolfSSL_wolfSSL_wolfSSL/wolfssl/wolfcrypt/src/error.c ****     case ASN_OCSP_CONFIRM_E :
 264:Middlewares/Third_Party/wolfSSL_wolfSSL_wolfSSL/wolfssl/wolfcrypt/src/error.c ****         return "ASN OCSP sig error, confirm failure";
 265:Middlewares/Third_Party/wolfSSL_wolfSSL_wolfSSL/wolfssl/wolfcrypt/src/error.c **** 
 266:Middlewares/Third_Party/wolfSSL_wolfSSL_wolfSSL/wolfssl/wolfcrypt/src/error.c ****     case ASN_NO_PEM_HEADER:
 267:Middlewares/Third_Party/wolfSSL_wolfSSL_wolfSSL/wolfssl/wolfcrypt/src/error.c ****         return "ASN no PEM Header Error";
 268:Middlewares/Third_Party/wolfSSL_wolfSSL_wolfSSL/wolfssl/wolfcrypt/src/error.c **** 
 269:Middlewares/Third_Party/wolfSSL_wolfSSL_wolfSSL/wolfssl/wolfcrypt/src/error.c ****     case BAD_STATE_E:
 270:Middlewares/Third_Party/wolfSSL_wolfSSL_wolfSSL/wolfssl/wolfcrypt/src/error.c ****         return "Bad state operation";
 271:Middlewares/Third_Party/wolfSSL_wolfSSL_wolfSSL/wolfssl/wolfcrypt/src/error.c **** 
 272:Middlewares/Third_Party/wolfSSL_wolfSSL_wolfSSL/wolfssl/wolfcrypt/src/error.c ****     case BAD_PADDING_E:
 273:Middlewares/Third_Party/wolfSSL_wolfSSL_wolfSSL/wolfssl/wolfcrypt/src/error.c ****         return "Bad padding, message wrong length";
 274:Middlewares/Third_Party/wolfSSL_wolfSSL_wolfSSL/wolfssl/wolfcrypt/src/error.c **** 
 275:Middlewares/Third_Party/wolfSSL_wolfSSL_wolfSSL/wolfssl/wolfcrypt/src/error.c ****     case REQ_ATTRIBUTE_E:
 276:Middlewares/Third_Party/wolfSSL_wolfSSL_wolfSSL/wolfssl/wolfcrypt/src/error.c ****         return "Setting cert request attributes error";
 277:Middlewares/Third_Party/wolfSSL_wolfSSL_wolfSSL/wolfssl/wolfcrypt/src/error.c **** 
 278:Middlewares/Third_Party/wolfSSL_wolfSSL_wolfSSL/wolfssl/wolfcrypt/src/error.c ****     case PKCS7_OID_E:
 279:Middlewares/Third_Party/wolfSSL_wolfSSL_wolfSSL/wolfssl/wolfcrypt/src/error.c ****         return "PKCS#7 error: mismatched OID value";
 280:Middlewares/Third_Party/wolfSSL_wolfSSL_wolfSSL/wolfssl/wolfcrypt/src/error.c **** 
 281:Middlewares/Third_Party/wolfSSL_wolfSSL_wolfSSL/wolfssl/wolfcrypt/src/error.c ****     case PKCS7_RECIP_E:
 282:Middlewares/Third_Party/wolfSSL_wolfSSL_wolfSSL/wolfssl/wolfcrypt/src/error.c ****         return "PKCS#7 error: no matching recipient found";
 283:Middlewares/Third_Party/wolfSSL_wolfSSL_wolfSSL/wolfssl/wolfcrypt/src/error.c **** 
 284:Middlewares/Third_Party/wolfSSL_wolfSSL_wolfSSL/wolfssl/wolfcrypt/src/error.c ****     case WC_PKCS7_WANT_READ_E:
 285:Middlewares/Third_Party/wolfSSL_wolfSSL_wolfSSL/wolfssl/wolfcrypt/src/error.c ****         return "PKCS#7 operations wants more input, call again";
 286:Middlewares/Third_Party/wolfSSL_wolfSSL_wolfSSL/wolfssl/wolfcrypt/src/error.c **** 
 287:Middlewares/Third_Party/wolfSSL_wolfSSL_wolfSSL/wolfssl/wolfcrypt/src/error.c ****     case FIPS_NOT_ALLOWED_E:
 288:Middlewares/Third_Party/wolfSSL_wolfSSL_wolfSSL/wolfssl/wolfcrypt/src/error.c ****         return "FIPS mode not allowed error";
 289:Middlewares/Third_Party/wolfSSL_wolfSSL_wolfSSL/wolfssl/wolfcrypt/src/error.c **** 
 290:Middlewares/Third_Party/wolfSSL_wolfSSL_wolfSSL/wolfssl/wolfcrypt/src/error.c ****     case ASN_NAME_INVALID_E:
 291:Middlewares/Third_Party/wolfSSL_wolfSSL_wolfSSL/wolfssl/wolfcrypt/src/error.c ****         return "Name Constraint error";
 292:Middlewares/Third_Party/wolfSSL_wolfSSL_wolfSSL/wolfssl/wolfcrypt/src/error.c **** 
 293:Middlewares/Third_Party/wolfSSL_wolfSSL_wolfSSL/wolfssl/wolfcrypt/src/error.c ****     case RNG_FAILURE_E:
 294:Middlewares/Third_Party/wolfSSL_wolfSSL_wolfSSL/wolfssl/wolfcrypt/src/error.c ****         return "Random Number Generator failed";
 295:Middlewares/Third_Party/wolfSSL_wolfSSL_wolfSSL/wolfssl/wolfcrypt/src/error.c **** 
 296:Middlewares/Third_Party/wolfSSL_wolfSSL_wolfSSL/wolfssl/wolfcrypt/src/error.c ****     case HMAC_MIN_KEYLEN_E:
 297:Middlewares/Third_Party/wolfSSL_wolfSSL_wolfSSL/wolfssl/wolfcrypt/src/error.c ****         return "FIPS Mode HMAC Minimum Key Length error";
 298:Middlewares/Third_Party/wolfSSL_wolfSSL_wolfSSL/wolfssl/wolfcrypt/src/error.c **** 
 299:Middlewares/Third_Party/wolfSSL_wolfSSL_wolfSSL/wolfssl/wolfcrypt/src/error.c ****     case RSA_PAD_E:
 300:Middlewares/Third_Party/wolfSSL_wolfSSL_wolfSSL/wolfssl/wolfcrypt/src/error.c ****         return "Rsa Padding error";
 301:Middlewares/Third_Party/wolfSSL_wolfSSL_wolfSSL/wolfssl/wolfcrypt/src/error.c **** 
 302:Middlewares/Third_Party/wolfSSL_wolfSSL_wolfSSL/wolfssl/wolfcrypt/src/error.c ****     case LENGTH_ONLY_E:
 303:Middlewares/Third_Party/wolfSSL_wolfSSL_wolfSSL/wolfssl/wolfcrypt/src/error.c ****         return "Output length only set, not for other use error";
 304:Middlewares/Third_Party/wolfSSL_wolfSSL_wolfSSL/wolfssl/wolfcrypt/src/error.c **** 
 305:Middlewares/Third_Party/wolfSSL_wolfSSL_wolfSSL/wolfssl/wolfcrypt/src/error.c ****     case IN_CORE_FIPS_E:
 306:Middlewares/Third_Party/wolfSSL_wolfSSL_wolfSSL/wolfssl/wolfcrypt/src/error.c ****         return "In Core Integrity check FIPS error";
 307:Middlewares/Third_Party/wolfSSL_wolfSSL_wolfSSL/wolfssl/wolfcrypt/src/error.c **** 
 308:Middlewares/Third_Party/wolfSSL_wolfSSL_wolfSSL/wolfssl/wolfcrypt/src/error.c ****     case AES_KAT_FIPS_E:
ARM GAS  /tmp/ccisCKci.s 			page 30


 309:Middlewares/Third_Party/wolfSSL_wolfSSL_wolfSSL/wolfssl/wolfcrypt/src/error.c ****         return "AES Known Answer Test check FIPS error";
 310:Middlewares/Third_Party/wolfSSL_wolfSSL_wolfSSL/wolfssl/wolfcrypt/src/error.c **** 
 311:Middlewares/Third_Party/wolfSSL_wolfSSL_wolfSSL/wolfssl/wolfcrypt/src/error.c ****     case DES3_KAT_FIPS_E:
 312:Middlewares/Third_Party/wolfSSL_wolfSSL_wolfSSL/wolfssl/wolfcrypt/src/error.c ****         return "DES3 Known Answer Test check FIPS error";
 313:Middlewares/Third_Party/wolfSSL_wolfSSL_wolfSSL/wolfssl/wolfcrypt/src/error.c **** 
 314:Middlewares/Third_Party/wolfSSL_wolfSSL_wolfSSL/wolfssl/wolfcrypt/src/error.c ****     case HMAC_KAT_FIPS_E:
 315:Middlewares/Third_Party/wolfSSL_wolfSSL_wolfSSL/wolfssl/wolfcrypt/src/error.c ****         return "HMAC Known Answer Test check FIPS error";
 316:Middlewares/Third_Party/wolfSSL_wolfSSL_wolfSSL/wolfssl/wolfcrypt/src/error.c **** 
 317:Middlewares/Third_Party/wolfSSL_wolfSSL_wolfSSL/wolfssl/wolfcrypt/src/error.c ****     case RSA_KAT_FIPS_E:
 318:Middlewares/Third_Party/wolfSSL_wolfSSL_wolfSSL/wolfssl/wolfcrypt/src/error.c ****         return "RSA Known Answer Test check FIPS error";
 319:Middlewares/Third_Party/wolfSSL_wolfSSL_wolfSSL/wolfssl/wolfcrypt/src/error.c **** 
 320:Middlewares/Third_Party/wolfSSL_wolfSSL_wolfSSL/wolfssl/wolfcrypt/src/error.c ****     case DRBG_KAT_FIPS_E:
 321:Middlewares/Third_Party/wolfSSL_wolfSSL_wolfSSL/wolfssl/wolfcrypt/src/error.c ****         return "DRBG Known Answer Test check FIPS error";
 322:Middlewares/Third_Party/wolfSSL_wolfSSL_wolfSSL/wolfssl/wolfcrypt/src/error.c **** 
 323:Middlewares/Third_Party/wolfSSL_wolfSSL_wolfSSL/wolfssl/wolfcrypt/src/error.c ****     case DRBG_CONT_FIPS_E:
 324:Middlewares/Third_Party/wolfSSL_wolfSSL_wolfSSL/wolfssl/wolfcrypt/src/error.c ****         return "DRBG Continuous Test FIPS error";
 325:Middlewares/Third_Party/wolfSSL_wolfSSL_wolfSSL/wolfssl/wolfcrypt/src/error.c **** 
 326:Middlewares/Third_Party/wolfSSL_wolfSSL_wolfSSL/wolfssl/wolfcrypt/src/error.c ****     case AESGCM_KAT_FIPS_E:
 327:Middlewares/Third_Party/wolfSSL_wolfSSL_wolfSSL/wolfssl/wolfcrypt/src/error.c ****         return "AESGCM Known Answer Test check FIPS error";
 328:Middlewares/Third_Party/wolfSSL_wolfSSL_wolfSSL/wolfssl/wolfcrypt/src/error.c **** 
 329:Middlewares/Third_Party/wolfSSL_wolfSSL_wolfSSL/wolfssl/wolfcrypt/src/error.c ****     case THREAD_STORE_KEY_E:
 330:Middlewares/Third_Party/wolfSSL_wolfSSL_wolfSSL/wolfssl/wolfcrypt/src/error.c ****         return "Thread Storage Key Create error";
 331:Middlewares/Third_Party/wolfSSL_wolfSSL_wolfSSL/wolfssl/wolfcrypt/src/error.c **** 
 332:Middlewares/Third_Party/wolfSSL_wolfSSL_wolfSSL/wolfssl/wolfcrypt/src/error.c ****     case THREAD_STORE_SET_E:
 333:Middlewares/Third_Party/wolfSSL_wolfSSL_wolfSSL/wolfssl/wolfcrypt/src/error.c ****         return "Thread Storage Set error";
 334:Middlewares/Third_Party/wolfSSL_wolfSSL_wolfSSL/wolfssl/wolfcrypt/src/error.c **** 
 335:Middlewares/Third_Party/wolfSSL_wolfSSL_wolfSSL/wolfssl/wolfcrypt/src/error.c ****     case MAC_CMP_FAILED_E:
 336:Middlewares/Third_Party/wolfSSL_wolfSSL_wolfSSL/wolfssl/wolfcrypt/src/error.c ****         return "MAC comparison failed";
 337:Middlewares/Third_Party/wolfSSL_wolfSSL_wolfSSL/wolfssl/wolfcrypt/src/error.c **** 
 338:Middlewares/Third_Party/wolfSSL_wolfSSL_wolfSSL/wolfssl/wolfcrypt/src/error.c ****     case IS_POINT_E:
 339:Middlewares/Third_Party/wolfSSL_wolfSSL_wolfSSL/wolfssl/wolfcrypt/src/error.c ****         return "ECC is point on curve failed";
 340:Middlewares/Third_Party/wolfSSL_wolfSSL_wolfSSL/wolfssl/wolfcrypt/src/error.c **** 
 341:Middlewares/Third_Party/wolfSSL_wolfSSL_wolfSSL/wolfssl/wolfcrypt/src/error.c ****     case ECC_INF_E:
 342:Middlewares/Third_Party/wolfSSL_wolfSSL_wolfSSL/wolfssl/wolfcrypt/src/error.c ****         return " ECC point at infinity error";
 343:Middlewares/Third_Party/wolfSSL_wolfSSL_wolfSSL/wolfssl/wolfcrypt/src/error.c **** 
 344:Middlewares/Third_Party/wolfSSL_wolfSSL_wolfSSL/wolfssl/wolfcrypt/src/error.c ****     case ECC_OUT_OF_RANGE_E:
 345:Middlewares/Third_Party/wolfSSL_wolfSSL_wolfSSL/wolfssl/wolfcrypt/src/error.c ****         return " ECC Qx or Qy out of range error";
 346:Middlewares/Third_Party/wolfSSL_wolfSSL_wolfSSL/wolfssl/wolfcrypt/src/error.c **** 
 347:Middlewares/Third_Party/wolfSSL_wolfSSL_wolfSSL/wolfssl/wolfcrypt/src/error.c ****     case ECC_PRIV_KEY_E:
 348:Middlewares/Third_Party/wolfSSL_wolfSSL_wolfSSL/wolfssl/wolfcrypt/src/error.c ****         return " ECC private key is not valid error";
 349:Middlewares/Third_Party/wolfSSL_wolfSSL_wolfSSL/wolfssl/wolfcrypt/src/error.c **** 
 350:Middlewares/Third_Party/wolfSSL_wolfSSL_wolfSSL/wolfssl/wolfcrypt/src/error.c ****     case SRP_CALL_ORDER_E:
 351:Middlewares/Third_Party/wolfSSL_wolfSSL_wolfSSL/wolfssl/wolfcrypt/src/error.c ****         return "SRP function called in the wrong order error";
 352:Middlewares/Third_Party/wolfSSL_wolfSSL_wolfSSL/wolfssl/wolfcrypt/src/error.c **** 
 353:Middlewares/Third_Party/wolfSSL_wolfSSL_wolfSSL/wolfssl/wolfcrypt/src/error.c ****     case SRP_VERIFY_E:
 354:Middlewares/Third_Party/wolfSSL_wolfSSL_wolfSSL/wolfssl/wolfcrypt/src/error.c ****         return "SRP proof verification error";
 355:Middlewares/Third_Party/wolfSSL_wolfSSL_wolfSSL/wolfssl/wolfcrypt/src/error.c **** 
 356:Middlewares/Third_Party/wolfSSL_wolfSSL_wolfSSL/wolfssl/wolfcrypt/src/error.c ****     case SRP_BAD_KEY_E:
 357:Middlewares/Third_Party/wolfSSL_wolfSSL_wolfSSL/wolfssl/wolfcrypt/src/error.c ****         return "SRP bad key values error";
 358:Middlewares/Third_Party/wolfSSL_wolfSSL_wolfSSL/wolfssl/wolfcrypt/src/error.c **** 
 359:Middlewares/Third_Party/wolfSSL_wolfSSL_wolfSSL/wolfssl/wolfcrypt/src/error.c ****     case ASN_NO_SKID:
 360:Middlewares/Third_Party/wolfSSL_wolfSSL_wolfSSL/wolfssl/wolfcrypt/src/error.c ****         return "ASN no Subject Key Identifier found error";
 361:Middlewares/Third_Party/wolfSSL_wolfSSL_wolfSSL/wolfssl/wolfcrypt/src/error.c **** 
 362:Middlewares/Third_Party/wolfSSL_wolfSSL_wolfSSL/wolfssl/wolfcrypt/src/error.c ****     case ASN_NO_AKID:
 363:Middlewares/Third_Party/wolfSSL_wolfSSL_wolfSSL/wolfssl/wolfcrypt/src/error.c ****         return "ASN no Authority Key Identifier found error";
 364:Middlewares/Third_Party/wolfSSL_wolfSSL_wolfSSL/wolfssl/wolfcrypt/src/error.c **** 
 365:Middlewares/Third_Party/wolfSSL_wolfSSL_wolfSSL/wolfssl/wolfcrypt/src/error.c ****     case ASN_NO_KEYUSAGE:
ARM GAS  /tmp/ccisCKci.s 			page 31


 366:Middlewares/Third_Party/wolfSSL_wolfSSL_wolfSSL/wolfssl/wolfcrypt/src/error.c ****         return "ASN no Key Usage found error";
 367:Middlewares/Third_Party/wolfSSL_wolfSSL_wolfSSL/wolfssl/wolfcrypt/src/error.c **** 
 368:Middlewares/Third_Party/wolfSSL_wolfSSL_wolfSSL/wolfssl/wolfcrypt/src/error.c ****     case SKID_E:
 369:Middlewares/Third_Party/wolfSSL_wolfSSL_wolfSSL/wolfssl/wolfcrypt/src/error.c ****         return "Setting Subject Key Identifier error";
 370:Middlewares/Third_Party/wolfSSL_wolfSSL_wolfSSL/wolfssl/wolfcrypt/src/error.c **** 
 371:Middlewares/Third_Party/wolfSSL_wolfSSL_wolfSSL/wolfssl/wolfcrypt/src/error.c ****     case AKID_E:
 372:Middlewares/Third_Party/wolfSSL_wolfSSL_wolfSSL/wolfssl/wolfcrypt/src/error.c ****         return "Setting Authority Key Identifier error";
 373:Middlewares/Third_Party/wolfSSL_wolfSSL_wolfSSL/wolfssl/wolfcrypt/src/error.c **** 
 374:Middlewares/Third_Party/wolfSSL_wolfSSL_wolfSSL/wolfssl/wolfcrypt/src/error.c ****     case KEYUSAGE_E:
 375:Middlewares/Third_Party/wolfSSL_wolfSSL_wolfSSL/wolfssl/wolfcrypt/src/error.c ****         return "Key Usage value error";
 376:Middlewares/Third_Party/wolfSSL_wolfSSL_wolfSSL/wolfssl/wolfcrypt/src/error.c **** 
 377:Middlewares/Third_Party/wolfSSL_wolfSSL_wolfSSL/wolfssl/wolfcrypt/src/error.c ****     case EXTKEYUSAGE_E:
 378:Middlewares/Third_Party/wolfSSL_wolfSSL_wolfSSL/wolfssl/wolfcrypt/src/error.c ****         return "Extended Key Usage value error";
 379:Middlewares/Third_Party/wolfSSL_wolfSSL_wolfSSL/wolfssl/wolfcrypt/src/error.c **** 
 380:Middlewares/Third_Party/wolfSSL_wolfSSL_wolfSSL/wolfssl/wolfcrypt/src/error.c ****     case CERTPOLICIES_E:
 381:Middlewares/Third_Party/wolfSSL_wolfSSL_wolfSSL/wolfssl/wolfcrypt/src/error.c ****         return "Setting Certificate Policies error";
 382:Middlewares/Third_Party/wolfSSL_wolfSSL_wolfSSL/wolfssl/wolfcrypt/src/error.c **** 
 383:Middlewares/Third_Party/wolfSSL_wolfSSL_wolfSSL/wolfssl/wolfcrypt/src/error.c ****     case WC_INIT_E:
 384:Middlewares/Third_Party/wolfSSL_wolfSSL_wolfSSL/wolfssl/wolfcrypt/src/error.c ****         return "wolfCrypt Initialize Failure error";
 385:Middlewares/Third_Party/wolfSSL_wolfSSL_wolfSSL/wolfssl/wolfcrypt/src/error.c **** 
 386:Middlewares/Third_Party/wolfSSL_wolfSSL_wolfSSL/wolfssl/wolfcrypt/src/error.c ****     case SIG_VERIFY_E:
 387:Middlewares/Third_Party/wolfSSL_wolfSSL_wolfSSL/wolfssl/wolfcrypt/src/error.c ****         return "Signature verify error";
 388:Middlewares/Third_Party/wolfSSL_wolfSSL_wolfSSL/wolfssl/wolfcrypt/src/error.c **** 
 389:Middlewares/Third_Party/wolfSSL_wolfSSL_wolfSSL/wolfssl/wolfcrypt/src/error.c ****     case BAD_COND_E:
 390:Middlewares/Third_Party/wolfSSL_wolfSSL_wolfSSL/wolfssl/wolfcrypt/src/error.c ****         return "Bad condition variable operation error";
 391:Middlewares/Third_Party/wolfSSL_wolfSSL_wolfSSL/wolfssl/wolfcrypt/src/error.c **** 
 392:Middlewares/Third_Party/wolfSSL_wolfSSL_wolfSSL/wolfssl/wolfcrypt/src/error.c ****     case SIG_TYPE_E:
 393:Middlewares/Third_Party/wolfSSL_wolfSSL_wolfSSL/wolfssl/wolfcrypt/src/error.c ****         return "Signature type not enabled/available";
 394:Middlewares/Third_Party/wolfSSL_wolfSSL_wolfSSL/wolfssl/wolfcrypt/src/error.c **** 
 395:Middlewares/Third_Party/wolfSSL_wolfSSL_wolfSSL/wolfssl/wolfcrypt/src/error.c ****     case HASH_TYPE_E:
 396:Middlewares/Third_Party/wolfSSL_wolfSSL_wolfSSL/wolfssl/wolfcrypt/src/error.c ****         return "Hash type not enabled/available";
 397:Middlewares/Third_Party/wolfSSL_wolfSSL_wolfSSL/wolfssl/wolfcrypt/src/error.c **** 
 398:Middlewares/Third_Party/wolfSSL_wolfSSL_wolfSSL/wolfssl/wolfcrypt/src/error.c ****     case WC_KEY_SIZE_E:
 399:Middlewares/Third_Party/wolfSSL_wolfSSL_wolfSSL/wolfssl/wolfcrypt/src/error.c ****         return "Key size error, either too small or large";
 400:Middlewares/Third_Party/wolfSSL_wolfSSL_wolfSSL/wolfssl/wolfcrypt/src/error.c **** 
 401:Middlewares/Third_Party/wolfSSL_wolfSSL_wolfSSL/wolfssl/wolfcrypt/src/error.c ****     case ASN_COUNTRY_SIZE_E:
 402:Middlewares/Third_Party/wolfSSL_wolfSSL_wolfSSL/wolfssl/wolfcrypt/src/error.c ****         return "Country code size error, either too small or large";
 403:Middlewares/Third_Party/wolfSSL_wolfSSL_wolfSSL/wolfssl/wolfcrypt/src/error.c **** 
 404:Middlewares/Third_Party/wolfSSL_wolfSSL_wolfSSL/wolfssl/wolfcrypt/src/error.c ****     case MISSING_RNG_E:
 405:Middlewares/Third_Party/wolfSSL_wolfSSL_wolfSSL/wolfssl/wolfcrypt/src/error.c ****         return "RNG required but not provided";
 406:Middlewares/Third_Party/wolfSSL_wolfSSL_wolfSSL/wolfssl/wolfcrypt/src/error.c **** 
 407:Middlewares/Third_Party/wolfSSL_wolfSSL_wolfSSL/wolfssl/wolfcrypt/src/error.c ****     case ASN_PATHLEN_SIZE_E:
 408:Middlewares/Third_Party/wolfSSL_wolfSSL_wolfSSL/wolfssl/wolfcrypt/src/error.c ****         return "ASN CA path length value too large error";
 409:Middlewares/Third_Party/wolfSSL_wolfSSL_wolfSSL/wolfssl/wolfcrypt/src/error.c **** 
 410:Middlewares/Third_Party/wolfSSL_wolfSSL_wolfSSL/wolfssl/wolfcrypt/src/error.c ****     case ASN_PATHLEN_INV_E:
 411:Middlewares/Third_Party/wolfSSL_wolfSSL_wolfSSL/wolfssl/wolfcrypt/src/error.c ****         return "ASN CA path length larger than signer error";
 412:Middlewares/Third_Party/wolfSSL_wolfSSL_wolfSSL/wolfssl/wolfcrypt/src/error.c **** 
 413:Middlewares/Third_Party/wolfSSL_wolfSSL_wolfSSL/wolfssl/wolfcrypt/src/error.c ****     case BAD_KEYWRAP_ALG_E:
 414:Middlewares/Third_Party/wolfSSL_wolfSSL_wolfSSL/wolfssl/wolfcrypt/src/error.c ****         return "Unsupported key wrap algorithm error";
 415:Middlewares/Third_Party/wolfSSL_wolfSSL_wolfSSL/wolfssl/wolfcrypt/src/error.c **** 
 416:Middlewares/Third_Party/wolfSSL_wolfSSL_wolfSSL/wolfssl/wolfcrypt/src/error.c ****     case BAD_KEYWRAP_IV_E:
 417:Middlewares/Third_Party/wolfSSL_wolfSSL_wolfSSL/wolfssl/wolfcrypt/src/error.c ****         return "Decrypted AES key wrap IV does not match expected";
 418:Middlewares/Third_Party/wolfSSL_wolfSSL_wolfSSL/wolfssl/wolfcrypt/src/error.c **** 
 419:Middlewares/Third_Party/wolfSSL_wolfSSL_wolfSSL/wolfssl/wolfcrypt/src/error.c ****     case WC_CLEANUP_E:
 420:Middlewares/Third_Party/wolfSSL_wolfSSL_wolfSSL/wolfssl/wolfcrypt/src/error.c ****         return "wolfcrypt cleanup failed";
 421:Middlewares/Third_Party/wolfSSL_wolfSSL_wolfSSL/wolfssl/wolfcrypt/src/error.c **** 
 422:Middlewares/Third_Party/wolfSSL_wolfSSL_wolfSSL/wolfssl/wolfcrypt/src/error.c ****     case ECC_CDH_KAT_FIPS_E:
ARM GAS  /tmp/ccisCKci.s 			page 32


 423:Middlewares/Third_Party/wolfSSL_wolfSSL_wolfSSL/wolfssl/wolfcrypt/src/error.c ****         return "wolfcrypt FIPS ECC CDH Known Answer Test Failure";
 424:Middlewares/Third_Party/wolfSSL_wolfSSL_wolfSSL/wolfssl/wolfcrypt/src/error.c **** 
 425:Middlewares/Third_Party/wolfSSL_wolfSSL_wolfSSL/wolfssl/wolfcrypt/src/error.c ****     case DH_CHECK_PUB_E:
 426:Middlewares/Third_Party/wolfSSL_wolfSSL_wolfSSL/wolfssl/wolfcrypt/src/error.c ****         return "DH Check Public Key failure";
 427:Middlewares/Third_Party/wolfSSL_wolfSSL_wolfSSL/wolfssl/wolfcrypt/src/error.c **** 
 428:Middlewares/Third_Party/wolfSSL_wolfSSL_wolfSSL/wolfssl/wolfcrypt/src/error.c ****     case BAD_PATH_ERROR:
 429:Middlewares/Third_Party/wolfSSL_wolfSSL_wolfSSL/wolfssl/wolfcrypt/src/error.c ****         return "Bad path for opendir error";
 430:Middlewares/Third_Party/wolfSSL_wolfSSL_wolfSSL/wolfssl/wolfcrypt/src/error.c **** 
 431:Middlewares/Third_Party/wolfSSL_wolfSSL_wolfSSL/wolfssl/wolfcrypt/src/error.c ****     case ASYNC_OP_E:
 432:Middlewares/Third_Party/wolfSSL_wolfSSL_wolfSSL/wolfssl/wolfcrypt/src/error.c ****         return "Async operation error";
 433:Middlewares/Third_Party/wolfSSL_wolfSSL_wolfSSL/wolfssl/wolfcrypt/src/error.c **** 
 434:Middlewares/Third_Party/wolfSSL_wolfSSL_wolfSSL/wolfssl/wolfcrypt/src/error.c ****     case BAD_OCSP_RESPONDER:
 435:Middlewares/Third_Party/wolfSSL_wolfSSL_wolfSSL/wolfssl/wolfcrypt/src/error.c ****         return "Invalid OCSP Responder, missing specific key usage extensions";
 436:Middlewares/Third_Party/wolfSSL_wolfSSL_wolfSSL/wolfssl/wolfcrypt/src/error.c **** 
 437:Middlewares/Third_Party/wolfSSL_wolfSSL_wolfSSL/wolfssl/wolfcrypt/src/error.c ****     case ECC_PRIVATEONLY_E:
 438:Middlewares/Third_Party/wolfSSL_wolfSSL_wolfSSL/wolfssl/wolfcrypt/src/error.c ****         return "Invalid use of private only ECC key";
 439:Middlewares/Third_Party/wolfSSL_wolfSSL_wolfSSL/wolfssl/wolfcrypt/src/error.c **** 
 440:Middlewares/Third_Party/wolfSSL_wolfSSL_wolfSSL/wolfssl/wolfcrypt/src/error.c ****     case WC_HW_E:
 441:Middlewares/Third_Party/wolfSSL_wolfSSL_wolfSSL/wolfssl/wolfcrypt/src/error.c ****         return "Error with hardware crypto use";
 442:Middlewares/Third_Party/wolfSSL_wolfSSL_wolfSSL/wolfssl/wolfcrypt/src/error.c **** 
 443:Middlewares/Third_Party/wolfSSL_wolfSSL_wolfSSL/wolfssl/wolfcrypt/src/error.c ****     case WC_HW_WAIT_E:
 444:Middlewares/Third_Party/wolfSSL_wolfSSL_wolfSSL/wolfssl/wolfcrypt/src/error.c ****         return "Hardware waiting on resource";
 445:Middlewares/Third_Party/wolfSSL_wolfSSL_wolfSSL/wolfssl/wolfcrypt/src/error.c **** 
 446:Middlewares/Third_Party/wolfSSL_wolfSSL_wolfSSL/wolfssl/wolfcrypt/src/error.c ****     case PSS_SALTLEN_E:
 447:Middlewares/Third_Party/wolfSSL_wolfSSL_wolfSSL/wolfssl/wolfcrypt/src/error.c ****         return "PSS - Length of salt is too big for hash algorithm";
 448:Middlewares/Third_Party/wolfSSL_wolfSSL_wolfSSL/wolfssl/wolfcrypt/src/error.c **** 
 449:Middlewares/Third_Party/wolfSSL_wolfSSL_wolfSSL/wolfssl/wolfcrypt/src/error.c ****     case PRIME_GEN_E:
 450:Middlewares/Third_Party/wolfSSL_wolfSSL_wolfSSL/wolfssl/wolfcrypt/src/error.c ****         return "Unable to find a prime for RSA key";
 451:Middlewares/Third_Party/wolfSSL_wolfSSL_wolfSSL/wolfssl/wolfcrypt/src/error.c **** 
 452:Middlewares/Third_Party/wolfSSL_wolfSSL_wolfSSL/wolfssl/wolfcrypt/src/error.c ****     case BER_INDEF_E:
 453:Middlewares/Third_Party/wolfSSL_wolfSSL_wolfSSL/wolfssl/wolfcrypt/src/error.c ****         return "Unable to decode an indefinite length encoded message";
 454:Middlewares/Third_Party/wolfSSL_wolfSSL_wolfSSL/wolfssl/wolfcrypt/src/error.c **** 
 455:Middlewares/Third_Party/wolfSSL_wolfSSL_wolfSSL/wolfssl/wolfcrypt/src/error.c ****     case RSA_OUT_OF_RANGE_E:
 456:Middlewares/Third_Party/wolfSSL_wolfSSL_wolfSSL/wolfssl/wolfcrypt/src/error.c ****         return "Ciphertext to decrypt is out of range";
 457:Middlewares/Third_Party/wolfSSL_wolfSSL_wolfSSL/wolfssl/wolfcrypt/src/error.c **** 
 458:Middlewares/Third_Party/wolfSSL_wolfSSL_wolfSSL/wolfssl/wolfcrypt/src/error.c ****     case RSAPSS_PAT_FIPS_E:
 459:Middlewares/Third_Party/wolfSSL_wolfSSL_wolfSSL/wolfssl/wolfcrypt/src/error.c ****         return "wolfcrypt FIPS RSA-PSS Pairwise Agreement Test Failure";
 460:Middlewares/Third_Party/wolfSSL_wolfSSL_wolfSSL/wolfssl/wolfcrypt/src/error.c **** 
 461:Middlewares/Third_Party/wolfSSL_wolfSSL_wolfSSL/wolfssl/wolfcrypt/src/error.c ****     case ECDSA_PAT_FIPS_E:
 462:Middlewares/Third_Party/wolfSSL_wolfSSL_wolfSSL/wolfssl/wolfcrypt/src/error.c ****         return "wolfcrypt FIPS ECDSA Pairwise Agreement Test Failure";
 463:Middlewares/Third_Party/wolfSSL_wolfSSL_wolfSSL/wolfssl/wolfcrypt/src/error.c **** 
 464:Middlewares/Third_Party/wolfSSL_wolfSSL_wolfSSL/wolfssl/wolfcrypt/src/error.c ****     case DH_KAT_FIPS_E:
 465:Middlewares/Third_Party/wolfSSL_wolfSSL_wolfSSL/wolfssl/wolfcrypt/src/error.c ****         return "wolfcrypt FIPS DH Known Answer Test Failure";
 466:Middlewares/Third_Party/wolfSSL_wolfSSL_wolfSSL/wolfssl/wolfcrypt/src/error.c **** 
 467:Middlewares/Third_Party/wolfSSL_wolfSSL_wolfSSL/wolfssl/wolfcrypt/src/error.c ****     case AESCCM_KAT_FIPS_E:
 468:Middlewares/Third_Party/wolfSSL_wolfSSL_wolfSSL/wolfssl/wolfcrypt/src/error.c ****         return "AESCCM Known Answer Test check FIPS error";
 469:Middlewares/Third_Party/wolfSSL_wolfSSL_wolfSSL/wolfssl/wolfcrypt/src/error.c **** 
 470:Middlewares/Third_Party/wolfSSL_wolfSSL_wolfSSL/wolfssl/wolfcrypt/src/error.c ****     case SHA3_KAT_FIPS_E:
 471:Middlewares/Third_Party/wolfSSL_wolfSSL_wolfSSL/wolfssl/wolfcrypt/src/error.c ****         return "SHA-3 Known Answer Test check FIPS error";
 472:Middlewares/Third_Party/wolfSSL_wolfSSL_wolfSSL/wolfssl/wolfcrypt/src/error.c **** 
 473:Middlewares/Third_Party/wolfSSL_wolfSSL_wolfSSL/wolfssl/wolfcrypt/src/error.c ****     case ECDHE_KAT_FIPS_E:
 474:Middlewares/Third_Party/wolfSSL_wolfSSL_wolfSSL/wolfssl/wolfcrypt/src/error.c ****         return "wolfcrypt FIPS ECDHE Known Answer Test Failure";
 475:Middlewares/Third_Party/wolfSSL_wolfSSL_wolfSSL/wolfssl/wolfcrypt/src/error.c **** 
 476:Middlewares/Third_Party/wolfSSL_wolfSSL_wolfSSL/wolfssl/wolfcrypt/src/error.c ****     case AES_GCM_OVERFLOW_E:
 477:Middlewares/Third_Party/wolfSSL_wolfSSL_wolfSSL/wolfssl/wolfcrypt/src/error.c ****         return "AES-GCM invocation counter overflow";
 478:Middlewares/Third_Party/wolfSSL_wolfSSL_wolfSSL/wolfssl/wolfcrypt/src/error.c **** 
 479:Middlewares/Third_Party/wolfSSL_wolfSSL_wolfSSL/wolfssl/wolfcrypt/src/error.c ****     case AES_CCM_OVERFLOW_E:
ARM GAS  /tmp/ccisCKci.s 			page 33


 480:Middlewares/Third_Party/wolfSSL_wolfSSL_wolfSSL/wolfssl/wolfcrypt/src/error.c ****         return "AES-CCM invocation counter overflow";
 481:Middlewares/Third_Party/wolfSSL_wolfSSL_wolfSSL/wolfssl/wolfcrypt/src/error.c **** 
 482:Middlewares/Third_Party/wolfSSL_wolfSSL_wolfSSL/wolfssl/wolfcrypt/src/error.c ****     case RSA_KEY_PAIR_E:
 483:Middlewares/Third_Party/wolfSSL_wolfSSL_wolfSSL/wolfssl/wolfcrypt/src/error.c ****         return "RSA Key Pair-Wise Consistency check fail";
 484:Middlewares/Third_Party/wolfSSL_wolfSSL_wolfSSL/wolfssl/wolfcrypt/src/error.c **** 
 485:Middlewares/Third_Party/wolfSSL_wolfSSL_wolfSSL/wolfssl/wolfcrypt/src/error.c ****     case DH_CHECK_PRIV_E:
 486:Middlewares/Third_Party/wolfSSL_wolfSSL_wolfSSL/wolfssl/wolfcrypt/src/error.c ****         return "DH Check Private Key failure";
 487:Middlewares/Third_Party/wolfSSL_wolfSSL_wolfSSL/wolfssl/wolfcrypt/src/error.c **** 
 488:Middlewares/Third_Party/wolfSSL_wolfSSL_wolfSSL/wolfssl/wolfcrypt/src/error.c ****     case WC_AFALG_SOCK_E:
 489:Middlewares/Third_Party/wolfSSL_wolfSSL_wolfSSL/wolfssl/wolfcrypt/src/error.c ****         return "AF_ALG socket error";
 490:Middlewares/Third_Party/wolfSSL_wolfSSL_wolfSSL/wolfssl/wolfcrypt/src/error.c **** 
 491:Middlewares/Third_Party/wolfSSL_wolfSSL_wolfSSL/wolfssl/wolfcrypt/src/error.c ****     case WC_DEVCRYPTO_E:
 492:Middlewares/Third_Party/wolfSSL_wolfSSL_wolfSSL/wolfssl/wolfcrypt/src/error.c ****         return "Error with /dev/crypto";
 493:Middlewares/Third_Party/wolfSSL_wolfSSL_wolfSSL/wolfssl/wolfcrypt/src/error.c **** 
 494:Middlewares/Third_Party/wolfSSL_wolfSSL_wolfSSL/wolfssl/wolfcrypt/src/error.c ****     case ZLIB_INIT_ERROR:
 495:Middlewares/Third_Party/wolfSSL_wolfSSL_wolfSSL/wolfssl/wolfcrypt/src/error.c ****         return "zlib init error";
 496:Middlewares/Third_Party/wolfSSL_wolfSSL_wolfSSL/wolfssl/wolfcrypt/src/error.c **** 
 497:Middlewares/Third_Party/wolfSSL_wolfSSL_wolfSSL/wolfssl/wolfcrypt/src/error.c ****     case ZLIB_COMPRESS_ERROR:
 498:Middlewares/Third_Party/wolfSSL_wolfSSL_wolfSSL/wolfssl/wolfcrypt/src/error.c ****         return "zlib compress error";
 499:Middlewares/Third_Party/wolfSSL_wolfSSL_wolfSSL/wolfssl/wolfcrypt/src/error.c **** 
 500:Middlewares/Third_Party/wolfSSL_wolfSSL_wolfSSL/wolfssl/wolfcrypt/src/error.c ****     case ZLIB_DECOMPRESS_ERROR:
 501:Middlewares/Third_Party/wolfSSL_wolfSSL_wolfSSL/wolfssl/wolfcrypt/src/error.c ****         return "zlib decompress error";
 502:Middlewares/Third_Party/wolfSSL_wolfSSL_wolfSSL/wolfssl/wolfcrypt/src/error.c **** 
 503:Middlewares/Third_Party/wolfSSL_wolfSSL_wolfSSL/wolfssl/wolfcrypt/src/error.c ****     case PKCS7_NO_SIGNER_E:
 504:Middlewares/Third_Party/wolfSSL_wolfSSL_wolfSSL/wolfssl/wolfcrypt/src/error.c ****         return "No signer in PKCS#7 signed data";
 505:Middlewares/Third_Party/wolfSSL_wolfSSL_wolfSSL/wolfssl/wolfcrypt/src/error.c **** 
 506:Middlewares/Third_Party/wolfSSL_wolfSSL_wolfSSL/wolfssl/wolfcrypt/src/error.c ****     case CRYPTOCB_UNAVAILABLE:
 507:Middlewares/Third_Party/wolfSSL_wolfSSL_wolfSSL/wolfssl/wolfcrypt/src/error.c ****         return "Crypto callback unavailable";
 508:Middlewares/Third_Party/wolfSSL_wolfSSL_wolfSSL/wolfssl/wolfcrypt/src/error.c **** 
 509:Middlewares/Third_Party/wolfSSL_wolfSSL_wolfSSL/wolfssl/wolfcrypt/src/error.c ****     case PKCS7_SIGNEEDS_CHECK:
 510:Middlewares/Third_Party/wolfSSL_wolfSSL_wolfSSL/wolfssl/wolfcrypt/src/error.c ****         return "Signature found but no certificate to verify";
 511:Middlewares/Third_Party/wolfSSL_wolfSSL_wolfSSL/wolfssl/wolfcrypt/src/error.c **** 
 512:Middlewares/Third_Party/wolfSSL_wolfSSL_wolfSSL/wolfssl/wolfcrypt/src/error.c ****     case PSS_SALTLEN_RECOVER_E:
 513:Middlewares/Third_Party/wolfSSL_wolfSSL_wolfSSL/wolfssl/wolfcrypt/src/error.c ****         return "PSS - Salt length unable to be recovered";
 514:Middlewares/Third_Party/wolfSSL_wolfSSL_wolfSSL/wolfssl/wolfcrypt/src/error.c **** 
 515:Middlewares/Third_Party/wolfSSL_wolfSSL_wolfSSL/wolfssl/wolfcrypt/src/error.c ****     case CHACHA_POLY_OVERFLOW:
 516:Middlewares/Third_Party/wolfSSL_wolfSSL_wolfSSL/wolfssl/wolfcrypt/src/error.c ****         return "wolfcrypt - ChaCha20_Poly1305 limit overflow 4GB";
 517:Middlewares/Third_Party/wolfSSL_wolfSSL_wolfSSL/wolfssl/wolfcrypt/src/error.c **** 
 518:Middlewares/Third_Party/wolfSSL_wolfSSL_wolfSSL/wolfssl/wolfcrypt/src/error.c ****     case ASN_SELF_SIGNED_E:
 519:Middlewares/Third_Party/wolfSSL_wolfSSL_wolfSSL/wolfssl/wolfcrypt/src/error.c ****         return "ASN self-signed certificate error";
 707              		.loc 1 519 16 view .LVU3
 708 016c 7E48     		ldr	r0, .L165
 709              	.LVL2:
 710              		.loc 1 519 16 view .LVU4
 711 016e 7047     		bx	lr
 712              	.L6:
  48:Middlewares/Third_Party/wolfSSL_wolfSSL_wolfSSL/wolfssl/wolfcrypt/src/error.c **** 
 713              		.loc 1 48 9 is_stmt 1 view .LVU5
  48:Middlewares/Third_Party/wolfSSL_wolfSSL_wolfSSL/wolfssl/wolfcrypt/src/error.c **** 
 714              		.loc 1 48 16 is_stmt 0 view .LVU6
 715 0170 7E48     		ldr	r0, .L165+4
 716 0172 7047     		bx	lr
 717              	.L7:
  51:Middlewares/Third_Party/wolfSSL_wolfSSL_wolfSSL/wolfssl/wolfcrypt/src/error.c **** 
 718              		.loc 1 51 9 is_stmt 1 view .LVU7
  51:Middlewares/Third_Party/wolfSSL_wolfSSL_wolfSSL/wolfssl/wolfcrypt/src/error.c **** 
 719              		.loc 1 51 16 is_stmt 0 view .LVU8
ARM GAS  /tmp/ccisCKci.s 			page 34


 720 0174 7E48     		ldr	r0, .L165+8
 721 0176 7047     		bx	lr
 722              	.L8:
  54:Middlewares/Third_Party/wolfSSL_wolfSSL_wolfSSL/wolfssl/wolfcrypt/src/error.c **** 
 723              		.loc 1 54 9 is_stmt 1 view .LVU9
  54:Middlewares/Third_Party/wolfSSL_wolfSSL_wolfSSL/wolfssl/wolfcrypt/src/error.c **** 
 724              		.loc 1 54 16 is_stmt 0 view .LVU10
 725 0178 7E48     		ldr	r0, .L165+12
 726 017a 7047     		bx	lr
 727              	.L9:
  57:Middlewares/Third_Party/wolfSSL_wolfSSL_wolfSSL/wolfssl/wolfcrypt/src/error.c **** 
 728              		.loc 1 57 9 is_stmt 1 view .LVU11
  57:Middlewares/Third_Party/wolfSSL_wolfSSL_wolfSSL/wolfssl/wolfcrypt/src/error.c **** 
 729              		.loc 1 57 16 is_stmt 0 view .LVU12
 730 017c 7E48     		ldr	r0, .L165+16
 731 017e 7047     		bx	lr
 732              	.L10:
  60:Middlewares/Third_Party/wolfSSL_wolfSSL_wolfSSL/wolfssl/wolfcrypt/src/error.c **** 
 733              		.loc 1 60 9 is_stmt 1 view .LVU13
  60:Middlewares/Third_Party/wolfSSL_wolfSSL_wolfSSL/wolfssl/wolfcrypt/src/error.c **** 
 734              		.loc 1 60 16 is_stmt 0 view .LVU14
 735 0180 7E48     		ldr	r0, .L165+20
 736 0182 7047     		bx	lr
 737              	.L11:
  63:Middlewares/Third_Party/wolfSSL_wolfSSL_wolfSSL/wolfssl/wolfcrypt/src/error.c **** 
 738              		.loc 1 63 9 is_stmt 1 view .LVU15
  63:Middlewares/Third_Party/wolfSSL_wolfSSL_wolfSSL/wolfssl/wolfcrypt/src/error.c **** 
 739              		.loc 1 63 16 is_stmt 0 view .LVU16
 740 0184 7E48     		ldr	r0, .L165+24
 741 0186 7047     		bx	lr
 742              	.L12:
  66:Middlewares/Third_Party/wolfSSL_wolfSSL_wolfSSL/wolfssl/wolfcrypt/src/error.c **** 
 743              		.loc 1 66 9 is_stmt 1 view .LVU17
  66:Middlewares/Third_Party/wolfSSL_wolfSSL_wolfSSL/wolfssl/wolfcrypt/src/error.c **** 
 744              		.loc 1 66 16 is_stmt 0 view .LVU18
 745 0188 7E48     		ldr	r0, .L165+28
 746 018a 7047     		bx	lr
 747              	.L13:
  69:Middlewares/Third_Party/wolfSSL_wolfSSL_wolfSSL/wolfssl/wolfcrypt/src/error.c **** 
 748              		.loc 1 69 9 is_stmt 1 view .LVU19
  69:Middlewares/Third_Party/wolfSSL_wolfSSL_wolfSSL/wolfssl/wolfcrypt/src/error.c **** 
 749              		.loc 1 69 16 is_stmt 0 view .LVU20
 750 018c 7E48     		ldr	r0, .L165+32
 751 018e 7047     		bx	lr
 752              	.L14:
  72:Middlewares/Third_Party/wolfSSL_wolfSSL_wolfSSL/wolfssl/wolfcrypt/src/error.c **** 
 753              		.loc 1 72 9 is_stmt 1 view .LVU21
  72:Middlewares/Third_Party/wolfSSL_wolfSSL_wolfSSL/wolfssl/wolfcrypt/src/error.c **** 
 754              		.loc 1 72 16 is_stmt 0 view .LVU22
 755 0190 7E48     		ldr	r0, .L165+36
 756 0192 7047     		bx	lr
 757              	.L15:
  75:Middlewares/Third_Party/wolfSSL_wolfSSL_wolfSSL/wolfssl/wolfcrypt/src/error.c **** 
 758              		.loc 1 75 9 is_stmt 1 view .LVU23
  75:Middlewares/Third_Party/wolfSSL_wolfSSL_wolfSSL/wolfssl/wolfcrypt/src/error.c **** 
 759              		.loc 1 75 16 is_stmt 0 view .LVU24
 760 0194 7E48     		ldr	r0, .L165+40
ARM GAS  /tmp/ccisCKci.s 			page 35


 761 0196 7047     		bx	lr
 762              	.L16:
  78:Middlewares/Third_Party/wolfSSL_wolfSSL_wolfSSL/wolfssl/wolfcrypt/src/error.c **** 
 763              		.loc 1 78 9 is_stmt 1 view .LVU25
  78:Middlewares/Third_Party/wolfSSL_wolfSSL_wolfSSL/wolfssl/wolfcrypt/src/error.c **** 
 764              		.loc 1 78 16 is_stmt 0 view .LVU26
 765 0198 7E48     		ldr	r0, .L165+44
 766 019a 7047     		bx	lr
 767              	.L17:
  81:Middlewares/Third_Party/wolfSSL_wolfSSL_wolfSSL/wolfssl/wolfcrypt/src/error.c **** 
 768              		.loc 1 81 9 is_stmt 1 view .LVU27
  81:Middlewares/Third_Party/wolfSSL_wolfSSL_wolfSSL/wolfssl/wolfcrypt/src/error.c **** 
 769              		.loc 1 81 16 is_stmt 0 view .LVU28
 770 019c 7E48     		ldr	r0, .L165+48
 771 019e 7047     		bx	lr
 772              	.L18:
  84:Middlewares/Third_Party/wolfSSL_wolfSSL_wolfSSL/wolfssl/wolfcrypt/src/error.c **** 
 773              		.loc 1 84 9 is_stmt 1 view .LVU29
  84:Middlewares/Third_Party/wolfSSL_wolfSSL_wolfSSL/wolfssl/wolfcrypt/src/error.c **** 
 774              		.loc 1 84 16 is_stmt 0 view .LVU30
 775 01a0 7E48     		ldr	r0, .L165+52
 776 01a2 7047     		bx	lr
 777              	.L19:
  87:Middlewares/Third_Party/wolfSSL_wolfSSL_wolfSSL/wolfssl/wolfcrypt/src/error.c **** 
 778              		.loc 1 87 9 is_stmt 1 view .LVU31
  87:Middlewares/Third_Party/wolfSSL_wolfSSL_wolfSSL/wolfssl/wolfcrypt/src/error.c **** 
 779              		.loc 1 87 16 is_stmt 0 view .LVU32
 780 01a4 7E48     		ldr	r0, .L165+56
 781 01a6 7047     		bx	lr
 782              	.L20:
  90:Middlewares/Third_Party/wolfSSL_wolfSSL_wolfSSL/wolfssl/wolfcrypt/src/error.c **** 
 783              		.loc 1 90 9 is_stmt 1 view .LVU33
  90:Middlewares/Third_Party/wolfSSL_wolfSSL_wolfSSL/wolfssl/wolfcrypt/src/error.c **** 
 784              		.loc 1 90 16 is_stmt 0 view .LVU34
 785 01a8 7E48     		ldr	r0, .L165+60
 786 01aa 7047     		bx	lr
 787              	.L21:
  93:Middlewares/Third_Party/wolfSSL_wolfSSL_wolfSSL/wolfssl/wolfcrypt/src/error.c **** 
 788              		.loc 1 93 9 is_stmt 1 view .LVU35
  93:Middlewares/Third_Party/wolfSSL_wolfSSL_wolfSSL/wolfssl/wolfcrypt/src/error.c **** 
 789              		.loc 1 93 16 is_stmt 0 view .LVU36
 790 01ac 7E48     		ldr	r0, .L165+64
 791 01ae 7047     		bx	lr
 792              	.L22:
  96:Middlewares/Third_Party/wolfSSL_wolfSSL_wolfSSL/wolfssl/wolfcrypt/src/error.c **** 
 793              		.loc 1 96 9 is_stmt 1 view .LVU37
  96:Middlewares/Third_Party/wolfSSL_wolfSSL_wolfSSL/wolfssl/wolfcrypt/src/error.c **** 
 794              		.loc 1 96 16 is_stmt 0 view .LVU38
 795 01b0 7E48     		ldr	r0, .L165+68
 796 01b2 7047     		bx	lr
 797              	.L23:
  99:Middlewares/Third_Party/wolfSSL_wolfSSL_wolfSSL/wolfssl/wolfcrypt/src/error.c **** 
 798              		.loc 1 99 9 is_stmt 1 view .LVU39
  99:Middlewares/Third_Party/wolfSSL_wolfSSL_wolfSSL/wolfssl/wolfcrypt/src/error.c **** 
 799              		.loc 1 99 16 is_stmt 0 view .LVU40
 800 01b4 7E48     		ldr	r0, .L165+72
 801 01b6 7047     		bx	lr
ARM GAS  /tmp/ccisCKci.s 			page 36


 802              	.L24:
 102:Middlewares/Third_Party/wolfSSL_wolfSSL_wolfSSL/wolfssl/wolfcrypt/src/error.c **** 
 803              		.loc 1 102 9 is_stmt 1 view .LVU41
 102:Middlewares/Third_Party/wolfSSL_wolfSSL_wolfSSL/wolfssl/wolfcrypt/src/error.c **** 
 804              		.loc 1 102 16 is_stmt 0 view .LVU42
 805 01b8 7E48     		ldr	r0, .L165+76
 806 01ba 7047     		bx	lr
 807              	.L25:
 105:Middlewares/Third_Party/wolfSSL_wolfSSL_wolfSSL/wolfssl/wolfcrypt/src/error.c **** 
 808              		.loc 1 105 9 is_stmt 1 view .LVU43
 105:Middlewares/Third_Party/wolfSSL_wolfSSL_wolfSSL/wolfssl/wolfcrypt/src/error.c **** 
 809              		.loc 1 105 16 is_stmt 0 view .LVU44
 810 01bc 7E48     		ldr	r0, .L165+80
 811 01be 7047     		bx	lr
 812              	.L26:
 108:Middlewares/Third_Party/wolfSSL_wolfSSL_wolfSSL/wolfssl/wolfcrypt/src/error.c **** 
 813              		.loc 1 108 9 is_stmt 1 view .LVU45
 108:Middlewares/Third_Party/wolfSSL_wolfSSL_wolfSSL/wolfssl/wolfcrypt/src/error.c **** 
 814              		.loc 1 108 16 is_stmt 0 view .LVU46
 815 01c0 7E48     		ldr	r0, .L165+84
 816 01c2 7047     		bx	lr
 817              	.L27:
 111:Middlewares/Third_Party/wolfSSL_wolfSSL_wolfSSL/wolfssl/wolfcrypt/src/error.c **** 
 818              		.loc 1 111 9 is_stmt 1 view .LVU47
 111:Middlewares/Third_Party/wolfSSL_wolfSSL_wolfSSL/wolfssl/wolfcrypt/src/error.c **** 
 819              		.loc 1 111 16 is_stmt 0 view .LVU48
 820 01c4 7E48     		ldr	r0, .L165+88
 821 01c6 7047     		bx	lr
 822              	.L28:
 114:Middlewares/Third_Party/wolfSSL_wolfSSL_wolfSSL/wolfssl/wolfcrypt/src/error.c **** 
 823              		.loc 1 114 9 is_stmt 1 view .LVU49
 114:Middlewares/Third_Party/wolfSSL_wolfSSL_wolfSSL/wolfssl/wolfcrypt/src/error.c **** 
 824              		.loc 1 114 16 is_stmt 0 view .LVU50
 825 01c8 7E48     		ldr	r0, .L165+92
 826 01ca 7047     		bx	lr
 827              	.L29:
 117:Middlewares/Third_Party/wolfSSL_wolfSSL_wolfSSL/wolfssl/wolfcrypt/src/error.c **** 
 828              		.loc 1 117 9 is_stmt 1 view .LVU51
 117:Middlewares/Third_Party/wolfSSL_wolfSSL_wolfSSL/wolfssl/wolfcrypt/src/error.c **** 
 829              		.loc 1 117 16 is_stmt 0 view .LVU52
 830 01cc 7E48     		ldr	r0, .L165+96
 831 01ce 7047     		bx	lr
 832              	.L30:
 120:Middlewares/Third_Party/wolfSSL_wolfSSL_wolfSSL/wolfssl/wolfcrypt/src/error.c **** 
 833              		.loc 1 120 9 is_stmt 1 view .LVU53
 120:Middlewares/Third_Party/wolfSSL_wolfSSL_wolfSSL/wolfssl/wolfcrypt/src/error.c **** 
 834              		.loc 1 120 16 is_stmt 0 view .LVU54
 835 01d0 7E48     		ldr	r0, .L165+100
 836 01d2 7047     		bx	lr
 837              	.L31:
 123:Middlewares/Third_Party/wolfSSL_wolfSSL_wolfSSL/wolfssl/wolfcrypt/src/error.c **** 
 838              		.loc 1 123 9 is_stmt 1 view .LVU55
 123:Middlewares/Third_Party/wolfSSL_wolfSSL_wolfSSL/wolfssl/wolfcrypt/src/error.c **** 
 839              		.loc 1 123 16 is_stmt 0 view .LVU56
 840 01d4 7E48     		ldr	r0, .L165+104
 841 01d6 7047     		bx	lr
 842              	.L32:
ARM GAS  /tmp/ccisCKci.s 			page 37


 126:Middlewares/Third_Party/wolfSSL_wolfSSL_wolfSSL/wolfssl/wolfcrypt/src/error.c **** 
 843              		.loc 1 126 9 is_stmt 1 view .LVU57
 126:Middlewares/Third_Party/wolfSSL_wolfSSL_wolfSSL/wolfssl/wolfcrypt/src/error.c **** 
 844              		.loc 1 126 16 is_stmt 0 view .LVU58
 845 01d8 7E48     		ldr	r0, .L165+108
 846 01da 7047     		bx	lr
 847              	.L33:
 129:Middlewares/Third_Party/wolfSSL_wolfSSL_wolfSSL/wolfssl/wolfcrypt/src/error.c **** 
 848              		.loc 1 129 9 is_stmt 1 view .LVU59
 129:Middlewares/Third_Party/wolfSSL_wolfSSL_wolfSSL/wolfssl/wolfcrypt/src/error.c **** 
 849              		.loc 1 129 16 is_stmt 0 view .LVU60
 850 01dc 7E48     		ldr	r0, .L165+112
 851 01de 7047     		bx	lr
 852              	.L34:
 132:Middlewares/Third_Party/wolfSSL_wolfSSL_wolfSSL/wolfssl/wolfcrypt/src/error.c **** 
 853              		.loc 1 132 9 is_stmt 1 view .LVU61
 132:Middlewares/Third_Party/wolfSSL_wolfSSL_wolfSSL/wolfssl/wolfcrypt/src/error.c **** 
 854              		.loc 1 132 16 is_stmt 0 view .LVU62
 855 01e0 7E48     		ldr	r0, .L165+116
 856 01e2 7047     		bx	lr
 857              	.L35:
 135:Middlewares/Third_Party/wolfSSL_wolfSSL_wolfSSL/wolfssl/wolfcrypt/src/error.c **** 
 858              		.loc 1 135 9 is_stmt 1 view .LVU63
 135:Middlewares/Third_Party/wolfSSL_wolfSSL_wolfSSL/wolfssl/wolfcrypt/src/error.c **** 
 859              		.loc 1 135 16 is_stmt 0 view .LVU64
 860 01e4 7E48     		ldr	r0, .L165+120
 861 01e6 7047     		bx	lr
 862              	.L36:
 138:Middlewares/Third_Party/wolfSSL_wolfSSL_wolfSSL/wolfssl/wolfcrypt/src/error.c **** 
 863              		.loc 1 138 9 is_stmt 1 view .LVU65
 138:Middlewares/Third_Party/wolfSSL_wolfSSL_wolfSSL/wolfssl/wolfcrypt/src/error.c **** 
 864              		.loc 1 138 16 is_stmt 0 view .LVU66
 865 01e8 7E48     		ldr	r0, .L165+124
 866 01ea 7047     		bx	lr
 867              	.L37:
 141:Middlewares/Third_Party/wolfSSL_wolfSSL_wolfSSL/wolfssl/wolfcrypt/src/error.c **** 
 868              		.loc 1 141 9 is_stmt 1 view .LVU67
 141:Middlewares/Third_Party/wolfSSL_wolfSSL_wolfSSL/wolfssl/wolfcrypt/src/error.c **** 
 869              		.loc 1 141 16 is_stmt 0 view .LVU68
 870 01ec 7E48     		ldr	r0, .L165+128
 871 01ee 7047     		bx	lr
 872              	.L38:
 144:Middlewares/Third_Party/wolfSSL_wolfSSL_wolfSSL/wolfssl/wolfcrypt/src/error.c **** 
 873              		.loc 1 144 9 is_stmt 1 view .LVU69
 144:Middlewares/Third_Party/wolfSSL_wolfSSL_wolfSSL/wolfssl/wolfcrypt/src/error.c **** 
 874              		.loc 1 144 16 is_stmt 0 view .LVU70
 875 01f0 7E48     		ldr	r0, .L165+132
 876 01f2 7047     		bx	lr
 877              	.L39:
 147:Middlewares/Third_Party/wolfSSL_wolfSSL_wolfSSL/wolfssl/wolfcrypt/src/error.c **** 
 878              		.loc 1 147 9 is_stmt 1 view .LVU71
 147:Middlewares/Third_Party/wolfSSL_wolfSSL_wolfSSL/wolfssl/wolfcrypt/src/error.c **** 
 879              		.loc 1 147 16 is_stmt 0 view .LVU72
 880 01f4 7E48     		ldr	r0, .L165+136
 881 01f6 7047     		bx	lr
 882              	.L40:
 150:Middlewares/Third_Party/wolfSSL_wolfSSL_wolfSSL/wolfssl/wolfcrypt/src/error.c **** 
ARM GAS  /tmp/ccisCKci.s 			page 38


 883              		.loc 1 150 9 is_stmt 1 view .LVU73
 150:Middlewares/Third_Party/wolfSSL_wolfSSL_wolfSSL/wolfssl/wolfcrypt/src/error.c **** 
 884              		.loc 1 150 16 is_stmt 0 view .LVU74
 885 01f8 7E48     		ldr	r0, .L165+140
 886 01fa 7047     		bx	lr
 887              	.L41:
 153:Middlewares/Third_Party/wolfSSL_wolfSSL_wolfSSL/wolfssl/wolfcrypt/src/error.c **** 
 888              		.loc 1 153 9 is_stmt 1 view .LVU75
 153:Middlewares/Third_Party/wolfSSL_wolfSSL_wolfSSL/wolfssl/wolfcrypt/src/error.c **** 
 889              		.loc 1 153 16 is_stmt 0 view .LVU76
 890 01fc 7E48     		ldr	r0, .L165+144
 891 01fe 7047     		bx	lr
 892              	.L42:
 156:Middlewares/Third_Party/wolfSSL_wolfSSL_wolfSSL/wolfssl/wolfcrypt/src/error.c **** 
 893              		.loc 1 156 9 is_stmt 1 view .LVU77
 156:Middlewares/Third_Party/wolfSSL_wolfSSL_wolfSSL/wolfssl/wolfcrypt/src/error.c **** 
 894              		.loc 1 156 16 is_stmt 0 view .LVU78
 895 0200 7E48     		ldr	r0, .L165+148
 896 0202 7047     		bx	lr
 897              	.L43:
 159:Middlewares/Third_Party/wolfSSL_wolfSSL_wolfSSL/wolfssl/wolfcrypt/src/error.c **** 
 898              		.loc 1 159 9 is_stmt 1 view .LVU79
 159:Middlewares/Third_Party/wolfSSL_wolfSSL_wolfSSL/wolfssl/wolfcrypt/src/error.c **** 
 899              		.loc 1 159 16 is_stmt 0 view .LVU80
 900 0204 7E48     		ldr	r0, .L165+152
 901 0206 7047     		bx	lr
 902              	.L44:
 162:Middlewares/Third_Party/wolfSSL_wolfSSL_wolfSSL/wolfssl/wolfcrypt/src/error.c **** 
 903              		.loc 1 162 9 is_stmt 1 view .LVU81
 162:Middlewares/Third_Party/wolfSSL_wolfSSL_wolfSSL/wolfssl/wolfcrypt/src/error.c **** 
 904              		.loc 1 162 16 is_stmt 0 view .LVU82
 905 0208 7E48     		ldr	r0, .L165+156
 906 020a 7047     		bx	lr
 907              	.L45:
 165:Middlewares/Third_Party/wolfSSL_wolfSSL_wolfSSL/wolfssl/wolfcrypt/src/error.c **** 
 908              		.loc 1 165 9 is_stmt 1 view .LVU83
 165:Middlewares/Third_Party/wolfSSL_wolfSSL_wolfSSL/wolfssl/wolfcrypt/src/error.c **** 
 909              		.loc 1 165 16 is_stmt 0 view .LVU84
 910 020c 7E48     		ldr	r0, .L165+160
 911 020e 7047     		bx	lr
 912              	.L46:
 168:Middlewares/Third_Party/wolfSSL_wolfSSL_wolfSSL/wolfssl/wolfcrypt/src/error.c **** 
 913              		.loc 1 168 9 is_stmt 1 view .LVU85
 168:Middlewares/Third_Party/wolfSSL_wolfSSL_wolfSSL/wolfssl/wolfcrypt/src/error.c **** 
 914              		.loc 1 168 16 is_stmt 0 view .LVU86
 915 0210 7E48     		ldr	r0, .L165+164
 916 0212 7047     		bx	lr
 917              	.L47:
 171:Middlewares/Third_Party/wolfSSL_wolfSSL_wolfSSL/wolfssl/wolfcrypt/src/error.c **** 
 918              		.loc 1 171 9 is_stmt 1 view .LVU87
 171:Middlewares/Third_Party/wolfSSL_wolfSSL_wolfSSL/wolfssl/wolfcrypt/src/error.c **** 
 919              		.loc 1 171 16 is_stmt 0 view .LVU88
 920 0214 7E48     		ldr	r0, .L165+168
 921 0216 7047     		bx	lr
 922              	.L48:
 174:Middlewares/Third_Party/wolfSSL_wolfSSL_wolfSSL/wolfssl/wolfcrypt/src/error.c **** 
 923              		.loc 1 174 9 is_stmt 1 view .LVU89
ARM GAS  /tmp/ccisCKci.s 			page 39


 174:Middlewares/Third_Party/wolfSSL_wolfSSL_wolfSSL/wolfssl/wolfcrypt/src/error.c **** 
 924              		.loc 1 174 16 is_stmt 0 view .LVU90
 925 0218 7E48     		ldr	r0, .L165+172
 926 021a 7047     		bx	lr
 927              	.L49:
 177:Middlewares/Third_Party/wolfSSL_wolfSSL_wolfSSL/wolfssl/wolfcrypt/src/error.c **** 
 928              		.loc 1 177 9 is_stmt 1 view .LVU91
 177:Middlewares/Third_Party/wolfSSL_wolfSSL_wolfSSL/wolfssl/wolfcrypt/src/error.c **** 
 929              		.loc 1 177 16 is_stmt 0 view .LVU92
 930 021c 7E48     		ldr	r0, .L165+176
 931 021e 7047     		bx	lr
 932              	.L50:
 180:Middlewares/Third_Party/wolfSSL_wolfSSL_wolfSSL/wolfssl/wolfcrypt/src/error.c **** 
 933              		.loc 1 180 9 is_stmt 1 view .LVU93
 180:Middlewares/Third_Party/wolfSSL_wolfSSL_wolfSSL/wolfssl/wolfcrypt/src/error.c **** 
 934              		.loc 1 180 16 is_stmt 0 view .LVU94
 935 0220 7E48     		ldr	r0, .L165+180
 936 0222 7047     		bx	lr
 937              	.L51:
 183:Middlewares/Third_Party/wolfSSL_wolfSSL_wolfSSL/wolfssl/wolfcrypt/src/error.c **** 
 938              		.loc 1 183 9 is_stmt 1 view .LVU95
 183:Middlewares/Third_Party/wolfSSL_wolfSSL_wolfSSL/wolfssl/wolfcrypt/src/error.c **** 
 939              		.loc 1 183 16 is_stmt 0 view .LVU96
 940 0224 7E48     		ldr	r0, .L165+184
 941 0226 7047     		bx	lr
 942              	.L52:
 186:Middlewares/Third_Party/wolfSSL_wolfSSL_wolfSSL/wolfssl/wolfcrypt/src/error.c **** 
 943              		.loc 1 186 9 is_stmt 1 view .LVU97
 186:Middlewares/Third_Party/wolfSSL_wolfSSL_wolfSSL/wolfssl/wolfcrypt/src/error.c **** 
 944              		.loc 1 186 16 is_stmt 0 view .LVU98
 945 0228 7E48     		ldr	r0, .L165+188
 946 022a 7047     		bx	lr
 947              	.L53:
 189:Middlewares/Third_Party/wolfSSL_wolfSSL_wolfSSL/wolfssl/wolfcrypt/src/error.c **** 
 948              		.loc 1 189 9 is_stmt 1 view .LVU99
 189:Middlewares/Third_Party/wolfSSL_wolfSSL_wolfSSL/wolfssl/wolfcrypt/src/error.c **** 
 949              		.loc 1 189 16 is_stmt 0 view .LVU100
 950 022c 7E48     		ldr	r0, .L165+192
 951 022e 7047     		bx	lr
 952              	.L54:
 192:Middlewares/Third_Party/wolfSSL_wolfSSL_wolfSSL/wolfssl/wolfcrypt/src/error.c **** 
 953              		.loc 1 192 9 is_stmt 1 view .LVU101
 192:Middlewares/Third_Party/wolfSSL_wolfSSL_wolfSSL/wolfssl/wolfcrypt/src/error.c **** 
 954              		.loc 1 192 16 is_stmt 0 view .LVU102
 955 0230 7E48     		ldr	r0, .L165+196
 956 0232 7047     		bx	lr
 957              	.L55:
 195:Middlewares/Third_Party/wolfSSL_wolfSSL_wolfSSL/wolfssl/wolfcrypt/src/error.c **** 
 958              		.loc 1 195 9 is_stmt 1 view .LVU103
 195:Middlewares/Third_Party/wolfSSL_wolfSSL_wolfSSL/wolfssl/wolfcrypt/src/error.c **** 
 959              		.loc 1 195 16 is_stmt 0 view .LVU104
 960 0234 6F48     		ldr	r0, .L165+140
 961 0236 7047     		bx	lr
 962              	.L56:
 198:Middlewares/Third_Party/wolfSSL_wolfSSL_wolfSSL/wolfssl/wolfcrypt/src/error.c **** 
 963              		.loc 1 198 9 is_stmt 1 view .LVU105
 198:Middlewares/Third_Party/wolfSSL_wolfSSL_wolfSSL/wolfssl/wolfcrypt/src/error.c **** 
ARM GAS  /tmp/ccisCKci.s 			page 40


 964              		.loc 1 198 16 is_stmt 0 view .LVU106
 965 0238 7D48     		ldr	r0, .L165+200
 966 023a 7047     		bx	lr
 967              	.L57:
 201:Middlewares/Third_Party/wolfSSL_wolfSSL_wolfSSL/wolfssl/wolfcrypt/src/error.c **** 
 968              		.loc 1 201 9 is_stmt 1 view .LVU107
 201:Middlewares/Third_Party/wolfSSL_wolfSSL_wolfSSL/wolfssl/wolfcrypt/src/error.c **** 
 969              		.loc 1 201 16 is_stmt 0 view .LVU108
 970 023c 7D48     		ldr	r0, .L165+204
 971 023e 7047     		bx	lr
 972              	.L58:
 204:Middlewares/Third_Party/wolfSSL_wolfSSL_wolfSSL/wolfssl/wolfcrypt/src/error.c **** 
 973              		.loc 1 204 9 is_stmt 1 view .LVU109
 204:Middlewares/Third_Party/wolfSSL_wolfSSL_wolfSSL/wolfssl/wolfcrypt/src/error.c **** 
 974              		.loc 1 204 16 is_stmt 0 view .LVU110
 975 0240 7D48     		ldr	r0, .L165+208
 976 0242 7047     		bx	lr
 977              	.L60:
 207:Middlewares/Third_Party/wolfSSL_wolfSSL_wolfSSL/wolfssl/wolfcrypt/src/error.c **** 
 978              		.loc 1 207 9 is_stmt 1 view .LVU111
 207:Middlewares/Third_Party/wolfSSL_wolfSSL_wolfSSL/wolfssl/wolfcrypt/src/error.c **** 
 979              		.loc 1 207 16 is_stmt 0 view .LVU112
 980 0244 7D48     		ldr	r0, .L165+212
 981 0246 7047     		bx	lr
 982              	.L61:
 210:Middlewares/Third_Party/wolfSSL_wolfSSL_wolfSSL/wolfssl/wolfcrypt/src/error.c **** 
 983              		.loc 1 210 9 is_stmt 1 view .LVU113
 210:Middlewares/Third_Party/wolfSSL_wolfSSL_wolfSSL/wolfssl/wolfcrypt/src/error.c **** 
 984              		.loc 1 210 16 is_stmt 0 view .LVU114
 985 0248 7D48     		ldr	r0, .L165+216
 986 024a 7047     		bx	lr
 987              	.L62:
 213:Middlewares/Third_Party/wolfSSL_wolfSSL_wolfSSL/wolfssl/wolfcrypt/src/error.c **** 
 988              		.loc 1 213 9 is_stmt 1 view .LVU115
 213:Middlewares/Third_Party/wolfSSL_wolfSSL_wolfSSL/wolfssl/wolfcrypt/src/error.c **** 
 989              		.loc 1 213 16 is_stmt 0 view .LVU116
 990 024c 7D48     		ldr	r0, .L165+220
 991 024e 7047     		bx	lr
 992              	.L63:
 216:Middlewares/Third_Party/wolfSSL_wolfSSL_wolfSSL/wolfssl/wolfcrypt/src/error.c **** 
 993              		.loc 1 216 9 is_stmt 1 view .LVU117
 216:Middlewares/Third_Party/wolfSSL_wolfSSL_wolfSSL/wolfssl/wolfcrypt/src/error.c **** 
 994              		.loc 1 216 16 is_stmt 0 view .LVU118
 995 0250 7D48     		ldr	r0, .L165+224
 996 0252 7047     		bx	lr
 997              	.L64:
 219:Middlewares/Third_Party/wolfSSL_wolfSSL_wolfSSL/wolfssl/wolfcrypt/src/error.c **** 
 998              		.loc 1 219 9 is_stmt 1 view .LVU119
 219:Middlewares/Third_Party/wolfSSL_wolfSSL_wolfSSL/wolfssl/wolfcrypt/src/error.c **** 
 999              		.loc 1 219 16 is_stmt 0 view .LVU120
 1000 0254 7D48     		ldr	r0, .L165+228
 1001 0256 7047     		bx	lr
 1002              	.L65:
 222:Middlewares/Third_Party/wolfSSL_wolfSSL_wolfSSL/wolfssl/wolfcrypt/src/error.c **** 
 1003              		.loc 1 222 9 is_stmt 1 view .LVU121
 222:Middlewares/Third_Party/wolfSSL_wolfSSL_wolfSSL/wolfssl/wolfcrypt/src/error.c **** 
 1004              		.loc 1 222 16 is_stmt 0 view .LVU122
ARM GAS  /tmp/ccisCKci.s 			page 41


 1005 0258 7D48     		ldr	r0, .L165+232
 1006 025a 7047     		bx	lr
 1007              	.L66:
 225:Middlewares/Third_Party/wolfSSL_wolfSSL_wolfSSL/wolfssl/wolfcrypt/src/error.c **** 
 1008              		.loc 1 225 9 is_stmt 1 view .LVU123
 225:Middlewares/Third_Party/wolfSSL_wolfSSL_wolfSSL/wolfssl/wolfcrypt/src/error.c **** 
 1009              		.loc 1 225 16 is_stmt 0 view .LVU124
 1010 025c 7D48     		ldr	r0, .L165+236
 1011 025e 7047     		bx	lr
 1012              	.L67:
 228:Middlewares/Third_Party/wolfSSL_wolfSSL_wolfSSL/wolfssl/wolfcrypt/src/error.c **** 
 1013              		.loc 1 228 9 is_stmt 1 view .LVU125
 228:Middlewares/Third_Party/wolfSSL_wolfSSL_wolfSSL/wolfssl/wolfcrypt/src/error.c **** 
 1014              		.loc 1 228 16 is_stmt 0 view .LVU126
 1015 0260 7D48     		ldr	r0, .L165+240
 1016 0262 7047     		bx	lr
 1017              	.L69:
 231:Middlewares/Third_Party/wolfSSL_wolfSSL_wolfSSL/wolfssl/wolfcrypt/src/error.c **** 
 1018              		.loc 1 231 9 is_stmt 1 view .LVU127
 231:Middlewares/Third_Party/wolfSSL_wolfSSL_wolfSSL/wolfssl/wolfcrypt/src/error.c **** 
 1019              		.loc 1 231 16 is_stmt 0 view .LVU128
 1020 0264 7D48     		ldr	r0, .L165+244
 1021 0266 7047     		bx	lr
 1022              	.L70:
 234:Middlewares/Third_Party/wolfSSL_wolfSSL_wolfSSL/wolfssl/wolfcrypt/src/error.c **** 
 1023              		.loc 1 234 9 is_stmt 1 view .LVU129
 234:Middlewares/Third_Party/wolfSSL_wolfSSL_wolfSSL/wolfssl/wolfcrypt/src/error.c **** 
 1024              		.loc 1 234 16 is_stmt 0 view .LVU130
 1025 0268 7D48     		ldr	r0, .L165+248
 1026 026a 7047     		bx	lr
 1027              	.L71:
 237:Middlewares/Third_Party/wolfSSL_wolfSSL_wolfSSL/wolfssl/wolfcrypt/src/error.c **** 
 1028              		.loc 1 237 9 is_stmt 1 view .LVU131
 237:Middlewares/Third_Party/wolfSSL_wolfSSL_wolfSSL/wolfssl/wolfcrypt/src/error.c **** 
 1029              		.loc 1 237 16 is_stmt 0 view .LVU132
 1030 026c 7D48     		ldr	r0, .L165+252
 1031 026e 7047     		bx	lr
 1032              	.L72:
 240:Middlewares/Third_Party/wolfSSL_wolfSSL_wolfSSL/wolfssl/wolfcrypt/src/error.c **** 
 1033              		.loc 1 240 9 is_stmt 1 view .LVU133
 240:Middlewares/Third_Party/wolfSSL_wolfSSL_wolfSSL/wolfssl/wolfcrypt/src/error.c **** 
 1034              		.loc 1 240 16 is_stmt 0 view .LVU134
 1035 0270 7D48     		ldr	r0, .L165+256
 1036 0272 7047     		bx	lr
 1037              	.L73:
 243:Middlewares/Third_Party/wolfSSL_wolfSSL_wolfSSL/wolfssl/wolfcrypt/src/error.c **** 
 1038              		.loc 1 243 9 is_stmt 1 view .LVU135
 243:Middlewares/Third_Party/wolfSSL_wolfSSL_wolfSSL/wolfssl/wolfcrypt/src/error.c **** 
 1039              		.loc 1 243 16 is_stmt 0 view .LVU136
 1040 0274 7D48     		ldr	r0, .L165+260
 1041 0276 7047     		bx	lr
 1042              	.L74:
 246:Middlewares/Third_Party/wolfSSL_wolfSSL_wolfSSL/wolfssl/wolfcrypt/src/error.c **** 
 1043              		.loc 1 246 9 is_stmt 1 view .LVU137
 246:Middlewares/Third_Party/wolfSSL_wolfSSL_wolfSSL/wolfssl/wolfcrypt/src/error.c **** 
 1044              		.loc 1 246 16 is_stmt 0 view .LVU138
 1045 0278 7D48     		ldr	r0, .L165+264
ARM GAS  /tmp/ccisCKci.s 			page 42


 1046 027a 7047     		bx	lr
 1047              	.L75:
 249:Middlewares/Third_Party/wolfSSL_wolfSSL_wolfSSL/wolfssl/wolfcrypt/src/error.c **** 
 1048              		.loc 1 249 9 is_stmt 1 view .LVU139
 249:Middlewares/Third_Party/wolfSSL_wolfSSL_wolfSSL/wolfssl/wolfcrypt/src/error.c **** 
 1049              		.loc 1 249 16 is_stmt 0 view .LVU140
 1050 027c 7D48     		ldr	r0, .L165+268
 1051 027e 7047     		bx	lr
 1052              	.L76:
 252:Middlewares/Third_Party/wolfSSL_wolfSSL_wolfSSL/wolfssl/wolfcrypt/src/error.c **** 
 1053              		.loc 1 252 9 is_stmt 1 view .LVU141
 252:Middlewares/Third_Party/wolfSSL_wolfSSL_wolfSSL/wolfssl/wolfcrypt/src/error.c **** 
 1054              		.loc 1 252 16 is_stmt 0 view .LVU142
 1055 0280 7D48     		ldr	r0, .L165+272
 1056 0282 7047     		bx	lr
 1057              	.L77:
 255:Middlewares/Third_Party/wolfSSL_wolfSSL_wolfSSL/wolfssl/wolfcrypt/src/error.c **** 
 1058              		.loc 1 255 9 is_stmt 1 view .LVU143
 255:Middlewares/Third_Party/wolfSSL_wolfSSL_wolfSSL/wolfssl/wolfcrypt/src/error.c **** 
 1059              		.loc 1 255 16 is_stmt 0 view .LVU144
 1060 0284 7D48     		ldr	r0, .L165+276
 1061 0286 7047     		bx	lr
 1062              	.L78:
 258:Middlewares/Third_Party/wolfSSL_wolfSSL_wolfSSL/wolfssl/wolfcrypt/src/error.c **** 
 1063              		.loc 1 258 9 is_stmt 1 view .LVU145
 258:Middlewares/Third_Party/wolfSSL_wolfSSL_wolfSSL/wolfssl/wolfcrypt/src/error.c **** 
 1064              		.loc 1 258 16 is_stmt 0 view .LVU146
 1065 0288 7D48     		ldr	r0, .L165+280
 1066 028a 7047     		bx	lr
 1067              	.L79:
 261:Middlewares/Third_Party/wolfSSL_wolfSSL_wolfSSL/wolfssl/wolfcrypt/src/error.c **** 
 1068              		.loc 1 261 9 is_stmt 1 view .LVU147
 261:Middlewares/Third_Party/wolfSSL_wolfSSL_wolfSSL/wolfssl/wolfcrypt/src/error.c **** 
 1069              		.loc 1 261 16 is_stmt 0 view .LVU148
 1070 028c 7D48     		ldr	r0, .L165+284
 1071 028e 7047     		bx	lr
 1072              	.L80:
 264:Middlewares/Third_Party/wolfSSL_wolfSSL_wolfSSL/wolfssl/wolfcrypt/src/error.c **** 
 1073              		.loc 1 264 9 is_stmt 1 view .LVU149
 264:Middlewares/Third_Party/wolfSSL_wolfSSL_wolfSSL/wolfssl/wolfcrypt/src/error.c **** 
 1074              		.loc 1 264 16 is_stmt 0 view .LVU150
 1075 0290 7D48     		ldr	r0, .L165+288
 1076 0292 7047     		bx	lr
 1077              	.L59:
 267:Middlewares/Third_Party/wolfSSL_wolfSSL_wolfSSL/wolfssl/wolfcrypt/src/error.c **** 
 1078              		.loc 1 267 9 is_stmt 1 view .LVU151
 267:Middlewares/Third_Party/wolfSSL_wolfSSL_wolfSSL/wolfssl/wolfcrypt/src/error.c **** 
 1079              		.loc 1 267 16 is_stmt 0 view .LVU152
 1080 0294 7D48     		ldr	r0, .L165+292
 1081 0296 7047     		bx	lr
 1082              	.L81:
 270:Middlewares/Third_Party/wolfSSL_wolfSSL_wolfSSL/wolfssl/wolfcrypt/src/error.c **** 
 1083              		.loc 1 270 9 is_stmt 1 view .LVU153
 270:Middlewares/Third_Party/wolfSSL_wolfSSL_wolfSSL/wolfssl/wolfcrypt/src/error.c **** 
 1084              		.loc 1 270 16 is_stmt 0 view .LVU154
 1085 0298 7D48     		ldr	r0, .L165+296
 1086 029a 7047     		bx	lr
ARM GAS  /tmp/ccisCKci.s 			page 43


 1087              	.L82:
 273:Middlewares/Third_Party/wolfSSL_wolfSSL_wolfSSL/wolfssl/wolfcrypt/src/error.c **** 
 1088              		.loc 1 273 9 is_stmt 1 view .LVU155
 273:Middlewares/Third_Party/wolfSSL_wolfSSL_wolfSSL/wolfssl/wolfcrypt/src/error.c **** 
 1089              		.loc 1 273 16 is_stmt 0 view .LVU156
 1090 029c 7D48     		ldr	r0, .L165+300
 1091 029e 7047     		bx	lr
 1092              	.L83:
 276:Middlewares/Third_Party/wolfSSL_wolfSSL_wolfSSL/wolfssl/wolfcrypt/src/error.c **** 
 1093              		.loc 1 276 9 is_stmt 1 view .LVU157
 276:Middlewares/Third_Party/wolfSSL_wolfSSL_wolfSSL/wolfssl/wolfcrypt/src/error.c **** 
 1094              		.loc 1 276 16 is_stmt 0 view .LVU158
 1095 02a0 7D48     		ldr	r0, .L165+304
 1096 02a2 7047     		bx	lr
 1097              	.L84:
 279:Middlewares/Third_Party/wolfSSL_wolfSSL_wolfSSL/wolfssl/wolfcrypt/src/error.c **** 
 1098              		.loc 1 279 9 is_stmt 1 view .LVU159
 279:Middlewares/Third_Party/wolfSSL_wolfSSL_wolfSSL/wolfssl/wolfcrypt/src/error.c **** 
 1099              		.loc 1 279 16 is_stmt 0 view .LVU160
 1100 02a4 7D48     		ldr	r0, .L165+308
 1101 02a6 7047     		bx	lr
 1102              	.L85:
 282:Middlewares/Third_Party/wolfSSL_wolfSSL_wolfSSL/wolfssl/wolfcrypt/src/error.c **** 
 1103              		.loc 1 282 9 is_stmt 1 view .LVU161
 282:Middlewares/Third_Party/wolfSSL_wolfSSL_wolfSSL/wolfssl/wolfcrypt/src/error.c **** 
 1104              		.loc 1 282 16 is_stmt 0 view .LVU162
 1105 02a8 7D48     		ldr	r0, .L165+312
 1106 02aa 7047     		bx	lr
 1107              	.L158:
 285:Middlewares/Third_Party/wolfSSL_wolfSSL_wolfSSL/wolfssl/wolfcrypt/src/error.c **** 
 1108              		.loc 1 285 9 is_stmt 1 view .LVU163
 285:Middlewares/Third_Party/wolfSSL_wolfSSL_wolfSSL/wolfssl/wolfcrypt/src/error.c **** 
 1109              		.loc 1 285 16 is_stmt 0 view .LVU164
 1110 02ac 7D48     		ldr	r0, .L165+316
 1111 02ae 7047     		bx	lr
 1112              	.L86:
 288:Middlewares/Third_Party/wolfSSL_wolfSSL_wolfSSL/wolfssl/wolfcrypt/src/error.c **** 
 1113              		.loc 1 288 9 is_stmt 1 view .LVU165
 288:Middlewares/Third_Party/wolfSSL_wolfSSL_wolfSSL/wolfssl/wolfcrypt/src/error.c **** 
 1114              		.loc 1 288 16 is_stmt 0 view .LVU166
 1115 02b0 7D48     		ldr	r0, .L165+320
 1116 02b2 7047     		bx	lr
 1117              	.L87:
 291:Middlewares/Third_Party/wolfSSL_wolfSSL_wolfSSL/wolfssl/wolfcrypt/src/error.c **** 
 1118              		.loc 1 291 9 is_stmt 1 view .LVU167
 291:Middlewares/Third_Party/wolfSSL_wolfSSL_wolfSSL/wolfssl/wolfcrypt/src/error.c **** 
 1119              		.loc 1 291 16 is_stmt 0 view .LVU168
 1120 02b4 7D48     		ldr	r0, .L165+324
 1121 02b6 7047     		bx	lr
 1122              	.L88:
 294:Middlewares/Third_Party/wolfSSL_wolfSSL_wolfSSL/wolfssl/wolfcrypt/src/error.c **** 
 1123              		.loc 1 294 9 is_stmt 1 view .LVU169
 294:Middlewares/Third_Party/wolfSSL_wolfSSL_wolfSSL/wolfssl/wolfcrypt/src/error.c **** 
 1124              		.loc 1 294 16 is_stmt 0 view .LVU170
 1125 02b8 7D48     		ldr	r0, .L165+328
 1126 02ba 7047     		bx	lr
 1127              	.L89:
ARM GAS  /tmp/ccisCKci.s 			page 44


 297:Middlewares/Third_Party/wolfSSL_wolfSSL_wolfSSL/wolfssl/wolfcrypt/src/error.c **** 
 1128              		.loc 1 297 9 is_stmt 1 view .LVU171
 297:Middlewares/Third_Party/wolfSSL_wolfSSL_wolfSSL/wolfssl/wolfcrypt/src/error.c **** 
 1129              		.loc 1 297 16 is_stmt 0 view .LVU172
 1130 02bc 7D48     		ldr	r0, .L165+332
 1131 02be 7047     		bx	lr
 1132              	.L90:
 300:Middlewares/Third_Party/wolfSSL_wolfSSL_wolfSSL/wolfssl/wolfcrypt/src/error.c **** 
 1133              		.loc 1 300 9 is_stmt 1 view .LVU173
 300:Middlewares/Third_Party/wolfSSL_wolfSSL_wolfSSL/wolfssl/wolfcrypt/src/error.c **** 
 1134              		.loc 1 300 16 is_stmt 0 view .LVU174
 1135 02c0 7D48     		ldr	r0, .L165+336
 1136 02c2 7047     		bx	lr
 1137              	.L91:
 303:Middlewares/Third_Party/wolfSSL_wolfSSL_wolfSSL/wolfssl/wolfcrypt/src/error.c **** 
 1138              		.loc 1 303 9 is_stmt 1 view .LVU175
 303:Middlewares/Third_Party/wolfSSL_wolfSSL_wolfSSL/wolfssl/wolfcrypt/src/error.c **** 
 1139              		.loc 1 303 16 is_stmt 0 view .LVU176
 1140 02c4 7D48     		ldr	r0, .L165+340
 1141 02c6 7047     		bx	lr
 1142              	.L92:
 306:Middlewares/Third_Party/wolfSSL_wolfSSL_wolfSSL/wolfssl/wolfcrypt/src/error.c **** 
 1143              		.loc 1 306 9 is_stmt 1 view .LVU177
 306:Middlewares/Third_Party/wolfSSL_wolfSSL_wolfSSL/wolfssl/wolfcrypt/src/error.c **** 
 1144              		.loc 1 306 16 is_stmt 0 view .LVU178
 1145 02c8 7D48     		ldr	r0, .L165+344
 1146 02ca 7047     		bx	lr
 1147              	.L93:
 309:Middlewares/Third_Party/wolfSSL_wolfSSL_wolfSSL/wolfssl/wolfcrypt/src/error.c **** 
 1148              		.loc 1 309 9 is_stmt 1 view .LVU179
 309:Middlewares/Third_Party/wolfSSL_wolfSSL_wolfSSL/wolfssl/wolfcrypt/src/error.c **** 
 1149              		.loc 1 309 16 is_stmt 0 view .LVU180
 1150 02cc 7D48     		ldr	r0, .L165+348
 1151 02ce 7047     		bx	lr
 1152              	.L94:
 312:Middlewares/Third_Party/wolfSSL_wolfSSL_wolfSSL/wolfssl/wolfcrypt/src/error.c **** 
 1153              		.loc 1 312 9 is_stmt 1 view .LVU181
 312:Middlewares/Third_Party/wolfSSL_wolfSSL_wolfSSL/wolfssl/wolfcrypt/src/error.c **** 
 1154              		.loc 1 312 16 is_stmt 0 view .LVU182
 1155 02d0 7D48     		ldr	r0, .L165+352
 1156 02d2 7047     		bx	lr
 1157              	.L95:
 315:Middlewares/Third_Party/wolfSSL_wolfSSL_wolfSSL/wolfssl/wolfcrypt/src/error.c **** 
 1158              		.loc 1 315 9 is_stmt 1 view .LVU183
 315:Middlewares/Third_Party/wolfSSL_wolfSSL_wolfSSL/wolfssl/wolfcrypt/src/error.c **** 
 1159              		.loc 1 315 16 is_stmt 0 view .LVU184
 1160 02d4 7D48     		ldr	r0, .L165+356
 1161 02d6 7047     		bx	lr
 1162              	.L96:
 318:Middlewares/Third_Party/wolfSSL_wolfSSL_wolfSSL/wolfssl/wolfcrypt/src/error.c **** 
 1163              		.loc 1 318 9 is_stmt 1 view .LVU185
 318:Middlewares/Third_Party/wolfSSL_wolfSSL_wolfSSL/wolfssl/wolfcrypt/src/error.c **** 
 1164              		.loc 1 318 16 is_stmt 0 view .LVU186
 1165 02d8 7D48     		ldr	r0, .L165+360
 1166 02da 7047     		bx	lr
 1167              	.L97:
 321:Middlewares/Third_Party/wolfSSL_wolfSSL_wolfSSL/wolfssl/wolfcrypt/src/error.c **** 
ARM GAS  /tmp/ccisCKci.s 			page 45


 1168              		.loc 1 321 9 is_stmt 1 view .LVU187
 321:Middlewares/Third_Party/wolfSSL_wolfSSL_wolfSSL/wolfssl/wolfcrypt/src/error.c **** 
 1169              		.loc 1 321 16 is_stmt 0 view .LVU188
 1170 02dc 7D48     		ldr	r0, .L165+364
 1171 02de 7047     		bx	lr
 1172              	.L98:
 324:Middlewares/Third_Party/wolfSSL_wolfSSL_wolfSSL/wolfssl/wolfcrypt/src/error.c **** 
 1173              		.loc 1 324 9 is_stmt 1 view .LVU189
 324:Middlewares/Third_Party/wolfSSL_wolfSSL_wolfSSL/wolfssl/wolfcrypt/src/error.c **** 
 1174              		.loc 1 324 16 is_stmt 0 view .LVU190
 1175 02e0 7D48     		ldr	r0, .L165+368
 1176 02e2 7047     		bx	lr
 1177              	.L99:
 327:Middlewares/Third_Party/wolfSSL_wolfSSL_wolfSSL/wolfssl/wolfcrypt/src/error.c **** 
 1178              		.loc 1 327 9 is_stmt 1 view .LVU191
 327:Middlewares/Third_Party/wolfSSL_wolfSSL_wolfSSL/wolfssl/wolfcrypt/src/error.c **** 
 1179              		.loc 1 327 16 is_stmt 0 view .LVU192
 1180 02e4 7D48     		ldr	r0, .L165+372
 1181 02e6 7047     		bx	lr
 1182              	.L100:
 330:Middlewares/Third_Party/wolfSSL_wolfSSL_wolfSSL/wolfssl/wolfcrypt/src/error.c **** 
 1183              		.loc 1 330 9 is_stmt 1 view .LVU193
 330:Middlewares/Third_Party/wolfSSL_wolfSSL_wolfSSL/wolfssl/wolfcrypt/src/error.c **** 
 1184              		.loc 1 330 16 is_stmt 0 view .LVU194
 1185 02e8 7D48     		ldr	r0, .L165+376
 1186 02ea 7047     		bx	lr
 1187              	.L101:
 333:Middlewares/Third_Party/wolfSSL_wolfSSL_wolfSSL/wolfssl/wolfcrypt/src/error.c **** 
 1188              		.loc 1 333 9 is_stmt 1 view .LVU195
 333:Middlewares/Third_Party/wolfSSL_wolfSSL_wolfSSL/wolfssl/wolfcrypt/src/error.c **** 
 1189              		.loc 1 333 16 is_stmt 0 view .LVU196
 1190 02ec 7D48     		ldr	r0, .L165+380
 1191 02ee 7047     		bx	lr
 1192              	.L102:
 336:Middlewares/Third_Party/wolfSSL_wolfSSL_wolfSSL/wolfssl/wolfcrypt/src/error.c **** 
 1193              		.loc 1 336 9 is_stmt 1 view .LVU197
 336:Middlewares/Third_Party/wolfSSL_wolfSSL_wolfSSL/wolfssl/wolfcrypt/src/error.c **** 
 1194              		.loc 1 336 16 is_stmt 0 view .LVU198
 1195 02f0 7D48     		ldr	r0, .L165+384
 1196 02f2 7047     		bx	lr
 1197              	.L103:
 339:Middlewares/Third_Party/wolfSSL_wolfSSL_wolfSSL/wolfssl/wolfcrypt/src/error.c **** 
 1198              		.loc 1 339 9 is_stmt 1 view .LVU199
 339:Middlewares/Third_Party/wolfSSL_wolfSSL_wolfSSL/wolfssl/wolfcrypt/src/error.c **** 
 1199              		.loc 1 339 16 is_stmt 0 view .LVU200
 1200 02f4 7D48     		ldr	r0, .L165+388
 1201 02f6 7047     		bx	lr
 1202              	.L104:
 342:Middlewares/Third_Party/wolfSSL_wolfSSL_wolfSSL/wolfssl/wolfcrypt/src/error.c **** 
 1203              		.loc 1 342 9 is_stmt 1 view .LVU201
 342:Middlewares/Third_Party/wolfSSL_wolfSSL_wolfSSL/wolfssl/wolfcrypt/src/error.c **** 
 1204              		.loc 1 342 16 is_stmt 0 view .LVU202
 1205 02f8 7D48     		ldr	r0, .L165+392
 1206 02fa 7047     		bx	lr
 1207              	.L106:
 345:Middlewares/Third_Party/wolfSSL_wolfSSL_wolfSSL/wolfssl/wolfcrypt/src/error.c **** 
 1208              		.loc 1 345 9 is_stmt 1 view .LVU203
ARM GAS  /tmp/ccisCKci.s 			page 46


 345:Middlewares/Third_Party/wolfSSL_wolfSSL_wolfSSL/wolfssl/wolfcrypt/src/error.c **** 
 1209              		.loc 1 345 16 is_stmt 0 view .LVU204
 1210 02fc 7D48     		ldr	r0, .L165+396
 1211 02fe 7047     		bx	lr
 1212              	.L105:
 348:Middlewares/Third_Party/wolfSSL_wolfSSL_wolfSSL/wolfssl/wolfcrypt/src/error.c **** 
 1213              		.loc 1 348 9 is_stmt 1 view .LVU205
 348:Middlewares/Third_Party/wolfSSL_wolfSSL_wolfSSL/wolfssl/wolfcrypt/src/error.c **** 
 1214              		.loc 1 348 16 is_stmt 0 view .LVU206
 1215 0300 7D48     		ldr	r0, .L165+400
 1216 0302 7047     		bx	lr
 1217              	.L107:
 351:Middlewares/Third_Party/wolfSSL_wolfSSL_wolfSSL/wolfssl/wolfcrypt/src/error.c **** 
 1218              		.loc 1 351 9 is_stmt 1 view .LVU207
 351:Middlewares/Third_Party/wolfSSL_wolfSSL_wolfSSL/wolfssl/wolfcrypt/src/error.c **** 
 1219              		.loc 1 351 16 is_stmt 0 view .LVU208
 1220 0304 7D48     		ldr	r0, .L165+404
 1221 0306 7047     		bx	lr
 1222              	.L108:
 354:Middlewares/Third_Party/wolfSSL_wolfSSL_wolfSSL/wolfssl/wolfcrypt/src/error.c **** 
 1223              		.loc 1 354 9 is_stmt 1 view .LVU209
 354:Middlewares/Third_Party/wolfSSL_wolfSSL_wolfSSL/wolfssl/wolfcrypt/src/error.c **** 
 1224              		.loc 1 354 16 is_stmt 0 view .LVU210
 1225 0308 7D48     		ldr	r0, .L165+408
 1226 030a 7047     		bx	lr
 1227              	.L109:
 357:Middlewares/Third_Party/wolfSSL_wolfSSL_wolfSSL/wolfssl/wolfcrypt/src/error.c **** 
 1228              		.loc 1 357 9 is_stmt 1 view .LVU211
 357:Middlewares/Third_Party/wolfSSL_wolfSSL_wolfSSL/wolfssl/wolfcrypt/src/error.c **** 
 1229              		.loc 1 357 16 is_stmt 0 view .LVU212
 1230 030c 7D48     		ldr	r0, .L165+412
 1231 030e 7047     		bx	lr
 1232              	.L110:
 360:Middlewares/Third_Party/wolfSSL_wolfSSL_wolfSSL/wolfssl/wolfcrypt/src/error.c **** 
 1233              		.loc 1 360 9 is_stmt 1 view .LVU213
 360:Middlewares/Third_Party/wolfSSL_wolfSSL_wolfSSL/wolfssl/wolfcrypt/src/error.c **** 
 1234              		.loc 1 360 16 is_stmt 0 view .LVU214
 1235 0310 7D48     		ldr	r0, .L165+416
 1236 0312 7047     		bx	lr
 1237              	.L111:
 363:Middlewares/Third_Party/wolfSSL_wolfSSL_wolfSSL/wolfssl/wolfcrypt/src/error.c **** 
 1238              		.loc 1 363 9 is_stmt 1 view .LVU215
 363:Middlewares/Third_Party/wolfSSL_wolfSSL_wolfSSL/wolfssl/wolfcrypt/src/error.c **** 
 1239              		.loc 1 363 16 is_stmt 0 view .LVU216
 1240 0314 7D48     		ldr	r0, .L165+420
 1241 0316 7047     		bx	lr
 1242              	.L112:
 366:Middlewares/Third_Party/wolfSSL_wolfSSL_wolfSSL/wolfssl/wolfcrypt/src/error.c **** 
 1243              		.loc 1 366 9 is_stmt 1 view .LVU217
 366:Middlewares/Third_Party/wolfSSL_wolfSSL_wolfSSL/wolfssl/wolfcrypt/src/error.c **** 
 1244              		.loc 1 366 16 is_stmt 0 view .LVU218
 1245 0318 7D48     		ldr	r0, .L165+424
 1246 031a 7047     		bx	lr
 1247              	.L113:
 369:Middlewares/Third_Party/wolfSSL_wolfSSL_wolfSSL/wolfssl/wolfcrypt/src/error.c **** 
 1248              		.loc 1 369 9 is_stmt 1 view .LVU219
 369:Middlewares/Third_Party/wolfSSL_wolfSSL_wolfSSL/wolfssl/wolfcrypt/src/error.c **** 
ARM GAS  /tmp/ccisCKci.s 			page 47


 1249              		.loc 1 369 16 is_stmt 0 view .LVU220
 1250 031c 7D48     		ldr	r0, .L165+428
 1251 031e 7047     		bx	lr
 1252              	.L114:
 372:Middlewares/Third_Party/wolfSSL_wolfSSL_wolfSSL/wolfssl/wolfcrypt/src/error.c **** 
 1253              		.loc 1 372 9 is_stmt 1 view .LVU221
 372:Middlewares/Third_Party/wolfSSL_wolfSSL_wolfSSL/wolfssl/wolfcrypt/src/error.c **** 
 1254              		.loc 1 372 16 is_stmt 0 view .LVU222
 1255 0320 7D48     		ldr	r0, .L165+432
 1256 0322 7047     		bx	lr
 1257              	.L115:
 375:Middlewares/Third_Party/wolfSSL_wolfSSL_wolfSSL/wolfssl/wolfcrypt/src/error.c **** 
 1258              		.loc 1 375 9 is_stmt 1 view .LVU223
 375:Middlewares/Third_Party/wolfSSL_wolfSSL_wolfSSL/wolfssl/wolfcrypt/src/error.c **** 
 1259              		.loc 1 375 16 is_stmt 0 view .LVU224
 1260 0324 7D48     		ldr	r0, .L165+436
 1261 0326 7047     		bx	lr
 1262              	.L135:
 378:Middlewares/Third_Party/wolfSSL_wolfSSL_wolfSSL/wolfssl/wolfcrypt/src/error.c **** 
 1263              		.loc 1 378 9 is_stmt 1 view .LVU225
 378:Middlewares/Third_Party/wolfSSL_wolfSSL_wolfSSL/wolfssl/wolfcrypt/src/error.c **** 
 1264              		.loc 1 378 16 is_stmt 0 view .LVU226
 1265 0328 7D48     		ldr	r0, .L165+440
 1266 032a 7047     		bx	lr
 1267              	.L116:
 381:Middlewares/Third_Party/wolfSSL_wolfSSL_wolfSSL/wolfssl/wolfcrypt/src/error.c **** 
 1268              		.loc 1 381 9 is_stmt 1 view .LVU227
 381:Middlewares/Third_Party/wolfSSL_wolfSSL_wolfSSL/wolfssl/wolfcrypt/src/error.c **** 
 1269              		.loc 1 381 16 is_stmt 0 view .LVU228
 1270 032c 7D48     		ldr	r0, .L165+444
 1271 032e 7047     		bx	lr
 1272              	.L117:
 384:Middlewares/Third_Party/wolfSSL_wolfSSL_wolfSSL/wolfssl/wolfcrypt/src/error.c **** 
 1273              		.loc 1 384 9 is_stmt 1 view .LVU229
 384:Middlewares/Third_Party/wolfSSL_wolfSSL_wolfSSL/wolfssl/wolfcrypt/src/error.c **** 
 1274              		.loc 1 384 16 is_stmt 0 view .LVU230
 1275 0330 7D48     		ldr	r0, .L165+448
 1276 0332 7047     		bx	lr
 1277              	.L118:
 387:Middlewares/Third_Party/wolfSSL_wolfSSL_wolfSSL/wolfssl/wolfcrypt/src/error.c **** 
 1278              		.loc 1 387 9 is_stmt 1 view .LVU231
 387:Middlewares/Third_Party/wolfSSL_wolfSSL_wolfSSL/wolfssl/wolfcrypt/src/error.c **** 
 1279              		.loc 1 387 16 is_stmt 0 view .LVU232
 1280 0334 7D48     		ldr	r0, .L165+452
 1281 0336 7047     		bx	lr
 1282              	.L119:
 390:Middlewares/Third_Party/wolfSSL_wolfSSL_wolfSSL/wolfssl/wolfcrypt/src/error.c **** 
 1283              		.loc 1 390 9 is_stmt 1 view .LVU233
 390:Middlewares/Third_Party/wolfSSL_wolfSSL_wolfSSL/wolfssl/wolfcrypt/src/error.c **** 
 1284              		.loc 1 390 16 is_stmt 0 view .LVU234
 1285 0338 7D48     		ldr	r0, .L165+456
 1286 033a 7047     		bx	lr
 1287              	.L120:
 393:Middlewares/Third_Party/wolfSSL_wolfSSL_wolfSSL/wolfssl/wolfcrypt/src/error.c **** 
 1288              		.loc 1 393 9 is_stmt 1 view .LVU235
 393:Middlewares/Third_Party/wolfSSL_wolfSSL_wolfSSL/wolfssl/wolfcrypt/src/error.c **** 
 1289              		.loc 1 393 16 is_stmt 0 view .LVU236
ARM GAS  /tmp/ccisCKci.s 			page 48


 1290 033c 7D48     		ldr	r0, .L165+460
 1291 033e 7047     		bx	lr
 1292              	.L121:
 396:Middlewares/Third_Party/wolfSSL_wolfSSL_wolfSSL/wolfssl/wolfcrypt/src/error.c **** 
 1293              		.loc 1 396 9 is_stmt 1 view .LVU237
 396:Middlewares/Third_Party/wolfSSL_wolfSSL_wolfSSL/wolfssl/wolfcrypt/src/error.c **** 
 1294              		.loc 1 396 16 is_stmt 0 view .LVU238
 1295 0340 7D48     		ldr	r0, .L165+464
 1296 0342 7047     		bx	lr
 1297              	.L122:
 399:Middlewares/Third_Party/wolfSSL_wolfSSL_wolfSSL/wolfssl/wolfcrypt/src/error.c **** 
 1298              		.loc 1 399 9 is_stmt 1 view .LVU239
 399:Middlewares/Third_Party/wolfSSL_wolfSSL_wolfSSL/wolfssl/wolfcrypt/src/error.c **** 
 1299              		.loc 1 399 16 is_stmt 0 view .LVU240
 1300 0344 7D48     		ldr	r0, .L165+468
 1301 0346 7047     		bx	lr
 1302              	.L123:
 402:Middlewares/Third_Party/wolfSSL_wolfSSL_wolfSSL/wolfssl/wolfcrypt/src/error.c **** 
 1303              		.loc 1 402 9 is_stmt 1 view .LVU241
 402:Middlewares/Third_Party/wolfSSL_wolfSSL_wolfSSL/wolfssl/wolfcrypt/src/error.c **** 
 1304              		.loc 1 402 16 is_stmt 0 view .LVU242
 1305 0348 7D48     		ldr	r0, .L165+472
 1306 034a 7047     		bx	lr
 1307              	.L124:
 405:Middlewares/Third_Party/wolfSSL_wolfSSL_wolfSSL/wolfssl/wolfcrypt/src/error.c **** 
 1308              		.loc 1 405 9 is_stmt 1 view .LVU243
 405:Middlewares/Third_Party/wolfSSL_wolfSSL_wolfSSL/wolfssl/wolfcrypt/src/error.c **** 
 1309              		.loc 1 405 16 is_stmt 0 view .LVU244
 1310 034c 7D48     		ldr	r0, .L165+476
 1311 034e 7047     		bx	lr
 1312              	.L125:
 408:Middlewares/Third_Party/wolfSSL_wolfSSL_wolfSSL/wolfssl/wolfcrypt/src/error.c **** 
 1313              		.loc 1 408 9 is_stmt 1 view .LVU245
 408:Middlewares/Third_Party/wolfSSL_wolfSSL_wolfSSL/wolfssl/wolfcrypt/src/error.c **** 
 1314              		.loc 1 408 16 is_stmt 0 view .LVU246
 1315 0350 7D48     		ldr	r0, .L165+480
 1316 0352 7047     		bx	lr
 1317              	.L126:
 411:Middlewares/Third_Party/wolfSSL_wolfSSL_wolfSSL/wolfssl/wolfcrypt/src/error.c **** 
 1318              		.loc 1 411 9 is_stmt 1 view .LVU247
 411:Middlewares/Third_Party/wolfSSL_wolfSSL_wolfSSL/wolfssl/wolfcrypt/src/error.c **** 
 1319              		.loc 1 411 16 is_stmt 0 view .LVU248
 1320 0354 7D48     		ldr	r0, .L165+484
 1321 0356 7047     		bx	lr
 1322              	.L127:
 414:Middlewares/Third_Party/wolfSSL_wolfSSL_wolfSSL/wolfssl/wolfcrypt/src/error.c **** 
 1323              		.loc 1 414 9 is_stmt 1 view .LVU249
 414:Middlewares/Third_Party/wolfSSL_wolfSSL_wolfSSL/wolfssl/wolfcrypt/src/error.c **** 
 1324              		.loc 1 414 16 is_stmt 0 view .LVU250
 1325 0358 7D48     		ldr	r0, .L165+488
 1326 035a 7047     		bx	lr
 1327              	.L128:
 417:Middlewares/Third_Party/wolfSSL_wolfSSL_wolfSSL/wolfssl/wolfcrypt/src/error.c **** 
 1328              		.loc 1 417 9 is_stmt 1 view .LVU251
 417:Middlewares/Third_Party/wolfSSL_wolfSSL_wolfSSL/wolfssl/wolfcrypt/src/error.c **** 
 1329              		.loc 1 417 16 is_stmt 0 view .LVU252
 1330 035c 7D48     		ldr	r0, .L165+492
ARM GAS  /tmp/ccisCKci.s 			page 49


 1331 035e 7047     		bx	lr
 1332              	.L129:
 420:Middlewares/Third_Party/wolfSSL_wolfSSL_wolfSSL/wolfssl/wolfcrypt/src/error.c **** 
 1333              		.loc 1 420 9 is_stmt 1 view .LVU253
 420:Middlewares/Third_Party/wolfSSL_wolfSSL_wolfSSL/wolfssl/wolfcrypt/src/error.c **** 
 1334              		.loc 1 420 16 is_stmt 0 view .LVU254
 1335 0360 7D48     		ldr	r0, .L165+496
 1336 0362 7047     		bx	lr
 1337              	.L130:
 423:Middlewares/Third_Party/wolfSSL_wolfSSL_wolfSSL/wolfssl/wolfcrypt/src/error.c **** 
 1338              		.loc 1 423 9 is_stmt 1 view .LVU255
 423:Middlewares/Third_Party/wolfSSL_wolfSSL_wolfSSL/wolfssl/wolfcrypt/src/error.c **** 
 1339              		.loc 1 423 16 is_stmt 0 view .LVU256
 1340 0364 7D48     		ldr	r0, .L165+500
 1341 0366 7047     		bx	lr
 1342              	.L166:
 1343              		.align	2
 1344              	.L165:
 1345 0368 E8150000 		.word	.LC159
 1346 036c 34000000 		.word	.LC2
 1347 0370 50000000 		.word	.LC3
 1348 0374 70000000 		.word	.LC4
 1349 0378 98000000 		.word	.LC5
 1350 037c B4000000 		.word	.LC6
 1351 0380 C4000000 		.word	.LC7
 1352 0384 00010000 		.word	.LC8
 1353 0388 28010000 		.word	.LC9
 1354 038c 3C010000 		.word	.LC10
 1355 0390 50010000 		.word	.LC11
 1356 0394 68010000 		.word	.LC12
 1357 0398 90010000 		.word	.LC13
 1358 039c B4010000 		.word	.LC14
 1359 03a0 D4010000 		.word	.LC15
 1360 03a4 F8010000 		.word	.LC16
 1361 03a8 24020000 		.word	.LC17
 1362 03ac 44020000 		.word	.LC18
 1363 03b0 6C020000 		.word	.LC19
 1364 03b4 80020000 		.word	.LC20
 1365 03b8 A0020000 		.word	.LC21
 1366 03bc B4020000 		.word	.LC22
 1367 03c0 E0020000 		.word	.LC23
 1368 03c4 08030000 		.word	.LC24
 1369 03c8 3C030000 		.word	.LC25
 1370 03cc 6C030000 		.word	.LC26
 1371 03d0 88030000 		.word	.LC27
 1372 03d4 A8030000 		.word	.LC28
 1373 03d8 CC030000 		.word	.LC29
 1374 03dc EC030000 		.word	.LC30
 1375 03e0 0C040000 		.word	.LC31
 1376 03e4 34040000 		.word	.LC32
 1377 03e8 50040000 		.word	.LC33
 1378 03ec 74040000 		.word	.LC34
 1379 03f0 98040000 		.word	.LC35
 1380 03f4 BC040000 		.word	.LC36
 1381 03f8 E0040000 		.word	.LC37
 1382 03fc 00050000 		.word	.LC38
 1383 0400 18050000 		.word	.LC39
ARM GAS  /tmp/ccisCKci.s 			page 50


 1384 0404 34050000 		.word	.LC40
 1385 0408 54050000 		.word	.LC41
 1386 040c 74050000 		.word	.LC42
 1387 0410 90050000 		.word	.LC43
 1388 0414 B4050000 		.word	.LC44
 1389 0418 D8050000 		.word	.LC45
 1390 041c FC050000 		.word	.LC46
 1391 0420 20060000 		.word	.LC47
 1392 0424 44060000 		.word	.LC48
 1393 0428 64060000 		.word	.LC49
 1394 042c 8C060000 		.word	.LC50
 1395 0430 B0060000 		.word	.LC51
 1396 0434 DC060000 		.word	.LC52
 1397 0438 08070000 		.word	.LC53
 1398 043c 24070000 		.word	.LC54
 1399 0440 54070000 		.word	.LC55
 1400 0444 7C070000 		.word	.LC56
 1401 0448 AC070000 		.word	.LC57
 1402 044c C4070000 		.word	.LC58
 1403 0450 DC070000 		.word	.LC59
 1404 0454 F8070000 		.word	.LC60
 1405 0458 18080000 		.word	.LC61
 1406 045c 34080000 		.word	.LC62
 1407 0460 58080000 		.word	.LC63
 1408 0464 7C080000 		.word	.LC64
 1409 0468 90080000 		.word	.LC65
 1410 046c A4080000 		.word	.LC66
 1411 0470 B4080000 		.word	.LC67
 1412 0474 CC080000 		.word	.LC68
 1413 0478 E0080000 		.word	.LC69
 1414 047c 04090000 		.word	.LC70
 1415 0480 2C090000 		.word	.LC71
 1416 0484 50090000 		.word	.LC72
 1417 0488 7C090000 		.word	.LC73
 1418 048c A0090000 		.word	.LC74
 1419 0490 B8090000 		.word	.LC75
 1420 0494 CC090000 		.word	.LC76
 1421 0498 F0090000 		.word	.LC77
 1422 049c 180A0000 		.word	.LC78
 1423 04a0 3C0A0000 		.word	.LC79
 1424 04a4 680A0000 		.word	.LC80
 1425 04a8 980A0000 		.word	.LC81
 1426 04ac B40A0000 		.word	.LC82
 1427 04b0 CC0A0000 		.word	.LC83
 1428 04b4 EC0A0000 		.word	.LC84
 1429 04b8 140B0000 		.word	.LC85
 1430 04bc 280B0000 		.word	.LC86
 1431 04c0 580B0000 		.word	.LC87
 1432 04c4 7C0B0000 		.word	.LC88
 1433 04c8 A40B0000 		.word	.LC89
 1434 04cc CC0B0000 		.word	.LC90
 1435 04d0 F40B0000 		.word	.LC91
 1436 04d4 1C0C0000 		.word	.LC92
 1437 04d8 440C0000 		.word	.LC93
 1438 04dc 640C0000 		.word	.LC94
 1439 04e0 900C0000 		.word	.LC95
 1440 04e4 B00C0000 		.word	.LC96
ARM GAS  /tmp/ccisCKci.s 			page 51


 1441 04e8 CC0C0000 		.word	.LC97
 1442 04ec E40C0000 		.word	.LC98
 1443 04f0 040D0000 		.word	.LC99
 1444 04f4 240D0000 		.word	.LC100
 1445 04f8 480D0000 		.word	.LC101
 1446 04fc 6C0D0000 		.word	.LC102
 1447 0500 9C0D0000 		.word	.LC103
 1448 0504 BC0D0000 		.word	.LC104
 1449 0508 D80D0000 		.word	.LC105
 1450 050c 040E0000 		.word	.LC106
 1451 0510 300E0000 		.word	.LC107
 1452 0514 500E0000 		.word	.LC108
 1453 0518 780E0000 		.word	.LC109
 1454 051c A00E0000 		.word	.LC110
 1455 0520 B80E0000 		.word	.LC111
 1456 0524 D80E0000 		.word	.LC112
 1457 0528 FC0E0000 		.word	.LC113
 1458 052c 200F0000 		.word	.LC114
 1459 0530 380F0000 		.word	.LC115
 1460 0534 600F0000 		.word	.LC116
 1461 0538 880F0000 		.word	.LC117
 1462 053c A80F0000 		.word	.LC118
 1463 0540 D40F0000 		.word	.LC119
 1464 0544 08100000 		.word	.LC120
 1465 0548 28100000 		.word	.LC121
 1466 054c 54100000 		.word	.LC122
 1467 0550 80100000 		.word	.LC123
 1468 0554 A8100000 		.word	.LC124
 1469 0558 DC100000 		.word	.LC125
 1470 055c F8100000 		.word	.LC126
 1471              	.L131:
 426:Middlewares/Third_Party/wolfSSL_wolfSSL_wolfSSL/wolfssl/wolfcrypt/src/error.c **** 
 1472              		.loc 1 426 9 is_stmt 1 view .LVU257
 426:Middlewares/Third_Party/wolfSSL_wolfSSL_wolfSSL/wolfssl/wolfcrypt/src/error.c **** 
 1473              		.loc 1 426 16 is_stmt 0 view .LVU258
 1474 0560 2148     		ldr	r0, .L167
 1475 0562 7047     		bx	lr
 1476              	.L132:
 429:Middlewares/Third_Party/wolfSSL_wolfSSL_wolfSSL/wolfssl/wolfcrypt/src/error.c **** 
 1477              		.loc 1 429 9 is_stmt 1 view .LVU259
 429:Middlewares/Third_Party/wolfSSL_wolfSSL_wolfSSL/wolfssl/wolfcrypt/src/error.c **** 
 1478              		.loc 1 429 16 is_stmt 0 view .LVU260
 1479 0564 2148     		ldr	r0, .L167+4
 1480 0566 7047     		bx	lr
 1481              	.L133:
 432:Middlewares/Third_Party/wolfSSL_wolfSSL_wolfSSL/wolfssl/wolfcrypt/src/error.c **** 
 1482              		.loc 1 432 9 is_stmt 1 view .LVU261
 432:Middlewares/Third_Party/wolfSSL_wolfSSL_wolfSSL/wolfssl/wolfcrypt/src/error.c **** 
 1483              		.loc 1 432 16 is_stmt 0 view .LVU262
 1484 0568 2148     		ldr	r0, .L167+8
 1485 056a 7047     		bx	lr
 1486              	.L68:
 435:Middlewares/Third_Party/wolfSSL_wolfSSL_wolfSSL/wolfssl/wolfcrypt/src/error.c **** 
 1487              		.loc 1 435 9 is_stmt 1 view .LVU263
 435:Middlewares/Third_Party/wolfSSL_wolfSSL_wolfSSL/wolfssl/wolfcrypt/src/error.c **** 
 1488              		.loc 1 435 16 is_stmt 0 view .LVU264
 1489 056c 2148     		ldr	r0, .L167+12
ARM GAS  /tmp/ccisCKci.s 			page 52


 1490 056e 7047     		bx	lr
 1491              	.L134:
 438:Middlewares/Third_Party/wolfSSL_wolfSSL_wolfSSL/wolfssl/wolfcrypt/src/error.c **** 
 1492              		.loc 1 438 9 is_stmt 1 view .LVU265
 438:Middlewares/Third_Party/wolfSSL_wolfSSL_wolfSSL/wolfssl/wolfcrypt/src/error.c **** 
 1493              		.loc 1 438 16 is_stmt 0 view .LVU266
 1494 0570 2148     		ldr	r0, .L167+16
 1495 0572 7047     		bx	lr
 1496              	.L136:
 441:Middlewares/Third_Party/wolfSSL_wolfSSL_wolfSSL/wolfssl/wolfcrypt/src/error.c **** 
 1497              		.loc 1 441 9 is_stmt 1 view .LVU267
 441:Middlewares/Third_Party/wolfSSL_wolfSSL_wolfSSL/wolfssl/wolfcrypt/src/error.c **** 
 1498              		.loc 1 441 16 is_stmt 0 view .LVU268
 1499 0574 2148     		ldr	r0, .L167+20
 1500 0576 7047     		bx	lr
 1501              	.L137:
 444:Middlewares/Third_Party/wolfSSL_wolfSSL_wolfSSL/wolfssl/wolfcrypt/src/error.c **** 
 1502              		.loc 1 444 9 is_stmt 1 view .LVU269
 444:Middlewares/Third_Party/wolfSSL_wolfSSL_wolfSSL/wolfssl/wolfcrypt/src/error.c **** 
 1503              		.loc 1 444 16 is_stmt 0 view .LVU270
 1504 0578 2148     		ldr	r0, .L167+24
 1505 057a 7047     		bx	lr
 1506              	.L138:
 447:Middlewares/Third_Party/wolfSSL_wolfSSL_wolfSSL/wolfssl/wolfcrypt/src/error.c **** 
 1507              		.loc 1 447 9 is_stmt 1 view .LVU271
 447:Middlewares/Third_Party/wolfSSL_wolfSSL_wolfSSL/wolfssl/wolfcrypt/src/error.c **** 
 1508              		.loc 1 447 16 is_stmt 0 view .LVU272
 1509 057c 2148     		ldr	r0, .L167+28
 1510 057e 7047     		bx	lr
 1511              	.L139:
 450:Middlewares/Third_Party/wolfSSL_wolfSSL_wolfSSL/wolfssl/wolfcrypt/src/error.c **** 
 1512              		.loc 1 450 9 is_stmt 1 view .LVU273
 450:Middlewares/Third_Party/wolfSSL_wolfSSL_wolfSSL/wolfssl/wolfcrypt/src/error.c **** 
 1513              		.loc 1 450 16 is_stmt 0 view .LVU274
 1514 0580 2148     		ldr	r0, .L167+32
 1515 0582 7047     		bx	lr
 1516              	.L140:
 453:Middlewares/Third_Party/wolfSSL_wolfSSL_wolfSSL/wolfssl/wolfcrypt/src/error.c **** 
 1517              		.loc 1 453 9 is_stmt 1 view .LVU275
 453:Middlewares/Third_Party/wolfSSL_wolfSSL_wolfSSL/wolfssl/wolfcrypt/src/error.c **** 
 1518              		.loc 1 453 16 is_stmt 0 view .LVU276
 1519 0584 2148     		ldr	r0, .L167+36
 1520 0586 7047     		bx	lr
 1521              	.L141:
 456:Middlewares/Third_Party/wolfSSL_wolfSSL_wolfSSL/wolfssl/wolfcrypt/src/error.c **** 
 1522              		.loc 1 456 9 is_stmt 1 view .LVU277
 456:Middlewares/Third_Party/wolfSSL_wolfSSL_wolfSSL/wolfssl/wolfcrypt/src/error.c **** 
 1523              		.loc 1 456 16 is_stmt 0 view .LVU278
 1524 0588 2148     		ldr	r0, .L167+40
 1525 058a 7047     		bx	lr
 1526              	.L142:
 459:Middlewares/Third_Party/wolfSSL_wolfSSL_wolfSSL/wolfssl/wolfcrypt/src/error.c **** 
 1527              		.loc 1 459 9 is_stmt 1 view .LVU279
 459:Middlewares/Third_Party/wolfSSL_wolfSSL_wolfSSL/wolfssl/wolfcrypt/src/error.c **** 
 1528              		.loc 1 459 16 is_stmt 0 view .LVU280
 1529 058c 2148     		ldr	r0, .L167+44
 1530 058e 7047     		bx	lr
ARM GAS  /tmp/ccisCKci.s 			page 53


 1531              	.L143:
 462:Middlewares/Third_Party/wolfSSL_wolfSSL_wolfSSL/wolfssl/wolfcrypt/src/error.c **** 
 1532              		.loc 1 462 9 is_stmt 1 view .LVU281
 462:Middlewares/Third_Party/wolfSSL_wolfSSL_wolfSSL/wolfssl/wolfcrypt/src/error.c **** 
 1533              		.loc 1 462 16 is_stmt 0 view .LVU282
 1534 0590 2148     		ldr	r0, .L167+48
 1535 0592 7047     		bx	lr
 1536              	.L144:
 465:Middlewares/Third_Party/wolfSSL_wolfSSL_wolfSSL/wolfssl/wolfcrypt/src/error.c **** 
 1537              		.loc 1 465 9 is_stmt 1 view .LVU283
 465:Middlewares/Third_Party/wolfSSL_wolfSSL_wolfSSL/wolfssl/wolfcrypt/src/error.c **** 
 1538              		.loc 1 465 16 is_stmt 0 view .LVU284
 1539 0594 2148     		ldr	r0, .L167+52
 1540 0596 7047     		bx	lr
 1541              	.L145:
 468:Middlewares/Third_Party/wolfSSL_wolfSSL_wolfSSL/wolfssl/wolfcrypt/src/error.c **** 
 1542              		.loc 1 468 9 is_stmt 1 view .LVU285
 468:Middlewares/Third_Party/wolfSSL_wolfSSL_wolfSSL/wolfssl/wolfcrypt/src/error.c **** 
 1543              		.loc 1 468 16 is_stmt 0 view .LVU286
 1544 0598 2148     		ldr	r0, .L167+56
 1545 059a 7047     		bx	lr
 1546              	.L146:
 471:Middlewares/Third_Party/wolfSSL_wolfSSL_wolfSSL/wolfssl/wolfcrypt/src/error.c **** 
 1547              		.loc 1 471 9 is_stmt 1 view .LVU287
 471:Middlewares/Third_Party/wolfSSL_wolfSSL_wolfSSL/wolfssl/wolfcrypt/src/error.c **** 
 1548              		.loc 1 471 16 is_stmt 0 view .LVU288
 1549 059c 2148     		ldr	r0, .L167+60
 1550 059e 7047     		bx	lr
 1551              	.L147:
 474:Middlewares/Third_Party/wolfSSL_wolfSSL_wolfSSL/wolfssl/wolfcrypt/src/error.c **** 
 1552              		.loc 1 474 9 is_stmt 1 view .LVU289
 474:Middlewares/Third_Party/wolfSSL_wolfSSL_wolfSSL/wolfssl/wolfcrypt/src/error.c **** 
 1553              		.loc 1 474 16 is_stmt 0 view .LVU290
 1554 05a0 2148     		ldr	r0, .L167+64
 1555 05a2 7047     		bx	lr
 1556              	.L148:
 477:Middlewares/Third_Party/wolfSSL_wolfSSL_wolfSSL/wolfssl/wolfcrypt/src/error.c **** 
 1557              		.loc 1 477 9 is_stmt 1 view .LVU291
 477:Middlewares/Third_Party/wolfSSL_wolfSSL_wolfSSL/wolfssl/wolfcrypt/src/error.c **** 
 1558              		.loc 1 477 16 is_stmt 0 view .LVU292
 1559 05a4 2148     		ldr	r0, .L167+68
 1560 05a6 7047     		bx	lr
 1561              	.L149:
 480:Middlewares/Third_Party/wolfSSL_wolfSSL_wolfSSL/wolfssl/wolfcrypt/src/error.c **** 
 1562              		.loc 1 480 9 is_stmt 1 view .LVU293
 480:Middlewares/Third_Party/wolfSSL_wolfSSL_wolfSSL/wolfssl/wolfcrypt/src/error.c **** 
 1563              		.loc 1 480 16 is_stmt 0 view .LVU294
 1564 05a8 2148     		ldr	r0, .L167+72
 1565 05aa 7047     		bx	lr
 1566              	.L150:
 483:Middlewares/Third_Party/wolfSSL_wolfSSL_wolfSSL/wolfssl/wolfcrypt/src/error.c **** 
 1567              		.loc 1 483 9 is_stmt 1 view .LVU295
 483:Middlewares/Third_Party/wolfSSL_wolfSSL_wolfSSL/wolfssl/wolfcrypt/src/error.c **** 
 1568              		.loc 1 483 16 is_stmt 0 view .LVU296
 1569 05ac 2148     		ldr	r0, .L167+76
 1570 05ae 7047     		bx	lr
 1571              	.L151:
ARM GAS  /tmp/ccisCKci.s 			page 54


 486:Middlewares/Third_Party/wolfSSL_wolfSSL_wolfSSL/wolfssl/wolfcrypt/src/error.c **** 
 1572              		.loc 1 486 9 is_stmt 1 view .LVU297
 486:Middlewares/Third_Party/wolfSSL_wolfSSL_wolfSSL/wolfssl/wolfcrypt/src/error.c **** 
 1573              		.loc 1 486 16 is_stmt 0 view .LVU298
 1574 05b0 2148     		ldr	r0, .L167+80
 1575 05b2 7047     		bx	lr
 1576              	.L152:
 489:Middlewares/Third_Party/wolfSSL_wolfSSL_wolfSSL/wolfssl/wolfcrypt/src/error.c **** 
 1577              		.loc 1 489 9 is_stmt 1 view .LVU299
 489:Middlewares/Third_Party/wolfSSL_wolfSSL_wolfSSL/wolfssl/wolfcrypt/src/error.c **** 
 1578              		.loc 1 489 16 is_stmt 0 view .LVU300
 1579 05b4 2148     		ldr	r0, .L167+84
 1580 05b6 7047     		bx	lr
 1581              	.L153:
 492:Middlewares/Third_Party/wolfSSL_wolfSSL_wolfSSL/wolfssl/wolfcrypt/src/error.c **** 
 1582              		.loc 1 492 9 is_stmt 1 view .LVU301
 492:Middlewares/Third_Party/wolfSSL_wolfSSL_wolfSSL/wolfssl/wolfcrypt/src/error.c **** 
 1583              		.loc 1 492 16 is_stmt 0 view .LVU302
 1584 05b8 2148     		ldr	r0, .L167+88
 1585 05ba 7047     		bx	lr
 1586              	.L154:
 495:Middlewares/Third_Party/wolfSSL_wolfSSL_wolfSSL/wolfssl/wolfcrypt/src/error.c **** 
 1587              		.loc 1 495 9 is_stmt 1 view .LVU303
 495:Middlewares/Third_Party/wolfSSL_wolfSSL_wolfSSL/wolfssl/wolfcrypt/src/error.c **** 
 1588              		.loc 1 495 16 is_stmt 0 view .LVU304
 1589 05bc 2148     		ldr	r0, .L167+92
 1590 05be 7047     		bx	lr
 1591              	.L155:
 498:Middlewares/Third_Party/wolfSSL_wolfSSL_wolfSSL/wolfssl/wolfcrypt/src/error.c **** 
 1592              		.loc 1 498 9 is_stmt 1 view .LVU305
 498:Middlewares/Third_Party/wolfSSL_wolfSSL_wolfSSL/wolfssl/wolfcrypt/src/error.c **** 
 1593              		.loc 1 498 16 is_stmt 0 view .LVU306
 1594 05c0 2148     		ldr	r0, .L167+96
 1595 05c2 7047     		bx	lr
 1596              	.L156:
 501:Middlewares/Third_Party/wolfSSL_wolfSSL_wolfSSL/wolfssl/wolfcrypt/src/error.c **** 
 1597              		.loc 1 501 9 is_stmt 1 view .LVU307
 501:Middlewares/Third_Party/wolfSSL_wolfSSL_wolfSSL/wolfssl/wolfcrypt/src/error.c **** 
 1598              		.loc 1 501 16 is_stmt 0 view .LVU308
 1599 05c4 2148     		ldr	r0, .L167+100
 1600 05c6 7047     		bx	lr
 1601              	.L157:
 504:Middlewares/Third_Party/wolfSSL_wolfSSL_wolfSSL/wolfssl/wolfcrypt/src/error.c **** 
 1602              		.loc 1 504 9 is_stmt 1 view .LVU309
 504:Middlewares/Third_Party/wolfSSL_wolfSSL_wolfSSL/wolfssl/wolfcrypt/src/error.c **** 
 1603              		.loc 1 504 16 is_stmt 0 view .LVU310
 1604 05c8 2148     		ldr	r0, .L167+104
 1605 05ca 7047     		bx	lr
 1606              	.L159:
 507:Middlewares/Third_Party/wolfSSL_wolfSSL_wolfSSL/wolfssl/wolfcrypt/src/error.c **** 
 1607              		.loc 1 507 9 is_stmt 1 view .LVU311
 507:Middlewares/Third_Party/wolfSSL_wolfSSL_wolfSSL/wolfssl/wolfcrypt/src/error.c **** 
 1608              		.loc 1 507 16 is_stmt 0 view .LVU312
 1609 05cc 2148     		ldr	r0, .L167+108
 1610 05ce 7047     		bx	lr
 1611              	.L160:
 510:Middlewares/Third_Party/wolfSSL_wolfSSL_wolfSSL/wolfssl/wolfcrypt/src/error.c **** 
ARM GAS  /tmp/ccisCKci.s 			page 55


 1612              		.loc 1 510 9 is_stmt 1 view .LVU313
 510:Middlewares/Third_Party/wolfSSL_wolfSSL_wolfSSL/wolfssl/wolfcrypt/src/error.c **** 
 1613              		.loc 1 510 16 is_stmt 0 view .LVU314
 1614 05d0 2148     		ldr	r0, .L167+112
 1615 05d2 7047     		bx	lr
 1616              	.L161:
 513:Middlewares/Third_Party/wolfSSL_wolfSSL_wolfSSL/wolfssl/wolfcrypt/src/error.c **** 
 1617              		.loc 1 513 9 is_stmt 1 view .LVU315
 513:Middlewares/Third_Party/wolfSSL_wolfSSL_wolfSSL/wolfssl/wolfcrypt/src/error.c **** 
 1618              		.loc 1 513 16 is_stmt 0 view .LVU316
 1619 05d4 2148     		ldr	r0, .L167+116
 1620 05d6 7047     		bx	lr
 1621              	.L162:
 516:Middlewares/Third_Party/wolfSSL_wolfSSL_wolfSSL/wolfssl/wolfcrypt/src/error.c **** 
 1622              		.loc 1 516 9 is_stmt 1 view .LVU317
 516:Middlewares/Third_Party/wolfSSL_wolfSSL_wolfSSL/wolfssl/wolfcrypt/src/error.c **** 
 1623              		.loc 1 516 16 is_stmt 0 view .LVU318
 1624 05d8 2148     		ldr	r0, .L167+120
 1625 05da 7047     		bx	lr
 1626              	.L163:
 1627              		.loc 1 519 9 is_stmt 1 view .LVU319
 1628              		.loc 1 519 16 is_stmt 0 view .LVU320
 1629 05dc 2148     		ldr	r0, .L167+124
 1630 05de 7047     		bx	lr
 1631              	.L2:
 520:Middlewares/Third_Party/wolfSSL_wolfSSL_wolfSSL/wolfssl/wolfcrypt/src/error.c **** 
 521:Middlewares/Third_Party/wolfSSL_wolfSSL_wolfSSL/wolfssl/wolfcrypt/src/error.c ****     default:
 522:Middlewares/Third_Party/wolfSSL_wolfSSL_wolfSSL/wolfssl/wolfcrypt/src/error.c ****         return "unknown error number";
 1632              		.loc 1 522 9 is_stmt 1 view .LVU321
 1633              		.loc 1 522 16 is_stmt 0 view .LVU322
 1634 05e0 2148     		ldr	r0, .L167+128
 1635 05e2 7047     		bx	lr
 1636              	.L164:
  45:Middlewares/Third_Party/wolfSSL_wolfSSL_wolfSSL/wolfssl/wolfcrypt/src/error.c **** 
 1637              		.loc 1 45 16 view .LVU323
 1638 05e4 2148     		ldr	r0, .L167+132
 523:Middlewares/Third_Party/wolfSSL_wolfSSL_wolfSSL/wolfssl/wolfcrypt/src/error.c **** 
 524:Middlewares/Third_Party/wolfSSL_wolfSSL_wolfSSL/wolfssl/wolfcrypt/src/error.c ****     }
 525:Middlewares/Third_Party/wolfSSL_wolfSSL_wolfSSL/wolfssl/wolfcrypt/src/error.c **** }
 1639              		.loc 1 525 1 view .LVU324
 1640 05e6 7047     		bx	lr
 1641              	.L168:
 1642              		.align	2
 1643              	.L167:
 1644 05e8 2C110000 		.word	.LC127
 1645 05ec 48110000 		.word	.LC128
 1646 05f0 64110000 		.word	.LC129
 1647 05f4 7C110000 		.word	.LC130
 1648 05f8 BC110000 		.word	.LC131
 1649 05fc E0110000 		.word	.LC132
 1650 0600 00120000 		.word	.LC133
 1651 0604 20120000 		.word	.LC134
 1652 0608 54120000 		.word	.LC135
 1653 060c 78120000 		.word	.LC136
 1654 0610 B0120000 		.word	.LC137
 1655 0614 D8120000 		.word	.LC138
 1656 0618 10130000 		.word	.LC139
ARM GAS  /tmp/ccisCKci.s 			page 56


 1657 061c 48130000 		.word	.LC140
 1658 0620 74130000 		.word	.LC141
 1659 0624 A0130000 		.word	.LC142
 1660 0628 CC130000 		.word	.LC143
 1661 062c FC130000 		.word	.LC144
 1662 0630 20140000 		.word	.LC145
 1663 0634 44140000 		.word	.LC146
 1664 0638 70140000 		.word	.LC147
 1665 063c 90140000 		.word	.LC148
 1666 0640 A4140000 		.word	.LC149
 1667 0644 BC140000 		.word	.LC150
 1668 0648 CC140000 		.word	.LC151
 1669 064c E0140000 		.word	.LC152
 1670 0650 F8140000 		.word	.LC153
 1671 0654 18150000 		.word	.LC154
 1672 0658 34150000 		.word	.LC155
 1673 065c 64150000 		.word	.LC156
 1674 0660 90150000 		.word	.LC157
 1675 0664 C4150000 		.word	.LC158
 1676 0668 00000000 		.word	.LC0
 1677 066c 18000000 		.word	.LC1
 1678              		.cfi_endproc
 1679              	.LFE136:
 1681              		.section	.text.wc_ErrorString,"ax",%progbits
 1682              		.align	1
 1683              		.global	wc_ErrorString
 1684              		.syntax unified
 1685              		.thumb
 1686              		.thumb_func
 1687              		.fpu fpv4-sp-d16
 1689              	wc_ErrorString:
 1690              	.LVL3:
 1691              	.LFB137:
 526:Middlewares/Third_Party/wolfSSL_wolfSSL_wolfSSL/wolfssl/wolfcrypt/src/error.c **** 
 527:Middlewares/Third_Party/wolfSSL_wolfSSL_wolfSSL/wolfssl/wolfcrypt/src/error.c **** void wc_ErrorString(int error, char* buffer)
 528:Middlewares/Third_Party/wolfSSL_wolfSSL_wolfSSL/wolfssl/wolfcrypt/src/error.c **** {
 1692              		.loc 1 528 1 is_stmt 1 view -0
 1693              		.cfi_startproc
 1694              		@ args = 0, pretend = 0, frame = 0
 1695              		@ frame_needed = 0, uses_anonymous_args = 0
 1696              		.loc 1 528 1 is_stmt 0 view .LVU326
 1697 0000 10B5     		push	{r4, lr}
 1698              	.LCFI0:
 1699              		.cfi_def_cfa_offset 8
 1700              		.cfi_offset 4, -8
 1701              		.cfi_offset 14, -4
 1702 0002 0C46     		mov	r4, r1
 529:Middlewares/Third_Party/wolfSSL_wolfSSL_wolfSSL/wolfssl/wolfcrypt/src/error.c ****     XSTRNCPY(buffer, wc_GetErrorString(error), WOLFSSL_MAX_ERROR_SZ);
 1703              		.loc 1 529 5 is_stmt 1 view .LVU327
 1704 0004 FFF7FEFF 		bl	wc_GetErrorString
 1705              	.LVL4:
 1706              		.loc 1 529 5 is_stmt 0 view .LVU328
 1707 0008 0146     		mov	r1, r0
 1708 000a 5022     		movs	r2, #80
 1709 000c 2046     		mov	r0, r4
 1710 000e FFF7FEFF 		bl	strncpy
 1711              	.LVL5:
ARM GAS  /tmp/ccisCKci.s 			page 57


 530:Middlewares/Third_Party/wolfSSL_wolfSSL_wolfSSL/wolfssl/wolfcrypt/src/error.c ****     buffer[WOLFSSL_MAX_ERROR_SZ-1] = 0;
 1712              		.loc 1 530 5 is_stmt 1 view .LVU329
 1713              		.loc 1 530 36 is_stmt 0 view .LVU330
 1714 0012 0023     		movs	r3, #0
 1715 0014 84F84F30 		strb	r3, [r4, #79]
 531:Middlewares/Third_Party/wolfSSL_wolfSSL_wolfSSL/wolfssl/wolfcrypt/src/error.c **** }
 1716              		.loc 1 531 1 view .LVU331
 1717 0018 10BD     		pop	{r4, pc}
 1718              		.loc 1 531 1 view .LVU332
 1719              		.cfi_endproc
 1720              	.LFE137:
 1722              		.text
 1723              	.Letext0:
 1724              		.file 2 "Middlewares/Third_Party/wolfSSL_wolfSSL_wolfSSL/wolfssl/wolfssl/wolfcrypt/error-crypt.h"
 1725              		.file 3 "/usr/arm-none-eabi/include/string.h"
ARM GAS  /tmp/ccisCKci.s 			page 58


DEFINED SYMBOLS
                            *ABS*:0000000000000000 error.c
     /tmp/ccisCKci.s:18     .rodata.wc_GetErrorString.str1.4:0000000000000000 $d
     /tmp/ccisCKci.s:505    .text.wc_GetErrorString:0000000000000000 $t
     /tmp/ccisCKci.s:513    .text.wc_GetErrorString:0000000000000000 wc_GetErrorString
     /tmp/ccisCKci.s:530    .text.wc_GetErrorString:000000000000000e $d
     /tmp/ccisCKci.s:705    .text.wc_GetErrorString:000000000000016c $t
     /tmp/ccisCKci.s:1345   .text.wc_GetErrorString:0000000000000368 $d
     /tmp/ccisCKci.s:1474   .text.wc_GetErrorString:0000000000000560 $t
     /tmp/ccisCKci.s:1644   .text.wc_GetErrorString:00000000000005e8 $d
     /tmp/ccisCKci.s:1682   .text.wc_ErrorString:0000000000000000 $t
     /tmp/ccisCKci.s:1689   .text.wc_ErrorString:0000000000000000 wc_ErrorString

UNDEFINED SYMBOLS
strncpy
