ARM GAS  /tmp/ccIUkCMh.s 			page 1


   1              		.cpu cortex-m4
   2              		.eabi_attribute 27, 1
   3              		.eabi_attribute 28, 1
   4              		.eabi_attribute 20, 1
   5              		.eabi_attribute 21, 1
   6              		.eabi_attribute 23, 3
   7              		.eabi_attribute 24, 1
   8              		.eabi_attribute 25, 1
   9              		.eabi_attribute 26, 1
  10              		.eabi_attribute 30, 1
  11              		.eabi_attribute 34, 1
  12              		.eabi_attribute 18, 4
  13              		.file	"hash.c"
  14              		.text
  15              	.Ltext0:
  16              		.cfi_sections	.debug_frame
  17              		.section	.text.wc_HashTypeConvert,"ax",%progbits
  18              		.align	1
  19              		.global	wc_HashTypeConvert
  20              		.arch armv7e-m
  21              		.syntax unified
  22              		.thumb
  23              		.thumb_func
  24              		.fpu fpv4-sp-d16
  26              	wc_HashTypeConvert:
  27              	.LVL0:
  28              	.LFB175:
  29              		.file 1 "Middlewares/Third_Party/wolfSSL_wolfSSL_wolfSSL/wolfssl/wolfcrypt/src/hash.c"
   1:Middlewares/Third_Party/wolfSSL_wolfSSL_wolfSSL/wolfssl/wolfcrypt/src/hash.c **** /* hash.c
   2:Middlewares/Third_Party/wolfSSL_wolfSSL_wolfSSL/wolfssl/wolfcrypt/src/hash.c ****  *
   3:Middlewares/Third_Party/wolfSSL_wolfSSL_wolfSSL/wolfssl/wolfcrypt/src/hash.c ****  * Copyright (C) 2006-2020 wolfSSL Inc.
   4:Middlewares/Third_Party/wolfSSL_wolfSSL_wolfSSL/wolfssl/wolfcrypt/src/hash.c ****  *
   5:Middlewares/Third_Party/wolfSSL_wolfSSL_wolfSSL/wolfssl/wolfcrypt/src/hash.c ****  * This file is part of wolfSSL.
   6:Middlewares/Third_Party/wolfSSL_wolfSSL_wolfSSL/wolfssl/wolfcrypt/src/hash.c ****  *
   7:Middlewares/Third_Party/wolfSSL_wolfSSL_wolfSSL/wolfssl/wolfcrypt/src/hash.c ****  * wolfSSL is free software; you can redistribute it and/or modify
   8:Middlewares/Third_Party/wolfSSL_wolfSSL_wolfSSL/wolfssl/wolfcrypt/src/hash.c ****  * it under the terms of the GNU General Public License as published by
   9:Middlewares/Third_Party/wolfSSL_wolfSSL_wolfSSL/wolfssl/wolfcrypt/src/hash.c ****  * the Free Software Foundation; either version 2 of the License, or
  10:Middlewares/Third_Party/wolfSSL_wolfSSL_wolfSSL/wolfssl/wolfcrypt/src/hash.c ****  * (at your option) any later version.
  11:Middlewares/Third_Party/wolfSSL_wolfSSL_wolfSSL/wolfssl/wolfcrypt/src/hash.c ****  *
  12:Middlewares/Third_Party/wolfSSL_wolfSSL_wolfSSL/wolfssl/wolfcrypt/src/hash.c ****  * wolfSSL is distributed in the hope that it will be useful,
  13:Middlewares/Third_Party/wolfSSL_wolfSSL_wolfSSL/wolfssl/wolfcrypt/src/hash.c ****  * but WITHOUT ANY WARRANTY; without even the implied warranty of
  14:Middlewares/Third_Party/wolfSSL_wolfSSL_wolfSSL/wolfssl/wolfcrypt/src/hash.c ****  * MERCHANTABILITY or FITNESS FOR A PARTICULAR PURPOSE.  See the
  15:Middlewares/Third_Party/wolfSSL_wolfSSL_wolfSSL/wolfssl/wolfcrypt/src/hash.c ****  * GNU General Public License for more details.
  16:Middlewares/Third_Party/wolfSSL_wolfSSL_wolfSSL/wolfssl/wolfcrypt/src/hash.c ****  *
  17:Middlewares/Third_Party/wolfSSL_wolfSSL_wolfSSL/wolfssl/wolfcrypt/src/hash.c ****  * You should have received a copy of the GNU General Public License
  18:Middlewares/Third_Party/wolfSSL_wolfSSL_wolfSSL/wolfssl/wolfcrypt/src/hash.c ****  * along with this program; if not, write to the Free Software
  19:Middlewares/Third_Party/wolfSSL_wolfSSL_wolfSSL/wolfssl/wolfcrypt/src/hash.c ****  * Foundation, Inc., 51 Franklin Street, Fifth Floor, Boston, MA 02110-1335, USA
  20:Middlewares/Third_Party/wolfSSL_wolfSSL_wolfSSL/wolfssl/wolfcrypt/src/hash.c ****  */
  21:Middlewares/Third_Party/wolfSSL_wolfSSL_wolfSSL/wolfssl/wolfcrypt/src/hash.c **** 
  22:Middlewares/Third_Party/wolfSSL_wolfSSL_wolfSSL/wolfssl/wolfcrypt/src/hash.c **** 
  23:Middlewares/Third_Party/wolfSSL_wolfSSL_wolfSSL/wolfssl/wolfcrypt/src/hash.c **** #ifdef HAVE_CONFIG_H
  24:Middlewares/Third_Party/wolfSSL_wolfSSL_wolfSSL/wolfssl/wolfcrypt/src/hash.c ****     #include <config.h>
  25:Middlewares/Third_Party/wolfSSL_wolfSSL_wolfSSL/wolfssl/wolfcrypt/src/hash.c **** #endif
  26:Middlewares/Third_Party/wolfSSL_wolfSSL_wolfSSL/wolfssl/wolfcrypt/src/hash.c **** 
  27:Middlewares/Third_Party/wolfSSL_wolfSSL_wolfSSL/wolfssl/wolfcrypt/src/hash.c **** #include <wolfssl/wolfcrypt/settings.h>
  28:Middlewares/Third_Party/wolfSSL_wolfSSL_wolfSSL/wolfssl/wolfcrypt/src/hash.c **** #include <wolfssl/wolfcrypt/logging.h>
  29:Middlewares/Third_Party/wolfSSL_wolfSSL_wolfSSL/wolfssl/wolfcrypt/src/hash.c **** #include <wolfssl/wolfcrypt/error-crypt.h>
ARM GAS  /tmp/ccIUkCMh.s 			page 2


  30:Middlewares/Third_Party/wolfSSL_wolfSSL_wolfSSL/wolfssl/wolfcrypt/src/hash.c **** #ifndef NO_ASN
  31:Middlewares/Third_Party/wolfSSL_wolfSSL_wolfSSL/wolfssl/wolfcrypt/src/hash.c **** #include <wolfssl/wolfcrypt/asn.h>
  32:Middlewares/Third_Party/wolfSSL_wolfSSL_wolfSSL/wolfssl/wolfcrypt/src/hash.c **** #endif
  33:Middlewares/Third_Party/wolfSSL_wolfSSL_wolfSSL/wolfssl/wolfcrypt/src/hash.c **** 
  34:Middlewares/Third_Party/wolfSSL_wolfSSL_wolfSSL/wolfssl/wolfcrypt/src/hash.c **** #include <wolfssl/wolfcrypt/hash.h>
  35:Middlewares/Third_Party/wolfSSL_wolfSSL_wolfSSL/wolfssl/wolfcrypt/src/hash.c **** #include <wolfssl/wolfcrypt/hmac.h>
  36:Middlewares/Third_Party/wolfSSL_wolfSSL_wolfSSL/wolfssl/wolfcrypt/src/hash.c **** #include <wolfssl/wolfcrypt/cryptocb.h>
  37:Middlewares/Third_Party/wolfSSL_wolfSSL_wolfSSL/wolfssl/wolfcrypt/src/hash.c **** 
  38:Middlewares/Third_Party/wolfSSL_wolfSSL_wolfSSL/wolfssl/wolfcrypt/src/hash.c **** #ifdef NO_INLINE
  39:Middlewares/Third_Party/wolfSSL_wolfSSL_wolfSSL/wolfssl/wolfcrypt/src/hash.c ****     #include <wolfssl/wolfcrypt/misc.h>
  40:Middlewares/Third_Party/wolfSSL_wolfSSL_wolfSSL/wolfssl/wolfcrypt/src/hash.c **** #else
  41:Middlewares/Third_Party/wolfSSL_wolfSSL_wolfSSL/wolfssl/wolfcrypt/src/hash.c ****     #define WOLFSSL_MISC_INCLUDED
  42:Middlewares/Third_Party/wolfSSL_wolfSSL_wolfSSL/wolfssl/wolfcrypt/src/hash.c ****     #include <wolfcrypt/src/misc.c>
  43:Middlewares/Third_Party/wolfSSL_wolfSSL_wolfSSL/wolfssl/wolfcrypt/src/hash.c **** #endif
  44:Middlewares/Third_Party/wolfSSL_wolfSSL_wolfSSL/wolfssl/wolfcrypt/src/hash.c **** 
  45:Middlewares/Third_Party/wolfSSL_wolfSSL_wolfSSL/wolfssl/wolfcrypt/src/hash.c **** 
  46:Middlewares/Third_Party/wolfSSL_wolfSSL_wolfSSL/wolfssl/wolfcrypt/src/hash.c **** #ifdef NO_ASN
  47:Middlewares/Third_Party/wolfSSL_wolfSSL_wolfSSL/wolfssl/wolfcrypt/src/hash.c **** enum Hash_Sum  {
  48:Middlewares/Third_Party/wolfSSL_wolfSSL_wolfSSL/wolfssl/wolfcrypt/src/hash.c ****     MD2h      = 646,
  49:Middlewares/Third_Party/wolfSSL_wolfSSL_wolfSSL/wolfssl/wolfcrypt/src/hash.c ****     MD5h      = 649,
  50:Middlewares/Third_Party/wolfSSL_wolfSSL_wolfSSL/wolfssl/wolfcrypt/src/hash.c ****     SHAh      =  88,
  51:Middlewares/Third_Party/wolfSSL_wolfSSL_wolfSSL/wolfssl/wolfcrypt/src/hash.c ****     SHA224h   = 417,
  52:Middlewares/Third_Party/wolfSSL_wolfSSL_wolfSSL/wolfssl/wolfcrypt/src/hash.c ****     SHA256h   = 414,
  53:Middlewares/Third_Party/wolfSSL_wolfSSL_wolfSSL/wolfssl/wolfcrypt/src/hash.c ****     SHA384h   = 415,
  54:Middlewares/Third_Party/wolfSSL_wolfSSL_wolfSSL/wolfssl/wolfcrypt/src/hash.c ****     SHA512h   = 416,
  55:Middlewares/Third_Party/wolfSSL_wolfSSL_wolfSSL/wolfssl/wolfcrypt/src/hash.c ****     SHA3_224h = 420,
  56:Middlewares/Third_Party/wolfSSL_wolfSSL_wolfSSL/wolfssl/wolfcrypt/src/hash.c ****     SHA3_256h = 421,
  57:Middlewares/Third_Party/wolfSSL_wolfSSL_wolfSSL/wolfssl/wolfcrypt/src/hash.c ****     SHA3_384h = 422,
  58:Middlewares/Third_Party/wolfSSL_wolfSSL_wolfSSL/wolfssl/wolfcrypt/src/hash.c ****     SHA3_512h = 423
  59:Middlewares/Third_Party/wolfSSL_wolfSSL_wolfSSL/wolfssl/wolfcrypt/src/hash.c **** };
  60:Middlewares/Third_Party/wolfSSL_wolfSSL_wolfSSL/wolfssl/wolfcrypt/src/hash.c **** #endif /* !NO_ASN */
  61:Middlewares/Third_Party/wolfSSL_wolfSSL_wolfSSL/wolfssl/wolfcrypt/src/hash.c **** 
  62:Middlewares/Third_Party/wolfSSL_wolfSSL_wolfSSL/wolfssl/wolfcrypt/src/hash.c **** #if !defined(NO_PWDBASED) || !defined(NO_ASN)
  63:Middlewares/Third_Party/wolfSSL_wolfSSL_wolfSSL/wolfssl/wolfcrypt/src/hash.c **** /* function converts int hash type to enum */
  64:Middlewares/Third_Party/wolfSSL_wolfSSL_wolfSSL/wolfssl/wolfcrypt/src/hash.c **** enum wc_HashType wc_HashTypeConvert(int hashType)
  65:Middlewares/Third_Party/wolfSSL_wolfSSL_wolfSSL/wolfssl/wolfcrypt/src/hash.c **** {
  30              		.loc 1 65 1 view -0
  31              		.cfi_startproc
  32              		@ args = 0, pretend = 0, frame = 0
  33              		@ frame_needed = 0, uses_anonymous_args = 0
  34              		@ link register save eliminated.
  66:Middlewares/Third_Party/wolfSSL_wolfSSL_wolfSSL/wolfssl/wolfcrypt/src/hash.c ****     /* Default to hash type none as error */
  67:Middlewares/Third_Party/wolfSSL_wolfSSL_wolfSSL/wolfssl/wolfcrypt/src/hash.c ****     enum wc_HashType eHashType = WC_HASH_TYPE_NONE;
  35              		.loc 1 67 5 view .LVU1
  68:Middlewares/Third_Party/wolfSSL_wolfSSL_wolfSSL/wolfssl/wolfcrypt/src/hash.c **** #if defined(HAVE_FIPS) || defined(HAVE_SELFTEST)
  69:Middlewares/Third_Party/wolfSSL_wolfSSL_wolfSSL/wolfssl/wolfcrypt/src/hash.c ****     /* original FIPSv1  and CAVP selftest require a mapping for unique hash
  70:Middlewares/Third_Party/wolfSSL_wolfSSL_wolfSSL/wolfssl/wolfcrypt/src/hash.c ****        type to wc_HashType */
  71:Middlewares/Third_Party/wolfSSL_wolfSSL_wolfSSL/wolfssl/wolfcrypt/src/hash.c ****     switch (hashType) {
  72:Middlewares/Third_Party/wolfSSL_wolfSSL_wolfSSL/wolfssl/wolfcrypt/src/hash.c ****     #ifndef NO_MD5
  73:Middlewares/Third_Party/wolfSSL_wolfSSL_wolfSSL/wolfssl/wolfcrypt/src/hash.c ****         case WC_MD5:
  74:Middlewares/Third_Party/wolfSSL_wolfSSL_wolfSSL/wolfssl/wolfcrypt/src/hash.c ****             eHashType = WC_HASH_TYPE_MD5;
  75:Middlewares/Third_Party/wolfSSL_wolfSSL_wolfSSL/wolfssl/wolfcrypt/src/hash.c ****             break;
  76:Middlewares/Third_Party/wolfSSL_wolfSSL_wolfSSL/wolfssl/wolfcrypt/src/hash.c ****     #endif /* !NO_MD5 */
  77:Middlewares/Third_Party/wolfSSL_wolfSSL_wolfSSL/wolfssl/wolfcrypt/src/hash.c ****     #ifndef NO_SHA
  78:Middlewares/Third_Party/wolfSSL_wolfSSL_wolfSSL/wolfssl/wolfcrypt/src/hash.c ****         case WC_SHA:
  79:Middlewares/Third_Party/wolfSSL_wolfSSL_wolfSSL/wolfssl/wolfcrypt/src/hash.c ****             eHashType = WC_HASH_TYPE_SHA;
  80:Middlewares/Third_Party/wolfSSL_wolfSSL_wolfSSL/wolfssl/wolfcrypt/src/hash.c ****             break;
ARM GAS  /tmp/ccIUkCMh.s 			page 3


  81:Middlewares/Third_Party/wolfSSL_wolfSSL_wolfSSL/wolfssl/wolfcrypt/src/hash.c ****     #endif /* !NO_SHA */
  82:Middlewares/Third_Party/wolfSSL_wolfSSL_wolfSSL/wolfssl/wolfcrypt/src/hash.c **** 
  83:Middlewares/Third_Party/wolfSSL_wolfSSL_wolfSSL/wolfssl/wolfcrypt/src/hash.c ****     #ifdef WOLFSSL_SHA224
  84:Middlewares/Third_Party/wolfSSL_wolfSSL_wolfSSL/wolfssl/wolfcrypt/src/hash.c ****         case WC_SHA224:
  85:Middlewares/Third_Party/wolfSSL_wolfSSL_wolfSSL/wolfssl/wolfcrypt/src/hash.c ****             eHashType = WC_HASH_TYPE_SHA224;
  86:Middlewares/Third_Party/wolfSSL_wolfSSL_wolfSSL/wolfssl/wolfcrypt/src/hash.c ****             break;
  87:Middlewares/Third_Party/wolfSSL_wolfSSL_wolfSSL/wolfssl/wolfcrypt/src/hash.c ****     #endif /* WOLFSSL_SHA224 */
  88:Middlewares/Third_Party/wolfSSL_wolfSSL_wolfSSL/wolfssl/wolfcrypt/src/hash.c **** 
  89:Middlewares/Third_Party/wolfSSL_wolfSSL_wolfSSL/wolfssl/wolfcrypt/src/hash.c ****     #ifndef NO_SHA256
  90:Middlewares/Third_Party/wolfSSL_wolfSSL_wolfSSL/wolfssl/wolfcrypt/src/hash.c ****         case WC_SHA256:
  91:Middlewares/Third_Party/wolfSSL_wolfSSL_wolfSSL/wolfssl/wolfcrypt/src/hash.c ****             eHashType = WC_HASH_TYPE_SHA256;
  92:Middlewares/Third_Party/wolfSSL_wolfSSL_wolfSSL/wolfssl/wolfcrypt/src/hash.c ****             break;
  93:Middlewares/Third_Party/wolfSSL_wolfSSL_wolfSSL/wolfssl/wolfcrypt/src/hash.c ****     #endif /* !NO_SHA256 */
  94:Middlewares/Third_Party/wolfSSL_wolfSSL_wolfSSL/wolfssl/wolfcrypt/src/hash.c **** 
  95:Middlewares/Third_Party/wolfSSL_wolfSSL_wolfSSL/wolfssl/wolfcrypt/src/hash.c ****     #ifdef WOLFSSL_SHA384
  96:Middlewares/Third_Party/wolfSSL_wolfSSL_wolfSSL/wolfssl/wolfcrypt/src/hash.c ****         case WC_SHA384:
  97:Middlewares/Third_Party/wolfSSL_wolfSSL_wolfSSL/wolfssl/wolfcrypt/src/hash.c ****             eHashType = WC_HASH_TYPE_SHA384;
  98:Middlewares/Third_Party/wolfSSL_wolfSSL_wolfSSL/wolfssl/wolfcrypt/src/hash.c ****             break;
  99:Middlewares/Third_Party/wolfSSL_wolfSSL_wolfSSL/wolfssl/wolfcrypt/src/hash.c ****     #endif /* WOLFSSL_SHA384 */
 100:Middlewares/Third_Party/wolfSSL_wolfSSL_wolfSSL/wolfssl/wolfcrypt/src/hash.c ****     #ifdef WOLFSSL_SHA512
 101:Middlewares/Third_Party/wolfSSL_wolfSSL_wolfSSL/wolfssl/wolfcrypt/src/hash.c ****         case WC_SHA512:
 102:Middlewares/Third_Party/wolfSSL_wolfSSL_wolfSSL/wolfssl/wolfcrypt/src/hash.c ****             eHashType = WC_HASH_TYPE_SHA512;
 103:Middlewares/Third_Party/wolfSSL_wolfSSL_wolfSSL/wolfssl/wolfcrypt/src/hash.c ****             break;
 104:Middlewares/Third_Party/wolfSSL_wolfSSL_wolfSSL/wolfssl/wolfcrypt/src/hash.c ****     #endif /* WOLFSSL_SHA512 */
 105:Middlewares/Third_Party/wolfSSL_wolfSSL_wolfSSL/wolfssl/wolfcrypt/src/hash.c ****     #ifdef WOLFSSL_SHA3
 106:Middlewares/Third_Party/wolfSSL_wolfSSL_wolfSSL/wolfssl/wolfcrypt/src/hash.c ****         case WC_SHA3_224:
 107:Middlewares/Third_Party/wolfSSL_wolfSSL_wolfSSL/wolfssl/wolfcrypt/src/hash.c ****             eHashType = WC_HASH_TYPE_SHA3_224;
 108:Middlewares/Third_Party/wolfSSL_wolfSSL_wolfSSL/wolfssl/wolfcrypt/src/hash.c ****             break;
 109:Middlewares/Third_Party/wolfSSL_wolfSSL_wolfSSL/wolfssl/wolfcrypt/src/hash.c ****         case WC_SHA3_256:
 110:Middlewares/Third_Party/wolfSSL_wolfSSL_wolfSSL/wolfssl/wolfcrypt/src/hash.c ****             eHashType = WC_HASH_TYPE_SHA3_256;
 111:Middlewares/Third_Party/wolfSSL_wolfSSL_wolfSSL/wolfssl/wolfcrypt/src/hash.c ****             break;
 112:Middlewares/Third_Party/wolfSSL_wolfSSL_wolfSSL/wolfssl/wolfcrypt/src/hash.c ****         case WC_SHA3_384:
 113:Middlewares/Third_Party/wolfSSL_wolfSSL_wolfSSL/wolfssl/wolfcrypt/src/hash.c ****             eHashType = WC_HASH_TYPE_SHA3_384;
 114:Middlewares/Third_Party/wolfSSL_wolfSSL_wolfSSL/wolfssl/wolfcrypt/src/hash.c ****             break;
 115:Middlewares/Third_Party/wolfSSL_wolfSSL_wolfSSL/wolfssl/wolfcrypt/src/hash.c ****         case WC_SHA3_512:
 116:Middlewares/Third_Party/wolfSSL_wolfSSL_wolfSSL/wolfssl/wolfcrypt/src/hash.c ****             eHashType = WC_HASH_TYPE_SHA3_512;
 117:Middlewares/Third_Party/wolfSSL_wolfSSL_wolfSSL/wolfssl/wolfcrypt/src/hash.c ****             break;
 118:Middlewares/Third_Party/wolfSSL_wolfSSL_wolfSSL/wolfssl/wolfcrypt/src/hash.c ****     #endif /* WOLFSSL_SHA3 */
 119:Middlewares/Third_Party/wolfSSL_wolfSSL_wolfSSL/wolfssl/wolfcrypt/src/hash.c ****         default:
 120:Middlewares/Third_Party/wolfSSL_wolfSSL_wolfSSL/wolfssl/wolfcrypt/src/hash.c ****             eHashType = WC_HASH_TYPE_NONE;
 121:Middlewares/Third_Party/wolfSSL_wolfSSL_wolfSSL/wolfssl/wolfcrypt/src/hash.c ****             break;
 122:Middlewares/Third_Party/wolfSSL_wolfSSL_wolfSSL/wolfssl/wolfcrypt/src/hash.c ****     }
 123:Middlewares/Third_Party/wolfSSL_wolfSSL_wolfSSL/wolfssl/wolfcrypt/src/hash.c **** #else
 124:Middlewares/Third_Party/wolfSSL_wolfSSL_wolfSSL/wolfssl/wolfcrypt/src/hash.c ****     /* current master uses same unique types as wc_HashType */
 125:Middlewares/Third_Party/wolfSSL_wolfSSL_wolfSSL/wolfssl/wolfcrypt/src/hash.c ****     if (hashType > 0 && hashType <= WC_HASH_TYPE_MAX) {
  36              		.loc 1 125 5 view .LVU2
  37              		.loc 1 125 22 is_stmt 0 view .LVU3
  38 0000 431E     		subs	r3, r0, #1
  39              		.loc 1 125 8 view .LVU4
  40 0002 0E2B     		cmp	r3, #14
  41 0004 01D8     		bhi	.L3
 126:Middlewares/Third_Party/wolfSSL_wolfSSL_wolfSSL/wolfssl/wolfcrypt/src/hash.c ****         eHashType = (enum wc_HashType)hashType;
  42              		.loc 1 126 9 is_stmt 1 view .LVU5
  43              		.loc 1 126 19 is_stmt 0 view .LVU6
  44 0006 C0B2     		uxtb	r0, r0
  45              	.LVL1:
  46              		.loc 1 126 19 view .LVU7
ARM GAS  /tmp/ccIUkCMh.s 			page 4


  47 0008 7047     		bx	lr
  48              	.LVL2:
  49              	.L3:
  67:Middlewares/Third_Party/wolfSSL_wolfSSL_wolfSSL/wolfssl/wolfcrypt/src/hash.c **** #if defined(HAVE_FIPS) || defined(HAVE_SELFTEST)
  50              		.loc 1 67 22 view .LVU8
  51 000a 0020     		movs	r0, #0
  52              	.LVL3:
 127:Middlewares/Third_Party/wolfSSL_wolfSSL_wolfSSL/wolfssl/wolfcrypt/src/hash.c ****     }
 128:Middlewares/Third_Party/wolfSSL_wolfSSL_wolfSSL/wolfssl/wolfcrypt/src/hash.c **** #endif
 129:Middlewares/Third_Party/wolfSSL_wolfSSL_wolfSSL/wolfssl/wolfcrypt/src/hash.c ****     return eHashType;
  53              		.loc 1 129 5 is_stmt 1 view .LVU9
 130:Middlewares/Third_Party/wolfSSL_wolfSSL_wolfSSL/wolfssl/wolfcrypt/src/hash.c **** }
  54              		.loc 1 130 1 is_stmt 0 view .LVU10
  55 000c 7047     		bx	lr
  56              		.cfi_endproc
  57              	.LFE175:
  59              		.section	.text.wc_HashGetOID,"ax",%progbits
  60              		.align	1
  61              		.global	wc_HashGetOID
  62              		.syntax unified
  63              		.thumb
  64              		.thumb_func
  65              		.fpu fpv4-sp-d16
  67              	wc_HashGetOID:
  68              	.LVL4:
  69              	.LFB176:
 131:Middlewares/Third_Party/wolfSSL_wolfSSL_wolfSSL/wolfssl/wolfcrypt/src/hash.c **** #endif /* !NO_PWDBASED || !NO_ASN */
 132:Middlewares/Third_Party/wolfSSL_wolfSSL_wolfSSL/wolfssl/wolfcrypt/src/hash.c **** 
 133:Middlewares/Third_Party/wolfSSL_wolfSSL_wolfSSL/wolfssl/wolfcrypt/src/hash.c **** #if !defined(NO_ASN) || !defined(NO_DH) || defined(HAVE_ECC)
 134:Middlewares/Third_Party/wolfSSL_wolfSSL_wolfSSL/wolfssl/wolfcrypt/src/hash.c **** 
 135:Middlewares/Third_Party/wolfSSL_wolfSSL_wolfSSL/wolfssl/wolfcrypt/src/hash.c **** int wc_HashGetOID(enum wc_HashType hash_type)
 136:Middlewares/Third_Party/wolfSSL_wolfSSL_wolfSSL/wolfssl/wolfcrypt/src/hash.c **** {
  70              		.loc 1 136 1 is_stmt 1 view -0
  71              		.cfi_startproc
  72              		@ args = 0, pretend = 0, frame = 0
  73              		@ frame_needed = 0, uses_anonymous_args = 0
  74              		@ link register save eliminated.
 137:Middlewares/Third_Party/wolfSSL_wolfSSL_wolfSSL/wolfssl/wolfcrypt/src/hash.c ****     int oid = HASH_TYPE_E; /* Default to hash type error */
  75              		.loc 1 137 5 view .LVU12
 138:Middlewares/Third_Party/wolfSSL_wolfSSL_wolfSSL/wolfssl/wolfcrypt/src/hash.c ****     switch(hash_type)
  76              		.loc 1 138 5 view .LVU13
  77 0000 0138     		subs	r0, r0, #1
  78              	.LVL5:
  79              		.loc 1 138 5 is_stmt 0 view .LVU14
  80 0002 0C28     		cmp	r0, #12
  81 0004 0BD8     		bhi	.L5
  82 0006 DFE800F0 		tbb	[pc, r0]
  83              	.L7:
  84 000a 07       		.byte	(.L6-.L7)/2
  85 000b 0A       		.byte	(.L5-.L7)/2
  86 000c 07       		.byte	(.L6-.L7)/2
  87 000d 07       		.byte	(.L6-.L7)/2
  88 000e 07       		.byte	(.L6-.L7)/2
  89 000f 0D       		.byte	(.L9-.L7)/2
  90 0010 07       		.byte	(.L6-.L7)/2
  91 0011 07       		.byte	(.L6-.L7)/2
  92 0012 07       		.byte	(.L6-.L7)/2
ARM GAS  /tmp/ccIUkCMh.s 			page 5


  93 0013 07       		.byte	(.L6-.L7)/2
  94 0014 07       		.byte	(.L6-.L7)/2
  95 0015 07       		.byte	(.L6-.L7)/2
  96 0016 07       		.byte	(.L6-.L7)/2
  97 0017 00       		.p2align 1
  98              	.L6:
 139:Middlewares/Third_Party/wolfSSL_wolfSSL_wolfSSL/wolfssl/wolfcrypt/src/hash.c ****     {
 140:Middlewares/Third_Party/wolfSSL_wolfSSL_wolfSSL/wolfssl/wolfcrypt/src/hash.c ****         case WC_HASH_TYPE_MD2:
 141:Middlewares/Third_Party/wolfSSL_wolfSSL_wolfSSL/wolfssl/wolfcrypt/src/hash.c ****         #ifdef WOLFSSL_MD2
 142:Middlewares/Third_Party/wolfSSL_wolfSSL_wolfSSL/wolfssl/wolfcrypt/src/hash.c ****             oid = MD2h;
 143:Middlewares/Third_Party/wolfSSL_wolfSSL_wolfSSL/wolfssl/wolfcrypt/src/hash.c ****         #endif
 144:Middlewares/Third_Party/wolfSSL_wolfSSL_wolfSSL/wolfssl/wolfcrypt/src/hash.c ****             break;
 145:Middlewares/Third_Party/wolfSSL_wolfSSL_wolfSSL/wolfssl/wolfcrypt/src/hash.c ****         case WC_HASH_TYPE_MD5_SHA:
 146:Middlewares/Third_Party/wolfSSL_wolfSSL_wolfSSL/wolfssl/wolfcrypt/src/hash.c ****         case WC_HASH_TYPE_MD5:
 147:Middlewares/Third_Party/wolfSSL_wolfSSL_wolfSSL/wolfssl/wolfcrypt/src/hash.c ****         #ifndef NO_MD5
 148:Middlewares/Third_Party/wolfSSL_wolfSSL_wolfSSL/wolfssl/wolfcrypt/src/hash.c ****             oid = MD5h;
 149:Middlewares/Third_Party/wolfSSL_wolfSSL_wolfSSL/wolfssl/wolfcrypt/src/hash.c ****         #endif
 150:Middlewares/Third_Party/wolfSSL_wolfSSL_wolfSSL/wolfssl/wolfcrypt/src/hash.c ****             break;
 151:Middlewares/Third_Party/wolfSSL_wolfSSL_wolfSSL/wolfssl/wolfcrypt/src/hash.c ****         case WC_HASH_TYPE_SHA:
 152:Middlewares/Third_Party/wolfSSL_wolfSSL_wolfSSL/wolfssl/wolfcrypt/src/hash.c ****         #ifndef NO_SHA
 153:Middlewares/Third_Party/wolfSSL_wolfSSL_wolfSSL/wolfssl/wolfcrypt/src/hash.c ****             oid = SHAh;
 154:Middlewares/Third_Party/wolfSSL_wolfSSL_wolfSSL/wolfssl/wolfcrypt/src/hash.c ****         #endif
 155:Middlewares/Third_Party/wolfSSL_wolfSSL_wolfSSL/wolfssl/wolfcrypt/src/hash.c ****             break;
 156:Middlewares/Third_Party/wolfSSL_wolfSSL_wolfSSL/wolfssl/wolfcrypt/src/hash.c ****         case WC_HASH_TYPE_SHA224:
 157:Middlewares/Third_Party/wolfSSL_wolfSSL_wolfSSL/wolfssl/wolfcrypt/src/hash.c ****         #ifdef WOLFSSL_SHA224
 158:Middlewares/Third_Party/wolfSSL_wolfSSL_wolfSSL/wolfssl/wolfcrypt/src/hash.c ****             oid = SHA224h;
 159:Middlewares/Third_Party/wolfSSL_wolfSSL_wolfSSL/wolfssl/wolfcrypt/src/hash.c ****         #endif
 160:Middlewares/Third_Party/wolfSSL_wolfSSL_wolfSSL/wolfssl/wolfcrypt/src/hash.c ****             break;
 161:Middlewares/Third_Party/wolfSSL_wolfSSL_wolfSSL/wolfssl/wolfcrypt/src/hash.c ****         case WC_HASH_TYPE_SHA256:
 162:Middlewares/Third_Party/wolfSSL_wolfSSL_wolfSSL/wolfssl/wolfcrypt/src/hash.c ****         #ifndef NO_SHA256
 163:Middlewares/Third_Party/wolfSSL_wolfSSL_wolfSSL/wolfssl/wolfcrypt/src/hash.c ****             oid = SHA256h;
 164:Middlewares/Third_Party/wolfSSL_wolfSSL_wolfSSL/wolfssl/wolfcrypt/src/hash.c ****         #endif
 165:Middlewares/Third_Party/wolfSSL_wolfSSL_wolfSSL/wolfssl/wolfcrypt/src/hash.c ****             break;
 166:Middlewares/Third_Party/wolfSSL_wolfSSL_wolfSSL/wolfssl/wolfcrypt/src/hash.c ****         case WC_HASH_TYPE_SHA384:
 167:Middlewares/Third_Party/wolfSSL_wolfSSL_wolfSSL/wolfssl/wolfcrypt/src/hash.c ****         #ifdef WOLFSSL_SHA384
 168:Middlewares/Third_Party/wolfSSL_wolfSSL_wolfSSL/wolfssl/wolfcrypt/src/hash.c ****             oid = SHA384h;
 169:Middlewares/Third_Party/wolfSSL_wolfSSL_wolfSSL/wolfssl/wolfcrypt/src/hash.c ****         #endif
 170:Middlewares/Third_Party/wolfSSL_wolfSSL_wolfSSL/wolfssl/wolfcrypt/src/hash.c ****             break;
 171:Middlewares/Third_Party/wolfSSL_wolfSSL_wolfSSL/wolfssl/wolfcrypt/src/hash.c ****         case WC_HASH_TYPE_SHA512:
 172:Middlewares/Third_Party/wolfSSL_wolfSSL_wolfSSL/wolfssl/wolfcrypt/src/hash.c ****         #ifdef WOLFSSL_SHA512
 173:Middlewares/Third_Party/wolfSSL_wolfSSL_wolfSSL/wolfssl/wolfcrypt/src/hash.c ****             oid = SHA512h;
 174:Middlewares/Third_Party/wolfSSL_wolfSSL_wolfSSL/wolfssl/wolfcrypt/src/hash.c ****         #endif
 175:Middlewares/Third_Party/wolfSSL_wolfSSL_wolfSSL/wolfssl/wolfcrypt/src/hash.c ****             break;
 176:Middlewares/Third_Party/wolfSSL_wolfSSL_wolfSSL/wolfssl/wolfcrypt/src/hash.c ****         case WC_HASH_TYPE_SHA3_224:
 177:Middlewares/Third_Party/wolfSSL_wolfSSL_wolfSSL/wolfssl/wolfcrypt/src/hash.c ****         #if defined(WOLFSSL_SHA3) && !defined(WOLFSSL_NOSHA3_224)
 178:Middlewares/Third_Party/wolfSSL_wolfSSL_wolfSSL/wolfssl/wolfcrypt/src/hash.c ****             oid = SHA3_224h;
 179:Middlewares/Third_Party/wolfSSL_wolfSSL_wolfSSL/wolfssl/wolfcrypt/src/hash.c ****         #endif
 180:Middlewares/Third_Party/wolfSSL_wolfSSL_wolfSSL/wolfssl/wolfcrypt/src/hash.c ****             break;
 181:Middlewares/Third_Party/wolfSSL_wolfSSL_wolfSSL/wolfssl/wolfcrypt/src/hash.c ****         case WC_HASH_TYPE_SHA3_256:
 182:Middlewares/Third_Party/wolfSSL_wolfSSL_wolfSSL/wolfssl/wolfcrypt/src/hash.c ****         #if defined(WOLFSSL_SHA3) && !defined(WOLFSSL_NOSHA3_256)
 183:Middlewares/Third_Party/wolfSSL_wolfSSL_wolfSSL/wolfssl/wolfcrypt/src/hash.c ****             oid = SHA3_256h;
 184:Middlewares/Third_Party/wolfSSL_wolfSSL_wolfSSL/wolfssl/wolfcrypt/src/hash.c ****         #endif
 185:Middlewares/Third_Party/wolfSSL_wolfSSL_wolfSSL/wolfssl/wolfcrypt/src/hash.c ****             break;
 186:Middlewares/Third_Party/wolfSSL_wolfSSL_wolfSSL/wolfssl/wolfcrypt/src/hash.c ****         case WC_HASH_TYPE_SHA3_384:
 187:Middlewares/Third_Party/wolfSSL_wolfSSL_wolfSSL/wolfssl/wolfcrypt/src/hash.c ****         #if defined(WOLFSSL_SHA3) && !defined(WOLFSSL_NOSHA3_384)
 188:Middlewares/Third_Party/wolfSSL_wolfSSL_wolfSSL/wolfssl/wolfcrypt/src/hash.c ****             oid = SHA3_384h;
 189:Middlewares/Third_Party/wolfSSL_wolfSSL_wolfSSL/wolfssl/wolfcrypt/src/hash.c ****         #endif
ARM GAS  /tmp/ccIUkCMh.s 			page 6


 190:Middlewares/Third_Party/wolfSSL_wolfSSL_wolfSSL/wolfssl/wolfcrypt/src/hash.c ****             break;
 191:Middlewares/Third_Party/wolfSSL_wolfSSL_wolfSSL/wolfssl/wolfcrypt/src/hash.c ****         case WC_HASH_TYPE_SHA3_512:
 192:Middlewares/Third_Party/wolfSSL_wolfSSL_wolfSSL/wolfssl/wolfcrypt/src/hash.c ****         #if defined(WOLFSSL_SHA3) && !defined(WOLFSSL_NOSHA3_512)
 193:Middlewares/Third_Party/wolfSSL_wolfSSL_wolfSSL/wolfssl/wolfcrypt/src/hash.c ****             oid = SHA3_512h;
 194:Middlewares/Third_Party/wolfSSL_wolfSSL_wolfSSL/wolfssl/wolfcrypt/src/hash.c ****         #endif
 195:Middlewares/Third_Party/wolfSSL_wolfSSL_wolfSSL/wolfssl/wolfcrypt/src/hash.c ****             break;
 196:Middlewares/Third_Party/wolfSSL_wolfSSL_wolfSSL/wolfssl/wolfcrypt/src/hash.c **** 
 197:Middlewares/Third_Party/wolfSSL_wolfSSL_wolfSSL/wolfssl/wolfcrypt/src/hash.c ****         /* Not Supported */
 198:Middlewares/Third_Party/wolfSSL_wolfSSL_wolfSSL/wolfssl/wolfcrypt/src/hash.c ****         case WC_HASH_TYPE_MD4:
 199:Middlewares/Third_Party/wolfSSL_wolfSSL_wolfSSL/wolfssl/wolfcrypt/src/hash.c ****         case WC_HASH_TYPE_BLAKE2B:
 200:Middlewares/Third_Party/wolfSSL_wolfSSL_wolfSSL/wolfssl/wolfcrypt/src/hash.c ****         case WC_HASH_TYPE_BLAKE2S:
 201:Middlewares/Third_Party/wolfSSL_wolfSSL_wolfSSL/wolfssl/wolfcrypt/src/hash.c ****         case WC_HASH_TYPE_NONE:
 202:Middlewares/Third_Party/wolfSSL_wolfSSL_wolfSSL/wolfssl/wolfcrypt/src/hash.c ****         default:
 203:Middlewares/Third_Party/wolfSSL_wolfSSL_wolfSSL/wolfssl/wolfcrypt/src/hash.c ****             oid = BAD_FUNC_ARG;
  99              		.loc 1 203 17 view .LVU15
 100 0018 6FF0E700 		mvn	r0, #231
 101 001c 7047     		bx	lr
 102              	.L5:
 103              		.loc 1 203 13 is_stmt 1 view .LVU16
 104              	.LVL6:
 204:Middlewares/Third_Party/wolfSSL_wolfSSL_wolfSSL/wolfssl/wolfcrypt/src/hash.c ****             break;
 105              		.loc 1 204 13 view .LVU17
 203:Middlewares/Third_Party/wolfSSL_wolfSSL_wolfSSL/wolfssl/wolfcrypt/src/hash.c ****             break;
 106              		.loc 1 203 17 is_stmt 0 view .LVU18
 107 001e 6FF0AC00 		mvn	r0, #172
 108              		.loc 1 204 13 view .LVU19
 109 0022 7047     		bx	lr
 110              	.LVL7:
 111              	.L9:
 163:Middlewares/Third_Party/wolfSSL_wolfSSL_wolfSSL/wolfssl/wolfcrypt/src/hash.c ****         #endif
 112              		.loc 1 163 17 view .LVU20
 113 0024 4FF4CF70 		mov	r0, #414
 114              	.LVL8:
 205:Middlewares/Third_Party/wolfSSL_wolfSSL_wolfSSL/wolfssl/wolfcrypt/src/hash.c ****     }
 206:Middlewares/Third_Party/wolfSSL_wolfSSL_wolfSSL/wolfssl/wolfcrypt/src/hash.c ****     return oid;
 115              		.loc 1 206 5 is_stmt 1 view .LVU21
 207:Middlewares/Third_Party/wolfSSL_wolfSSL_wolfSSL/wolfssl/wolfcrypt/src/hash.c **** }
 116              		.loc 1 207 1 is_stmt 0 view .LVU22
 117 0028 7047     		bx	lr
 118              		.cfi_endproc
 119              	.LFE176:
 121              		.section	.text.wc_OidGetHash,"ax",%progbits
 122              		.align	1
 123              		.global	wc_OidGetHash
 124              		.syntax unified
 125              		.thumb
 126              		.thumb_func
 127              		.fpu fpv4-sp-d16
 129              	wc_OidGetHash:
 130              	.LVL9:
 131              	.LFB177:
 208:Middlewares/Third_Party/wolfSSL_wolfSSL_wolfSSL/wolfssl/wolfcrypt/src/hash.c **** 
 209:Middlewares/Third_Party/wolfSSL_wolfSSL_wolfSSL/wolfssl/wolfcrypt/src/hash.c **** enum wc_HashType wc_OidGetHash(int oid)
 210:Middlewares/Third_Party/wolfSSL_wolfSSL_wolfSSL/wolfssl/wolfcrypt/src/hash.c **** {
 132              		.loc 1 210 1 is_stmt 1 view -0
 133              		.cfi_startproc
 134              		@ args = 0, pretend = 0, frame = 0
ARM GAS  /tmp/ccIUkCMh.s 			page 7


 135              		@ frame_needed = 0, uses_anonymous_args = 0
 136              		@ link register save eliminated.
 211:Middlewares/Third_Party/wolfSSL_wolfSSL_wolfSSL/wolfssl/wolfcrypt/src/hash.c ****     enum wc_HashType hash_type = WC_HASH_TYPE_NONE;
 137              		.loc 1 211 5 view .LVU24
 212:Middlewares/Third_Party/wolfSSL_wolfSSL_wolfSSL/wolfssl/wolfcrypt/src/hash.c ****     switch (oid)
 138              		.loc 1 212 5 view .LVU25
 139 0000 B0F5CF7F 		cmp	r0, #414
 140 0004 01D0     		beq	.L12
 211:Middlewares/Third_Party/wolfSSL_wolfSSL_wolfSSL/wolfssl/wolfcrypt/src/hash.c ****     enum wc_HashType hash_type = WC_HASH_TYPE_NONE;
 141              		.loc 1 211 22 is_stmt 0 view .LVU26
 142 0006 0020     		movs	r0, #0
 143              	.LVL10:
 211:Middlewares/Third_Party/wolfSSL_wolfSSL_wolfSSL/wolfssl/wolfcrypt/src/hash.c ****     enum wc_HashType hash_type = WC_HASH_TYPE_NONE;
 144              		.loc 1 211 22 view .LVU27
 145 0008 7047     		bx	lr
 146              	.LVL11:
 147              	.L12:
 213:Middlewares/Third_Party/wolfSSL_wolfSSL_wolfSSL/wolfssl/wolfcrypt/src/hash.c ****     {
 214:Middlewares/Third_Party/wolfSSL_wolfSSL_wolfSSL/wolfssl/wolfcrypt/src/hash.c ****     #ifdef WOLFSSL_MD2
 215:Middlewares/Third_Party/wolfSSL_wolfSSL_wolfSSL/wolfssl/wolfcrypt/src/hash.c ****         case MD2h:
 216:Middlewares/Third_Party/wolfSSL_wolfSSL_wolfSSL/wolfssl/wolfcrypt/src/hash.c ****             hash_type = WC_HASH_TYPE_MD2;
 217:Middlewares/Third_Party/wolfSSL_wolfSSL_wolfSSL/wolfssl/wolfcrypt/src/hash.c ****             break;
 218:Middlewares/Third_Party/wolfSSL_wolfSSL_wolfSSL/wolfssl/wolfcrypt/src/hash.c ****     #endif
 219:Middlewares/Third_Party/wolfSSL_wolfSSL_wolfSSL/wolfssl/wolfcrypt/src/hash.c ****         case MD5h:
 220:Middlewares/Third_Party/wolfSSL_wolfSSL_wolfSSL/wolfssl/wolfcrypt/src/hash.c ****         #ifndef NO_MD5
 221:Middlewares/Third_Party/wolfSSL_wolfSSL_wolfSSL/wolfssl/wolfcrypt/src/hash.c ****             hash_type = WC_HASH_TYPE_MD5;
 222:Middlewares/Third_Party/wolfSSL_wolfSSL_wolfSSL/wolfssl/wolfcrypt/src/hash.c ****         #endif
 223:Middlewares/Third_Party/wolfSSL_wolfSSL_wolfSSL/wolfssl/wolfcrypt/src/hash.c ****             break;
 224:Middlewares/Third_Party/wolfSSL_wolfSSL_wolfSSL/wolfssl/wolfcrypt/src/hash.c ****         case SHAh:
 225:Middlewares/Third_Party/wolfSSL_wolfSSL_wolfSSL/wolfssl/wolfcrypt/src/hash.c ****         #ifndef NO_SHA
 226:Middlewares/Third_Party/wolfSSL_wolfSSL_wolfSSL/wolfssl/wolfcrypt/src/hash.c ****             hash_type = WC_HASH_TYPE_SHA;
 227:Middlewares/Third_Party/wolfSSL_wolfSSL_wolfSSL/wolfssl/wolfcrypt/src/hash.c ****         #endif
 228:Middlewares/Third_Party/wolfSSL_wolfSSL_wolfSSL/wolfssl/wolfcrypt/src/hash.c ****             break;
 229:Middlewares/Third_Party/wolfSSL_wolfSSL_wolfSSL/wolfssl/wolfcrypt/src/hash.c ****         case SHA224h:
 230:Middlewares/Third_Party/wolfSSL_wolfSSL_wolfSSL/wolfssl/wolfcrypt/src/hash.c ****         #ifdef WOLFSSL_SHA224
 231:Middlewares/Third_Party/wolfSSL_wolfSSL_wolfSSL/wolfssl/wolfcrypt/src/hash.c ****             hash_type = WC_HASH_TYPE_SHA224;
 232:Middlewares/Third_Party/wolfSSL_wolfSSL_wolfSSL/wolfssl/wolfcrypt/src/hash.c ****         #endif
 233:Middlewares/Third_Party/wolfSSL_wolfSSL_wolfSSL/wolfssl/wolfcrypt/src/hash.c ****             break;
 234:Middlewares/Third_Party/wolfSSL_wolfSSL_wolfSSL/wolfssl/wolfcrypt/src/hash.c ****         case SHA256h:
 235:Middlewares/Third_Party/wolfSSL_wolfSSL_wolfSSL/wolfssl/wolfcrypt/src/hash.c ****         #ifndef NO_SHA256
 236:Middlewares/Third_Party/wolfSSL_wolfSSL_wolfSSL/wolfssl/wolfcrypt/src/hash.c ****             hash_type = WC_HASH_TYPE_SHA256;
 148              		.loc 1 236 23 view .LVU28
 149 000a 0620     		movs	r0, #6
 150              	.LVL12:
 237:Middlewares/Third_Party/wolfSSL_wolfSSL_wolfSSL/wolfssl/wolfcrypt/src/hash.c ****         #endif
 238:Middlewares/Third_Party/wolfSSL_wolfSSL_wolfSSL/wolfssl/wolfcrypt/src/hash.c ****             break;
 239:Middlewares/Third_Party/wolfSSL_wolfSSL_wolfSSL/wolfssl/wolfcrypt/src/hash.c ****         case SHA384h:
 240:Middlewares/Third_Party/wolfSSL_wolfSSL_wolfSSL/wolfssl/wolfcrypt/src/hash.c ****         #ifdef WOLFSSL_SHA384
 241:Middlewares/Third_Party/wolfSSL_wolfSSL_wolfSSL/wolfssl/wolfcrypt/src/hash.c ****             hash_type = WC_HASH_TYPE_SHA384;
 242:Middlewares/Third_Party/wolfSSL_wolfSSL_wolfSSL/wolfssl/wolfcrypt/src/hash.c ****         #endif
 243:Middlewares/Third_Party/wolfSSL_wolfSSL_wolfSSL/wolfssl/wolfcrypt/src/hash.c ****             break;
 244:Middlewares/Third_Party/wolfSSL_wolfSSL_wolfSSL/wolfssl/wolfcrypt/src/hash.c ****         case SHA512h:
 245:Middlewares/Third_Party/wolfSSL_wolfSSL_wolfSSL/wolfssl/wolfcrypt/src/hash.c ****         #ifdef WOLFSSL_SHA512
 246:Middlewares/Third_Party/wolfSSL_wolfSSL_wolfSSL/wolfssl/wolfcrypt/src/hash.c ****             hash_type = WC_HASH_TYPE_SHA512;
 247:Middlewares/Third_Party/wolfSSL_wolfSSL_wolfSSL/wolfssl/wolfcrypt/src/hash.c ****         #endif
 248:Middlewares/Third_Party/wolfSSL_wolfSSL_wolfSSL/wolfssl/wolfcrypt/src/hash.c ****             break;
 249:Middlewares/Third_Party/wolfSSL_wolfSSL_wolfSSL/wolfssl/wolfcrypt/src/hash.c ****     #ifdef WOLFSSL_SHA3
ARM GAS  /tmp/ccIUkCMh.s 			page 8


 250:Middlewares/Third_Party/wolfSSL_wolfSSL_wolfSSL/wolfssl/wolfcrypt/src/hash.c ****         case SHA3_224h:
 251:Middlewares/Third_Party/wolfSSL_wolfSSL_wolfSSL/wolfssl/wolfcrypt/src/hash.c ****             hash_type = WC_HASH_TYPE_SHA3_224;
 252:Middlewares/Third_Party/wolfSSL_wolfSSL_wolfSSL/wolfssl/wolfcrypt/src/hash.c ****             break;
 253:Middlewares/Third_Party/wolfSSL_wolfSSL_wolfSSL/wolfssl/wolfcrypt/src/hash.c ****         case SHA3_256h:
 254:Middlewares/Third_Party/wolfSSL_wolfSSL_wolfSSL/wolfssl/wolfcrypt/src/hash.c ****             hash_type = WC_HASH_TYPE_SHA3_256;
 255:Middlewares/Third_Party/wolfSSL_wolfSSL_wolfSSL/wolfssl/wolfcrypt/src/hash.c ****             break;
 256:Middlewares/Third_Party/wolfSSL_wolfSSL_wolfSSL/wolfssl/wolfcrypt/src/hash.c ****         case SHA3_384h:
 257:Middlewares/Third_Party/wolfSSL_wolfSSL_wolfSSL/wolfssl/wolfcrypt/src/hash.c ****             hash_type = WC_HASH_TYPE_SHA3_384;
 258:Middlewares/Third_Party/wolfSSL_wolfSSL_wolfSSL/wolfssl/wolfcrypt/src/hash.c ****             break;
 259:Middlewares/Third_Party/wolfSSL_wolfSSL_wolfSSL/wolfssl/wolfcrypt/src/hash.c ****         case SHA3_512h:
 260:Middlewares/Third_Party/wolfSSL_wolfSSL_wolfSSL/wolfssl/wolfcrypt/src/hash.c ****             hash_type = WC_HASH_TYPE_SHA3_512;
 261:Middlewares/Third_Party/wolfSSL_wolfSSL_wolfSSL/wolfssl/wolfcrypt/src/hash.c ****             break;
 262:Middlewares/Third_Party/wolfSSL_wolfSSL_wolfSSL/wolfssl/wolfcrypt/src/hash.c ****     #endif /* WOLFSSL_SHA3 */
 263:Middlewares/Third_Party/wolfSSL_wolfSSL_wolfSSL/wolfssl/wolfcrypt/src/hash.c ****         default:
 264:Middlewares/Third_Party/wolfSSL_wolfSSL_wolfSSL/wolfssl/wolfcrypt/src/hash.c ****             break;
 265:Middlewares/Third_Party/wolfSSL_wolfSSL_wolfSSL/wolfssl/wolfcrypt/src/hash.c ****     }
 266:Middlewares/Third_Party/wolfSSL_wolfSSL_wolfSSL/wolfssl/wolfcrypt/src/hash.c ****     return hash_type;
 151              		.loc 1 266 5 is_stmt 1 view .LVU29
 267:Middlewares/Third_Party/wolfSSL_wolfSSL_wolfSSL/wolfssl/wolfcrypt/src/hash.c **** }
 152              		.loc 1 267 1 is_stmt 0 view .LVU30
 153 000c 7047     		bx	lr
 154              		.cfi_endproc
 155              	.LFE177:
 157              		.section	.text.wc_HashGetDigestSize,"ax",%progbits
 158              		.align	1
 159              		.global	wc_HashGetDigestSize
 160              		.syntax unified
 161              		.thumb
 162              		.thumb_func
 163              		.fpu fpv4-sp-d16
 165              	wc_HashGetDigestSize:
 166              	.LVL13:
 167              	.LFB178:
 268:Middlewares/Third_Party/wolfSSL_wolfSSL_wolfSSL/wolfssl/wolfcrypt/src/hash.c **** #endif /* !NO_ASN || !NO_DH || HAVE_ECC */
 269:Middlewares/Third_Party/wolfSSL_wolfSSL_wolfSSL/wolfssl/wolfcrypt/src/hash.c **** 
 270:Middlewares/Third_Party/wolfSSL_wolfSSL_wolfSSL/wolfssl/wolfcrypt/src/hash.c **** #ifndef NO_HASH_WRAPPER
 271:Middlewares/Third_Party/wolfSSL_wolfSSL_wolfSSL/wolfssl/wolfcrypt/src/hash.c **** 
 272:Middlewares/Third_Party/wolfSSL_wolfSSL_wolfSSL/wolfssl/wolfcrypt/src/hash.c **** /* Get Hash digest size */
 273:Middlewares/Third_Party/wolfSSL_wolfSSL_wolfSSL/wolfssl/wolfcrypt/src/hash.c **** int wc_HashGetDigestSize(enum wc_HashType hash_type)
 274:Middlewares/Third_Party/wolfSSL_wolfSSL_wolfSSL/wolfssl/wolfcrypt/src/hash.c **** {
 168              		.loc 1 274 1 is_stmt 1 view -0
 169              		.cfi_startproc
 170              		@ args = 0, pretend = 0, frame = 0
 171              		@ frame_needed = 0, uses_anonymous_args = 0
 172              		@ link register save eliminated.
 275:Middlewares/Third_Party/wolfSSL_wolfSSL_wolfSSL/wolfssl/wolfcrypt/src/hash.c ****     int dig_size = HASH_TYPE_E; /* Default to hash type error */
 173              		.loc 1 275 5 view .LVU32
 276:Middlewares/Third_Party/wolfSSL_wolfSSL_wolfSSL/wolfssl/wolfcrypt/src/hash.c ****     switch(hash_type)
 174              		.loc 1 276 5 view .LVU33
 175 0000 0628     		cmp	r0, #6
 176 0002 0ED0     		beq	.L16
 177 0004 06D9     		bls	.L19
 178 0006 0738     		subs	r0, r0, #7
 179              	.LVL14:
 180              		.loc 1 276 5 is_stmt 0 view .LVU34
 181 0008 C0B2     		uxtb	r0, r0
 182 000a 0828     		cmp	r0, #8
ARM GAS  /tmp/ccIUkCMh.s 			page 9


 183 000c 0ED9     		bls	.L18
 277:Middlewares/Third_Party/wolfSSL_wolfSSL_wolfSSL/wolfssl/wolfcrypt/src/hash.c ****     {
 278:Middlewares/Third_Party/wolfSSL_wolfSSL_wolfSSL/wolfssl/wolfcrypt/src/hash.c ****         case WC_HASH_TYPE_MD2:
 279:Middlewares/Third_Party/wolfSSL_wolfSSL_wolfSSL/wolfssl/wolfcrypt/src/hash.c ****         #ifdef WOLFSSL_MD2
 280:Middlewares/Third_Party/wolfSSL_wolfSSL_wolfSSL/wolfssl/wolfcrypt/src/hash.c ****             dig_size = MD2_DIGEST_SIZE;
 281:Middlewares/Third_Party/wolfSSL_wolfSSL_wolfSSL/wolfssl/wolfcrypt/src/hash.c ****         #endif
 282:Middlewares/Third_Party/wolfSSL_wolfSSL_wolfSSL/wolfssl/wolfcrypt/src/hash.c ****             break;
 283:Middlewares/Third_Party/wolfSSL_wolfSSL_wolfSSL/wolfssl/wolfcrypt/src/hash.c ****         case WC_HASH_TYPE_MD4:
 284:Middlewares/Third_Party/wolfSSL_wolfSSL_wolfSSL/wolfssl/wolfcrypt/src/hash.c ****         #ifndef NO_MD4
 285:Middlewares/Third_Party/wolfSSL_wolfSSL_wolfSSL/wolfssl/wolfcrypt/src/hash.c ****             dig_size = MD4_DIGEST_SIZE;
 286:Middlewares/Third_Party/wolfSSL_wolfSSL_wolfSSL/wolfssl/wolfcrypt/src/hash.c ****         #endif
 287:Middlewares/Third_Party/wolfSSL_wolfSSL_wolfSSL/wolfssl/wolfcrypt/src/hash.c ****             break;
 288:Middlewares/Third_Party/wolfSSL_wolfSSL_wolfSSL/wolfssl/wolfcrypt/src/hash.c ****         case WC_HASH_TYPE_MD5:
 289:Middlewares/Third_Party/wolfSSL_wolfSSL_wolfSSL/wolfssl/wolfcrypt/src/hash.c ****         #ifndef NO_MD5
 290:Middlewares/Third_Party/wolfSSL_wolfSSL_wolfSSL/wolfssl/wolfcrypt/src/hash.c ****             dig_size = WC_MD5_DIGEST_SIZE;
 291:Middlewares/Third_Party/wolfSSL_wolfSSL_wolfSSL/wolfssl/wolfcrypt/src/hash.c ****         #endif
 292:Middlewares/Third_Party/wolfSSL_wolfSSL_wolfSSL/wolfssl/wolfcrypt/src/hash.c ****             break;
 293:Middlewares/Third_Party/wolfSSL_wolfSSL_wolfSSL/wolfssl/wolfcrypt/src/hash.c ****         case WC_HASH_TYPE_SHA:
 294:Middlewares/Third_Party/wolfSSL_wolfSSL_wolfSSL/wolfssl/wolfcrypt/src/hash.c ****         #ifndef NO_SHA
 295:Middlewares/Third_Party/wolfSSL_wolfSSL_wolfSSL/wolfssl/wolfcrypt/src/hash.c ****             dig_size = WC_SHA_DIGEST_SIZE;
 296:Middlewares/Third_Party/wolfSSL_wolfSSL_wolfSSL/wolfssl/wolfcrypt/src/hash.c ****         #endif
 297:Middlewares/Third_Party/wolfSSL_wolfSSL_wolfSSL/wolfssl/wolfcrypt/src/hash.c ****             break;
 298:Middlewares/Third_Party/wolfSSL_wolfSSL_wolfSSL/wolfssl/wolfcrypt/src/hash.c ****         case WC_HASH_TYPE_SHA224:
 299:Middlewares/Third_Party/wolfSSL_wolfSSL_wolfSSL/wolfssl/wolfcrypt/src/hash.c ****         #ifdef WOLFSSL_SHA224
 300:Middlewares/Third_Party/wolfSSL_wolfSSL_wolfSSL/wolfssl/wolfcrypt/src/hash.c ****             dig_size = WC_SHA224_DIGEST_SIZE;
 301:Middlewares/Third_Party/wolfSSL_wolfSSL_wolfSSL/wolfssl/wolfcrypt/src/hash.c ****         #endif
 302:Middlewares/Third_Party/wolfSSL_wolfSSL_wolfSSL/wolfssl/wolfcrypt/src/hash.c ****             break;
 303:Middlewares/Third_Party/wolfSSL_wolfSSL_wolfSSL/wolfssl/wolfcrypt/src/hash.c ****         case WC_HASH_TYPE_SHA256:
 304:Middlewares/Third_Party/wolfSSL_wolfSSL_wolfSSL/wolfssl/wolfcrypt/src/hash.c ****         #ifndef NO_SHA256
 305:Middlewares/Third_Party/wolfSSL_wolfSSL_wolfSSL/wolfssl/wolfcrypt/src/hash.c ****             dig_size = WC_SHA256_DIGEST_SIZE;
 306:Middlewares/Third_Party/wolfSSL_wolfSSL_wolfSSL/wolfssl/wolfcrypt/src/hash.c ****         #endif
 307:Middlewares/Third_Party/wolfSSL_wolfSSL_wolfSSL/wolfssl/wolfcrypt/src/hash.c ****             break;
 308:Middlewares/Third_Party/wolfSSL_wolfSSL_wolfSSL/wolfssl/wolfcrypt/src/hash.c ****         case WC_HASH_TYPE_SHA384:
 309:Middlewares/Third_Party/wolfSSL_wolfSSL_wolfSSL/wolfssl/wolfcrypt/src/hash.c ****         #ifdef WOLFSSL_SHA384
 310:Middlewares/Third_Party/wolfSSL_wolfSSL_wolfSSL/wolfssl/wolfcrypt/src/hash.c ****             dig_size = WC_SHA384_DIGEST_SIZE;
 311:Middlewares/Third_Party/wolfSSL_wolfSSL_wolfSSL/wolfssl/wolfcrypt/src/hash.c ****         #endif
 312:Middlewares/Third_Party/wolfSSL_wolfSSL_wolfSSL/wolfssl/wolfcrypt/src/hash.c ****             break;
 313:Middlewares/Third_Party/wolfSSL_wolfSSL_wolfSSL/wolfssl/wolfcrypt/src/hash.c ****         case WC_HASH_TYPE_SHA512:
 314:Middlewares/Third_Party/wolfSSL_wolfSSL_wolfSSL/wolfssl/wolfcrypt/src/hash.c ****         #ifdef WOLFSSL_SHA512
 315:Middlewares/Third_Party/wolfSSL_wolfSSL_wolfSSL/wolfssl/wolfcrypt/src/hash.c ****             dig_size = WC_SHA512_DIGEST_SIZE;
 316:Middlewares/Third_Party/wolfSSL_wolfSSL_wolfSSL/wolfssl/wolfcrypt/src/hash.c ****         #endif
 317:Middlewares/Third_Party/wolfSSL_wolfSSL_wolfSSL/wolfssl/wolfcrypt/src/hash.c ****             break;
 318:Middlewares/Third_Party/wolfSSL_wolfSSL_wolfSSL/wolfssl/wolfcrypt/src/hash.c ****         case WC_HASH_TYPE_MD5_SHA: /* Old TLS Specific */
 319:Middlewares/Third_Party/wolfSSL_wolfSSL_wolfSSL/wolfssl/wolfcrypt/src/hash.c ****         #if !defined(NO_MD5) && !defined(NO_SHA)
 320:Middlewares/Third_Party/wolfSSL_wolfSSL_wolfSSL/wolfssl/wolfcrypt/src/hash.c ****             dig_size = (int)WC_MD5_DIGEST_SIZE + (int)WC_SHA_DIGEST_SIZE;
 321:Middlewares/Third_Party/wolfSSL_wolfSSL_wolfSSL/wolfssl/wolfcrypt/src/hash.c ****         #endif
 322:Middlewares/Third_Party/wolfSSL_wolfSSL_wolfSSL/wolfssl/wolfcrypt/src/hash.c ****             break;
 323:Middlewares/Third_Party/wolfSSL_wolfSSL_wolfSSL/wolfssl/wolfcrypt/src/hash.c **** 
 324:Middlewares/Third_Party/wolfSSL_wolfSSL_wolfSSL/wolfssl/wolfcrypt/src/hash.c ****         case WC_HASH_TYPE_SHA3_224:
 325:Middlewares/Third_Party/wolfSSL_wolfSSL_wolfSSL/wolfssl/wolfcrypt/src/hash.c ****         #if defined(WOLFSSL_SHA3) && !defined(WOLFSSL_NOSHA3_224)
 326:Middlewares/Third_Party/wolfSSL_wolfSSL_wolfSSL/wolfssl/wolfcrypt/src/hash.c ****             dig_size = WC_SHA3_224_DIGEST_SIZE;
 327:Middlewares/Third_Party/wolfSSL_wolfSSL_wolfSSL/wolfssl/wolfcrypt/src/hash.c ****         #endif
 328:Middlewares/Third_Party/wolfSSL_wolfSSL_wolfSSL/wolfssl/wolfcrypt/src/hash.c ****             break;
 329:Middlewares/Third_Party/wolfSSL_wolfSSL_wolfSSL/wolfssl/wolfcrypt/src/hash.c ****         case WC_HASH_TYPE_SHA3_256:
 330:Middlewares/Third_Party/wolfSSL_wolfSSL_wolfSSL/wolfssl/wolfcrypt/src/hash.c ****         #if defined(WOLFSSL_SHA3) && !defined(WOLFSSL_NOSHA3_256)
 331:Middlewares/Third_Party/wolfSSL_wolfSSL_wolfSSL/wolfssl/wolfcrypt/src/hash.c ****             dig_size = WC_SHA3_256_DIGEST_SIZE;
 332:Middlewares/Third_Party/wolfSSL_wolfSSL_wolfSSL/wolfssl/wolfcrypt/src/hash.c ****         #endif
ARM GAS  /tmp/ccIUkCMh.s 			page 10


 333:Middlewares/Third_Party/wolfSSL_wolfSSL_wolfSSL/wolfssl/wolfcrypt/src/hash.c ****             break;
 334:Middlewares/Third_Party/wolfSSL_wolfSSL_wolfSSL/wolfssl/wolfcrypt/src/hash.c ****         case WC_HASH_TYPE_SHA3_384:
 335:Middlewares/Third_Party/wolfSSL_wolfSSL_wolfSSL/wolfssl/wolfcrypt/src/hash.c ****         #if defined(WOLFSSL_SHA3) && !defined(WOLFSSL_NOSHA3_384)
 336:Middlewares/Third_Party/wolfSSL_wolfSSL_wolfSSL/wolfssl/wolfcrypt/src/hash.c ****             dig_size = WC_SHA3_384_DIGEST_SIZE;
 337:Middlewares/Third_Party/wolfSSL_wolfSSL_wolfSSL/wolfssl/wolfcrypt/src/hash.c ****         #endif
 338:Middlewares/Third_Party/wolfSSL_wolfSSL_wolfSSL/wolfssl/wolfcrypt/src/hash.c ****             break;
 339:Middlewares/Third_Party/wolfSSL_wolfSSL_wolfSSL/wolfssl/wolfcrypt/src/hash.c ****         case WC_HASH_TYPE_SHA3_512:
 340:Middlewares/Third_Party/wolfSSL_wolfSSL_wolfSSL/wolfssl/wolfcrypt/src/hash.c ****         #if defined(WOLFSSL_SHA3) && !defined(WOLFSSL_NOSHA3_512)
 341:Middlewares/Third_Party/wolfSSL_wolfSSL_wolfSSL/wolfssl/wolfcrypt/src/hash.c ****             dig_size = WC_SHA3_512_DIGEST_SIZE;
 342:Middlewares/Third_Party/wolfSSL_wolfSSL_wolfSSL/wolfssl/wolfcrypt/src/hash.c ****         #endif
 343:Middlewares/Third_Party/wolfSSL_wolfSSL_wolfSSL/wolfssl/wolfcrypt/src/hash.c ****             break;
 344:Middlewares/Third_Party/wolfSSL_wolfSSL_wolfSSL/wolfssl/wolfcrypt/src/hash.c ****         case WC_HASH_TYPE_BLAKE2B:
 345:Middlewares/Third_Party/wolfSSL_wolfSSL_wolfSSL/wolfssl/wolfcrypt/src/hash.c ****         case WC_HASH_TYPE_BLAKE2S:
 346:Middlewares/Third_Party/wolfSSL_wolfSSL_wolfSSL/wolfssl/wolfcrypt/src/hash.c ****         #if defined(HAVE_BLAKE2) || defined(HAVE_BLAKE2S)
 347:Middlewares/Third_Party/wolfSSL_wolfSSL_wolfSSL/wolfssl/wolfcrypt/src/hash.c ****             dig_size = BLAKE2S_OUTBYTES;
 348:Middlewares/Third_Party/wolfSSL_wolfSSL_wolfSSL/wolfssl/wolfcrypt/src/hash.c ****         #endif
 349:Middlewares/Third_Party/wolfSSL_wolfSSL_wolfSSL/wolfssl/wolfcrypt/src/hash.c ****             break;
 350:Middlewares/Third_Party/wolfSSL_wolfSSL_wolfSSL/wolfssl/wolfcrypt/src/hash.c **** 
 351:Middlewares/Third_Party/wolfSSL_wolfSSL_wolfSSL/wolfssl/wolfcrypt/src/hash.c ****         /* Not Supported */
 352:Middlewares/Third_Party/wolfSSL_wolfSSL_wolfSSL/wolfssl/wolfcrypt/src/hash.c ****         case WC_HASH_TYPE_NONE:
 353:Middlewares/Third_Party/wolfSSL_wolfSSL_wolfSSL/wolfssl/wolfcrypt/src/hash.c ****         default:
 354:Middlewares/Third_Party/wolfSSL_wolfSSL_wolfSSL/wolfssl/wolfcrypt/src/hash.c ****             dig_size = BAD_FUNC_ARG;
 184              		.loc 1 354 22 view .LVU35
 185 000e 6FF0AC00 		mvn	r0, #172
 186 0012 7047     		bx	lr
 187              	.LVL15:
 188              	.L19:
 276:Middlewares/Third_Party/wolfSSL_wolfSSL_wolfSSL/wolfssl/wolfcrypt/src/hash.c ****     switch(hash_type)
 189              		.loc 1 276 5 view .LVU36
 190 0014 0138     		subs	r0, r0, #1
 191              	.LVL16:
 276:Middlewares/Third_Party/wolfSSL_wolfSSL_wolfSSL/wolfssl/wolfcrypt/src/hash.c ****     switch(hash_type)
 192              		.loc 1 276 5 view .LVU37
 193 0016 C0B2     		uxtb	r0, r0
 194 0018 0428     		cmp	r0, #4
 195 001a 04D9     		bls	.L17
 196              		.loc 1 354 22 view .LVU38
 197 001c 6FF0AC00 		mvn	r0, #172
 198 0020 7047     		bx	lr
 199              	.LVL17:
 200              	.L16:
 305:Middlewares/Third_Party/wolfSSL_wolfSSL_wolfSSL/wolfssl/wolfcrypt/src/hash.c ****         #endif
 201              		.loc 1 305 22 view .LVU39
 202 0022 2020     		movs	r0, #32
 203              	.LVL18:
 305:Middlewares/Third_Party/wolfSSL_wolfSSL_wolfSSL/wolfssl/wolfcrypt/src/hash.c ****         #endif
 204              		.loc 1 305 22 view .LVU40
 205 0024 7047     		bx	lr
 206              	.L17:
 276:Middlewares/Third_Party/wolfSSL_wolfSSL_wolfSSL/wolfssl/wolfcrypt/src/hash.c ****     switch(hash_type)
 207              		.loc 1 276 5 view .LVU41
 208 0026 6FF0E700 		mvn	r0, #231
 209 002a 7047     		bx	lr
 210              	.L18:
 211 002c 6FF0E700 		mvn	r0, #231
 355:Middlewares/Third_Party/wolfSSL_wolfSSL_wolfSSL/wolfssl/wolfcrypt/src/hash.c ****             break;
 356:Middlewares/Third_Party/wolfSSL_wolfSSL_wolfSSL/wolfssl/wolfcrypt/src/hash.c ****     }
ARM GAS  /tmp/ccIUkCMh.s 			page 11


 357:Middlewares/Third_Party/wolfSSL_wolfSSL_wolfSSL/wolfssl/wolfcrypt/src/hash.c ****     return dig_size;
 212              		.loc 1 357 5 is_stmt 1 view .LVU42
 358:Middlewares/Third_Party/wolfSSL_wolfSSL_wolfSSL/wolfssl/wolfcrypt/src/hash.c **** }
 213              		.loc 1 358 1 is_stmt 0 view .LVU43
 214 0030 7047     		bx	lr
 215              		.cfi_endproc
 216              	.LFE178:
 218              		.section	.text.wc_HashGetBlockSize,"ax",%progbits
 219              		.align	1
 220              		.global	wc_HashGetBlockSize
 221              		.syntax unified
 222              		.thumb
 223              		.thumb_func
 224              		.fpu fpv4-sp-d16
 226              	wc_HashGetBlockSize:
 227              	.LVL19:
 228              	.LFB179:
 359:Middlewares/Third_Party/wolfSSL_wolfSSL_wolfSSL/wolfssl/wolfcrypt/src/hash.c **** 
 360:Middlewares/Third_Party/wolfSSL_wolfSSL_wolfSSL/wolfssl/wolfcrypt/src/hash.c **** 
 361:Middlewares/Third_Party/wolfSSL_wolfSSL_wolfSSL/wolfssl/wolfcrypt/src/hash.c **** /* Get Hash block size */
 362:Middlewares/Third_Party/wolfSSL_wolfSSL_wolfSSL/wolfssl/wolfcrypt/src/hash.c **** int wc_HashGetBlockSize(enum wc_HashType hash_type)
 363:Middlewares/Third_Party/wolfSSL_wolfSSL_wolfSSL/wolfssl/wolfcrypt/src/hash.c **** {
 229              		.loc 1 363 1 is_stmt 1 view -0
 230              		.cfi_startproc
 231              		@ args = 0, pretend = 0, frame = 0
 232              		@ frame_needed = 0, uses_anonymous_args = 0
 233              		@ link register save eliminated.
 364:Middlewares/Third_Party/wolfSSL_wolfSSL_wolfSSL/wolfssl/wolfcrypt/src/hash.c ****     int block_size = HASH_TYPE_E; /* Default to hash type error */
 234              		.loc 1 364 5 view .LVU45
 365:Middlewares/Third_Party/wolfSSL_wolfSSL_wolfSSL/wolfssl/wolfcrypt/src/hash.c ****     switch (hash_type)
 235              		.loc 1 365 5 view .LVU46
 236 0000 0628     		cmp	r0, #6
 237 0002 0ED0     		beq	.L23
 238 0004 06D9     		bls	.L26
 239 0006 0738     		subs	r0, r0, #7
 240              	.LVL20:
 241              		.loc 1 365 5 is_stmt 0 view .LVU47
 242 0008 C0B2     		uxtb	r0, r0
 243 000a 0828     		cmp	r0, #8
 244 000c 0ED9     		bls	.L25
 366:Middlewares/Third_Party/wolfSSL_wolfSSL_wolfSSL/wolfssl/wolfcrypt/src/hash.c ****     {
 367:Middlewares/Third_Party/wolfSSL_wolfSSL_wolfSSL/wolfssl/wolfcrypt/src/hash.c ****         case WC_HASH_TYPE_MD2:
 368:Middlewares/Third_Party/wolfSSL_wolfSSL_wolfSSL/wolfssl/wolfcrypt/src/hash.c ****         #ifdef WOLFSSL_MD2
 369:Middlewares/Third_Party/wolfSSL_wolfSSL_wolfSSL/wolfssl/wolfcrypt/src/hash.c ****             block_size = MD2_BLOCK_SIZE;
 370:Middlewares/Third_Party/wolfSSL_wolfSSL_wolfSSL/wolfssl/wolfcrypt/src/hash.c ****         #endif
 371:Middlewares/Third_Party/wolfSSL_wolfSSL_wolfSSL/wolfssl/wolfcrypt/src/hash.c ****             break;
 372:Middlewares/Third_Party/wolfSSL_wolfSSL_wolfSSL/wolfssl/wolfcrypt/src/hash.c ****         case WC_HASH_TYPE_MD4:
 373:Middlewares/Third_Party/wolfSSL_wolfSSL_wolfSSL/wolfssl/wolfcrypt/src/hash.c ****         #ifndef NO_MD4
 374:Middlewares/Third_Party/wolfSSL_wolfSSL_wolfSSL/wolfssl/wolfcrypt/src/hash.c ****             block_size = MD4_BLOCK_SIZE;
 375:Middlewares/Third_Party/wolfSSL_wolfSSL_wolfSSL/wolfssl/wolfcrypt/src/hash.c ****         #endif
 376:Middlewares/Third_Party/wolfSSL_wolfSSL_wolfSSL/wolfssl/wolfcrypt/src/hash.c ****             break;
 377:Middlewares/Third_Party/wolfSSL_wolfSSL_wolfSSL/wolfssl/wolfcrypt/src/hash.c ****         case WC_HASH_TYPE_MD5:
 378:Middlewares/Third_Party/wolfSSL_wolfSSL_wolfSSL/wolfssl/wolfcrypt/src/hash.c ****         #ifndef NO_MD5
 379:Middlewares/Third_Party/wolfSSL_wolfSSL_wolfSSL/wolfssl/wolfcrypt/src/hash.c ****             block_size = WC_MD5_BLOCK_SIZE;
 380:Middlewares/Third_Party/wolfSSL_wolfSSL_wolfSSL/wolfssl/wolfcrypt/src/hash.c ****         #endif
 381:Middlewares/Third_Party/wolfSSL_wolfSSL_wolfSSL/wolfssl/wolfcrypt/src/hash.c ****             break;
 382:Middlewares/Third_Party/wolfSSL_wolfSSL_wolfSSL/wolfssl/wolfcrypt/src/hash.c ****         case WC_HASH_TYPE_SHA:
ARM GAS  /tmp/ccIUkCMh.s 			page 12


 383:Middlewares/Third_Party/wolfSSL_wolfSSL_wolfSSL/wolfssl/wolfcrypt/src/hash.c ****         #ifndef NO_SHA
 384:Middlewares/Third_Party/wolfSSL_wolfSSL_wolfSSL/wolfssl/wolfcrypt/src/hash.c ****             block_size = WC_SHA_BLOCK_SIZE;
 385:Middlewares/Third_Party/wolfSSL_wolfSSL_wolfSSL/wolfssl/wolfcrypt/src/hash.c ****         #endif
 386:Middlewares/Third_Party/wolfSSL_wolfSSL_wolfSSL/wolfssl/wolfcrypt/src/hash.c ****             break;
 387:Middlewares/Third_Party/wolfSSL_wolfSSL_wolfSSL/wolfssl/wolfcrypt/src/hash.c ****         case WC_HASH_TYPE_SHA224:
 388:Middlewares/Third_Party/wolfSSL_wolfSSL_wolfSSL/wolfssl/wolfcrypt/src/hash.c ****         #ifdef WOLFSSL_SHA224
 389:Middlewares/Third_Party/wolfSSL_wolfSSL_wolfSSL/wolfssl/wolfcrypt/src/hash.c ****             block_size = WC_SHA224_BLOCK_SIZE;
 390:Middlewares/Third_Party/wolfSSL_wolfSSL_wolfSSL/wolfssl/wolfcrypt/src/hash.c ****         #endif
 391:Middlewares/Third_Party/wolfSSL_wolfSSL_wolfSSL/wolfssl/wolfcrypt/src/hash.c ****             break;
 392:Middlewares/Third_Party/wolfSSL_wolfSSL_wolfSSL/wolfssl/wolfcrypt/src/hash.c ****         case WC_HASH_TYPE_SHA256:
 393:Middlewares/Third_Party/wolfSSL_wolfSSL_wolfSSL/wolfssl/wolfcrypt/src/hash.c ****         #ifndef NO_SHA256
 394:Middlewares/Third_Party/wolfSSL_wolfSSL_wolfSSL/wolfssl/wolfcrypt/src/hash.c ****             block_size = WC_SHA256_BLOCK_SIZE;
 395:Middlewares/Third_Party/wolfSSL_wolfSSL_wolfSSL/wolfssl/wolfcrypt/src/hash.c ****         #endif
 396:Middlewares/Third_Party/wolfSSL_wolfSSL_wolfSSL/wolfssl/wolfcrypt/src/hash.c ****             break;
 397:Middlewares/Third_Party/wolfSSL_wolfSSL_wolfSSL/wolfssl/wolfcrypt/src/hash.c ****         case WC_HASH_TYPE_SHA384:
 398:Middlewares/Third_Party/wolfSSL_wolfSSL_wolfSSL/wolfssl/wolfcrypt/src/hash.c ****         #ifdef WOLFSSL_SHA384
 399:Middlewares/Third_Party/wolfSSL_wolfSSL_wolfSSL/wolfssl/wolfcrypt/src/hash.c ****             block_size = WC_SHA384_BLOCK_SIZE;
 400:Middlewares/Third_Party/wolfSSL_wolfSSL_wolfSSL/wolfssl/wolfcrypt/src/hash.c ****         #endif
 401:Middlewares/Third_Party/wolfSSL_wolfSSL_wolfSSL/wolfssl/wolfcrypt/src/hash.c ****             break;
 402:Middlewares/Third_Party/wolfSSL_wolfSSL_wolfSSL/wolfssl/wolfcrypt/src/hash.c ****         case WC_HASH_TYPE_SHA512:
 403:Middlewares/Third_Party/wolfSSL_wolfSSL_wolfSSL/wolfssl/wolfcrypt/src/hash.c ****         #ifdef WOLFSSL_SHA512
 404:Middlewares/Third_Party/wolfSSL_wolfSSL_wolfSSL/wolfssl/wolfcrypt/src/hash.c ****             block_size = WC_SHA512_BLOCK_SIZE;
 405:Middlewares/Third_Party/wolfSSL_wolfSSL_wolfSSL/wolfssl/wolfcrypt/src/hash.c ****         #endif
 406:Middlewares/Third_Party/wolfSSL_wolfSSL_wolfSSL/wolfssl/wolfcrypt/src/hash.c ****             break;
 407:Middlewares/Third_Party/wolfSSL_wolfSSL_wolfSSL/wolfssl/wolfcrypt/src/hash.c ****         case WC_HASH_TYPE_MD5_SHA: /* Old TLS Specific */
 408:Middlewares/Third_Party/wolfSSL_wolfSSL_wolfSSL/wolfssl/wolfcrypt/src/hash.c ****         #if !defined(NO_MD5) && !defined(NO_SHA)
 409:Middlewares/Third_Party/wolfSSL_wolfSSL_wolfSSL/wolfssl/wolfcrypt/src/hash.c ****             block_size = (int)WC_MD5_BLOCK_SIZE + (int)WC_SHA_BLOCK_SIZE;
 410:Middlewares/Third_Party/wolfSSL_wolfSSL_wolfSSL/wolfssl/wolfcrypt/src/hash.c ****         #endif
 411:Middlewares/Third_Party/wolfSSL_wolfSSL_wolfSSL/wolfssl/wolfcrypt/src/hash.c ****             break;
 412:Middlewares/Third_Party/wolfSSL_wolfSSL_wolfSSL/wolfssl/wolfcrypt/src/hash.c **** 
 413:Middlewares/Third_Party/wolfSSL_wolfSSL_wolfSSL/wolfssl/wolfcrypt/src/hash.c ****         case WC_HASH_TYPE_SHA3_224:
 414:Middlewares/Third_Party/wolfSSL_wolfSSL_wolfSSL/wolfssl/wolfcrypt/src/hash.c ****         #if defined(WOLFSSL_SHA3) && !defined(WOLFSSL_NOSHA3_224)
 415:Middlewares/Third_Party/wolfSSL_wolfSSL_wolfSSL/wolfssl/wolfcrypt/src/hash.c ****             block_size = WC_SHA3_224_BLOCK_SIZE;
 416:Middlewares/Third_Party/wolfSSL_wolfSSL_wolfSSL/wolfssl/wolfcrypt/src/hash.c ****         #endif
 417:Middlewares/Third_Party/wolfSSL_wolfSSL_wolfSSL/wolfssl/wolfcrypt/src/hash.c ****             break;
 418:Middlewares/Third_Party/wolfSSL_wolfSSL_wolfSSL/wolfssl/wolfcrypt/src/hash.c ****         case WC_HASH_TYPE_SHA3_256:
 419:Middlewares/Third_Party/wolfSSL_wolfSSL_wolfSSL/wolfssl/wolfcrypt/src/hash.c ****         #if defined(WOLFSSL_SHA3) && !defined(WOLFSSL_NOSHA3_256)
 420:Middlewares/Third_Party/wolfSSL_wolfSSL_wolfSSL/wolfssl/wolfcrypt/src/hash.c ****             block_size = WC_SHA3_256_BLOCK_SIZE;
 421:Middlewares/Third_Party/wolfSSL_wolfSSL_wolfSSL/wolfssl/wolfcrypt/src/hash.c ****         #endif
 422:Middlewares/Third_Party/wolfSSL_wolfSSL_wolfSSL/wolfssl/wolfcrypt/src/hash.c ****             break;
 423:Middlewares/Third_Party/wolfSSL_wolfSSL_wolfSSL/wolfssl/wolfcrypt/src/hash.c ****         case WC_HASH_TYPE_SHA3_384:
 424:Middlewares/Third_Party/wolfSSL_wolfSSL_wolfSSL/wolfssl/wolfcrypt/src/hash.c ****         #if defined(WOLFSSL_SHA3) && !defined(WOLFSSL_NOSHA3_384)
 425:Middlewares/Third_Party/wolfSSL_wolfSSL_wolfSSL/wolfssl/wolfcrypt/src/hash.c ****             block_size = WC_SHA3_384_BLOCK_SIZE;
 426:Middlewares/Third_Party/wolfSSL_wolfSSL_wolfSSL/wolfssl/wolfcrypt/src/hash.c ****         #endif
 427:Middlewares/Third_Party/wolfSSL_wolfSSL_wolfSSL/wolfssl/wolfcrypt/src/hash.c ****             break;
 428:Middlewares/Third_Party/wolfSSL_wolfSSL_wolfSSL/wolfssl/wolfcrypt/src/hash.c ****         case WC_HASH_TYPE_SHA3_512:
 429:Middlewares/Third_Party/wolfSSL_wolfSSL_wolfSSL/wolfssl/wolfcrypt/src/hash.c ****         #if defined(WOLFSSL_SHA3) && !defined(WOLFSSL_NOSHA3_512)
 430:Middlewares/Third_Party/wolfSSL_wolfSSL_wolfSSL/wolfssl/wolfcrypt/src/hash.c ****             block_size = WC_SHA3_512_BLOCK_SIZE;
 431:Middlewares/Third_Party/wolfSSL_wolfSSL_wolfSSL/wolfssl/wolfcrypt/src/hash.c ****         #endif
 432:Middlewares/Third_Party/wolfSSL_wolfSSL_wolfSSL/wolfssl/wolfcrypt/src/hash.c ****             break;
 433:Middlewares/Third_Party/wolfSSL_wolfSSL_wolfSSL/wolfssl/wolfcrypt/src/hash.c ****         case WC_HASH_TYPE_BLAKE2B:
 434:Middlewares/Third_Party/wolfSSL_wolfSSL_wolfSSL/wolfssl/wolfcrypt/src/hash.c ****         case WC_HASH_TYPE_BLAKE2S:
 435:Middlewares/Third_Party/wolfSSL_wolfSSL_wolfSSL/wolfssl/wolfcrypt/src/hash.c ****         #if defined(HAVE_BLAKE2) || defined(HAVE_BLAKE2S)
 436:Middlewares/Third_Party/wolfSSL_wolfSSL_wolfSSL/wolfssl/wolfcrypt/src/hash.c ****             block_size = BLAKE2S_BLOCKBYTES;
 437:Middlewares/Third_Party/wolfSSL_wolfSSL_wolfSSL/wolfssl/wolfcrypt/src/hash.c ****         #endif
 438:Middlewares/Third_Party/wolfSSL_wolfSSL_wolfSSL/wolfssl/wolfcrypt/src/hash.c ****             break;
 439:Middlewares/Third_Party/wolfSSL_wolfSSL_wolfSSL/wolfssl/wolfcrypt/src/hash.c **** 
ARM GAS  /tmp/ccIUkCMh.s 			page 13


 440:Middlewares/Third_Party/wolfSSL_wolfSSL_wolfSSL/wolfssl/wolfcrypt/src/hash.c ****         /* Not Supported */
 441:Middlewares/Third_Party/wolfSSL_wolfSSL_wolfSSL/wolfssl/wolfcrypt/src/hash.c ****         case WC_HASH_TYPE_NONE:
 442:Middlewares/Third_Party/wolfSSL_wolfSSL_wolfSSL/wolfssl/wolfcrypt/src/hash.c ****         default:
 443:Middlewares/Third_Party/wolfSSL_wolfSSL_wolfSSL/wolfssl/wolfcrypt/src/hash.c ****             block_size = BAD_FUNC_ARG;
 245              		.loc 1 443 24 view .LVU48
 246 000e 6FF0AC00 		mvn	r0, #172
 247 0012 7047     		bx	lr
 248              	.LVL21:
 249              	.L26:
 365:Middlewares/Third_Party/wolfSSL_wolfSSL_wolfSSL/wolfssl/wolfcrypt/src/hash.c ****     switch (hash_type)
 250              		.loc 1 365 5 view .LVU49
 251 0014 0138     		subs	r0, r0, #1
 252              	.LVL22:
 365:Middlewares/Third_Party/wolfSSL_wolfSSL_wolfSSL/wolfssl/wolfcrypt/src/hash.c ****     switch (hash_type)
 253              		.loc 1 365 5 view .LVU50
 254 0016 C0B2     		uxtb	r0, r0
 255 0018 0428     		cmp	r0, #4
 256 001a 04D9     		bls	.L24
 257              		.loc 1 443 24 view .LVU51
 258 001c 6FF0AC00 		mvn	r0, #172
 259 0020 7047     		bx	lr
 260              	.LVL23:
 261              	.L23:
 394:Middlewares/Third_Party/wolfSSL_wolfSSL_wolfSSL/wolfssl/wolfcrypt/src/hash.c ****         #endif
 262              		.loc 1 394 24 view .LVU52
 263 0022 4020     		movs	r0, #64
 264              	.LVL24:
 394:Middlewares/Third_Party/wolfSSL_wolfSSL_wolfSSL/wolfssl/wolfcrypt/src/hash.c ****         #endif
 265              		.loc 1 394 24 view .LVU53
 266 0024 7047     		bx	lr
 267              	.L24:
 365:Middlewares/Third_Party/wolfSSL_wolfSSL_wolfSSL/wolfssl/wolfcrypt/src/hash.c ****     switch (hash_type)
 268              		.loc 1 365 5 view .LVU54
 269 0026 6FF0E700 		mvn	r0, #231
 270 002a 7047     		bx	lr
 271              	.L25:
 272 002c 6FF0E700 		mvn	r0, #231
 444:Middlewares/Third_Party/wolfSSL_wolfSSL_wolfSSL/wolfssl/wolfcrypt/src/hash.c ****             break;
 445:Middlewares/Third_Party/wolfSSL_wolfSSL_wolfSSL/wolfssl/wolfcrypt/src/hash.c ****     }
 446:Middlewares/Third_Party/wolfSSL_wolfSSL_wolfSSL/wolfssl/wolfcrypt/src/hash.c ****     return block_size;
 273              		.loc 1 446 5 is_stmt 1 view .LVU55
 447:Middlewares/Third_Party/wolfSSL_wolfSSL_wolfSSL/wolfssl/wolfcrypt/src/hash.c **** }
 274              		.loc 1 447 1 is_stmt 0 view .LVU56
 275 0030 7047     		bx	lr
 276              		.cfi_endproc
 277              	.LFE179:
 279              		.section	.text.wc_HashInit_ex,"ax",%progbits
 280              		.align	1
 281              		.global	wc_HashInit_ex
 282              		.syntax unified
 283              		.thumb
 284              		.thumb_func
 285              		.fpu fpv4-sp-d16
 287              	wc_HashInit_ex:
 288              	.LVL25:
 289              	.LFB181:
 448:Middlewares/Third_Party/wolfSSL_wolfSSL_wolfSSL/wolfssl/wolfcrypt/src/hash.c **** 
ARM GAS  /tmp/ccIUkCMh.s 			page 14


 449:Middlewares/Third_Party/wolfSSL_wolfSSL_wolfSSL/wolfssl/wolfcrypt/src/hash.c **** /* Generic Hashing Wrapper */
 450:Middlewares/Third_Party/wolfSSL_wolfSSL_wolfSSL/wolfssl/wolfcrypt/src/hash.c **** int wc_Hash(enum wc_HashType hash_type, const byte* data,
 451:Middlewares/Third_Party/wolfSSL_wolfSSL_wolfSSL/wolfssl/wolfcrypt/src/hash.c ****     word32 data_len, byte* hash, word32 hash_len)
 452:Middlewares/Third_Party/wolfSSL_wolfSSL_wolfSSL/wolfssl/wolfcrypt/src/hash.c **** {
 453:Middlewares/Third_Party/wolfSSL_wolfSSL_wolfSSL/wolfssl/wolfcrypt/src/hash.c ****     int ret = HASH_TYPE_E; /* Default to hash type error */
 454:Middlewares/Third_Party/wolfSSL_wolfSSL_wolfSSL/wolfssl/wolfcrypt/src/hash.c ****     word32 dig_size;
 455:Middlewares/Third_Party/wolfSSL_wolfSSL_wolfSSL/wolfssl/wolfcrypt/src/hash.c **** 
 456:Middlewares/Third_Party/wolfSSL_wolfSSL_wolfSSL/wolfssl/wolfcrypt/src/hash.c ****     /* Validate hash buffer size */
 457:Middlewares/Third_Party/wolfSSL_wolfSSL_wolfSSL/wolfssl/wolfcrypt/src/hash.c ****     dig_size = wc_HashGetDigestSize(hash_type);
 458:Middlewares/Third_Party/wolfSSL_wolfSSL_wolfSSL/wolfssl/wolfcrypt/src/hash.c ****     if (hash_len < dig_size) {
 459:Middlewares/Third_Party/wolfSSL_wolfSSL_wolfSSL/wolfssl/wolfcrypt/src/hash.c ****         return BUFFER_E;
 460:Middlewares/Third_Party/wolfSSL_wolfSSL_wolfSSL/wolfssl/wolfcrypt/src/hash.c ****     }
 461:Middlewares/Third_Party/wolfSSL_wolfSSL_wolfSSL/wolfssl/wolfcrypt/src/hash.c **** 
 462:Middlewares/Third_Party/wolfSSL_wolfSSL_wolfSSL/wolfssl/wolfcrypt/src/hash.c ****     /* Suppress possible unused arg if all hashing is disabled */
 463:Middlewares/Third_Party/wolfSSL_wolfSSL_wolfSSL/wolfssl/wolfcrypt/src/hash.c ****     (void)data;
 464:Middlewares/Third_Party/wolfSSL_wolfSSL_wolfSSL/wolfssl/wolfcrypt/src/hash.c ****     (void)data_len;
 465:Middlewares/Third_Party/wolfSSL_wolfSSL_wolfSSL/wolfssl/wolfcrypt/src/hash.c ****     (void)hash;
 466:Middlewares/Third_Party/wolfSSL_wolfSSL_wolfSSL/wolfssl/wolfcrypt/src/hash.c ****     (void)hash_len;
 467:Middlewares/Third_Party/wolfSSL_wolfSSL_wolfSSL/wolfssl/wolfcrypt/src/hash.c **** 
 468:Middlewares/Third_Party/wolfSSL_wolfSSL_wolfSSL/wolfssl/wolfcrypt/src/hash.c ****     switch(hash_type)
 469:Middlewares/Third_Party/wolfSSL_wolfSSL_wolfSSL/wolfssl/wolfcrypt/src/hash.c ****     {
 470:Middlewares/Third_Party/wolfSSL_wolfSSL_wolfSSL/wolfssl/wolfcrypt/src/hash.c ****         case WC_HASH_TYPE_MD5:
 471:Middlewares/Third_Party/wolfSSL_wolfSSL_wolfSSL/wolfssl/wolfcrypt/src/hash.c **** #ifndef NO_MD5
 472:Middlewares/Third_Party/wolfSSL_wolfSSL_wolfSSL/wolfssl/wolfcrypt/src/hash.c ****             ret = wc_Md5Hash(data, data_len, hash);
 473:Middlewares/Third_Party/wolfSSL_wolfSSL_wolfSSL/wolfssl/wolfcrypt/src/hash.c **** #endif
 474:Middlewares/Third_Party/wolfSSL_wolfSSL_wolfSSL/wolfssl/wolfcrypt/src/hash.c ****             break;
 475:Middlewares/Third_Party/wolfSSL_wolfSSL_wolfSSL/wolfssl/wolfcrypt/src/hash.c ****         case WC_HASH_TYPE_SHA:
 476:Middlewares/Third_Party/wolfSSL_wolfSSL_wolfSSL/wolfssl/wolfcrypt/src/hash.c **** #ifndef NO_SHA
 477:Middlewares/Third_Party/wolfSSL_wolfSSL_wolfSSL/wolfssl/wolfcrypt/src/hash.c ****             ret = wc_ShaHash(data, data_len, hash);
 478:Middlewares/Third_Party/wolfSSL_wolfSSL_wolfSSL/wolfssl/wolfcrypt/src/hash.c **** #endif
 479:Middlewares/Third_Party/wolfSSL_wolfSSL_wolfSSL/wolfssl/wolfcrypt/src/hash.c ****             break;
 480:Middlewares/Third_Party/wolfSSL_wolfSSL_wolfSSL/wolfssl/wolfcrypt/src/hash.c ****         case WC_HASH_TYPE_SHA224:
 481:Middlewares/Third_Party/wolfSSL_wolfSSL_wolfSSL/wolfssl/wolfcrypt/src/hash.c **** #ifdef WOLFSSL_SHA224
 482:Middlewares/Third_Party/wolfSSL_wolfSSL_wolfSSL/wolfssl/wolfcrypt/src/hash.c ****             ret = wc_Sha224Hash(data, data_len, hash);
 483:Middlewares/Third_Party/wolfSSL_wolfSSL_wolfSSL/wolfssl/wolfcrypt/src/hash.c **** #endif
 484:Middlewares/Third_Party/wolfSSL_wolfSSL_wolfSSL/wolfssl/wolfcrypt/src/hash.c ****             break;
 485:Middlewares/Third_Party/wolfSSL_wolfSSL_wolfSSL/wolfssl/wolfcrypt/src/hash.c ****         case WC_HASH_TYPE_SHA256:
 486:Middlewares/Third_Party/wolfSSL_wolfSSL_wolfSSL/wolfssl/wolfcrypt/src/hash.c **** #ifndef NO_SHA256
 487:Middlewares/Third_Party/wolfSSL_wolfSSL_wolfSSL/wolfssl/wolfcrypt/src/hash.c ****             ret = wc_Sha256Hash(data, data_len, hash);
 488:Middlewares/Third_Party/wolfSSL_wolfSSL_wolfSSL/wolfssl/wolfcrypt/src/hash.c **** #endif
 489:Middlewares/Third_Party/wolfSSL_wolfSSL_wolfSSL/wolfssl/wolfcrypt/src/hash.c ****             break;
 490:Middlewares/Third_Party/wolfSSL_wolfSSL_wolfSSL/wolfssl/wolfcrypt/src/hash.c ****         case WC_HASH_TYPE_SHA384:
 491:Middlewares/Third_Party/wolfSSL_wolfSSL_wolfSSL/wolfssl/wolfcrypt/src/hash.c **** #ifdef WOLFSSL_SHA384
 492:Middlewares/Third_Party/wolfSSL_wolfSSL_wolfSSL/wolfssl/wolfcrypt/src/hash.c ****             ret = wc_Sha384Hash(data, data_len, hash);
 493:Middlewares/Third_Party/wolfSSL_wolfSSL_wolfSSL/wolfssl/wolfcrypt/src/hash.c **** #endif
 494:Middlewares/Third_Party/wolfSSL_wolfSSL_wolfSSL/wolfssl/wolfcrypt/src/hash.c ****             break;
 495:Middlewares/Third_Party/wolfSSL_wolfSSL_wolfSSL/wolfssl/wolfcrypt/src/hash.c ****         case WC_HASH_TYPE_SHA512:
 496:Middlewares/Third_Party/wolfSSL_wolfSSL_wolfSSL/wolfssl/wolfcrypt/src/hash.c **** #ifdef WOLFSSL_SHA512
 497:Middlewares/Third_Party/wolfSSL_wolfSSL_wolfSSL/wolfssl/wolfcrypt/src/hash.c ****             ret = wc_Sha512Hash(data, data_len, hash);
 498:Middlewares/Third_Party/wolfSSL_wolfSSL_wolfSSL/wolfssl/wolfcrypt/src/hash.c **** #endif
 499:Middlewares/Third_Party/wolfSSL_wolfSSL_wolfSSL/wolfssl/wolfcrypt/src/hash.c ****             break;
 500:Middlewares/Third_Party/wolfSSL_wolfSSL_wolfSSL/wolfssl/wolfcrypt/src/hash.c ****         case WC_HASH_TYPE_MD5_SHA:
 501:Middlewares/Third_Party/wolfSSL_wolfSSL_wolfSSL/wolfssl/wolfcrypt/src/hash.c **** #if !defined(NO_MD5) && !defined(NO_SHA)
 502:Middlewares/Third_Party/wolfSSL_wolfSSL_wolfSSL/wolfssl/wolfcrypt/src/hash.c ****             ret = wc_Md5Hash(data, data_len, hash);
 503:Middlewares/Third_Party/wolfSSL_wolfSSL_wolfSSL/wolfssl/wolfcrypt/src/hash.c ****             if (ret == 0) {
 504:Middlewares/Third_Party/wolfSSL_wolfSSL_wolfSSL/wolfssl/wolfcrypt/src/hash.c ****                 ret = wc_ShaHash(data, data_len, &hash[WC_MD5_DIGEST_SIZE]);
 505:Middlewares/Third_Party/wolfSSL_wolfSSL_wolfSSL/wolfssl/wolfcrypt/src/hash.c ****             }
ARM GAS  /tmp/ccIUkCMh.s 			page 15


 506:Middlewares/Third_Party/wolfSSL_wolfSSL_wolfSSL/wolfssl/wolfcrypt/src/hash.c **** #endif
 507:Middlewares/Third_Party/wolfSSL_wolfSSL_wolfSSL/wolfssl/wolfcrypt/src/hash.c ****             break;
 508:Middlewares/Third_Party/wolfSSL_wolfSSL_wolfSSL/wolfssl/wolfcrypt/src/hash.c **** 
 509:Middlewares/Third_Party/wolfSSL_wolfSSL_wolfSSL/wolfssl/wolfcrypt/src/hash.c ****         case WC_HASH_TYPE_SHA3_224:
 510:Middlewares/Third_Party/wolfSSL_wolfSSL_wolfSSL/wolfssl/wolfcrypt/src/hash.c **** #if defined(WOLFSSL_SHA3) && !defined(WOLFSSL_NOSHA3_224)
 511:Middlewares/Third_Party/wolfSSL_wolfSSL_wolfSSL/wolfssl/wolfcrypt/src/hash.c ****             ret = wc_Sha3_224Hash(data, data_len, hash);
 512:Middlewares/Third_Party/wolfSSL_wolfSSL_wolfSSL/wolfssl/wolfcrypt/src/hash.c **** #endif
 513:Middlewares/Third_Party/wolfSSL_wolfSSL_wolfSSL/wolfssl/wolfcrypt/src/hash.c ****             break;
 514:Middlewares/Third_Party/wolfSSL_wolfSSL_wolfSSL/wolfssl/wolfcrypt/src/hash.c ****         case WC_HASH_TYPE_SHA3_256:
 515:Middlewares/Third_Party/wolfSSL_wolfSSL_wolfSSL/wolfssl/wolfcrypt/src/hash.c **** #if defined(WOLFSSL_SHA3) && !defined(WOLFSSL_NOSHA3_256)
 516:Middlewares/Third_Party/wolfSSL_wolfSSL_wolfSSL/wolfssl/wolfcrypt/src/hash.c ****             ret = wc_Sha3_256Hash(data, data_len, hash);
 517:Middlewares/Third_Party/wolfSSL_wolfSSL_wolfSSL/wolfssl/wolfcrypt/src/hash.c **** #endif
 518:Middlewares/Third_Party/wolfSSL_wolfSSL_wolfSSL/wolfssl/wolfcrypt/src/hash.c ****             break;
 519:Middlewares/Third_Party/wolfSSL_wolfSSL_wolfSSL/wolfssl/wolfcrypt/src/hash.c ****         case WC_HASH_TYPE_SHA3_384:
 520:Middlewares/Third_Party/wolfSSL_wolfSSL_wolfSSL/wolfssl/wolfcrypt/src/hash.c **** #if defined(WOLFSSL_SHA3) && !defined(WOLFSSL_NOSHA3_384)
 521:Middlewares/Third_Party/wolfSSL_wolfSSL_wolfSSL/wolfssl/wolfcrypt/src/hash.c ****             ret = wc_Sha3_384Hash(data, data_len, hash);
 522:Middlewares/Third_Party/wolfSSL_wolfSSL_wolfSSL/wolfssl/wolfcrypt/src/hash.c **** #endif
 523:Middlewares/Third_Party/wolfSSL_wolfSSL_wolfSSL/wolfssl/wolfcrypt/src/hash.c ****             break;
 524:Middlewares/Third_Party/wolfSSL_wolfSSL_wolfSSL/wolfssl/wolfcrypt/src/hash.c ****         case WC_HASH_TYPE_SHA3_512:
 525:Middlewares/Third_Party/wolfSSL_wolfSSL_wolfSSL/wolfssl/wolfcrypt/src/hash.c **** #if defined(WOLFSSL_SHA3) && !defined(WOLFSSL_NOSHA3_512)
 526:Middlewares/Third_Party/wolfSSL_wolfSSL_wolfSSL/wolfssl/wolfcrypt/src/hash.c ****             ret = wc_Sha3_512Hash(data, data_len, hash);
 527:Middlewares/Third_Party/wolfSSL_wolfSSL_wolfSSL/wolfssl/wolfcrypt/src/hash.c **** #endif
 528:Middlewares/Third_Party/wolfSSL_wolfSSL_wolfSSL/wolfssl/wolfcrypt/src/hash.c ****             break;
 529:Middlewares/Third_Party/wolfSSL_wolfSSL_wolfSSL/wolfssl/wolfcrypt/src/hash.c **** 
 530:Middlewares/Third_Party/wolfSSL_wolfSSL_wolfSSL/wolfssl/wolfcrypt/src/hash.c ****         /* Not Supported */
 531:Middlewares/Third_Party/wolfSSL_wolfSSL_wolfSSL/wolfssl/wolfcrypt/src/hash.c ****         case WC_HASH_TYPE_MD2:
 532:Middlewares/Third_Party/wolfSSL_wolfSSL_wolfSSL/wolfssl/wolfcrypt/src/hash.c ****         case WC_HASH_TYPE_MD4:
 533:Middlewares/Third_Party/wolfSSL_wolfSSL_wolfSSL/wolfssl/wolfcrypt/src/hash.c ****         case WC_HASH_TYPE_BLAKE2B:
 534:Middlewares/Third_Party/wolfSSL_wolfSSL_wolfSSL/wolfssl/wolfcrypt/src/hash.c ****         case WC_HASH_TYPE_BLAKE2S:
 535:Middlewares/Third_Party/wolfSSL_wolfSSL_wolfSSL/wolfssl/wolfcrypt/src/hash.c ****         case WC_HASH_TYPE_NONE:
 536:Middlewares/Third_Party/wolfSSL_wolfSSL_wolfSSL/wolfssl/wolfcrypt/src/hash.c ****         default:
 537:Middlewares/Third_Party/wolfSSL_wolfSSL_wolfSSL/wolfssl/wolfcrypt/src/hash.c ****             ret = BAD_FUNC_ARG;
 538:Middlewares/Third_Party/wolfSSL_wolfSSL_wolfSSL/wolfssl/wolfcrypt/src/hash.c ****             break;
 539:Middlewares/Third_Party/wolfSSL_wolfSSL_wolfSSL/wolfssl/wolfcrypt/src/hash.c ****     }
 540:Middlewares/Third_Party/wolfSSL_wolfSSL_wolfSSL/wolfssl/wolfcrypt/src/hash.c ****     return ret;
 541:Middlewares/Third_Party/wolfSSL_wolfSSL_wolfSSL/wolfssl/wolfcrypt/src/hash.c **** }
 542:Middlewares/Third_Party/wolfSSL_wolfSSL_wolfSSL/wolfssl/wolfcrypt/src/hash.c **** 
 543:Middlewares/Third_Party/wolfSSL_wolfSSL_wolfSSL/wolfssl/wolfcrypt/src/hash.c **** int wc_HashInit_ex(wc_HashAlg* hash, enum wc_HashType type, void* heap,
 544:Middlewares/Third_Party/wolfSSL_wolfSSL_wolfSSL/wolfssl/wolfcrypt/src/hash.c ****     int devId)
 545:Middlewares/Third_Party/wolfSSL_wolfSSL_wolfSSL/wolfssl/wolfcrypt/src/hash.c **** {
 290              		.loc 1 545 1 is_stmt 1 view -0
 291              		.cfi_startproc
 292              		@ args = 0, pretend = 0, frame = 0
 293              		@ frame_needed = 0, uses_anonymous_args = 0
 546:Middlewares/Third_Party/wolfSSL_wolfSSL_wolfSSL/wolfssl/wolfcrypt/src/hash.c ****     int ret = HASH_TYPE_E; /* Default to hash type error */
 294              		.loc 1 546 5 view .LVU58
 547:Middlewares/Third_Party/wolfSSL_wolfSSL_wolfSSL/wolfssl/wolfcrypt/src/hash.c **** 
 548:Middlewares/Third_Party/wolfSSL_wolfSSL_wolfSSL/wolfssl/wolfcrypt/src/hash.c ****     if (hash == NULL)
 295              		.loc 1 548 5 view .LVU59
 296              		.loc 1 548 8 is_stmt 0 view .LVU60
 297 0000 B0B1     		cbz	r0, .L32
 545:Middlewares/Third_Party/wolfSSL_wolfSSL_wolfSSL/wolfssl/wolfcrypt/src/hash.c ****     int ret = HASH_TYPE_E; /* Default to hash type error */
 298              		.loc 1 545 1 view .LVU61
 299 0002 10B5     		push	{r4, lr}
 300              	.LCFI0:
 301              		.cfi_def_cfa_offset 8
 302              		.cfi_offset 4, -8
ARM GAS  /tmp/ccIUkCMh.s 			page 16


 303              		.cfi_offset 14, -4
 304 0004 9646     		mov	lr, r2
 549:Middlewares/Third_Party/wolfSSL_wolfSSL_wolfSSL/wolfssl/wolfcrypt/src/hash.c ****         return BAD_FUNC_ARG;
 550:Middlewares/Third_Party/wolfSSL_wolfSSL_wolfSSL/wolfssl/wolfcrypt/src/hash.c **** 
 551:Middlewares/Third_Party/wolfSSL_wolfSSL_wolfSSL/wolfssl/wolfcrypt/src/hash.c ****     switch (type) {
 305              		.loc 1 551 5 is_stmt 1 view .LVU62
 306 0006 A1F1030C 		sub	ip, r1, #3
 307 000a BCF10A0F 		cmp	ip, #10
 308 000e 12D8     		bhi	.L33
 309 0010 DFE80CF0 		tbb	[pc, ip]
 310              	.LVL26:
 311              	.L30:
 312 0014 06       		.byte	(.L29-.L30)/2
 313 0015 06       		.byte	(.L29-.L30)/2
 314 0016 06       		.byte	(.L29-.L30)/2
 315 0017 09       		.byte	(.L31-.L30)/2
 316 0018 06       		.byte	(.L29-.L30)/2
 317 0019 06       		.byte	(.L29-.L30)/2
 318 001a 11       		.byte	(.L33-.L30)/2
 319 001b 06       		.byte	(.L29-.L30)/2
 320 001c 06       		.byte	(.L29-.L30)/2
 321 001d 06       		.byte	(.L29-.L30)/2
 322 001e 06       		.byte	(.L29-.L30)/2
 323 001f 00       		.p2align 1
 324              	.L29:
 548:Middlewares/Third_Party/wolfSSL_wolfSSL_wolfSSL/wolfssl/wolfcrypt/src/hash.c ****         return BAD_FUNC_ARG;
 325              		.loc 1 548 8 is_stmt 0 view .LVU63
 326 0020 6FF0E700 		mvn	r0, #231
 327              	.LVL27:
 328              	.L27:
 552:Middlewares/Third_Party/wolfSSL_wolfSSL_wolfSSL/wolfssl/wolfcrypt/src/hash.c ****         case WC_HASH_TYPE_MD5:
 553:Middlewares/Third_Party/wolfSSL_wolfSSL_wolfSSL/wolfssl/wolfcrypt/src/hash.c **** #ifndef NO_MD5
 554:Middlewares/Third_Party/wolfSSL_wolfSSL_wolfSSL/wolfssl/wolfcrypt/src/hash.c ****             ret = wc_InitMd5_ex(&hash->md5, heap, devId);
 555:Middlewares/Third_Party/wolfSSL_wolfSSL_wolfSSL/wolfssl/wolfcrypt/src/hash.c **** #endif
 556:Middlewares/Third_Party/wolfSSL_wolfSSL_wolfSSL/wolfssl/wolfcrypt/src/hash.c ****             break;
 557:Middlewares/Third_Party/wolfSSL_wolfSSL_wolfSSL/wolfssl/wolfcrypt/src/hash.c ****         case WC_HASH_TYPE_SHA:
 558:Middlewares/Third_Party/wolfSSL_wolfSSL_wolfSSL/wolfssl/wolfcrypt/src/hash.c **** #ifndef NO_SHA
 559:Middlewares/Third_Party/wolfSSL_wolfSSL_wolfSSL/wolfssl/wolfcrypt/src/hash.c ****             ret = wc_InitSha_ex(&hash->sha, heap, devId);
 560:Middlewares/Third_Party/wolfSSL_wolfSSL_wolfSSL/wolfssl/wolfcrypt/src/hash.c **** #endif
 561:Middlewares/Third_Party/wolfSSL_wolfSSL_wolfSSL/wolfssl/wolfcrypt/src/hash.c ****             break;
 562:Middlewares/Third_Party/wolfSSL_wolfSSL_wolfSSL/wolfssl/wolfcrypt/src/hash.c ****         case WC_HASH_TYPE_SHA224:
 563:Middlewares/Third_Party/wolfSSL_wolfSSL_wolfSSL/wolfssl/wolfcrypt/src/hash.c **** #ifdef WOLFSSL_SHA224
 564:Middlewares/Third_Party/wolfSSL_wolfSSL_wolfSSL/wolfssl/wolfcrypt/src/hash.c ****             ret = wc_InitSha224_ex(&hash->sha224, heap, devId);
 565:Middlewares/Third_Party/wolfSSL_wolfSSL_wolfSSL/wolfssl/wolfcrypt/src/hash.c **** #endif
 566:Middlewares/Third_Party/wolfSSL_wolfSSL_wolfSSL/wolfssl/wolfcrypt/src/hash.c ****             break;
 567:Middlewares/Third_Party/wolfSSL_wolfSSL_wolfSSL/wolfssl/wolfcrypt/src/hash.c ****         case WC_HASH_TYPE_SHA256:
 568:Middlewares/Third_Party/wolfSSL_wolfSSL_wolfSSL/wolfssl/wolfcrypt/src/hash.c **** #ifndef NO_SHA256
 569:Middlewares/Third_Party/wolfSSL_wolfSSL_wolfSSL/wolfssl/wolfcrypt/src/hash.c ****             ret = wc_InitSha256_ex(&hash->sha256, heap, devId);
 570:Middlewares/Third_Party/wolfSSL_wolfSSL_wolfSSL/wolfssl/wolfcrypt/src/hash.c **** #endif
 571:Middlewares/Third_Party/wolfSSL_wolfSSL_wolfSSL/wolfssl/wolfcrypt/src/hash.c ****             break;
 572:Middlewares/Third_Party/wolfSSL_wolfSSL_wolfSSL/wolfssl/wolfcrypt/src/hash.c ****         case WC_HASH_TYPE_SHA384:
 573:Middlewares/Third_Party/wolfSSL_wolfSSL_wolfSSL/wolfssl/wolfcrypt/src/hash.c **** #ifdef WOLFSSL_SHA384
 574:Middlewares/Third_Party/wolfSSL_wolfSSL_wolfSSL/wolfssl/wolfcrypt/src/hash.c ****             ret = wc_InitSha384_ex(&hash->sha384, heap, devId);
 575:Middlewares/Third_Party/wolfSSL_wolfSSL_wolfSSL/wolfssl/wolfcrypt/src/hash.c **** #endif
 576:Middlewares/Third_Party/wolfSSL_wolfSSL_wolfSSL/wolfssl/wolfcrypt/src/hash.c ****             break;
 577:Middlewares/Third_Party/wolfSSL_wolfSSL_wolfSSL/wolfssl/wolfcrypt/src/hash.c ****         case WC_HASH_TYPE_SHA512:
 578:Middlewares/Third_Party/wolfSSL_wolfSSL_wolfSSL/wolfssl/wolfcrypt/src/hash.c **** #ifdef WOLFSSL_SHA512
ARM GAS  /tmp/ccIUkCMh.s 			page 17


 579:Middlewares/Third_Party/wolfSSL_wolfSSL_wolfSSL/wolfssl/wolfcrypt/src/hash.c ****             ret = wc_InitSha512_ex(&hash->sha512, heap, devId);
 580:Middlewares/Third_Party/wolfSSL_wolfSSL_wolfSSL/wolfssl/wolfcrypt/src/hash.c **** #endif
 581:Middlewares/Third_Party/wolfSSL_wolfSSL_wolfSSL/wolfssl/wolfcrypt/src/hash.c ****             break;
 582:Middlewares/Third_Party/wolfSSL_wolfSSL_wolfSSL/wolfssl/wolfcrypt/src/hash.c **** 
 583:Middlewares/Third_Party/wolfSSL_wolfSSL_wolfSSL/wolfssl/wolfcrypt/src/hash.c ****         case WC_HASH_TYPE_SHA3_224:
 584:Middlewares/Third_Party/wolfSSL_wolfSSL_wolfSSL/wolfssl/wolfcrypt/src/hash.c **** #if defined(WOLFSSL_SHA3) && !defined(WOLFSSL_NOSHA3_224)
 585:Middlewares/Third_Party/wolfSSL_wolfSSL_wolfSSL/wolfssl/wolfcrypt/src/hash.c ****             ret = wc_InitSha3_224(&hash->sha3, heap, devId);
 586:Middlewares/Third_Party/wolfSSL_wolfSSL_wolfSSL/wolfssl/wolfcrypt/src/hash.c **** #endif
 587:Middlewares/Third_Party/wolfSSL_wolfSSL_wolfSSL/wolfssl/wolfcrypt/src/hash.c ****             break;
 588:Middlewares/Third_Party/wolfSSL_wolfSSL_wolfSSL/wolfssl/wolfcrypt/src/hash.c ****         case WC_HASH_TYPE_SHA3_256:
 589:Middlewares/Third_Party/wolfSSL_wolfSSL_wolfSSL/wolfssl/wolfcrypt/src/hash.c **** #if defined(WOLFSSL_SHA3) && !defined(WOLFSSL_NOSHA3_256)
 590:Middlewares/Third_Party/wolfSSL_wolfSSL_wolfSSL/wolfssl/wolfcrypt/src/hash.c ****             ret = wc_InitSha3_256(&hash->sha3, heap, devId);
 591:Middlewares/Third_Party/wolfSSL_wolfSSL_wolfSSL/wolfssl/wolfcrypt/src/hash.c **** #endif
 592:Middlewares/Third_Party/wolfSSL_wolfSSL_wolfSSL/wolfssl/wolfcrypt/src/hash.c ****             break;
 593:Middlewares/Third_Party/wolfSSL_wolfSSL_wolfSSL/wolfssl/wolfcrypt/src/hash.c ****         case WC_HASH_TYPE_SHA3_384:
 594:Middlewares/Third_Party/wolfSSL_wolfSSL_wolfSSL/wolfssl/wolfcrypt/src/hash.c **** #if defined(WOLFSSL_SHA3) && !defined(WOLFSSL_NOSHA3_384)
 595:Middlewares/Third_Party/wolfSSL_wolfSSL_wolfSSL/wolfssl/wolfcrypt/src/hash.c ****             ret = wc_InitSha3_384(&hash->sha3, heap, devId);
 596:Middlewares/Third_Party/wolfSSL_wolfSSL_wolfSSL/wolfssl/wolfcrypt/src/hash.c **** #endif
 597:Middlewares/Third_Party/wolfSSL_wolfSSL_wolfSSL/wolfssl/wolfcrypt/src/hash.c ****             break;
 598:Middlewares/Third_Party/wolfSSL_wolfSSL_wolfSSL/wolfssl/wolfcrypt/src/hash.c ****         case WC_HASH_TYPE_SHA3_512:
 599:Middlewares/Third_Party/wolfSSL_wolfSSL_wolfSSL/wolfssl/wolfcrypt/src/hash.c **** #if defined(WOLFSSL_SHA3) && !defined(WOLFSSL_NOSHA3_512)
 600:Middlewares/Third_Party/wolfSSL_wolfSSL_wolfSSL/wolfssl/wolfcrypt/src/hash.c ****             ret = wc_InitSha3_512(&hash->sha3, heap, devId);
 601:Middlewares/Third_Party/wolfSSL_wolfSSL_wolfSSL/wolfssl/wolfcrypt/src/hash.c **** #endif
 602:Middlewares/Third_Party/wolfSSL_wolfSSL_wolfSSL/wolfssl/wolfcrypt/src/hash.c ****             break;
 603:Middlewares/Third_Party/wolfSSL_wolfSSL_wolfSSL/wolfssl/wolfcrypt/src/hash.c **** 
 604:Middlewares/Third_Party/wolfSSL_wolfSSL_wolfSSL/wolfssl/wolfcrypt/src/hash.c ****         /* not supported */
 605:Middlewares/Third_Party/wolfSSL_wolfSSL_wolfSSL/wolfssl/wolfcrypt/src/hash.c ****         case WC_HASH_TYPE_MD5_SHA:
 606:Middlewares/Third_Party/wolfSSL_wolfSSL_wolfSSL/wolfssl/wolfcrypt/src/hash.c ****         case WC_HASH_TYPE_MD2:
 607:Middlewares/Third_Party/wolfSSL_wolfSSL_wolfSSL/wolfssl/wolfcrypt/src/hash.c ****         case WC_HASH_TYPE_MD4:
 608:Middlewares/Third_Party/wolfSSL_wolfSSL_wolfSSL/wolfssl/wolfcrypt/src/hash.c ****         case WC_HASH_TYPE_BLAKE2B:
 609:Middlewares/Third_Party/wolfSSL_wolfSSL_wolfSSL/wolfssl/wolfcrypt/src/hash.c ****         case WC_HASH_TYPE_BLAKE2S:
 610:Middlewares/Third_Party/wolfSSL_wolfSSL_wolfSSL/wolfssl/wolfcrypt/src/hash.c ****         case WC_HASH_TYPE_NONE:
 611:Middlewares/Third_Party/wolfSSL_wolfSSL_wolfSSL/wolfssl/wolfcrypt/src/hash.c ****         default:
 612:Middlewares/Third_Party/wolfSSL_wolfSSL_wolfSSL/wolfssl/wolfcrypt/src/hash.c ****             ret = BAD_FUNC_ARG;
 613:Middlewares/Third_Party/wolfSSL_wolfSSL_wolfSSL/wolfssl/wolfcrypt/src/hash.c ****     };
 614:Middlewares/Third_Party/wolfSSL_wolfSSL_wolfSSL/wolfssl/wolfcrypt/src/hash.c **** 
 615:Middlewares/Third_Party/wolfSSL_wolfSSL_wolfSSL/wolfssl/wolfcrypt/src/hash.c ****     return ret;
 616:Middlewares/Third_Party/wolfSSL_wolfSSL_wolfSSL/wolfssl/wolfcrypt/src/hash.c **** }
 329              		.loc 1 616 1 view .LVU64
 330 0024 10BD     		pop	{r4, pc}
 331              	.LVL28:
 332              	.L31:
 569:Middlewares/Third_Party/wolfSSL_wolfSSL_wolfSSL/wolfssl/wolfcrypt/src/hash.c **** #endif
 333              		.loc 1 569 13 is_stmt 1 view .LVU65
 569:Middlewares/Third_Party/wolfSSL_wolfSSL_wolfSSL/wolfssl/wolfcrypt/src/hash.c **** #endif
 334              		.loc 1 569 19 is_stmt 0 view .LVU66
 335 0026 1A46     		mov	r2, r3
 336 0028 7146     		mov	r1, lr
 337              	.LVL29:
 569:Middlewares/Third_Party/wolfSSL_wolfSSL_wolfSSL/wolfssl/wolfcrypt/src/hash.c **** #endif
 338              		.loc 1 569 19 view .LVU67
 339 002a FFF7FEFF 		bl	wc_InitSha256_ex
 340              	.LVL30:
 571:Middlewares/Third_Party/wolfSSL_wolfSSL_wolfSSL/wolfssl/wolfcrypt/src/hash.c ****         case WC_HASH_TYPE_SHA384:
 341              		.loc 1 571 13 is_stmt 1 view .LVU68
 342 002e F9E7     		b	.L27
 343              	.LVL31:
ARM GAS  /tmp/ccIUkCMh.s 			page 18


 344              	.L32:
 345              	.LCFI1:
 346              		.cfi_def_cfa_offset 0
 347              		.cfi_restore 4
 348              		.cfi_restore 14
 549:Middlewares/Third_Party/wolfSSL_wolfSSL_wolfSSL/wolfssl/wolfcrypt/src/hash.c **** 
 349              		.loc 1 549 16 is_stmt 0 view .LVU69
 350 0030 6FF0AC00 		mvn	r0, #172
 351              	.LVL32:
 352              		.loc 1 616 1 view .LVU70
 353 0034 7047     		bx	lr
 354              	.LVL33:
 355              	.L33:
 356              	.LCFI2:
 357              		.cfi_def_cfa_offset 8
 358              		.cfi_offset 4, -8
 359              		.cfi_offset 14, -4
 612:Middlewares/Third_Party/wolfSSL_wolfSSL_wolfSSL/wolfssl/wolfcrypt/src/hash.c ****     };
 360              		.loc 1 612 17 view .LVU71
 361 0036 6FF0AC00 		mvn	r0, #172
 362              	.LVL34:
 612:Middlewares/Third_Party/wolfSSL_wolfSSL_wolfSSL/wolfssl/wolfcrypt/src/hash.c ****     };
 363              		.loc 1 612 17 view .LVU72
 364 003a F3E7     		b	.L27
 365              		.cfi_endproc
 366              	.LFE181:
 368              		.section	.text.wc_HashInit,"ax",%progbits
 369              		.align	1
 370              		.global	wc_HashInit
 371              		.syntax unified
 372              		.thumb
 373              		.thumb_func
 374              		.fpu fpv4-sp-d16
 376              	wc_HashInit:
 377              	.LVL35:
 378              	.LFB182:
 617:Middlewares/Third_Party/wolfSSL_wolfSSL_wolfSSL/wolfssl/wolfcrypt/src/hash.c **** 
 618:Middlewares/Third_Party/wolfSSL_wolfSSL_wolfSSL/wolfssl/wolfcrypt/src/hash.c **** int wc_HashInit(wc_HashAlg* hash, enum wc_HashType type)
 619:Middlewares/Third_Party/wolfSSL_wolfSSL_wolfSSL/wolfssl/wolfcrypt/src/hash.c **** {
 379              		.loc 1 619 1 is_stmt 1 view -0
 380              		.cfi_startproc
 381              		@ args = 0, pretend = 0, frame = 0
 382              		@ frame_needed = 0, uses_anonymous_args = 0
 383              		.loc 1 619 1 is_stmt 0 view .LVU74
 384 0000 08B5     		push	{r3, lr}
 385              	.LCFI3:
 386              		.cfi_def_cfa_offset 8
 387              		.cfi_offset 3, -8
 388              		.cfi_offset 14, -4
 620:Middlewares/Third_Party/wolfSSL_wolfSSL_wolfSSL/wolfssl/wolfcrypt/src/hash.c ****     return wc_HashInit_ex(hash, type, NULL, INVALID_DEVID);
 389              		.loc 1 620 5 is_stmt 1 view .LVU75
 390              		.loc 1 620 12 is_stmt 0 view .LVU76
 391 0002 6FF00103 		mvn	r3, #1
 392 0006 0022     		movs	r2, #0
 393 0008 FFF7FEFF 		bl	wc_HashInit_ex
 394              	.LVL36:
 621:Middlewares/Third_Party/wolfSSL_wolfSSL_wolfSSL/wolfssl/wolfcrypt/src/hash.c **** }
ARM GAS  /tmp/ccIUkCMh.s 			page 19


 395              		.loc 1 621 1 view .LVU77
 396 000c 08BD     		pop	{r3, pc}
 397              		.cfi_endproc
 398              	.LFE182:
 400              		.section	.text.wc_HashUpdate,"ax",%progbits
 401              		.align	1
 402              		.global	wc_HashUpdate
 403              		.syntax unified
 404              		.thumb
 405              		.thumb_func
 406              		.fpu fpv4-sp-d16
 408              	wc_HashUpdate:
 409              	.LVL37:
 410              	.LFB183:
 622:Middlewares/Third_Party/wolfSSL_wolfSSL_wolfSSL/wolfssl/wolfcrypt/src/hash.c **** 
 623:Middlewares/Third_Party/wolfSSL_wolfSSL_wolfSSL/wolfssl/wolfcrypt/src/hash.c **** int wc_HashUpdate(wc_HashAlg* hash, enum wc_HashType type, const byte* data,
 624:Middlewares/Third_Party/wolfSSL_wolfSSL_wolfSSL/wolfssl/wolfcrypt/src/hash.c ****                   word32 dataSz)
 625:Middlewares/Third_Party/wolfSSL_wolfSSL_wolfSSL/wolfssl/wolfcrypt/src/hash.c **** {
 411              		.loc 1 625 1 is_stmt 1 view -0
 412              		.cfi_startproc
 413              		@ args = 0, pretend = 0, frame = 0
 414              		@ frame_needed = 0, uses_anonymous_args = 0
 626:Middlewares/Third_Party/wolfSSL_wolfSSL_wolfSSL/wolfssl/wolfcrypt/src/hash.c ****     int ret = HASH_TYPE_E; /* Default to hash type error */
 415              		.loc 1 626 5 view .LVU79
 627:Middlewares/Third_Party/wolfSSL_wolfSSL_wolfSSL/wolfssl/wolfcrypt/src/hash.c **** 
 628:Middlewares/Third_Party/wolfSSL_wolfSSL_wolfSSL/wolfssl/wolfcrypt/src/hash.c ****     if (hash == NULL || (data == NULL && dataSz > 0))
 416              		.loc 1 628 5 view .LVU80
 417              		.loc 1 628 8 is_stmt 0 view .LVU81
 418 0000 F0B1     		cbz	r0, .L46
 625:Middlewares/Third_Party/wolfSSL_wolfSSL_wolfSSL/wolfssl/wolfcrypt/src/hash.c ****     int ret = HASH_TYPE_E; /* Default to hash type error */
 419              		.loc 1 625 1 discriminator 1 view .LVU82
 420 0002 10B5     		push	{r4, lr}
 421              	.LCFI4:
 422              		.cfi_def_cfa_offset 8
 423              		.cfi_offset 4, -8
 424              		.cfi_offset 14, -4
 425 0004 1446     		mov	r4, r2
 426 0006 8646     		mov	lr, r0
 427              		.loc 1 628 22 discriminator 1 view .LVU83
 428 0008 62B1     		cbz	r2, .L53
 429              	.L42:
 629:Middlewares/Third_Party/wolfSSL_wolfSSL_wolfSSL/wolfssl/wolfcrypt/src/hash.c ****         return BAD_FUNC_ARG;
 630:Middlewares/Third_Party/wolfSSL_wolfSSL_wolfSSL/wolfssl/wolfcrypt/src/hash.c **** 
 631:Middlewares/Third_Party/wolfSSL_wolfSSL_wolfSSL/wolfssl/wolfcrypt/src/hash.c ****     switch (type) {
 430              		.loc 1 631 5 is_stmt 1 view .LVU84
 431 000a A1F1030C 		sub	ip, r1, #3
 432 000e BCF10A0F 		cmp	ip, #10
 433 0012 18D8     		bhi	.L48
 434 0014 DFE80CF0 		tbb	[pc, ip]
 435              	.LVL38:
 436              	.L44:
 437 0018 0B       		.byte	(.L43-.L44)/2
 438 0019 0B       		.byte	(.L43-.L44)/2
 439 001a 0B       		.byte	(.L43-.L44)/2
 440 001b 0E       		.byte	(.L45-.L44)/2
 441 001c 0B       		.byte	(.L43-.L44)/2
 442 001d 0B       		.byte	(.L43-.L44)/2
ARM GAS  /tmp/ccIUkCMh.s 			page 20


 443 001e 17       		.byte	(.L48-.L44)/2
 444 001f 0B       		.byte	(.L43-.L44)/2
 445 0020 0B       		.byte	(.L43-.L44)/2
 446 0021 0B       		.byte	(.L43-.L44)/2
 447 0022 0B       		.byte	(.L43-.L44)/2
 448 0023 00       		.p2align 1
 449              	.L53:
 628:Middlewares/Third_Party/wolfSSL_wolfSSL_wolfSSL/wolfssl/wolfcrypt/src/hash.c ****         return BAD_FUNC_ARG;
 450              		.loc 1 628 39 is_stmt 0 discriminator 2 view .LVU85
 451 0024 002B     		cmp	r3, #0
 452 0026 F0D0     		beq	.L42
 629:Middlewares/Third_Party/wolfSSL_wolfSSL_wolfSSL/wolfssl/wolfcrypt/src/hash.c ****         return BAD_FUNC_ARG;
 453              		.loc 1 629 16 view .LVU86
 454 0028 6FF0AC00 		mvn	r0, #172
 455              	.LVL39:
 629:Middlewares/Third_Party/wolfSSL_wolfSSL_wolfSSL/wolfssl/wolfcrypt/src/hash.c ****         return BAD_FUNC_ARG;
 456              		.loc 1 629 16 view .LVU87
 457 002c 01E0     		b	.L40
 458              	.LVL40:
 459              	.L43:
 629:Middlewares/Third_Party/wolfSSL_wolfSSL_wolfSSL/wolfssl/wolfcrypt/src/hash.c ****         return BAD_FUNC_ARG;
 460              		.loc 1 629 16 view .LVU88
 461 002e 6FF0E700 		mvn	r0, #231
 462              	.LVL41:
 463              	.L40:
 632:Middlewares/Third_Party/wolfSSL_wolfSSL_wolfSSL/wolfssl/wolfcrypt/src/hash.c ****         case WC_HASH_TYPE_MD5:
 633:Middlewares/Third_Party/wolfSSL_wolfSSL_wolfSSL/wolfssl/wolfcrypt/src/hash.c **** #ifndef NO_MD5
 634:Middlewares/Third_Party/wolfSSL_wolfSSL_wolfSSL/wolfssl/wolfcrypt/src/hash.c ****             ret = wc_Md5Update(&hash->md5, data, dataSz);
 635:Middlewares/Third_Party/wolfSSL_wolfSSL_wolfSSL/wolfssl/wolfcrypt/src/hash.c **** #endif
 636:Middlewares/Third_Party/wolfSSL_wolfSSL_wolfSSL/wolfssl/wolfcrypt/src/hash.c ****             break;
 637:Middlewares/Third_Party/wolfSSL_wolfSSL_wolfSSL/wolfssl/wolfcrypt/src/hash.c ****         case WC_HASH_TYPE_SHA:
 638:Middlewares/Third_Party/wolfSSL_wolfSSL_wolfSSL/wolfssl/wolfcrypt/src/hash.c **** #ifndef NO_SHA
 639:Middlewares/Third_Party/wolfSSL_wolfSSL_wolfSSL/wolfssl/wolfcrypt/src/hash.c ****             ret = wc_ShaUpdate(&hash->sha, data, dataSz);
 640:Middlewares/Third_Party/wolfSSL_wolfSSL_wolfSSL/wolfssl/wolfcrypt/src/hash.c **** #endif
 641:Middlewares/Third_Party/wolfSSL_wolfSSL_wolfSSL/wolfssl/wolfcrypt/src/hash.c ****             break;
 642:Middlewares/Third_Party/wolfSSL_wolfSSL_wolfSSL/wolfssl/wolfcrypt/src/hash.c ****         case WC_HASH_TYPE_SHA224:
 643:Middlewares/Third_Party/wolfSSL_wolfSSL_wolfSSL/wolfssl/wolfcrypt/src/hash.c **** #ifdef WOLFSSL_SHA224
 644:Middlewares/Third_Party/wolfSSL_wolfSSL_wolfSSL/wolfssl/wolfcrypt/src/hash.c ****             ret = wc_Sha224Update(&hash->sha224, data, dataSz);
 645:Middlewares/Third_Party/wolfSSL_wolfSSL_wolfSSL/wolfssl/wolfcrypt/src/hash.c **** #endif
 646:Middlewares/Third_Party/wolfSSL_wolfSSL_wolfSSL/wolfssl/wolfcrypt/src/hash.c ****             break;
 647:Middlewares/Third_Party/wolfSSL_wolfSSL_wolfSSL/wolfssl/wolfcrypt/src/hash.c ****         case WC_HASH_TYPE_SHA256:
 648:Middlewares/Third_Party/wolfSSL_wolfSSL_wolfSSL/wolfssl/wolfcrypt/src/hash.c **** #ifndef NO_SHA256
 649:Middlewares/Third_Party/wolfSSL_wolfSSL_wolfSSL/wolfssl/wolfcrypt/src/hash.c ****             ret = wc_Sha256Update(&hash->sha256, data, dataSz);
 650:Middlewares/Third_Party/wolfSSL_wolfSSL_wolfSSL/wolfssl/wolfcrypt/src/hash.c **** #endif
 651:Middlewares/Third_Party/wolfSSL_wolfSSL_wolfSSL/wolfssl/wolfcrypt/src/hash.c ****             break;
 652:Middlewares/Third_Party/wolfSSL_wolfSSL_wolfSSL/wolfssl/wolfcrypt/src/hash.c ****         case WC_HASH_TYPE_SHA384:
 653:Middlewares/Third_Party/wolfSSL_wolfSSL_wolfSSL/wolfssl/wolfcrypt/src/hash.c **** #ifdef WOLFSSL_SHA384
 654:Middlewares/Third_Party/wolfSSL_wolfSSL_wolfSSL/wolfssl/wolfcrypt/src/hash.c ****             ret = wc_Sha384Update(&hash->sha384, data, dataSz);
 655:Middlewares/Third_Party/wolfSSL_wolfSSL_wolfSSL/wolfssl/wolfcrypt/src/hash.c **** #endif
 656:Middlewares/Third_Party/wolfSSL_wolfSSL_wolfSSL/wolfssl/wolfcrypt/src/hash.c ****             break;
 657:Middlewares/Third_Party/wolfSSL_wolfSSL_wolfSSL/wolfssl/wolfcrypt/src/hash.c ****         case WC_HASH_TYPE_SHA512:
 658:Middlewares/Third_Party/wolfSSL_wolfSSL_wolfSSL/wolfssl/wolfcrypt/src/hash.c **** #ifdef WOLFSSL_SHA512
 659:Middlewares/Third_Party/wolfSSL_wolfSSL_wolfSSL/wolfssl/wolfcrypt/src/hash.c ****             ret = wc_Sha512Update(&hash->sha512, data, dataSz);
 660:Middlewares/Third_Party/wolfSSL_wolfSSL_wolfSSL/wolfssl/wolfcrypt/src/hash.c **** #endif
 661:Middlewares/Third_Party/wolfSSL_wolfSSL_wolfSSL/wolfssl/wolfcrypt/src/hash.c ****             break;
 662:Middlewares/Third_Party/wolfSSL_wolfSSL_wolfSSL/wolfssl/wolfcrypt/src/hash.c **** 
 663:Middlewares/Third_Party/wolfSSL_wolfSSL_wolfSSL/wolfssl/wolfcrypt/src/hash.c ****         case WC_HASH_TYPE_SHA3_224:
ARM GAS  /tmp/ccIUkCMh.s 			page 21


 664:Middlewares/Third_Party/wolfSSL_wolfSSL_wolfSSL/wolfssl/wolfcrypt/src/hash.c **** #if defined(WOLFSSL_SHA3) && !defined(WOLFSSL_NOSHA3_224)
 665:Middlewares/Third_Party/wolfSSL_wolfSSL_wolfSSL/wolfssl/wolfcrypt/src/hash.c ****             ret = wc_Sha3_224_Update(&hash->sha3, data, dataSz);
 666:Middlewares/Third_Party/wolfSSL_wolfSSL_wolfSSL/wolfssl/wolfcrypt/src/hash.c **** #endif
 667:Middlewares/Third_Party/wolfSSL_wolfSSL_wolfSSL/wolfssl/wolfcrypt/src/hash.c ****             break;
 668:Middlewares/Third_Party/wolfSSL_wolfSSL_wolfSSL/wolfssl/wolfcrypt/src/hash.c ****         case WC_HASH_TYPE_SHA3_256:
 669:Middlewares/Third_Party/wolfSSL_wolfSSL_wolfSSL/wolfssl/wolfcrypt/src/hash.c **** #if defined(WOLFSSL_SHA3) && !defined(WOLFSSL_NOSHA3_256)
 670:Middlewares/Third_Party/wolfSSL_wolfSSL_wolfSSL/wolfssl/wolfcrypt/src/hash.c ****             ret = wc_Sha3_256_Update(&hash->sha3, data, dataSz);
 671:Middlewares/Third_Party/wolfSSL_wolfSSL_wolfSSL/wolfssl/wolfcrypt/src/hash.c **** #endif
 672:Middlewares/Third_Party/wolfSSL_wolfSSL_wolfSSL/wolfssl/wolfcrypt/src/hash.c ****             break;
 673:Middlewares/Third_Party/wolfSSL_wolfSSL_wolfSSL/wolfssl/wolfcrypt/src/hash.c ****         case WC_HASH_TYPE_SHA3_384:
 674:Middlewares/Third_Party/wolfSSL_wolfSSL_wolfSSL/wolfssl/wolfcrypt/src/hash.c **** #if defined(WOLFSSL_SHA3) && !defined(WOLFSSL_NOSHA3_384)
 675:Middlewares/Third_Party/wolfSSL_wolfSSL_wolfSSL/wolfssl/wolfcrypt/src/hash.c ****             ret = wc_Sha3_384_Update(&hash->sha3, data, dataSz);
 676:Middlewares/Third_Party/wolfSSL_wolfSSL_wolfSSL/wolfssl/wolfcrypt/src/hash.c **** #endif
 677:Middlewares/Third_Party/wolfSSL_wolfSSL_wolfSSL/wolfssl/wolfcrypt/src/hash.c ****             break;
 678:Middlewares/Third_Party/wolfSSL_wolfSSL_wolfSSL/wolfssl/wolfcrypt/src/hash.c ****         case WC_HASH_TYPE_SHA3_512:
 679:Middlewares/Third_Party/wolfSSL_wolfSSL_wolfSSL/wolfssl/wolfcrypt/src/hash.c **** #if defined(WOLFSSL_SHA3) && !defined(WOLFSSL_NOSHA3_512)
 680:Middlewares/Third_Party/wolfSSL_wolfSSL_wolfSSL/wolfssl/wolfcrypt/src/hash.c ****             ret = wc_Sha3_512_Update(&hash->sha3, data, dataSz);
 681:Middlewares/Third_Party/wolfSSL_wolfSSL_wolfSSL/wolfssl/wolfcrypt/src/hash.c **** #endif
 682:Middlewares/Third_Party/wolfSSL_wolfSSL_wolfSSL/wolfssl/wolfcrypt/src/hash.c ****             break;
 683:Middlewares/Third_Party/wolfSSL_wolfSSL_wolfSSL/wolfssl/wolfcrypt/src/hash.c **** 
 684:Middlewares/Third_Party/wolfSSL_wolfSSL_wolfSSL/wolfssl/wolfcrypt/src/hash.c ****         /* not supported */
 685:Middlewares/Third_Party/wolfSSL_wolfSSL_wolfSSL/wolfssl/wolfcrypt/src/hash.c ****         case WC_HASH_TYPE_MD5_SHA:
 686:Middlewares/Third_Party/wolfSSL_wolfSSL_wolfSSL/wolfssl/wolfcrypt/src/hash.c ****         case WC_HASH_TYPE_MD2:
 687:Middlewares/Third_Party/wolfSSL_wolfSSL_wolfSSL/wolfssl/wolfcrypt/src/hash.c ****         case WC_HASH_TYPE_MD4:
 688:Middlewares/Third_Party/wolfSSL_wolfSSL_wolfSSL/wolfssl/wolfcrypt/src/hash.c ****         case WC_HASH_TYPE_BLAKE2B:
 689:Middlewares/Third_Party/wolfSSL_wolfSSL_wolfSSL/wolfssl/wolfcrypt/src/hash.c ****         case WC_HASH_TYPE_BLAKE2S:
 690:Middlewares/Third_Party/wolfSSL_wolfSSL_wolfSSL/wolfssl/wolfcrypt/src/hash.c ****         case WC_HASH_TYPE_NONE:
 691:Middlewares/Third_Party/wolfSSL_wolfSSL_wolfSSL/wolfssl/wolfcrypt/src/hash.c ****         default:
 692:Middlewares/Third_Party/wolfSSL_wolfSSL_wolfSSL/wolfssl/wolfcrypt/src/hash.c ****             ret = BAD_FUNC_ARG;
 693:Middlewares/Third_Party/wolfSSL_wolfSSL_wolfSSL/wolfssl/wolfcrypt/src/hash.c ****     };
 694:Middlewares/Third_Party/wolfSSL_wolfSSL_wolfSSL/wolfssl/wolfcrypt/src/hash.c **** 
 695:Middlewares/Third_Party/wolfSSL_wolfSSL_wolfSSL/wolfssl/wolfcrypt/src/hash.c ****     return ret;
 696:Middlewares/Third_Party/wolfSSL_wolfSSL_wolfSSL/wolfssl/wolfcrypt/src/hash.c **** }
 464              		.loc 1 696 1 view .LVU89
 465 0032 10BD     		pop	{r4, pc}
 466              	.LVL42:
 467              	.L45:
 649:Middlewares/Third_Party/wolfSSL_wolfSSL_wolfSSL/wolfssl/wolfcrypt/src/hash.c **** #endif
 468              		.loc 1 649 13 is_stmt 1 view .LVU90
 649:Middlewares/Third_Party/wolfSSL_wolfSSL_wolfSSL/wolfssl/wolfcrypt/src/hash.c **** #endif
 469              		.loc 1 649 19 is_stmt 0 view .LVU91
 470 0034 1A46     		mov	r2, r3
 471 0036 2146     		mov	r1, r4
 472              	.LVL43:
 649:Middlewares/Third_Party/wolfSSL_wolfSSL_wolfSSL/wolfssl/wolfcrypt/src/hash.c **** #endif
 473              		.loc 1 649 19 view .LVU92
 474 0038 7046     		mov	r0, lr
 475              	.LVL44:
 649:Middlewares/Third_Party/wolfSSL_wolfSSL_wolfSSL/wolfssl/wolfcrypt/src/hash.c **** #endif
 476              		.loc 1 649 19 view .LVU93
 477 003a FFF7FEFF 		bl	wc_Sha256Update
 478              	.LVL45:
 651:Middlewares/Third_Party/wolfSSL_wolfSSL_wolfSSL/wolfssl/wolfcrypt/src/hash.c ****         case WC_HASH_TYPE_SHA384:
 479              		.loc 1 651 13 is_stmt 1 view .LVU94
 480 003e F8E7     		b	.L40
 481              	.LVL46:
 482              	.L46:
ARM GAS  /tmp/ccIUkCMh.s 			page 22


 483              	.LCFI5:
 484              		.cfi_def_cfa_offset 0
 485              		.cfi_restore 4
 486              		.cfi_restore 14
 629:Middlewares/Third_Party/wolfSSL_wolfSSL_wolfSSL/wolfssl/wolfcrypt/src/hash.c **** 
 487              		.loc 1 629 16 is_stmt 0 view .LVU95
 488 0040 6FF0AC00 		mvn	r0, #172
 489              	.LVL47:
 490              		.loc 1 696 1 view .LVU96
 491 0044 7047     		bx	lr
 492              	.LVL48:
 493              	.L48:
 494              	.LCFI6:
 495              		.cfi_def_cfa_offset 8
 496              		.cfi_offset 4, -8
 497              		.cfi_offset 14, -4
 692:Middlewares/Third_Party/wolfSSL_wolfSSL_wolfSSL/wolfssl/wolfcrypt/src/hash.c ****     };
 498              		.loc 1 692 17 view .LVU97
 499 0046 6FF0AC00 		mvn	r0, #172
 500              	.LVL49:
 692:Middlewares/Third_Party/wolfSSL_wolfSSL_wolfSSL/wolfssl/wolfcrypt/src/hash.c ****     };
 501              		.loc 1 692 17 view .LVU98
 502 004a F2E7     		b	.L40
 503              		.cfi_endproc
 504              	.LFE183:
 506              		.section	.text.wc_HashFinal,"ax",%progbits
 507              		.align	1
 508              		.global	wc_HashFinal
 509              		.syntax unified
 510              		.thumb
 511              		.thumb_func
 512              		.fpu fpv4-sp-d16
 514              	wc_HashFinal:
 515              	.LVL50:
 516              	.LFB184:
 697:Middlewares/Third_Party/wolfSSL_wolfSSL_wolfSSL/wolfssl/wolfcrypt/src/hash.c **** 
 698:Middlewares/Third_Party/wolfSSL_wolfSSL_wolfSSL/wolfssl/wolfcrypt/src/hash.c **** int wc_HashFinal(wc_HashAlg* hash, enum wc_HashType type, byte* out)
 699:Middlewares/Third_Party/wolfSSL_wolfSSL_wolfSSL/wolfssl/wolfcrypt/src/hash.c **** {
 517              		.loc 1 699 1 is_stmt 1 view -0
 518              		.cfi_startproc
 519              		@ args = 0, pretend = 0, frame = 0
 520              		@ frame_needed = 0, uses_anonymous_args = 0
 700:Middlewares/Third_Party/wolfSSL_wolfSSL_wolfSSL/wolfssl/wolfcrypt/src/hash.c ****     int ret = HASH_TYPE_E; /* Default to hash type error */
 521              		.loc 1 700 5 view .LVU100
 701:Middlewares/Third_Party/wolfSSL_wolfSSL_wolfSSL/wolfssl/wolfcrypt/src/hash.c **** 
 702:Middlewares/Third_Party/wolfSSL_wolfSSL_wolfSSL/wolfssl/wolfcrypt/src/hash.c ****     if (hash == NULL || out == NULL)
 522              		.loc 1 702 5 view .LVU101
 523              		.loc 1 702 8 is_stmt 0 view .LVU102
 524 0000 98B1     		cbz	r0, .L59
 525              		.loc 1 702 22 discriminator 1 view .LVU103
 526 0002 AAB1     		cbz	r2, .L60
 699:Middlewares/Third_Party/wolfSSL_wolfSSL_wolfSSL/wolfssl/wolfcrypt/src/hash.c ****     int ret = HASH_TYPE_E; /* Default to hash type error */
 527              		.loc 1 699 1 view .LVU104
 528 0004 08B5     		push	{r3, lr}
 529              	.LCFI7:
 530              		.cfi_def_cfa_offset 8
 531              		.cfi_offset 3, -8
ARM GAS  /tmp/ccIUkCMh.s 			page 23


 532              		.cfi_offset 14, -4
 703:Middlewares/Third_Party/wolfSSL_wolfSSL_wolfSSL/wolfssl/wolfcrypt/src/hash.c ****         return BAD_FUNC_ARG;
 704:Middlewares/Third_Party/wolfSSL_wolfSSL_wolfSSL/wolfssl/wolfcrypt/src/hash.c **** 
 705:Middlewares/Third_Party/wolfSSL_wolfSSL_wolfSSL/wolfssl/wolfcrypt/src/hash.c ****     switch (type) {
 533              		.loc 1 705 5 is_stmt 1 view .LVU105
 534 0006 CB1E     		subs	r3, r1, #3
 535 0008 0A2B     		cmp	r3, #10
 536 000a 14D8     		bhi	.L61
 537 000c DFE803F0 		tbb	[pc, r3]
 538              	.LVL51:
 539              	.L57:
 540 0010 06       		.byte	(.L56-.L57)/2
 541 0011 06       		.byte	(.L56-.L57)/2
 542 0012 06       		.byte	(.L56-.L57)/2
 543 0013 09       		.byte	(.L58-.L57)/2
 544 0014 06       		.byte	(.L56-.L57)/2
 545 0015 06       		.byte	(.L56-.L57)/2
 546 0016 13       		.byte	(.L61-.L57)/2
 547 0017 06       		.byte	(.L56-.L57)/2
 548 0018 06       		.byte	(.L56-.L57)/2
 549 0019 06       		.byte	(.L56-.L57)/2
 550 001a 06       		.byte	(.L56-.L57)/2
 551 001b 00       		.p2align 1
 552              	.L56:
 702:Middlewares/Third_Party/wolfSSL_wolfSSL_wolfSSL/wolfssl/wolfcrypt/src/hash.c ****         return BAD_FUNC_ARG;
 553              		.loc 1 702 22 is_stmt 0 view .LVU106
 554 001c 6FF0E700 		mvn	r0, #231
 555              	.LVL52:
 556              	.L54:
 706:Middlewares/Third_Party/wolfSSL_wolfSSL_wolfSSL/wolfssl/wolfcrypt/src/hash.c ****         case WC_HASH_TYPE_MD5:
 707:Middlewares/Third_Party/wolfSSL_wolfSSL_wolfSSL/wolfssl/wolfcrypt/src/hash.c **** #ifndef NO_MD5
 708:Middlewares/Third_Party/wolfSSL_wolfSSL_wolfSSL/wolfssl/wolfcrypt/src/hash.c ****             ret = wc_Md5Final(&hash->md5, out);
 709:Middlewares/Third_Party/wolfSSL_wolfSSL_wolfSSL/wolfssl/wolfcrypt/src/hash.c **** #endif
 710:Middlewares/Third_Party/wolfSSL_wolfSSL_wolfSSL/wolfssl/wolfcrypt/src/hash.c ****             break;
 711:Middlewares/Third_Party/wolfSSL_wolfSSL_wolfSSL/wolfssl/wolfcrypt/src/hash.c ****         case WC_HASH_TYPE_SHA:
 712:Middlewares/Third_Party/wolfSSL_wolfSSL_wolfSSL/wolfssl/wolfcrypt/src/hash.c **** #ifndef NO_SHA
 713:Middlewares/Third_Party/wolfSSL_wolfSSL_wolfSSL/wolfssl/wolfcrypt/src/hash.c ****             ret = wc_ShaFinal(&hash->sha, out);
 714:Middlewares/Third_Party/wolfSSL_wolfSSL_wolfSSL/wolfssl/wolfcrypt/src/hash.c **** #endif
 715:Middlewares/Third_Party/wolfSSL_wolfSSL_wolfSSL/wolfssl/wolfcrypt/src/hash.c ****             break;
 716:Middlewares/Third_Party/wolfSSL_wolfSSL_wolfSSL/wolfssl/wolfcrypt/src/hash.c ****         case WC_HASH_TYPE_SHA224:
 717:Middlewares/Third_Party/wolfSSL_wolfSSL_wolfSSL/wolfssl/wolfcrypt/src/hash.c **** #ifdef WOLFSSL_SHA224
 718:Middlewares/Third_Party/wolfSSL_wolfSSL_wolfSSL/wolfssl/wolfcrypt/src/hash.c ****             ret = wc_Sha224Final(&hash->sha224, out);
 719:Middlewares/Third_Party/wolfSSL_wolfSSL_wolfSSL/wolfssl/wolfcrypt/src/hash.c **** #endif
 720:Middlewares/Third_Party/wolfSSL_wolfSSL_wolfSSL/wolfssl/wolfcrypt/src/hash.c ****             break;
 721:Middlewares/Third_Party/wolfSSL_wolfSSL_wolfSSL/wolfssl/wolfcrypt/src/hash.c ****         case WC_HASH_TYPE_SHA256:
 722:Middlewares/Third_Party/wolfSSL_wolfSSL_wolfSSL/wolfssl/wolfcrypt/src/hash.c **** #ifndef NO_SHA256
 723:Middlewares/Third_Party/wolfSSL_wolfSSL_wolfSSL/wolfssl/wolfcrypt/src/hash.c ****             ret = wc_Sha256Final(&hash->sha256, out);
 724:Middlewares/Third_Party/wolfSSL_wolfSSL_wolfSSL/wolfssl/wolfcrypt/src/hash.c **** #endif
 725:Middlewares/Third_Party/wolfSSL_wolfSSL_wolfSSL/wolfssl/wolfcrypt/src/hash.c ****             break;
 726:Middlewares/Third_Party/wolfSSL_wolfSSL_wolfSSL/wolfssl/wolfcrypt/src/hash.c ****         case WC_HASH_TYPE_SHA384:
 727:Middlewares/Third_Party/wolfSSL_wolfSSL_wolfSSL/wolfssl/wolfcrypt/src/hash.c **** #ifdef WOLFSSL_SHA384
 728:Middlewares/Third_Party/wolfSSL_wolfSSL_wolfSSL/wolfssl/wolfcrypt/src/hash.c ****             ret = wc_Sha384Final(&hash->sha384, out);
 729:Middlewares/Third_Party/wolfSSL_wolfSSL_wolfSSL/wolfssl/wolfcrypt/src/hash.c **** #endif
 730:Middlewares/Third_Party/wolfSSL_wolfSSL_wolfSSL/wolfssl/wolfcrypt/src/hash.c ****             break;
 731:Middlewares/Third_Party/wolfSSL_wolfSSL_wolfSSL/wolfssl/wolfcrypt/src/hash.c ****         case WC_HASH_TYPE_SHA512:
 732:Middlewares/Third_Party/wolfSSL_wolfSSL_wolfSSL/wolfssl/wolfcrypt/src/hash.c **** #ifdef WOLFSSL_SHA512
 733:Middlewares/Third_Party/wolfSSL_wolfSSL_wolfSSL/wolfssl/wolfcrypt/src/hash.c ****             ret = wc_Sha512Final(&hash->sha512, out);
ARM GAS  /tmp/ccIUkCMh.s 			page 24


 734:Middlewares/Third_Party/wolfSSL_wolfSSL_wolfSSL/wolfssl/wolfcrypt/src/hash.c **** #endif
 735:Middlewares/Third_Party/wolfSSL_wolfSSL_wolfSSL/wolfssl/wolfcrypt/src/hash.c ****             break;
 736:Middlewares/Third_Party/wolfSSL_wolfSSL_wolfSSL/wolfssl/wolfcrypt/src/hash.c **** 
 737:Middlewares/Third_Party/wolfSSL_wolfSSL_wolfSSL/wolfssl/wolfcrypt/src/hash.c ****         case WC_HASH_TYPE_SHA3_224:
 738:Middlewares/Third_Party/wolfSSL_wolfSSL_wolfSSL/wolfssl/wolfcrypt/src/hash.c **** #if defined(WOLFSSL_SHA3) && !defined(WOLFSSL_NOSHA3_224)
 739:Middlewares/Third_Party/wolfSSL_wolfSSL_wolfSSL/wolfssl/wolfcrypt/src/hash.c ****             ret = wc_Sha3_224_Final(&hash->sha3, out);
 740:Middlewares/Third_Party/wolfSSL_wolfSSL_wolfSSL/wolfssl/wolfcrypt/src/hash.c **** #endif
 741:Middlewares/Third_Party/wolfSSL_wolfSSL_wolfSSL/wolfssl/wolfcrypt/src/hash.c ****             break;
 742:Middlewares/Third_Party/wolfSSL_wolfSSL_wolfSSL/wolfssl/wolfcrypt/src/hash.c ****         case WC_HASH_TYPE_SHA3_256:
 743:Middlewares/Third_Party/wolfSSL_wolfSSL_wolfSSL/wolfssl/wolfcrypt/src/hash.c **** #if defined(WOLFSSL_SHA3) && !defined(WOLFSSL_NOSHA3_256)
 744:Middlewares/Third_Party/wolfSSL_wolfSSL_wolfSSL/wolfssl/wolfcrypt/src/hash.c ****             ret = wc_Sha3_256_Final(&hash->sha3, out);
 745:Middlewares/Third_Party/wolfSSL_wolfSSL_wolfSSL/wolfssl/wolfcrypt/src/hash.c **** #endif
 746:Middlewares/Third_Party/wolfSSL_wolfSSL_wolfSSL/wolfssl/wolfcrypt/src/hash.c ****             break;
 747:Middlewares/Third_Party/wolfSSL_wolfSSL_wolfSSL/wolfssl/wolfcrypt/src/hash.c ****         case WC_HASH_TYPE_SHA3_384:
 748:Middlewares/Third_Party/wolfSSL_wolfSSL_wolfSSL/wolfssl/wolfcrypt/src/hash.c **** #if defined(WOLFSSL_SHA3) && !defined(WOLFSSL_NOSHA3_384)
 749:Middlewares/Third_Party/wolfSSL_wolfSSL_wolfSSL/wolfssl/wolfcrypt/src/hash.c ****             ret = wc_Sha3_384_Final(&hash->sha3, out);
 750:Middlewares/Third_Party/wolfSSL_wolfSSL_wolfSSL/wolfssl/wolfcrypt/src/hash.c **** #endif
 751:Middlewares/Third_Party/wolfSSL_wolfSSL_wolfSSL/wolfssl/wolfcrypt/src/hash.c ****             break;
 752:Middlewares/Third_Party/wolfSSL_wolfSSL_wolfSSL/wolfssl/wolfcrypt/src/hash.c ****         case WC_HASH_TYPE_SHA3_512:
 753:Middlewares/Third_Party/wolfSSL_wolfSSL_wolfSSL/wolfssl/wolfcrypt/src/hash.c **** #if defined(WOLFSSL_SHA3) && !defined(WOLFSSL_NOSHA3_512)
 754:Middlewares/Third_Party/wolfSSL_wolfSSL_wolfSSL/wolfssl/wolfcrypt/src/hash.c ****             ret = wc_Sha3_512_Final(&hash->sha3, out);
 755:Middlewares/Third_Party/wolfSSL_wolfSSL_wolfSSL/wolfssl/wolfcrypt/src/hash.c **** #endif
 756:Middlewares/Third_Party/wolfSSL_wolfSSL_wolfSSL/wolfssl/wolfcrypt/src/hash.c ****             break;
 757:Middlewares/Third_Party/wolfSSL_wolfSSL_wolfSSL/wolfssl/wolfcrypt/src/hash.c **** 
 758:Middlewares/Third_Party/wolfSSL_wolfSSL_wolfSSL/wolfssl/wolfcrypt/src/hash.c ****         /* not supported */
 759:Middlewares/Third_Party/wolfSSL_wolfSSL_wolfSSL/wolfssl/wolfcrypt/src/hash.c ****         case WC_HASH_TYPE_MD5_SHA:
 760:Middlewares/Third_Party/wolfSSL_wolfSSL_wolfSSL/wolfssl/wolfcrypt/src/hash.c ****         case WC_HASH_TYPE_MD2:
 761:Middlewares/Third_Party/wolfSSL_wolfSSL_wolfSSL/wolfssl/wolfcrypt/src/hash.c ****         case WC_HASH_TYPE_MD4:
 762:Middlewares/Third_Party/wolfSSL_wolfSSL_wolfSSL/wolfssl/wolfcrypt/src/hash.c ****         case WC_HASH_TYPE_BLAKE2B:
 763:Middlewares/Third_Party/wolfSSL_wolfSSL_wolfSSL/wolfssl/wolfcrypt/src/hash.c ****         case WC_HASH_TYPE_BLAKE2S:
 764:Middlewares/Third_Party/wolfSSL_wolfSSL_wolfSSL/wolfssl/wolfcrypt/src/hash.c ****         case WC_HASH_TYPE_NONE:
 765:Middlewares/Third_Party/wolfSSL_wolfSSL_wolfSSL/wolfssl/wolfcrypt/src/hash.c ****         default:
 766:Middlewares/Third_Party/wolfSSL_wolfSSL_wolfSSL/wolfssl/wolfcrypt/src/hash.c ****             ret = BAD_FUNC_ARG;
 767:Middlewares/Third_Party/wolfSSL_wolfSSL_wolfSSL/wolfssl/wolfcrypt/src/hash.c ****     };
 768:Middlewares/Third_Party/wolfSSL_wolfSSL_wolfSSL/wolfssl/wolfcrypt/src/hash.c **** 
 769:Middlewares/Third_Party/wolfSSL_wolfSSL_wolfSSL/wolfssl/wolfcrypt/src/hash.c ****     return ret;
 770:Middlewares/Third_Party/wolfSSL_wolfSSL_wolfSSL/wolfssl/wolfcrypt/src/hash.c **** }
 557              		.loc 1 770 1 view .LVU107
 558 0020 08BD     		pop	{r3, pc}
 559              	.LVL53:
 560              	.L58:
 723:Middlewares/Third_Party/wolfSSL_wolfSSL_wolfSSL/wolfssl/wolfcrypt/src/hash.c **** #endif
 561              		.loc 1 723 13 is_stmt 1 view .LVU108
 723:Middlewares/Third_Party/wolfSSL_wolfSSL_wolfSSL/wolfssl/wolfcrypt/src/hash.c **** #endif
 562              		.loc 1 723 19 is_stmt 0 view .LVU109
 563 0022 1146     		mov	r1, r2
 564 0024 FFF7FEFF 		bl	wc_Sha256Final
 565              	.LVL54:
 725:Middlewares/Third_Party/wolfSSL_wolfSSL_wolfSSL/wolfssl/wolfcrypt/src/hash.c ****         case WC_HASH_TYPE_SHA384:
 566              		.loc 1 725 13 is_stmt 1 view .LVU110
 567 0028 FAE7     		b	.L54
 568              	.LVL55:
 569              	.L59:
 570              	.LCFI8:
 571              		.cfi_def_cfa_offset 0
 572              		.cfi_restore 3
 573              		.cfi_restore 14
ARM GAS  /tmp/ccIUkCMh.s 			page 25


 703:Middlewares/Third_Party/wolfSSL_wolfSSL_wolfSSL/wolfssl/wolfcrypt/src/hash.c **** 
 574              		.loc 1 703 16 is_stmt 0 view .LVU111
 575 002a 6FF0AC00 		mvn	r0, #172
 576              	.LVL56:
 703:Middlewares/Third_Party/wolfSSL_wolfSSL_wolfSSL/wolfssl/wolfcrypt/src/hash.c **** 
 577              		.loc 1 703 16 view .LVU112
 578 002e 7047     		bx	lr
 579              	.LVL57:
 580              	.L60:
 703:Middlewares/Third_Party/wolfSSL_wolfSSL_wolfSSL/wolfssl/wolfcrypt/src/hash.c **** 
 581              		.loc 1 703 16 view .LVU113
 582 0030 6FF0AC00 		mvn	r0, #172
 583              	.LVL58:
 584              		.loc 1 770 1 view .LVU114
 585 0034 7047     		bx	lr
 586              	.LVL59:
 587              	.L61:
 588              	.LCFI9:
 589              		.cfi_def_cfa_offset 8
 590              		.cfi_offset 3, -8
 591              		.cfi_offset 14, -4
 766:Middlewares/Third_Party/wolfSSL_wolfSSL_wolfSSL/wolfssl/wolfcrypt/src/hash.c ****     };
 592              		.loc 1 766 17 view .LVU115
 593 0036 6FF0AC00 		mvn	r0, #172
 594              	.LVL60:
 766:Middlewares/Third_Party/wolfSSL_wolfSSL_wolfSSL/wolfssl/wolfcrypt/src/hash.c ****     };
 595              		.loc 1 766 17 view .LVU116
 596 003a F1E7     		b	.L54
 597              		.cfi_endproc
 598              	.LFE184:
 600              		.section	.text.wc_HashFree,"ax",%progbits
 601              		.align	1
 602              		.global	wc_HashFree
 603              		.syntax unified
 604              		.thumb
 605              		.thumb_func
 606              		.fpu fpv4-sp-d16
 608              	wc_HashFree:
 609              	.LVL61:
 610              	.LFB185:
 771:Middlewares/Third_Party/wolfSSL_wolfSSL_wolfSSL/wolfssl/wolfcrypt/src/hash.c **** 
 772:Middlewares/Third_Party/wolfSSL_wolfSSL_wolfSSL/wolfssl/wolfcrypt/src/hash.c **** int wc_HashFree(wc_HashAlg* hash, enum wc_HashType type)
 773:Middlewares/Third_Party/wolfSSL_wolfSSL_wolfSSL/wolfssl/wolfcrypt/src/hash.c **** {
 611              		.loc 1 773 1 is_stmt 1 view -0
 612              		.cfi_startproc
 613              		@ args = 0, pretend = 0, frame = 0
 614              		@ frame_needed = 0, uses_anonymous_args = 0
 774:Middlewares/Third_Party/wolfSSL_wolfSSL_wolfSSL/wolfssl/wolfcrypt/src/hash.c ****     int ret = HASH_TYPE_E; /* Default to hash type error */
 615              		.loc 1 774 5 view .LVU118
 775:Middlewares/Third_Party/wolfSSL_wolfSSL_wolfSSL/wolfssl/wolfcrypt/src/hash.c **** 
 776:Middlewares/Third_Party/wolfSSL_wolfSSL_wolfSSL/wolfssl/wolfcrypt/src/hash.c ****     if (hash == NULL)
 616              		.loc 1 776 5 view .LVU119
 617              		.loc 1 776 8 is_stmt 0 view .LVU120
 618 0000 90B1     		cbz	r0, .L71
 773:Middlewares/Third_Party/wolfSSL_wolfSSL_wolfSSL/wolfssl/wolfcrypt/src/hash.c ****     int ret = HASH_TYPE_E; /* Default to hash type error */
 619              		.loc 1 773 1 view .LVU121
 620 0002 08B5     		push	{r3, lr}
ARM GAS  /tmp/ccIUkCMh.s 			page 26


 621              	.LCFI10:
 622              		.cfi_def_cfa_offset 8
 623              		.cfi_offset 3, -8
 624              		.cfi_offset 14, -4
 777:Middlewares/Third_Party/wolfSSL_wolfSSL_wolfSSL/wolfssl/wolfcrypt/src/hash.c ****         return BAD_FUNC_ARG;
 778:Middlewares/Third_Party/wolfSSL_wolfSSL_wolfSSL/wolfssl/wolfcrypt/src/hash.c **** 
 779:Middlewares/Third_Party/wolfSSL_wolfSSL_wolfSSL/wolfssl/wolfcrypt/src/hash.c ****     switch (type) {
 625              		.loc 1 779 5 is_stmt 1 view .LVU122
 626 0004 0339     		subs	r1, r1, #3
 627              	.LVL62:
 628              		.loc 1 779 5 is_stmt 0 view .LVU123
 629 0006 0A29     		cmp	r1, #10
 630 0008 11D8     		bhi	.L72
 631 000a DFE801F0 		tbb	[pc, r1]
 632              	.L69:
 633 000e 06       		.byte	(.L68-.L69)/2
 634 000f 06       		.byte	(.L68-.L69)/2
 635 0010 06       		.byte	(.L68-.L69)/2
 636 0011 09       		.byte	(.L70-.L69)/2
 637 0012 06       		.byte	(.L68-.L69)/2
 638 0013 06       		.byte	(.L68-.L69)/2
 639 0014 10       		.byte	(.L72-.L69)/2
 640 0015 06       		.byte	(.L68-.L69)/2
 641 0016 06       		.byte	(.L68-.L69)/2
 642 0017 06       		.byte	(.L68-.L69)/2
 643 0018 06       		.byte	(.L68-.L69)/2
 644 0019 00       		.p2align 1
 645              	.L68:
 776:Middlewares/Third_Party/wolfSSL_wolfSSL_wolfSSL/wolfssl/wolfcrypt/src/hash.c ****         return BAD_FUNC_ARG;
 646              		.loc 1 776 8 view .LVU124
 647 001a 6FF0E700 		mvn	r0, #231
 648              	.LVL63:
 649              	.L66:
 780:Middlewares/Third_Party/wolfSSL_wolfSSL_wolfSSL/wolfssl/wolfcrypt/src/hash.c ****         case WC_HASH_TYPE_MD5:
 781:Middlewares/Third_Party/wolfSSL_wolfSSL_wolfSSL/wolfssl/wolfcrypt/src/hash.c **** #ifndef NO_MD5
 782:Middlewares/Third_Party/wolfSSL_wolfSSL_wolfSSL/wolfssl/wolfcrypt/src/hash.c ****             wc_Md5Free(&hash->md5);
 783:Middlewares/Third_Party/wolfSSL_wolfSSL_wolfSSL/wolfssl/wolfcrypt/src/hash.c ****             ret = 0;
 784:Middlewares/Third_Party/wolfSSL_wolfSSL_wolfSSL/wolfssl/wolfcrypt/src/hash.c **** #endif
 785:Middlewares/Third_Party/wolfSSL_wolfSSL_wolfSSL/wolfssl/wolfcrypt/src/hash.c ****             break;
 786:Middlewares/Third_Party/wolfSSL_wolfSSL_wolfSSL/wolfssl/wolfcrypt/src/hash.c ****         case WC_HASH_TYPE_SHA:
 787:Middlewares/Third_Party/wolfSSL_wolfSSL_wolfSSL/wolfssl/wolfcrypt/src/hash.c **** #ifndef NO_SHA
 788:Middlewares/Third_Party/wolfSSL_wolfSSL_wolfSSL/wolfssl/wolfcrypt/src/hash.c ****             wc_ShaFree(&hash->sha);
 789:Middlewares/Third_Party/wolfSSL_wolfSSL_wolfSSL/wolfssl/wolfcrypt/src/hash.c ****             ret = 0;
 790:Middlewares/Third_Party/wolfSSL_wolfSSL_wolfSSL/wolfssl/wolfcrypt/src/hash.c **** #endif
 791:Middlewares/Third_Party/wolfSSL_wolfSSL_wolfSSL/wolfssl/wolfcrypt/src/hash.c ****             break;
 792:Middlewares/Third_Party/wolfSSL_wolfSSL_wolfSSL/wolfssl/wolfcrypt/src/hash.c ****         case WC_HASH_TYPE_SHA224:
 793:Middlewares/Third_Party/wolfSSL_wolfSSL_wolfSSL/wolfssl/wolfcrypt/src/hash.c **** #ifdef WOLFSSL_SHA224
 794:Middlewares/Third_Party/wolfSSL_wolfSSL_wolfSSL/wolfssl/wolfcrypt/src/hash.c ****             wc_Sha224Free(&hash->sha224);
 795:Middlewares/Third_Party/wolfSSL_wolfSSL_wolfSSL/wolfssl/wolfcrypt/src/hash.c ****             ret = 0;
 796:Middlewares/Third_Party/wolfSSL_wolfSSL_wolfSSL/wolfssl/wolfcrypt/src/hash.c **** #endif
 797:Middlewares/Third_Party/wolfSSL_wolfSSL_wolfSSL/wolfssl/wolfcrypt/src/hash.c ****             break;
 798:Middlewares/Third_Party/wolfSSL_wolfSSL_wolfSSL/wolfssl/wolfcrypt/src/hash.c ****         case WC_HASH_TYPE_SHA256:
 799:Middlewares/Third_Party/wolfSSL_wolfSSL_wolfSSL/wolfssl/wolfcrypt/src/hash.c **** #ifndef NO_SHA256
 800:Middlewares/Third_Party/wolfSSL_wolfSSL_wolfSSL/wolfssl/wolfcrypt/src/hash.c ****             wc_Sha256Free(&hash->sha256);
 801:Middlewares/Third_Party/wolfSSL_wolfSSL_wolfSSL/wolfssl/wolfcrypt/src/hash.c ****             ret = 0;
 802:Middlewares/Third_Party/wolfSSL_wolfSSL_wolfSSL/wolfssl/wolfcrypt/src/hash.c **** #endif
 803:Middlewares/Third_Party/wolfSSL_wolfSSL_wolfSSL/wolfssl/wolfcrypt/src/hash.c ****             break;
ARM GAS  /tmp/ccIUkCMh.s 			page 27


 804:Middlewares/Third_Party/wolfSSL_wolfSSL_wolfSSL/wolfssl/wolfcrypt/src/hash.c ****         case WC_HASH_TYPE_SHA384:
 805:Middlewares/Third_Party/wolfSSL_wolfSSL_wolfSSL/wolfssl/wolfcrypt/src/hash.c **** #ifdef WOLFSSL_SHA384
 806:Middlewares/Third_Party/wolfSSL_wolfSSL_wolfSSL/wolfssl/wolfcrypt/src/hash.c ****             wc_Sha384Free(&hash->sha384);
 807:Middlewares/Third_Party/wolfSSL_wolfSSL_wolfSSL/wolfssl/wolfcrypt/src/hash.c ****             ret = 0;
 808:Middlewares/Third_Party/wolfSSL_wolfSSL_wolfSSL/wolfssl/wolfcrypt/src/hash.c **** #endif
 809:Middlewares/Third_Party/wolfSSL_wolfSSL_wolfSSL/wolfssl/wolfcrypt/src/hash.c ****             break;
 810:Middlewares/Third_Party/wolfSSL_wolfSSL_wolfSSL/wolfssl/wolfcrypt/src/hash.c ****         case WC_HASH_TYPE_SHA512:
 811:Middlewares/Third_Party/wolfSSL_wolfSSL_wolfSSL/wolfssl/wolfcrypt/src/hash.c **** #ifdef WOLFSSL_SHA512
 812:Middlewares/Third_Party/wolfSSL_wolfSSL_wolfSSL/wolfssl/wolfcrypt/src/hash.c ****             wc_Sha512Free(&hash->sha512);
 813:Middlewares/Third_Party/wolfSSL_wolfSSL_wolfSSL/wolfssl/wolfcrypt/src/hash.c ****             ret = 0;
 814:Middlewares/Third_Party/wolfSSL_wolfSSL_wolfSSL/wolfssl/wolfcrypt/src/hash.c **** #endif
 815:Middlewares/Third_Party/wolfSSL_wolfSSL_wolfSSL/wolfssl/wolfcrypt/src/hash.c ****             break;
 816:Middlewares/Third_Party/wolfSSL_wolfSSL_wolfSSL/wolfssl/wolfcrypt/src/hash.c **** 
 817:Middlewares/Third_Party/wolfSSL_wolfSSL_wolfSSL/wolfssl/wolfcrypt/src/hash.c ****         case WC_HASH_TYPE_SHA3_224:
 818:Middlewares/Third_Party/wolfSSL_wolfSSL_wolfSSL/wolfssl/wolfcrypt/src/hash.c **** #if defined(WOLFSSL_SHA3) && !defined(WOLFSSL_NOSHA3_224)
 819:Middlewares/Third_Party/wolfSSL_wolfSSL_wolfSSL/wolfssl/wolfcrypt/src/hash.c ****             wc_Sha3_224_Free(&hash->sha3);
 820:Middlewares/Third_Party/wolfSSL_wolfSSL_wolfSSL/wolfssl/wolfcrypt/src/hash.c ****             ret = 0;
 821:Middlewares/Third_Party/wolfSSL_wolfSSL_wolfSSL/wolfssl/wolfcrypt/src/hash.c **** #endif
 822:Middlewares/Third_Party/wolfSSL_wolfSSL_wolfSSL/wolfssl/wolfcrypt/src/hash.c ****             break;
 823:Middlewares/Third_Party/wolfSSL_wolfSSL_wolfSSL/wolfssl/wolfcrypt/src/hash.c ****         case WC_HASH_TYPE_SHA3_256:
 824:Middlewares/Third_Party/wolfSSL_wolfSSL_wolfSSL/wolfssl/wolfcrypt/src/hash.c **** #if defined(WOLFSSL_SHA3) && !defined(WOLFSSL_NOSHA3_256)
 825:Middlewares/Third_Party/wolfSSL_wolfSSL_wolfSSL/wolfssl/wolfcrypt/src/hash.c ****             wc_Sha3_256_Free(&hash->sha3);
 826:Middlewares/Third_Party/wolfSSL_wolfSSL_wolfSSL/wolfssl/wolfcrypt/src/hash.c ****             ret = 0;
 827:Middlewares/Third_Party/wolfSSL_wolfSSL_wolfSSL/wolfssl/wolfcrypt/src/hash.c **** #endif
 828:Middlewares/Third_Party/wolfSSL_wolfSSL_wolfSSL/wolfssl/wolfcrypt/src/hash.c ****             break;
 829:Middlewares/Third_Party/wolfSSL_wolfSSL_wolfSSL/wolfssl/wolfcrypt/src/hash.c ****         case WC_HASH_TYPE_SHA3_384:
 830:Middlewares/Third_Party/wolfSSL_wolfSSL_wolfSSL/wolfssl/wolfcrypt/src/hash.c **** #if defined(WOLFSSL_SHA3) && !defined(WOLFSSL_NOSHA3_384)
 831:Middlewares/Third_Party/wolfSSL_wolfSSL_wolfSSL/wolfssl/wolfcrypt/src/hash.c ****             wc_Sha3_384_Free(&hash->sha3);
 832:Middlewares/Third_Party/wolfSSL_wolfSSL_wolfSSL/wolfssl/wolfcrypt/src/hash.c ****             ret = 0;
 833:Middlewares/Third_Party/wolfSSL_wolfSSL_wolfSSL/wolfssl/wolfcrypt/src/hash.c **** #endif
 834:Middlewares/Third_Party/wolfSSL_wolfSSL_wolfSSL/wolfssl/wolfcrypt/src/hash.c ****             break;
 835:Middlewares/Third_Party/wolfSSL_wolfSSL_wolfSSL/wolfssl/wolfcrypt/src/hash.c ****         case WC_HASH_TYPE_SHA3_512:
 836:Middlewares/Third_Party/wolfSSL_wolfSSL_wolfSSL/wolfssl/wolfcrypt/src/hash.c **** #if defined(WOLFSSL_SHA3) && !defined(WOLFSSL_NOSHA3_512)
 837:Middlewares/Third_Party/wolfSSL_wolfSSL_wolfSSL/wolfssl/wolfcrypt/src/hash.c ****             wc_Sha3_512_Free(&hash->sha3);
 838:Middlewares/Third_Party/wolfSSL_wolfSSL_wolfSSL/wolfssl/wolfcrypt/src/hash.c ****             ret = 0;
 839:Middlewares/Third_Party/wolfSSL_wolfSSL_wolfSSL/wolfssl/wolfcrypt/src/hash.c **** #endif
 840:Middlewares/Third_Party/wolfSSL_wolfSSL_wolfSSL/wolfssl/wolfcrypt/src/hash.c ****             break;
 841:Middlewares/Third_Party/wolfSSL_wolfSSL_wolfSSL/wolfssl/wolfcrypt/src/hash.c **** 
 842:Middlewares/Third_Party/wolfSSL_wolfSSL_wolfSSL/wolfssl/wolfcrypt/src/hash.c ****         /* not supported */
 843:Middlewares/Third_Party/wolfSSL_wolfSSL_wolfSSL/wolfssl/wolfcrypt/src/hash.c ****         case WC_HASH_TYPE_MD5_SHA:
 844:Middlewares/Third_Party/wolfSSL_wolfSSL_wolfSSL/wolfssl/wolfcrypt/src/hash.c ****         case WC_HASH_TYPE_MD2:
 845:Middlewares/Third_Party/wolfSSL_wolfSSL_wolfSSL/wolfssl/wolfcrypt/src/hash.c ****         case WC_HASH_TYPE_MD4:
 846:Middlewares/Third_Party/wolfSSL_wolfSSL_wolfSSL/wolfssl/wolfcrypt/src/hash.c ****         case WC_HASH_TYPE_BLAKE2B:
 847:Middlewares/Third_Party/wolfSSL_wolfSSL_wolfSSL/wolfssl/wolfcrypt/src/hash.c ****         case WC_HASH_TYPE_BLAKE2S:
 848:Middlewares/Third_Party/wolfSSL_wolfSSL_wolfSSL/wolfssl/wolfcrypt/src/hash.c ****         case WC_HASH_TYPE_NONE:
 849:Middlewares/Third_Party/wolfSSL_wolfSSL_wolfSSL/wolfssl/wolfcrypt/src/hash.c ****         default:
 850:Middlewares/Third_Party/wolfSSL_wolfSSL_wolfSSL/wolfssl/wolfcrypt/src/hash.c ****             ret = BAD_FUNC_ARG;
 851:Middlewares/Third_Party/wolfSSL_wolfSSL_wolfSSL/wolfssl/wolfcrypt/src/hash.c ****     };
 852:Middlewares/Third_Party/wolfSSL_wolfSSL_wolfSSL/wolfssl/wolfcrypt/src/hash.c **** 
 853:Middlewares/Third_Party/wolfSSL_wolfSSL_wolfSSL/wolfssl/wolfcrypt/src/hash.c ****     return ret;
 854:Middlewares/Third_Party/wolfSSL_wolfSSL_wolfSSL/wolfssl/wolfcrypt/src/hash.c **** }
 650              		.loc 1 854 1 view .LVU125
 651 001e 08BD     		pop	{r3, pc}
 652              	.LVL64:
 653              	.L70:
 800:Middlewares/Third_Party/wolfSSL_wolfSSL_wolfSSL/wolfssl/wolfcrypt/src/hash.c ****             ret = 0;
 654              		.loc 1 800 13 is_stmt 1 view .LVU126
ARM GAS  /tmp/ccIUkCMh.s 			page 28


 655 0020 FFF7FEFF 		bl	wc_Sha256Free
 656              	.LVL65:
 801:Middlewares/Third_Party/wolfSSL_wolfSSL_wolfSSL/wolfssl/wolfcrypt/src/hash.c **** #endif
 657              		.loc 1 801 13 view .LVU127
 803:Middlewares/Third_Party/wolfSSL_wolfSSL_wolfSSL/wolfssl/wolfcrypt/src/hash.c ****         case WC_HASH_TYPE_SHA384:
 658              		.loc 1 803 13 view .LVU128
 801:Middlewares/Third_Party/wolfSSL_wolfSSL_wolfSSL/wolfssl/wolfcrypt/src/hash.c **** #endif
 659              		.loc 1 801 17 is_stmt 0 view .LVU129
 660 0024 0020     		movs	r0, #0
 803:Middlewares/Third_Party/wolfSSL_wolfSSL_wolfSSL/wolfssl/wolfcrypt/src/hash.c ****         case WC_HASH_TYPE_SHA384:
 661              		.loc 1 803 13 view .LVU130
 662 0026 FAE7     		b	.L66
 663              	.LVL66:
 664              	.L71:
 665              	.LCFI11:
 666              		.cfi_def_cfa_offset 0
 667              		.cfi_restore 3
 668              		.cfi_restore 14
 777:Middlewares/Third_Party/wolfSSL_wolfSSL_wolfSSL/wolfssl/wolfcrypt/src/hash.c **** 
 669              		.loc 1 777 16 view .LVU131
 670 0028 6FF0AC00 		mvn	r0, #172
 671              	.LVL67:
 672              		.loc 1 854 1 view .LVU132
 673 002c 7047     		bx	lr
 674              	.LVL68:
 675              	.L72:
 676              	.LCFI12:
 677              		.cfi_def_cfa_offset 8
 678              		.cfi_offset 3, -8
 679              		.cfi_offset 14, -4
 850:Middlewares/Third_Party/wolfSSL_wolfSSL_wolfSSL/wolfssl/wolfcrypt/src/hash.c ****     };
 680              		.loc 1 850 17 view .LVU133
 681 002e 6FF0AC00 		mvn	r0, #172
 682              	.LVL69:
 850:Middlewares/Third_Party/wolfSSL_wolfSSL_wolfSSL/wolfssl/wolfcrypt/src/hash.c ****     };
 683              		.loc 1 850 17 view .LVU134
 684 0032 F4E7     		b	.L66
 685              		.cfi_endproc
 686              	.LFE185:
 688              		.section	.text.wc_Sha256Hash,"ax",%progbits
 689              		.align	1
 690              		.global	wc_Sha256Hash
 691              		.syntax unified
 692              		.thumb
 693              		.thumb_func
 694              		.fpu fpv4-sp-d16
 696              	wc_Sha256Hash:
 697              	.LVL70:
 698              	.LFB186:
 855:Middlewares/Third_Party/wolfSSL_wolfSSL_wolfSSL/wolfssl/wolfcrypt/src/hash.c **** 
 856:Middlewares/Third_Party/wolfSSL_wolfSSL_wolfSSL/wolfssl/wolfcrypt/src/hash.c **** #if defined(WOLFSSL_HASH_FLAGS) || defined(WOLF_CRYPTO_CB)
 857:Middlewares/Third_Party/wolfSSL_wolfSSL_wolfSSL/wolfssl/wolfcrypt/src/hash.c **** int wc_HashSetFlags(wc_HashAlg* hash, enum wc_HashType type, word32 flags)
 858:Middlewares/Third_Party/wolfSSL_wolfSSL_wolfSSL/wolfssl/wolfcrypt/src/hash.c **** {
 859:Middlewares/Third_Party/wolfSSL_wolfSSL_wolfSSL/wolfssl/wolfcrypt/src/hash.c ****     int ret = HASH_TYPE_E; /* Default to hash type error */
 860:Middlewares/Third_Party/wolfSSL_wolfSSL_wolfSSL/wolfssl/wolfcrypt/src/hash.c **** 
 861:Middlewares/Third_Party/wolfSSL_wolfSSL_wolfSSL/wolfssl/wolfcrypt/src/hash.c ****     if (hash == NULL)
 862:Middlewares/Third_Party/wolfSSL_wolfSSL_wolfSSL/wolfssl/wolfcrypt/src/hash.c ****         return BAD_FUNC_ARG;
ARM GAS  /tmp/ccIUkCMh.s 			page 29


 863:Middlewares/Third_Party/wolfSSL_wolfSSL_wolfSSL/wolfssl/wolfcrypt/src/hash.c **** 
 864:Middlewares/Third_Party/wolfSSL_wolfSSL_wolfSSL/wolfssl/wolfcrypt/src/hash.c ****     switch (type) {
 865:Middlewares/Third_Party/wolfSSL_wolfSSL_wolfSSL/wolfssl/wolfcrypt/src/hash.c ****         case WC_HASH_TYPE_MD5:
 866:Middlewares/Third_Party/wolfSSL_wolfSSL_wolfSSL/wolfssl/wolfcrypt/src/hash.c **** #ifndef NO_MD5
 867:Middlewares/Third_Party/wolfSSL_wolfSSL_wolfSSL/wolfssl/wolfcrypt/src/hash.c ****             ret = wc_Md5SetFlags(&hash->md5, flags);
 868:Middlewares/Third_Party/wolfSSL_wolfSSL_wolfSSL/wolfssl/wolfcrypt/src/hash.c **** #endif
 869:Middlewares/Third_Party/wolfSSL_wolfSSL_wolfSSL/wolfssl/wolfcrypt/src/hash.c ****             break;
 870:Middlewares/Third_Party/wolfSSL_wolfSSL_wolfSSL/wolfssl/wolfcrypt/src/hash.c ****         case WC_HASH_TYPE_SHA:
 871:Middlewares/Third_Party/wolfSSL_wolfSSL_wolfSSL/wolfssl/wolfcrypt/src/hash.c **** #ifndef NO_SHA
 872:Middlewares/Third_Party/wolfSSL_wolfSSL_wolfSSL/wolfssl/wolfcrypt/src/hash.c ****             ret = wc_ShaSetFlags(&hash->sha, flags);
 873:Middlewares/Third_Party/wolfSSL_wolfSSL_wolfSSL/wolfssl/wolfcrypt/src/hash.c **** #endif
 874:Middlewares/Third_Party/wolfSSL_wolfSSL_wolfSSL/wolfssl/wolfcrypt/src/hash.c ****             break;
 875:Middlewares/Third_Party/wolfSSL_wolfSSL_wolfSSL/wolfssl/wolfcrypt/src/hash.c ****         case WC_HASH_TYPE_SHA224:
 876:Middlewares/Third_Party/wolfSSL_wolfSSL_wolfSSL/wolfssl/wolfcrypt/src/hash.c **** #ifdef WOLFSSL_SHA224
 877:Middlewares/Third_Party/wolfSSL_wolfSSL_wolfSSL/wolfssl/wolfcrypt/src/hash.c ****             ret = wc_Sha224SetFlags(&hash->sha224, flags);
 878:Middlewares/Third_Party/wolfSSL_wolfSSL_wolfSSL/wolfssl/wolfcrypt/src/hash.c **** #endif
 879:Middlewares/Third_Party/wolfSSL_wolfSSL_wolfSSL/wolfssl/wolfcrypt/src/hash.c ****             break;
 880:Middlewares/Third_Party/wolfSSL_wolfSSL_wolfSSL/wolfssl/wolfcrypt/src/hash.c ****         case WC_HASH_TYPE_SHA256:
 881:Middlewares/Third_Party/wolfSSL_wolfSSL_wolfSSL/wolfssl/wolfcrypt/src/hash.c **** #ifndef NO_SHA256
 882:Middlewares/Third_Party/wolfSSL_wolfSSL_wolfSSL/wolfssl/wolfcrypt/src/hash.c ****             ret = wc_Sha256SetFlags(&hash->sha256, flags);
 883:Middlewares/Third_Party/wolfSSL_wolfSSL_wolfSSL/wolfssl/wolfcrypt/src/hash.c **** #endif
 884:Middlewares/Third_Party/wolfSSL_wolfSSL_wolfSSL/wolfssl/wolfcrypt/src/hash.c ****             break;
 885:Middlewares/Third_Party/wolfSSL_wolfSSL_wolfSSL/wolfssl/wolfcrypt/src/hash.c ****         case WC_HASH_TYPE_SHA384:
 886:Middlewares/Third_Party/wolfSSL_wolfSSL_wolfSSL/wolfssl/wolfcrypt/src/hash.c **** #ifdef WOLFSSL_SHA384
 887:Middlewares/Third_Party/wolfSSL_wolfSSL_wolfSSL/wolfssl/wolfcrypt/src/hash.c ****             ret = wc_Sha384SetFlags(&hash->sha384, flags);
 888:Middlewares/Third_Party/wolfSSL_wolfSSL_wolfSSL/wolfssl/wolfcrypt/src/hash.c **** #endif
 889:Middlewares/Third_Party/wolfSSL_wolfSSL_wolfSSL/wolfssl/wolfcrypt/src/hash.c ****             break;
 890:Middlewares/Third_Party/wolfSSL_wolfSSL_wolfSSL/wolfssl/wolfcrypt/src/hash.c ****         case WC_HASH_TYPE_SHA512:
 891:Middlewares/Third_Party/wolfSSL_wolfSSL_wolfSSL/wolfssl/wolfcrypt/src/hash.c **** #ifdef WOLFSSL_SHA512
 892:Middlewares/Third_Party/wolfSSL_wolfSSL_wolfSSL/wolfssl/wolfcrypt/src/hash.c ****             ret = wc_Sha512SetFlags(&hash->sha512, flags);
 893:Middlewares/Third_Party/wolfSSL_wolfSSL_wolfSSL/wolfssl/wolfcrypt/src/hash.c **** #endif
 894:Middlewares/Third_Party/wolfSSL_wolfSSL_wolfSSL/wolfssl/wolfcrypt/src/hash.c ****             break;
 895:Middlewares/Third_Party/wolfSSL_wolfSSL_wolfSSL/wolfssl/wolfcrypt/src/hash.c **** 
 896:Middlewares/Third_Party/wolfSSL_wolfSSL_wolfSSL/wolfssl/wolfcrypt/src/hash.c ****         case WC_HASH_TYPE_SHA3_224:
 897:Middlewares/Third_Party/wolfSSL_wolfSSL_wolfSSL/wolfssl/wolfcrypt/src/hash.c ****         case WC_HASH_TYPE_SHA3_256:
 898:Middlewares/Third_Party/wolfSSL_wolfSSL_wolfSSL/wolfssl/wolfcrypt/src/hash.c ****         case WC_HASH_TYPE_SHA3_384:
 899:Middlewares/Third_Party/wolfSSL_wolfSSL_wolfSSL/wolfssl/wolfcrypt/src/hash.c ****         case WC_HASH_TYPE_SHA3_512:
 900:Middlewares/Third_Party/wolfSSL_wolfSSL_wolfSSL/wolfssl/wolfcrypt/src/hash.c **** #ifdef WOLFSSL_SHA3
 901:Middlewares/Third_Party/wolfSSL_wolfSSL_wolfSSL/wolfssl/wolfcrypt/src/hash.c ****             ret = wc_Sha3_SetFlags(&hash->sha3, flags);
 902:Middlewares/Third_Party/wolfSSL_wolfSSL_wolfSSL/wolfssl/wolfcrypt/src/hash.c **** #endif
 903:Middlewares/Third_Party/wolfSSL_wolfSSL_wolfSSL/wolfssl/wolfcrypt/src/hash.c ****             break;
 904:Middlewares/Third_Party/wolfSSL_wolfSSL_wolfSSL/wolfssl/wolfcrypt/src/hash.c **** 
 905:Middlewares/Third_Party/wolfSSL_wolfSSL_wolfSSL/wolfssl/wolfcrypt/src/hash.c ****         /* not supported */
 906:Middlewares/Third_Party/wolfSSL_wolfSSL_wolfSSL/wolfssl/wolfcrypt/src/hash.c ****         case WC_HASH_TYPE_MD5_SHA:
 907:Middlewares/Third_Party/wolfSSL_wolfSSL_wolfSSL/wolfssl/wolfcrypt/src/hash.c ****         case WC_HASH_TYPE_MD2:
 908:Middlewares/Third_Party/wolfSSL_wolfSSL_wolfSSL/wolfssl/wolfcrypt/src/hash.c ****         case WC_HASH_TYPE_MD4:
 909:Middlewares/Third_Party/wolfSSL_wolfSSL_wolfSSL/wolfssl/wolfcrypt/src/hash.c ****         case WC_HASH_TYPE_BLAKE2B:
 910:Middlewares/Third_Party/wolfSSL_wolfSSL_wolfSSL/wolfssl/wolfcrypt/src/hash.c ****         case WC_HASH_TYPE_BLAKE2S:
 911:Middlewares/Third_Party/wolfSSL_wolfSSL_wolfSSL/wolfssl/wolfcrypt/src/hash.c ****         case WC_HASH_TYPE_NONE:
 912:Middlewares/Third_Party/wolfSSL_wolfSSL_wolfSSL/wolfssl/wolfcrypt/src/hash.c ****         default:
 913:Middlewares/Third_Party/wolfSSL_wolfSSL_wolfSSL/wolfssl/wolfcrypt/src/hash.c ****             ret = BAD_FUNC_ARG;
 914:Middlewares/Third_Party/wolfSSL_wolfSSL_wolfSSL/wolfssl/wolfcrypt/src/hash.c ****     };
 915:Middlewares/Third_Party/wolfSSL_wolfSSL_wolfSSL/wolfssl/wolfcrypt/src/hash.c **** 
 916:Middlewares/Third_Party/wolfSSL_wolfSSL_wolfSSL/wolfssl/wolfcrypt/src/hash.c ****     return ret;
 917:Middlewares/Third_Party/wolfSSL_wolfSSL_wolfSSL/wolfssl/wolfcrypt/src/hash.c **** }
 918:Middlewares/Third_Party/wolfSSL_wolfSSL_wolfSSL/wolfssl/wolfcrypt/src/hash.c **** int wc_HashGetFlags(wc_HashAlg* hash, enum wc_HashType type, word32* flags)
 919:Middlewares/Third_Party/wolfSSL_wolfSSL_wolfSSL/wolfssl/wolfcrypt/src/hash.c **** {
ARM GAS  /tmp/ccIUkCMh.s 			page 30


 920:Middlewares/Third_Party/wolfSSL_wolfSSL_wolfSSL/wolfssl/wolfcrypt/src/hash.c ****     int ret = HASH_TYPE_E; /* Default to hash type error */
 921:Middlewares/Third_Party/wolfSSL_wolfSSL_wolfSSL/wolfssl/wolfcrypt/src/hash.c **** 
 922:Middlewares/Third_Party/wolfSSL_wolfSSL_wolfSSL/wolfssl/wolfcrypt/src/hash.c ****     if (hash == NULL)
 923:Middlewares/Third_Party/wolfSSL_wolfSSL_wolfSSL/wolfssl/wolfcrypt/src/hash.c ****         return BAD_FUNC_ARG;
 924:Middlewares/Third_Party/wolfSSL_wolfSSL_wolfSSL/wolfssl/wolfcrypt/src/hash.c **** 
 925:Middlewares/Third_Party/wolfSSL_wolfSSL_wolfSSL/wolfssl/wolfcrypt/src/hash.c ****     switch (type) {
 926:Middlewares/Third_Party/wolfSSL_wolfSSL_wolfSSL/wolfssl/wolfcrypt/src/hash.c ****         case WC_HASH_TYPE_MD5:
 927:Middlewares/Third_Party/wolfSSL_wolfSSL_wolfSSL/wolfssl/wolfcrypt/src/hash.c **** #ifndef NO_MD5
 928:Middlewares/Third_Party/wolfSSL_wolfSSL_wolfSSL/wolfssl/wolfcrypt/src/hash.c ****             ret = wc_Md5GetFlags(&hash->md5, flags);
 929:Middlewares/Third_Party/wolfSSL_wolfSSL_wolfSSL/wolfssl/wolfcrypt/src/hash.c **** #endif
 930:Middlewares/Third_Party/wolfSSL_wolfSSL_wolfSSL/wolfssl/wolfcrypt/src/hash.c ****             break;
 931:Middlewares/Third_Party/wolfSSL_wolfSSL_wolfSSL/wolfssl/wolfcrypt/src/hash.c ****         case WC_HASH_TYPE_SHA:
 932:Middlewares/Third_Party/wolfSSL_wolfSSL_wolfSSL/wolfssl/wolfcrypt/src/hash.c **** #ifndef NO_SHA
 933:Middlewares/Third_Party/wolfSSL_wolfSSL_wolfSSL/wolfssl/wolfcrypt/src/hash.c ****             ret = wc_ShaGetFlags(&hash->sha, flags);
 934:Middlewares/Third_Party/wolfSSL_wolfSSL_wolfSSL/wolfssl/wolfcrypt/src/hash.c **** #endif
 935:Middlewares/Third_Party/wolfSSL_wolfSSL_wolfSSL/wolfssl/wolfcrypt/src/hash.c ****             break;
 936:Middlewares/Third_Party/wolfSSL_wolfSSL_wolfSSL/wolfssl/wolfcrypt/src/hash.c ****         case WC_HASH_TYPE_SHA224:
 937:Middlewares/Third_Party/wolfSSL_wolfSSL_wolfSSL/wolfssl/wolfcrypt/src/hash.c **** #ifdef WOLFSSL_SHA224
 938:Middlewares/Third_Party/wolfSSL_wolfSSL_wolfSSL/wolfssl/wolfcrypt/src/hash.c ****             ret = wc_Sha224GetFlags(&hash->sha224, flags);
 939:Middlewares/Third_Party/wolfSSL_wolfSSL_wolfSSL/wolfssl/wolfcrypt/src/hash.c **** #endif
 940:Middlewares/Third_Party/wolfSSL_wolfSSL_wolfSSL/wolfssl/wolfcrypt/src/hash.c ****             break;
 941:Middlewares/Third_Party/wolfSSL_wolfSSL_wolfSSL/wolfssl/wolfcrypt/src/hash.c ****         case WC_HASH_TYPE_SHA256:
 942:Middlewares/Third_Party/wolfSSL_wolfSSL_wolfSSL/wolfssl/wolfcrypt/src/hash.c **** #ifndef NO_SHA256
 943:Middlewares/Third_Party/wolfSSL_wolfSSL_wolfSSL/wolfssl/wolfcrypt/src/hash.c ****             ret = wc_Sha256GetFlags(&hash->sha256, flags);
 944:Middlewares/Third_Party/wolfSSL_wolfSSL_wolfSSL/wolfssl/wolfcrypt/src/hash.c **** #endif
 945:Middlewares/Third_Party/wolfSSL_wolfSSL_wolfSSL/wolfssl/wolfcrypt/src/hash.c ****             break;
 946:Middlewares/Third_Party/wolfSSL_wolfSSL_wolfSSL/wolfssl/wolfcrypt/src/hash.c ****         case WC_HASH_TYPE_SHA384:
 947:Middlewares/Third_Party/wolfSSL_wolfSSL_wolfSSL/wolfssl/wolfcrypt/src/hash.c **** #ifdef WOLFSSL_SHA384
 948:Middlewares/Third_Party/wolfSSL_wolfSSL_wolfSSL/wolfssl/wolfcrypt/src/hash.c ****             ret = wc_Sha384GetFlags(&hash->sha384, flags);
 949:Middlewares/Third_Party/wolfSSL_wolfSSL_wolfSSL/wolfssl/wolfcrypt/src/hash.c **** #endif
 950:Middlewares/Third_Party/wolfSSL_wolfSSL_wolfSSL/wolfssl/wolfcrypt/src/hash.c ****             break;
 951:Middlewares/Third_Party/wolfSSL_wolfSSL_wolfSSL/wolfssl/wolfcrypt/src/hash.c ****         case WC_HASH_TYPE_SHA512:
 952:Middlewares/Third_Party/wolfSSL_wolfSSL_wolfSSL/wolfssl/wolfcrypt/src/hash.c **** #ifdef WOLFSSL_SHA512
 953:Middlewares/Third_Party/wolfSSL_wolfSSL_wolfSSL/wolfssl/wolfcrypt/src/hash.c ****             ret = wc_Sha512GetFlags(&hash->sha512, flags);
 954:Middlewares/Third_Party/wolfSSL_wolfSSL_wolfSSL/wolfssl/wolfcrypt/src/hash.c **** #endif
 955:Middlewares/Third_Party/wolfSSL_wolfSSL_wolfSSL/wolfssl/wolfcrypt/src/hash.c ****             break;
 956:Middlewares/Third_Party/wolfSSL_wolfSSL_wolfSSL/wolfssl/wolfcrypt/src/hash.c **** 
 957:Middlewares/Third_Party/wolfSSL_wolfSSL_wolfSSL/wolfssl/wolfcrypt/src/hash.c ****         case WC_HASH_TYPE_SHA3_224:
 958:Middlewares/Third_Party/wolfSSL_wolfSSL_wolfSSL/wolfssl/wolfcrypt/src/hash.c ****         case WC_HASH_TYPE_SHA3_256:
 959:Middlewares/Third_Party/wolfSSL_wolfSSL_wolfSSL/wolfssl/wolfcrypt/src/hash.c ****         case WC_HASH_TYPE_SHA3_384:
 960:Middlewares/Third_Party/wolfSSL_wolfSSL_wolfSSL/wolfssl/wolfcrypt/src/hash.c ****         case WC_HASH_TYPE_SHA3_512:
 961:Middlewares/Third_Party/wolfSSL_wolfSSL_wolfSSL/wolfssl/wolfcrypt/src/hash.c **** #ifdef WOLFSSL_SHA3
 962:Middlewares/Third_Party/wolfSSL_wolfSSL_wolfSSL/wolfssl/wolfcrypt/src/hash.c ****             ret = wc_Sha3_GetFlags(&hash->sha3, flags);
 963:Middlewares/Third_Party/wolfSSL_wolfSSL_wolfSSL/wolfssl/wolfcrypt/src/hash.c **** #endif
 964:Middlewares/Third_Party/wolfSSL_wolfSSL_wolfSSL/wolfssl/wolfcrypt/src/hash.c ****             break;
 965:Middlewares/Third_Party/wolfSSL_wolfSSL_wolfSSL/wolfssl/wolfcrypt/src/hash.c **** 
 966:Middlewares/Third_Party/wolfSSL_wolfSSL_wolfSSL/wolfssl/wolfcrypt/src/hash.c ****         /* not supported */
 967:Middlewares/Third_Party/wolfSSL_wolfSSL_wolfSSL/wolfssl/wolfcrypt/src/hash.c ****         case WC_HASH_TYPE_MD5_SHA:
 968:Middlewares/Third_Party/wolfSSL_wolfSSL_wolfSSL/wolfssl/wolfcrypt/src/hash.c ****         case WC_HASH_TYPE_MD2:
 969:Middlewares/Third_Party/wolfSSL_wolfSSL_wolfSSL/wolfssl/wolfcrypt/src/hash.c ****         case WC_HASH_TYPE_MD4:
 970:Middlewares/Third_Party/wolfSSL_wolfSSL_wolfSSL/wolfssl/wolfcrypt/src/hash.c ****         case WC_HASH_TYPE_BLAKE2B:
 971:Middlewares/Third_Party/wolfSSL_wolfSSL_wolfSSL/wolfssl/wolfcrypt/src/hash.c ****         case WC_HASH_TYPE_BLAKE2S:
 972:Middlewares/Third_Party/wolfSSL_wolfSSL_wolfSSL/wolfssl/wolfcrypt/src/hash.c ****         case WC_HASH_TYPE_NONE:
 973:Middlewares/Third_Party/wolfSSL_wolfSSL_wolfSSL/wolfssl/wolfcrypt/src/hash.c ****         default:
 974:Middlewares/Third_Party/wolfSSL_wolfSSL_wolfSSL/wolfssl/wolfcrypt/src/hash.c ****             ret = BAD_FUNC_ARG;
 975:Middlewares/Third_Party/wolfSSL_wolfSSL_wolfSSL/wolfssl/wolfcrypt/src/hash.c ****     };
 976:Middlewares/Third_Party/wolfSSL_wolfSSL_wolfSSL/wolfssl/wolfcrypt/src/hash.c **** 
ARM GAS  /tmp/ccIUkCMh.s 			page 31


 977:Middlewares/Third_Party/wolfSSL_wolfSSL_wolfSSL/wolfssl/wolfcrypt/src/hash.c ****     return ret;
 978:Middlewares/Third_Party/wolfSSL_wolfSSL_wolfSSL/wolfssl/wolfcrypt/src/hash.c **** }
 979:Middlewares/Third_Party/wolfSSL_wolfSSL_wolfSSL/wolfssl/wolfcrypt/src/hash.c **** #endif
 980:Middlewares/Third_Party/wolfSSL_wolfSSL_wolfSSL/wolfssl/wolfcrypt/src/hash.c **** 
 981:Middlewares/Third_Party/wolfSSL_wolfSSL_wolfSSL/wolfssl/wolfcrypt/src/hash.c **** 
 982:Middlewares/Third_Party/wolfSSL_wolfSSL_wolfSSL/wolfssl/wolfcrypt/src/hash.c **** #if !defined(WOLFSSL_TI_HASH)
 983:Middlewares/Third_Party/wolfSSL_wolfSSL_wolfSSL/wolfssl/wolfcrypt/src/hash.c **** 
 984:Middlewares/Third_Party/wolfSSL_wolfSSL_wolfSSL/wolfssl/wolfcrypt/src/hash.c **** #if !defined(NO_MD5)
 985:Middlewares/Third_Party/wolfSSL_wolfSSL_wolfSSL/wolfssl/wolfcrypt/src/hash.c ****     int wc_Md5Hash(const byte* data, word32 len, byte* hash)
 986:Middlewares/Third_Party/wolfSSL_wolfSSL_wolfSSL/wolfssl/wolfcrypt/src/hash.c ****     {
 987:Middlewares/Third_Party/wolfSSL_wolfSSL_wolfSSL/wolfssl/wolfcrypt/src/hash.c ****         int ret;
 988:Middlewares/Third_Party/wolfSSL_wolfSSL_wolfSSL/wolfssl/wolfcrypt/src/hash.c ****     #ifdef WOLFSSL_SMALL_STACK
 989:Middlewares/Third_Party/wolfSSL_wolfSSL_wolfSSL/wolfssl/wolfcrypt/src/hash.c ****         wc_Md5* md5;
 990:Middlewares/Third_Party/wolfSSL_wolfSSL_wolfSSL/wolfssl/wolfcrypt/src/hash.c ****     #else
 991:Middlewares/Third_Party/wolfSSL_wolfSSL_wolfSSL/wolfssl/wolfcrypt/src/hash.c ****         wc_Md5  md5[1];
 992:Middlewares/Third_Party/wolfSSL_wolfSSL_wolfSSL/wolfssl/wolfcrypt/src/hash.c ****     #endif
 993:Middlewares/Third_Party/wolfSSL_wolfSSL_wolfSSL/wolfssl/wolfcrypt/src/hash.c **** 
 994:Middlewares/Third_Party/wolfSSL_wolfSSL_wolfSSL/wolfssl/wolfcrypt/src/hash.c ****     #ifdef WOLFSSL_SMALL_STACK
 995:Middlewares/Third_Party/wolfSSL_wolfSSL_wolfSSL/wolfssl/wolfcrypt/src/hash.c ****         md5 = (wc_Md5*)XMALLOC(sizeof(wc_Md5), NULL, DYNAMIC_TYPE_TMP_BUFFER);
 996:Middlewares/Third_Party/wolfSSL_wolfSSL_wolfSSL/wolfssl/wolfcrypt/src/hash.c ****         if (md5 == NULL)
 997:Middlewares/Third_Party/wolfSSL_wolfSSL_wolfSSL/wolfssl/wolfcrypt/src/hash.c ****             return MEMORY_E;
 998:Middlewares/Third_Party/wolfSSL_wolfSSL_wolfSSL/wolfssl/wolfcrypt/src/hash.c ****     #endif
 999:Middlewares/Third_Party/wolfSSL_wolfSSL_wolfSSL/wolfssl/wolfcrypt/src/hash.c **** 
1000:Middlewares/Third_Party/wolfSSL_wolfSSL_wolfSSL/wolfssl/wolfcrypt/src/hash.c ****         if ((ret = wc_InitMd5(md5)) != 0) {
1001:Middlewares/Third_Party/wolfSSL_wolfSSL_wolfSSL/wolfssl/wolfcrypt/src/hash.c ****             WOLFSSL_MSG("InitMd5 failed");
1002:Middlewares/Third_Party/wolfSSL_wolfSSL_wolfSSL/wolfssl/wolfcrypt/src/hash.c ****         }
1003:Middlewares/Third_Party/wolfSSL_wolfSSL_wolfSSL/wolfssl/wolfcrypt/src/hash.c ****         else {
1004:Middlewares/Third_Party/wolfSSL_wolfSSL_wolfSSL/wolfssl/wolfcrypt/src/hash.c ****             if ((ret = wc_Md5Update(md5, data, len)) != 0) {
1005:Middlewares/Third_Party/wolfSSL_wolfSSL_wolfSSL/wolfssl/wolfcrypt/src/hash.c ****                 WOLFSSL_MSG("Md5Update failed");
1006:Middlewares/Third_Party/wolfSSL_wolfSSL_wolfSSL/wolfssl/wolfcrypt/src/hash.c ****             }
1007:Middlewares/Third_Party/wolfSSL_wolfSSL_wolfSSL/wolfssl/wolfcrypt/src/hash.c ****             else if ((ret = wc_Md5Final(md5, hash)) != 0) {
1008:Middlewares/Third_Party/wolfSSL_wolfSSL_wolfSSL/wolfssl/wolfcrypt/src/hash.c ****                 WOLFSSL_MSG("Md5Final failed");
1009:Middlewares/Third_Party/wolfSSL_wolfSSL_wolfSSL/wolfssl/wolfcrypt/src/hash.c ****             }
1010:Middlewares/Third_Party/wolfSSL_wolfSSL_wolfSSL/wolfssl/wolfcrypt/src/hash.c ****             wc_Md5Free(md5);
1011:Middlewares/Third_Party/wolfSSL_wolfSSL_wolfSSL/wolfssl/wolfcrypt/src/hash.c ****         }
1012:Middlewares/Third_Party/wolfSSL_wolfSSL_wolfSSL/wolfssl/wolfcrypt/src/hash.c **** 
1013:Middlewares/Third_Party/wolfSSL_wolfSSL_wolfSSL/wolfssl/wolfcrypt/src/hash.c ****     #ifdef WOLFSSL_SMALL_STACK
1014:Middlewares/Third_Party/wolfSSL_wolfSSL_wolfSSL/wolfssl/wolfcrypt/src/hash.c ****         XFREE(md5, NULL, DYNAMIC_TYPE_TMP_BUFFER);
1015:Middlewares/Third_Party/wolfSSL_wolfSSL_wolfSSL/wolfssl/wolfcrypt/src/hash.c ****     #endif
1016:Middlewares/Third_Party/wolfSSL_wolfSSL_wolfSSL/wolfssl/wolfcrypt/src/hash.c **** 
1017:Middlewares/Third_Party/wolfSSL_wolfSSL_wolfSSL/wolfssl/wolfcrypt/src/hash.c ****         return ret;
1018:Middlewares/Third_Party/wolfSSL_wolfSSL_wolfSSL/wolfssl/wolfcrypt/src/hash.c ****     }
1019:Middlewares/Third_Party/wolfSSL_wolfSSL_wolfSSL/wolfssl/wolfcrypt/src/hash.c **** #endif /* !NO_MD5 */
1020:Middlewares/Third_Party/wolfSSL_wolfSSL_wolfSSL/wolfssl/wolfcrypt/src/hash.c **** 
1021:Middlewares/Third_Party/wolfSSL_wolfSSL_wolfSSL/wolfssl/wolfcrypt/src/hash.c **** #if !defined(NO_SHA)
1022:Middlewares/Third_Party/wolfSSL_wolfSSL_wolfSSL/wolfssl/wolfcrypt/src/hash.c ****     int wc_ShaHash(const byte* data, word32 len, byte* hash)
1023:Middlewares/Third_Party/wolfSSL_wolfSSL_wolfSSL/wolfssl/wolfcrypt/src/hash.c ****     {
1024:Middlewares/Third_Party/wolfSSL_wolfSSL_wolfSSL/wolfssl/wolfcrypt/src/hash.c ****         int ret = 0;
1025:Middlewares/Third_Party/wolfSSL_wolfSSL_wolfSSL/wolfssl/wolfcrypt/src/hash.c ****     #ifdef WOLFSSL_SMALL_STACK
1026:Middlewares/Third_Party/wolfSSL_wolfSSL_wolfSSL/wolfssl/wolfcrypt/src/hash.c ****         wc_Sha* sha;
1027:Middlewares/Third_Party/wolfSSL_wolfSSL_wolfSSL/wolfssl/wolfcrypt/src/hash.c ****     #else
1028:Middlewares/Third_Party/wolfSSL_wolfSSL_wolfSSL/wolfssl/wolfcrypt/src/hash.c ****         wc_Sha sha[1];
1029:Middlewares/Third_Party/wolfSSL_wolfSSL_wolfSSL/wolfssl/wolfcrypt/src/hash.c ****     #endif
1030:Middlewares/Third_Party/wolfSSL_wolfSSL_wolfSSL/wolfssl/wolfcrypt/src/hash.c ****         int devId = INVALID_DEVID;
1031:Middlewares/Third_Party/wolfSSL_wolfSSL_wolfSSL/wolfssl/wolfcrypt/src/hash.c **** 
1032:Middlewares/Third_Party/wolfSSL_wolfSSL_wolfSSL/wolfssl/wolfcrypt/src/hash.c ****     #ifdef WOLFSSL_SMALL_STACK
1033:Middlewares/Third_Party/wolfSSL_wolfSSL_wolfSSL/wolfssl/wolfcrypt/src/hash.c ****         sha = (wc_Sha*)XMALLOC(sizeof(wc_Sha), NULL, DYNAMIC_TYPE_TMP_BUFFER);
ARM GAS  /tmp/ccIUkCMh.s 			page 32


1034:Middlewares/Third_Party/wolfSSL_wolfSSL_wolfSSL/wolfssl/wolfcrypt/src/hash.c ****         if (sha == NULL)
1035:Middlewares/Third_Party/wolfSSL_wolfSSL_wolfSSL/wolfssl/wolfcrypt/src/hash.c ****             return MEMORY_E;
1036:Middlewares/Third_Party/wolfSSL_wolfSSL_wolfSSL/wolfssl/wolfcrypt/src/hash.c ****     #endif
1037:Middlewares/Third_Party/wolfSSL_wolfSSL_wolfSSL/wolfssl/wolfcrypt/src/hash.c **** 
1038:Middlewares/Third_Party/wolfSSL_wolfSSL_wolfSSL/wolfssl/wolfcrypt/src/hash.c ****     #ifdef WOLF_CRYPTO_CB
1039:Middlewares/Third_Party/wolfSSL_wolfSSL_wolfSSL/wolfssl/wolfcrypt/src/hash.c ****         /* only use devId if its not an empty hash */
1040:Middlewares/Third_Party/wolfSSL_wolfSSL_wolfSSL/wolfssl/wolfcrypt/src/hash.c ****         if (data != NULL && len > 0)
1041:Middlewares/Third_Party/wolfSSL_wolfSSL_wolfSSL/wolfssl/wolfcrypt/src/hash.c ****             devId = wc_CryptoCb_GetDevIdAtIndex(0);
1042:Middlewares/Third_Party/wolfSSL_wolfSSL_wolfSSL/wolfssl/wolfcrypt/src/hash.c ****     #endif
1043:Middlewares/Third_Party/wolfSSL_wolfSSL_wolfSSL/wolfssl/wolfcrypt/src/hash.c **** 
1044:Middlewares/Third_Party/wolfSSL_wolfSSL_wolfSSL/wolfssl/wolfcrypt/src/hash.c ****         if ((ret = wc_InitSha_ex(sha, NULL, devId)) != 0) {
1045:Middlewares/Third_Party/wolfSSL_wolfSSL_wolfSSL/wolfssl/wolfcrypt/src/hash.c ****             WOLFSSL_MSG("InitSha failed");
1046:Middlewares/Third_Party/wolfSSL_wolfSSL_wolfSSL/wolfssl/wolfcrypt/src/hash.c ****         }
1047:Middlewares/Third_Party/wolfSSL_wolfSSL_wolfSSL/wolfssl/wolfcrypt/src/hash.c ****         else {
1048:Middlewares/Third_Party/wolfSSL_wolfSSL_wolfSSL/wolfssl/wolfcrypt/src/hash.c ****             if ((ret = wc_ShaUpdate(sha, data, len)) != 0) {
1049:Middlewares/Third_Party/wolfSSL_wolfSSL_wolfSSL/wolfssl/wolfcrypt/src/hash.c ****                 WOLFSSL_MSG("ShaUpdate failed");
1050:Middlewares/Third_Party/wolfSSL_wolfSSL_wolfSSL/wolfssl/wolfcrypt/src/hash.c ****             }
1051:Middlewares/Third_Party/wolfSSL_wolfSSL_wolfSSL/wolfssl/wolfcrypt/src/hash.c ****             else if ((ret = wc_ShaFinal(sha, hash)) != 0) {
1052:Middlewares/Third_Party/wolfSSL_wolfSSL_wolfSSL/wolfssl/wolfcrypt/src/hash.c ****                 WOLFSSL_MSG("ShaFinal failed");
1053:Middlewares/Third_Party/wolfSSL_wolfSSL_wolfSSL/wolfssl/wolfcrypt/src/hash.c ****             }
1054:Middlewares/Third_Party/wolfSSL_wolfSSL_wolfSSL/wolfssl/wolfcrypt/src/hash.c ****             wc_ShaFree(sha);
1055:Middlewares/Third_Party/wolfSSL_wolfSSL_wolfSSL/wolfssl/wolfcrypt/src/hash.c ****         }
1056:Middlewares/Third_Party/wolfSSL_wolfSSL_wolfSSL/wolfssl/wolfcrypt/src/hash.c **** 
1057:Middlewares/Third_Party/wolfSSL_wolfSSL_wolfSSL/wolfssl/wolfcrypt/src/hash.c ****     #ifdef WOLFSSL_SMALL_STACK
1058:Middlewares/Third_Party/wolfSSL_wolfSSL_wolfSSL/wolfssl/wolfcrypt/src/hash.c ****         XFREE(sha, NULL, DYNAMIC_TYPE_TMP_BUFFER);
1059:Middlewares/Third_Party/wolfSSL_wolfSSL_wolfSSL/wolfssl/wolfcrypt/src/hash.c ****     #endif
1060:Middlewares/Third_Party/wolfSSL_wolfSSL_wolfSSL/wolfssl/wolfcrypt/src/hash.c **** 
1061:Middlewares/Third_Party/wolfSSL_wolfSSL_wolfSSL/wolfssl/wolfcrypt/src/hash.c ****         return ret;
1062:Middlewares/Third_Party/wolfSSL_wolfSSL_wolfSSL/wolfssl/wolfcrypt/src/hash.c ****     }
1063:Middlewares/Third_Party/wolfSSL_wolfSSL_wolfSSL/wolfssl/wolfcrypt/src/hash.c **** #endif /* !NO_SHA */
1064:Middlewares/Third_Party/wolfSSL_wolfSSL_wolfSSL/wolfssl/wolfcrypt/src/hash.c **** 
1065:Middlewares/Third_Party/wolfSSL_wolfSSL_wolfSSL/wolfssl/wolfcrypt/src/hash.c **** #if defined(WOLFSSL_SHA224)
1066:Middlewares/Third_Party/wolfSSL_wolfSSL_wolfSSL/wolfssl/wolfcrypt/src/hash.c ****     int wc_Sha224Hash(const byte* data, word32 len, byte* hash)
1067:Middlewares/Third_Party/wolfSSL_wolfSSL_wolfSSL/wolfssl/wolfcrypt/src/hash.c ****     {
1068:Middlewares/Third_Party/wolfSSL_wolfSSL_wolfSSL/wolfssl/wolfcrypt/src/hash.c ****         int ret = 0;
1069:Middlewares/Third_Party/wolfSSL_wolfSSL_wolfSSL/wolfssl/wolfcrypt/src/hash.c ****     #ifdef WOLFSSL_SMALL_STACK
1070:Middlewares/Third_Party/wolfSSL_wolfSSL_wolfSSL/wolfssl/wolfcrypt/src/hash.c ****         wc_Sha224* sha224;
1071:Middlewares/Third_Party/wolfSSL_wolfSSL_wolfSSL/wolfssl/wolfcrypt/src/hash.c ****     #else
1072:Middlewares/Third_Party/wolfSSL_wolfSSL_wolfSSL/wolfssl/wolfcrypt/src/hash.c ****         wc_Sha224 sha224[1];
1073:Middlewares/Third_Party/wolfSSL_wolfSSL_wolfSSL/wolfssl/wolfcrypt/src/hash.c ****     #endif
1074:Middlewares/Third_Party/wolfSSL_wolfSSL_wolfSSL/wolfssl/wolfcrypt/src/hash.c **** 
1075:Middlewares/Third_Party/wolfSSL_wolfSSL_wolfSSL/wolfssl/wolfcrypt/src/hash.c ****     #ifdef WOLFSSL_SMALL_STACK
1076:Middlewares/Third_Party/wolfSSL_wolfSSL_wolfSSL/wolfssl/wolfcrypt/src/hash.c ****         sha224 = (wc_Sha224*)XMALLOC(sizeof(wc_Sha224), NULL,
1077:Middlewares/Third_Party/wolfSSL_wolfSSL_wolfSSL/wolfssl/wolfcrypt/src/hash.c ****             DYNAMIC_TYPE_TMP_BUFFER);
1078:Middlewares/Third_Party/wolfSSL_wolfSSL_wolfSSL/wolfssl/wolfcrypt/src/hash.c ****         if (sha224 == NULL)
1079:Middlewares/Third_Party/wolfSSL_wolfSSL_wolfSSL/wolfssl/wolfcrypt/src/hash.c ****             return MEMORY_E;
1080:Middlewares/Third_Party/wolfSSL_wolfSSL_wolfSSL/wolfssl/wolfcrypt/src/hash.c ****     #endif
1081:Middlewares/Third_Party/wolfSSL_wolfSSL_wolfSSL/wolfssl/wolfcrypt/src/hash.c **** 
1082:Middlewares/Third_Party/wolfSSL_wolfSSL_wolfSSL/wolfssl/wolfcrypt/src/hash.c ****         if ((ret = wc_InitSha224(sha224)) != 0) {
1083:Middlewares/Third_Party/wolfSSL_wolfSSL_wolfSSL/wolfssl/wolfcrypt/src/hash.c ****             WOLFSSL_MSG("InitSha224 failed");
1084:Middlewares/Third_Party/wolfSSL_wolfSSL_wolfSSL/wolfssl/wolfcrypt/src/hash.c ****         }
1085:Middlewares/Third_Party/wolfSSL_wolfSSL_wolfSSL/wolfssl/wolfcrypt/src/hash.c ****         else {
1086:Middlewares/Third_Party/wolfSSL_wolfSSL_wolfSSL/wolfssl/wolfcrypt/src/hash.c ****             if ((ret = wc_Sha224Update(sha224, data, len)) != 0) {
1087:Middlewares/Third_Party/wolfSSL_wolfSSL_wolfSSL/wolfssl/wolfcrypt/src/hash.c ****                 WOLFSSL_MSG("Sha224Update failed");
1088:Middlewares/Third_Party/wolfSSL_wolfSSL_wolfSSL/wolfssl/wolfcrypt/src/hash.c ****             }
1089:Middlewares/Third_Party/wolfSSL_wolfSSL_wolfSSL/wolfssl/wolfcrypt/src/hash.c ****             else if ((ret = wc_Sha224Final(sha224, hash)) != 0) {
1090:Middlewares/Third_Party/wolfSSL_wolfSSL_wolfSSL/wolfssl/wolfcrypt/src/hash.c ****                 WOLFSSL_MSG("Sha224Final failed");
ARM GAS  /tmp/ccIUkCMh.s 			page 33


1091:Middlewares/Third_Party/wolfSSL_wolfSSL_wolfSSL/wolfssl/wolfcrypt/src/hash.c ****             }
1092:Middlewares/Third_Party/wolfSSL_wolfSSL_wolfSSL/wolfssl/wolfcrypt/src/hash.c ****             wc_Sha224Free(sha224);
1093:Middlewares/Third_Party/wolfSSL_wolfSSL_wolfSSL/wolfssl/wolfcrypt/src/hash.c ****         }
1094:Middlewares/Third_Party/wolfSSL_wolfSSL_wolfSSL/wolfssl/wolfcrypt/src/hash.c **** 
1095:Middlewares/Third_Party/wolfSSL_wolfSSL_wolfSSL/wolfssl/wolfcrypt/src/hash.c ****     #ifdef WOLFSSL_SMALL_STACK
1096:Middlewares/Third_Party/wolfSSL_wolfSSL_wolfSSL/wolfssl/wolfcrypt/src/hash.c ****         XFREE(sha224, NULL, DYNAMIC_TYPE_TMP_BUFFER);
1097:Middlewares/Third_Party/wolfSSL_wolfSSL_wolfSSL/wolfssl/wolfcrypt/src/hash.c ****     #endif
1098:Middlewares/Third_Party/wolfSSL_wolfSSL_wolfSSL/wolfssl/wolfcrypt/src/hash.c **** 
1099:Middlewares/Third_Party/wolfSSL_wolfSSL_wolfSSL/wolfssl/wolfcrypt/src/hash.c ****     return ret;
1100:Middlewares/Third_Party/wolfSSL_wolfSSL_wolfSSL/wolfssl/wolfcrypt/src/hash.c **** }
1101:Middlewares/Third_Party/wolfSSL_wolfSSL_wolfSSL/wolfssl/wolfcrypt/src/hash.c **** #endif /* WOLFSSL_SHA224 */
1102:Middlewares/Third_Party/wolfSSL_wolfSSL_wolfSSL/wolfssl/wolfcrypt/src/hash.c **** 
1103:Middlewares/Third_Party/wolfSSL_wolfSSL_wolfSSL/wolfssl/wolfcrypt/src/hash.c **** #if !defined(NO_SHA256)
1104:Middlewares/Third_Party/wolfSSL_wolfSSL_wolfSSL/wolfssl/wolfcrypt/src/hash.c ****     int wc_Sha256Hash(const byte* data, word32 len, byte* hash)
1105:Middlewares/Third_Party/wolfSSL_wolfSSL_wolfSSL/wolfssl/wolfcrypt/src/hash.c ****     {
 699              		.loc 1 1105 5 is_stmt 1 view -0
 700              		.cfi_startproc
 701              		@ args = 0, pretend = 0, frame = 0
 702              		@ frame_needed = 0, uses_anonymous_args = 0
 703              		.loc 1 1105 5 is_stmt 0 view .LVU136
 704 0000 2DE9F041 		push	{r4, r5, r6, r7, r8, lr}
 705              	.LCFI13:
 706              		.cfi_def_cfa_offset 24
 707              		.cfi_offset 4, -24
 708              		.cfi_offset 5, -20
 709              		.cfi_offset 6, -16
 710              		.cfi_offset 7, -12
 711              		.cfi_offset 8, -8
 712              		.cfi_offset 14, -4
 713 0004 0546     		mov	r5, r0
 714 0006 0E46     		mov	r6, r1
 715 0008 1746     		mov	r7, r2
1106:Middlewares/Third_Party/wolfSSL_wolfSSL_wolfSSL/wolfssl/wolfcrypt/src/hash.c ****         int ret = 0;
 716              		.loc 1 1106 9 is_stmt 1 view .LVU137
 717              	.LVL71:
1107:Middlewares/Third_Party/wolfSSL_wolfSSL_wolfSSL/wolfssl/wolfcrypt/src/hash.c ****     #ifdef WOLFSSL_SMALL_STACK
1108:Middlewares/Third_Party/wolfSSL_wolfSSL_wolfSSL/wolfssl/wolfcrypt/src/hash.c ****         wc_Sha256* sha256;
 718              		.loc 1 1108 9 view .LVU138
1109:Middlewares/Third_Party/wolfSSL_wolfSSL_wolfSSL/wolfssl/wolfcrypt/src/hash.c ****     #else
1110:Middlewares/Third_Party/wolfSSL_wolfSSL_wolfSSL/wolfssl/wolfcrypt/src/hash.c ****         wc_Sha256 sha256[1];
1111:Middlewares/Third_Party/wolfSSL_wolfSSL_wolfSSL/wolfssl/wolfcrypt/src/hash.c ****     #endif
1112:Middlewares/Third_Party/wolfSSL_wolfSSL_wolfSSL/wolfssl/wolfcrypt/src/hash.c ****         int devId = INVALID_DEVID;
 719              		.loc 1 1112 9 view .LVU139
1113:Middlewares/Third_Party/wolfSSL_wolfSSL_wolfSSL/wolfssl/wolfcrypt/src/hash.c **** 
1114:Middlewares/Third_Party/wolfSSL_wolfSSL_wolfSSL/wolfssl/wolfcrypt/src/hash.c ****     #ifdef WOLFSSL_SMALL_STACK
1115:Middlewares/Third_Party/wolfSSL_wolfSSL_wolfSSL/wolfssl/wolfcrypt/src/hash.c ****         sha256 = (wc_Sha256*)XMALLOC(sizeof(wc_Sha256), NULL,
 720              		.loc 1 1115 9 view .LVU140
 721              		.loc 1 1115 30 is_stmt 0 view .LVU141
 722 000a 7020     		movs	r0, #112
 723              	.LVL72:
 724              		.loc 1 1115 30 view .LVU142
 725 000c FFF7FEFF 		bl	pvPortMalloc
 726              	.LVL73:
1116:Middlewares/Third_Party/wolfSSL_wolfSSL_wolfSSL/wolfssl/wolfcrypt/src/hash.c ****             DYNAMIC_TYPE_TMP_BUFFER);
1117:Middlewares/Third_Party/wolfSSL_wolfSSL_wolfSSL/wolfssl/wolfcrypt/src/hash.c ****         if (sha256 == NULL)
 727              		.loc 1 1117 9 is_stmt 1 view .LVU143
 728              		.loc 1 1117 12 is_stmt 0 view .LVU144
ARM GAS  /tmp/ccIUkCMh.s 			page 34


 729 0010 F0B1     		cbz	r0, .L81
 730 0012 0446     		mov	r4, r0
1118:Middlewares/Third_Party/wolfSSL_wolfSSL_wolfSSL/wolfssl/wolfcrypt/src/hash.c ****             return MEMORY_E;
1119:Middlewares/Third_Party/wolfSSL_wolfSSL_wolfSSL/wolfssl/wolfcrypt/src/hash.c ****     #endif
1120:Middlewares/Third_Party/wolfSSL_wolfSSL_wolfSSL/wolfssl/wolfcrypt/src/hash.c **** 
1121:Middlewares/Third_Party/wolfSSL_wolfSSL_wolfSSL/wolfssl/wolfcrypt/src/hash.c ****     #ifdef WOLF_CRYPTO_CB
1122:Middlewares/Third_Party/wolfSSL_wolfSSL_wolfSSL/wolfssl/wolfcrypt/src/hash.c ****         /* only use devId if its not an empty hash */
1123:Middlewares/Third_Party/wolfSSL_wolfSSL_wolfSSL/wolfssl/wolfcrypt/src/hash.c ****         if (data != NULL && len > 0)
1124:Middlewares/Third_Party/wolfSSL_wolfSSL_wolfSSL/wolfssl/wolfcrypt/src/hash.c ****             devId = wc_CryptoCb_GetDevIdAtIndex(0);
1125:Middlewares/Third_Party/wolfSSL_wolfSSL_wolfSSL/wolfssl/wolfcrypt/src/hash.c ****     #endif
1126:Middlewares/Third_Party/wolfSSL_wolfSSL_wolfSSL/wolfssl/wolfcrypt/src/hash.c **** 
1127:Middlewares/Third_Party/wolfSSL_wolfSSL_wolfSSL/wolfssl/wolfcrypt/src/hash.c ****         if ((ret = wc_InitSha256_ex(sha256, NULL, devId)) != 0) {
 731              		.loc 1 1127 9 is_stmt 1 view .LVU145
 732              		.loc 1 1127 20 is_stmt 0 view .LVU146
 733 0014 6FF00102 		mvn	r2, #1
 734 0018 0021     		movs	r1, #0
 735 001a FFF7FEFF 		bl	wc_InitSha256_ex
 736              	.LVL74:
 737              		.loc 1 1127 12 view .LVU147
 738 001e 8046     		mov	r8, r0
 739 0020 28B1     		cbz	r0, .L83
 740              	.LVL75:
 741              	.L79:
1128:Middlewares/Third_Party/wolfSSL_wolfSSL_wolfSSL/wolfssl/wolfcrypt/src/hash.c ****             WOLFSSL_MSG("InitSha256 failed");
1129:Middlewares/Third_Party/wolfSSL_wolfSSL_wolfSSL/wolfssl/wolfcrypt/src/hash.c ****         }
1130:Middlewares/Third_Party/wolfSSL_wolfSSL_wolfSSL/wolfssl/wolfcrypt/src/hash.c ****         else {
1131:Middlewares/Third_Party/wolfSSL_wolfSSL_wolfSSL/wolfssl/wolfcrypt/src/hash.c ****             if ((ret = wc_Sha256Update(sha256, data, len)) != 0) {
1132:Middlewares/Third_Party/wolfSSL_wolfSSL_wolfSSL/wolfssl/wolfcrypt/src/hash.c ****                 WOLFSSL_MSG("Sha256Update failed");
1133:Middlewares/Third_Party/wolfSSL_wolfSSL_wolfSSL/wolfssl/wolfcrypt/src/hash.c ****             }
1134:Middlewares/Third_Party/wolfSSL_wolfSSL_wolfSSL/wolfssl/wolfcrypt/src/hash.c ****             else if ((ret = wc_Sha256Final(sha256, hash)) != 0) {
1135:Middlewares/Third_Party/wolfSSL_wolfSSL_wolfSSL/wolfssl/wolfcrypt/src/hash.c ****                 WOLFSSL_MSG("Sha256Final failed");
1136:Middlewares/Third_Party/wolfSSL_wolfSSL_wolfSSL/wolfssl/wolfcrypt/src/hash.c ****             }
1137:Middlewares/Third_Party/wolfSSL_wolfSSL_wolfSSL/wolfssl/wolfcrypt/src/hash.c ****             wc_Sha256Free(sha256);
1138:Middlewares/Third_Party/wolfSSL_wolfSSL_wolfSSL/wolfssl/wolfcrypt/src/hash.c ****         }
1139:Middlewares/Third_Party/wolfSSL_wolfSSL_wolfSSL/wolfssl/wolfcrypt/src/hash.c **** 
1140:Middlewares/Third_Party/wolfSSL_wolfSSL_wolfSSL/wolfssl/wolfcrypt/src/hash.c **** 
1141:Middlewares/Third_Party/wolfSSL_wolfSSL_wolfSSL/wolfssl/wolfcrypt/src/hash.c ****     #ifdef WOLFSSL_SMALL_STACK
1142:Middlewares/Third_Party/wolfSSL_wolfSSL_wolfSSL/wolfssl/wolfcrypt/src/hash.c ****         XFREE(sha256, NULL, DYNAMIC_TYPE_TMP_BUFFER);
 742              		.loc 1 1142 9 is_stmt 1 view .LVU148
 743 0022 2046     		mov	r0, r4
 744 0024 FFF7FEFF 		bl	vPortFree
 745              	.LVL76:
1143:Middlewares/Third_Party/wolfSSL_wolfSSL_wolfSSL/wolfssl/wolfcrypt/src/hash.c ****     #endif
1144:Middlewares/Third_Party/wolfSSL_wolfSSL_wolfSSL/wolfssl/wolfcrypt/src/hash.c **** 
1145:Middlewares/Third_Party/wolfSSL_wolfSSL_wolfSSL/wolfssl/wolfcrypt/src/hash.c ****         return ret;
 746              		.loc 1 1145 9 view .LVU149
 747              	.L77:
1146:Middlewares/Third_Party/wolfSSL_wolfSSL_wolfSSL/wolfssl/wolfcrypt/src/hash.c ****     }
 748              		.loc 1 1146 5 is_stmt 0 view .LVU150
 749 0028 4046     		mov	r0, r8
 750 002a BDE8F081 		pop	{r4, r5, r6, r7, r8, pc}
 751              	.LVL77:
 752              	.L83:
1131:Middlewares/Third_Party/wolfSSL_wolfSSL_wolfSSL/wolfssl/wolfcrypt/src/hash.c ****                 WOLFSSL_MSG("Sha256Update failed");
 753              		.loc 1 1131 13 is_stmt 1 view .LVU151
1131:Middlewares/Third_Party/wolfSSL_wolfSSL_wolfSSL/wolfssl/wolfcrypt/src/hash.c ****                 WOLFSSL_MSG("Sha256Update failed");
 754              		.loc 1 1131 24 is_stmt 0 view .LVU152
ARM GAS  /tmp/ccIUkCMh.s 			page 35


 755 002e 3246     		mov	r2, r6
 756 0030 2946     		mov	r1, r5
 757 0032 2046     		mov	r0, r4
 758              	.LVL78:
1131:Middlewares/Third_Party/wolfSSL_wolfSSL_wolfSSL/wolfssl/wolfcrypt/src/hash.c ****                 WOLFSSL_MSG("Sha256Update failed");
 759              		.loc 1 1131 24 view .LVU153
 760 0034 FFF7FEFF 		bl	wc_Sha256Update
 761              	.LVL79:
1131:Middlewares/Third_Party/wolfSSL_wolfSSL_wolfSSL/wolfssl/wolfcrypt/src/hash.c ****                 WOLFSSL_MSG("Sha256Update failed");
 762              		.loc 1 1131 16 view .LVU154
 763 0038 8046     		mov	r8, r0
 764 003a 18B1     		cbz	r0, .L84
 765              	.L80:
1135:Middlewares/Third_Party/wolfSSL_wolfSSL_wolfSSL/wolfssl/wolfcrypt/src/hash.c ****             }
 766              		.loc 1 1135 50 is_stmt 1 view .LVU155
1137:Middlewares/Third_Party/wolfSSL_wolfSSL_wolfSSL/wolfssl/wolfcrypt/src/hash.c ****         }
 767              		.loc 1 1137 13 view .LVU156
 768 003c 2046     		mov	r0, r4
 769              	.LVL80:
1137:Middlewares/Third_Party/wolfSSL_wolfSSL_wolfSSL/wolfssl/wolfcrypt/src/hash.c ****         }
 770              		.loc 1 1137 13 is_stmt 0 view .LVU157
 771 003e FFF7FEFF 		bl	wc_Sha256Free
 772              	.LVL81:
 773 0042 EEE7     		b	.L79
 774              	.LVL82:
 775              	.L84:
1134:Middlewares/Third_Party/wolfSSL_wolfSSL_wolfSSL/wolfssl/wolfcrypt/src/hash.c ****                 WOLFSSL_MSG("Sha256Final failed");
 776              		.loc 1 1134 18 is_stmt 1 view .LVU158
1134:Middlewares/Third_Party/wolfSSL_wolfSSL_wolfSSL/wolfssl/wolfcrypt/src/hash.c ****                 WOLFSSL_MSG("Sha256Final failed");
 777              		.loc 1 1134 29 is_stmt 0 view .LVU159
 778 0044 3946     		mov	r1, r7
 779 0046 2046     		mov	r0, r4
 780              	.LVL83:
1134:Middlewares/Third_Party/wolfSSL_wolfSSL_wolfSSL/wolfssl/wolfcrypt/src/hash.c ****                 WOLFSSL_MSG("Sha256Final failed");
 781              		.loc 1 1134 29 view .LVU160
 782 0048 FFF7FEFF 		bl	wc_Sha256Final
 783              	.LVL84:
 784 004c 8046     		mov	r8, r0
 785              	.LVL85:
1134:Middlewares/Third_Party/wolfSSL_wolfSSL_wolfSSL/wolfssl/wolfcrypt/src/hash.c ****                 WOLFSSL_MSG("Sha256Final failed");
 786              		.loc 1 1134 29 view .LVU161
 787 004e F5E7     		b	.L80
 788              	.LVL86:
 789              	.L81:
1118:Middlewares/Third_Party/wolfSSL_wolfSSL_wolfSSL/wolfssl/wolfcrypt/src/hash.c ****     #endif
 790              		.loc 1 1118 20 view .LVU162
 791 0050 6FF07C08 		mvn	r8, #124
 792 0054 E8E7     		b	.L77
 793              		.cfi_endproc
 794              	.LFE186:
 796              		.section	.text.wc_Hash,"ax",%progbits
 797              		.align	1
 798              		.global	wc_Hash
 799              		.syntax unified
 800              		.thumb
 801              		.thumb_func
 802              		.fpu fpv4-sp-d16
ARM GAS  /tmp/ccIUkCMh.s 			page 36


 804              	wc_Hash:
 805              	.LVL87:
 806              	.LFB180:
 452:Middlewares/Third_Party/wolfSSL_wolfSSL_wolfSSL/wolfssl/wolfcrypt/src/hash.c ****     int ret = HASH_TYPE_E; /* Default to hash type error */
 807              		.loc 1 452 1 is_stmt 1 view -0
 808              		.cfi_startproc
 809              		@ args = 4, pretend = 0, frame = 0
 810              		@ frame_needed = 0, uses_anonymous_args = 0
 452:Middlewares/Third_Party/wolfSSL_wolfSSL_wolfSSL/wolfssl/wolfcrypt/src/hash.c ****     int ret = HASH_TYPE_E; /* Default to hash type error */
 811              		.loc 1 452 1 is_stmt 0 view .LVU164
 812 0000 F8B5     		push	{r3, r4, r5, r6, r7, lr}
 813              	.LCFI14:
 814              		.cfi_def_cfa_offset 24
 815              		.cfi_offset 3, -24
 816              		.cfi_offset 4, -20
 817              		.cfi_offset 5, -16
 818              		.cfi_offset 6, -12
 819              		.cfi_offset 7, -8
 820              		.cfi_offset 14, -4
 821 0002 0446     		mov	r4, r0
 822 0004 0D46     		mov	r5, r1
 823 0006 1646     		mov	r6, r2
 824 0008 1F46     		mov	r7, r3
 453:Middlewares/Third_Party/wolfSSL_wolfSSL_wolfSSL/wolfssl/wolfcrypt/src/hash.c ****     word32 dig_size;
 825              		.loc 1 453 5 is_stmt 1 view .LVU165
 826              	.LVL88:
 454:Middlewares/Third_Party/wolfSSL_wolfSSL_wolfSSL/wolfssl/wolfcrypt/src/hash.c **** 
 827              		.loc 1 454 5 view .LVU166
 457:Middlewares/Third_Party/wolfSSL_wolfSSL_wolfSSL/wolfssl/wolfcrypt/src/hash.c ****     if (hash_len < dig_size) {
 828              		.loc 1 457 5 view .LVU167
 457:Middlewares/Third_Party/wolfSSL_wolfSSL_wolfSSL/wolfssl/wolfcrypt/src/hash.c ****     if (hash_len < dig_size) {
 829              		.loc 1 457 16 is_stmt 0 view .LVU168
 830 000a FFF7FEFF 		bl	wc_HashGetDigestSize
 831              	.LVL89:
 458:Middlewares/Third_Party/wolfSSL_wolfSSL_wolfSSL/wolfssl/wolfcrypt/src/hash.c ****         return BUFFER_E;
 832              		.loc 1 458 5 is_stmt 1 view .LVU169
 458:Middlewares/Third_Party/wolfSSL_wolfSSL_wolfSSL/wolfssl/wolfcrypt/src/hash.c ****         return BUFFER_E;
 833              		.loc 1 458 8 is_stmt 0 view .LVU170
 834 000e 069B     		ldr	r3, [sp, #24]
 835 0010 9842     		cmp	r0, r3
 836 0012 16D8     		bhi	.L89
 463:Middlewares/Third_Party/wolfSSL_wolfSSL_wolfSSL/wolfssl/wolfcrypt/src/hash.c ****     (void)data_len;
 837              		.loc 1 463 5 is_stmt 1 view .LVU171
 464:Middlewares/Third_Party/wolfSSL_wolfSSL_wolfSSL/wolfssl/wolfcrypt/src/hash.c ****     (void)hash;
 838              		.loc 1 464 5 view .LVU172
 465:Middlewares/Third_Party/wolfSSL_wolfSSL_wolfSSL/wolfssl/wolfcrypt/src/hash.c ****     (void)hash_len;
 839              		.loc 1 465 5 view .LVU173
 466:Middlewares/Third_Party/wolfSSL_wolfSSL_wolfSSL/wolfssl/wolfcrypt/src/hash.c **** 
 840              		.loc 1 466 5 view .LVU174
 468:Middlewares/Third_Party/wolfSSL_wolfSSL_wolfSSL/wolfssl/wolfcrypt/src/hash.c ****     {
 841              		.loc 1 468 5 view .LVU175
 842 0014 062C     		cmp	r4, #6
 843 0016 0ED0     		beq	.L87
 844 0018 06D9     		bls	.L93
 845 001a 073C     		subs	r4, r4, #7
 846 001c E4B2     		uxtb	r4, r4
 847 001e 062C     		cmp	r4, #6
ARM GAS  /tmp/ccIUkCMh.s 			page 37


 848 0020 15D9     		bls	.L91
 537:Middlewares/Third_Party/wolfSSL_wolfSSL_wolfSSL/wolfssl/wolfcrypt/src/hash.c ****             break;
 849              		.loc 1 537 17 is_stmt 0 view .LVU176
 850 0022 6FF0AC00 		mvn	r0, #172
 851              	.LVL90:
 537:Middlewares/Third_Party/wolfSSL_wolfSSL_wolfSSL/wolfssl/wolfcrypt/src/hash.c ****             break;
 852              		.loc 1 537 17 view .LVU177
 853 0026 05E0     		b	.L85
 854              	.LVL91:
 855              	.L93:
 468:Middlewares/Third_Party/wolfSSL_wolfSSL_wolfSSL/wolfssl/wolfcrypt/src/hash.c ****     {
 856              		.loc 1 468 5 view .LVU178
 857 0028 033C     		subs	r4, r4, #3
 858 002a E4B2     		uxtb	r4, r4
 859 002c 022C     		cmp	r4, #2
 860 002e 0BD9     		bls	.L90
 537:Middlewares/Third_Party/wolfSSL_wolfSSL_wolfSSL/wolfssl/wolfcrypt/src/hash.c ****             break;
 861              		.loc 1 537 17 view .LVU179
 862 0030 6FF0AC00 		mvn	r0, #172
 863              	.LVL92:
 864              	.L85:
 541:Middlewares/Third_Party/wolfSSL_wolfSSL_wolfSSL/wolfssl/wolfcrypt/src/hash.c **** 
 865              		.loc 1 541 1 view .LVU180
 866 0034 F8BD     		pop	{r3, r4, r5, r6, r7, pc}
 867              	.LVL93:
 868              	.L87:
 487:Middlewares/Third_Party/wolfSSL_wolfSSL_wolfSSL/wolfssl/wolfcrypt/src/hash.c **** #endif
 869              		.loc 1 487 13 is_stmt 1 view .LVU181
 487:Middlewares/Third_Party/wolfSSL_wolfSSL_wolfSSL/wolfssl/wolfcrypt/src/hash.c **** #endif
 870              		.loc 1 487 19 is_stmt 0 view .LVU182
 871 0036 3A46     		mov	r2, r7
 872 0038 3146     		mov	r1, r6
 873 003a 2846     		mov	r0, r5
 874              	.LVL94:
 487:Middlewares/Third_Party/wolfSSL_wolfSSL_wolfSSL/wolfssl/wolfcrypt/src/hash.c **** #endif
 875              		.loc 1 487 19 view .LVU183
 876 003c FFF7FEFF 		bl	wc_Sha256Hash
 877              	.LVL95:
 489:Middlewares/Third_Party/wolfSSL_wolfSSL_wolfSSL/wolfssl/wolfcrypt/src/hash.c ****         case WC_HASH_TYPE_SHA384:
 878              		.loc 1 489 13 is_stmt 1 view .LVU184
 879 0040 F8E7     		b	.L85
 880              	.LVL96:
 881              	.L89:
 459:Middlewares/Third_Party/wolfSSL_wolfSSL_wolfSSL/wolfssl/wolfcrypt/src/hash.c ****     }
 882              		.loc 1 459 16 is_stmt 0 view .LVU185
 883 0042 6FF08300 		mvn	r0, #131
 884              	.LVL97:
 459:Middlewares/Third_Party/wolfSSL_wolfSSL_wolfSSL/wolfssl/wolfcrypt/src/hash.c ****     }
 885              		.loc 1 459 16 view .LVU186
 886 0046 F5E7     		b	.L85
 887              	.LVL98:
 888              	.L90:
 468:Middlewares/Third_Party/wolfSSL_wolfSSL_wolfSSL/wolfssl/wolfcrypt/src/hash.c ****     {
 889              		.loc 1 468 5 view .LVU187
 890 0048 6FF0E700 		mvn	r0, #231
 891              	.LVL99:
 468:Middlewares/Third_Party/wolfSSL_wolfSSL_wolfSSL/wolfssl/wolfcrypt/src/hash.c ****     {
ARM GAS  /tmp/ccIUkCMh.s 			page 38


 892              		.loc 1 468 5 view .LVU188
 893 004c F2E7     		b	.L85
 894              	.LVL100:
 895              	.L91:
 468:Middlewares/Third_Party/wolfSSL_wolfSSL_wolfSSL/wolfssl/wolfcrypt/src/hash.c ****     {
 896              		.loc 1 468 5 view .LVU189
 897 004e 6FF0E700 		mvn	r0, #231
 898              	.LVL101:
 468:Middlewares/Third_Party/wolfSSL_wolfSSL_wolfSSL/wolfssl/wolfcrypt/src/hash.c ****     {
 899              		.loc 1 468 5 view .LVU190
 900 0052 EFE7     		b	.L85
 901              		.cfi_endproc
 902              	.LFE180:
 904              		.section	.text.wc_PRF,"ax",%progbits
 905              		.align	1
 906              		.global	wc_PRF
 907              		.syntax unified
 908              		.thumb
 909              		.thumb_func
 910              		.fpu fpv4-sp-d16
 912              	wc_PRF:
 913              	.LVL102:
 914              	.LFB187:
1147:Middlewares/Third_Party/wolfSSL_wolfSSL_wolfSSL/wolfssl/wolfcrypt/src/hash.c **** #endif /* !NO_SHA256 */
1148:Middlewares/Third_Party/wolfSSL_wolfSSL_wolfSSL/wolfssl/wolfcrypt/src/hash.c **** 
1149:Middlewares/Third_Party/wolfSSL_wolfSSL_wolfSSL/wolfssl/wolfcrypt/src/hash.c **** #endif /* !defined(WOLFSSL_TI_HASH) */
1150:Middlewares/Third_Party/wolfSSL_wolfSSL_wolfSSL/wolfssl/wolfcrypt/src/hash.c **** 
1151:Middlewares/Third_Party/wolfSSL_wolfSSL_wolfSSL/wolfssl/wolfcrypt/src/hash.c **** 
1152:Middlewares/Third_Party/wolfSSL_wolfSSL_wolfSSL/wolfssl/wolfcrypt/src/hash.c **** #if defined(WOLFSSL_SHA512)
1153:Middlewares/Third_Party/wolfSSL_wolfSSL_wolfSSL/wolfssl/wolfcrypt/src/hash.c ****     int wc_Sha512Hash(const byte* data, word32 len, byte* hash)
1154:Middlewares/Third_Party/wolfSSL_wolfSSL_wolfSSL/wolfssl/wolfcrypt/src/hash.c ****     {
1155:Middlewares/Third_Party/wolfSSL_wolfSSL_wolfSSL/wolfssl/wolfcrypt/src/hash.c ****         int ret = 0;
1156:Middlewares/Third_Party/wolfSSL_wolfSSL_wolfSSL/wolfssl/wolfcrypt/src/hash.c ****     #ifdef WOLFSSL_SMALL_STACK
1157:Middlewares/Third_Party/wolfSSL_wolfSSL_wolfSSL/wolfssl/wolfcrypt/src/hash.c ****         wc_Sha512* sha512;
1158:Middlewares/Third_Party/wolfSSL_wolfSSL_wolfSSL/wolfssl/wolfcrypt/src/hash.c ****     #else
1159:Middlewares/Third_Party/wolfSSL_wolfSSL_wolfSSL/wolfssl/wolfcrypt/src/hash.c ****         wc_Sha512 sha512[1];
1160:Middlewares/Third_Party/wolfSSL_wolfSSL_wolfSSL/wolfssl/wolfcrypt/src/hash.c ****     #endif
1161:Middlewares/Third_Party/wolfSSL_wolfSSL_wolfSSL/wolfssl/wolfcrypt/src/hash.c **** 
1162:Middlewares/Third_Party/wolfSSL_wolfSSL_wolfSSL/wolfssl/wolfcrypt/src/hash.c ****     #ifdef WOLFSSL_SMALL_STACK
1163:Middlewares/Third_Party/wolfSSL_wolfSSL_wolfSSL/wolfssl/wolfcrypt/src/hash.c ****         sha512 = (wc_Sha512*)XMALLOC(sizeof(wc_Sha512), NULL,
1164:Middlewares/Third_Party/wolfSSL_wolfSSL_wolfSSL/wolfssl/wolfcrypt/src/hash.c ****             DYNAMIC_TYPE_TMP_BUFFER);
1165:Middlewares/Third_Party/wolfSSL_wolfSSL_wolfSSL/wolfssl/wolfcrypt/src/hash.c ****         if (sha512 == NULL)
1166:Middlewares/Third_Party/wolfSSL_wolfSSL_wolfSSL/wolfssl/wolfcrypt/src/hash.c ****             return MEMORY_E;
1167:Middlewares/Third_Party/wolfSSL_wolfSSL_wolfSSL/wolfssl/wolfcrypt/src/hash.c ****     #endif
1168:Middlewares/Third_Party/wolfSSL_wolfSSL_wolfSSL/wolfssl/wolfcrypt/src/hash.c **** 
1169:Middlewares/Third_Party/wolfSSL_wolfSSL_wolfSSL/wolfssl/wolfcrypt/src/hash.c ****         if ((ret = wc_InitSha512(sha512)) != 0) {
1170:Middlewares/Third_Party/wolfSSL_wolfSSL_wolfSSL/wolfssl/wolfcrypt/src/hash.c ****             WOLFSSL_MSG("InitSha512 failed");
1171:Middlewares/Third_Party/wolfSSL_wolfSSL_wolfSSL/wolfssl/wolfcrypt/src/hash.c ****         }
1172:Middlewares/Third_Party/wolfSSL_wolfSSL_wolfSSL/wolfssl/wolfcrypt/src/hash.c ****         else {
1173:Middlewares/Third_Party/wolfSSL_wolfSSL_wolfSSL/wolfssl/wolfcrypt/src/hash.c ****             if ((ret = wc_Sha512Update(sha512, data, len)) != 0) {
1174:Middlewares/Third_Party/wolfSSL_wolfSSL_wolfSSL/wolfssl/wolfcrypt/src/hash.c ****                 WOLFSSL_MSG("Sha512Update failed");
1175:Middlewares/Third_Party/wolfSSL_wolfSSL_wolfSSL/wolfssl/wolfcrypt/src/hash.c ****             }
1176:Middlewares/Third_Party/wolfSSL_wolfSSL_wolfSSL/wolfssl/wolfcrypt/src/hash.c ****             else if ((ret = wc_Sha512Final(sha512, hash)) != 0) {
1177:Middlewares/Third_Party/wolfSSL_wolfSSL_wolfSSL/wolfssl/wolfcrypt/src/hash.c ****                 WOLFSSL_MSG("Sha512Final failed");
1178:Middlewares/Third_Party/wolfSSL_wolfSSL_wolfSSL/wolfssl/wolfcrypt/src/hash.c ****             }
1179:Middlewares/Third_Party/wolfSSL_wolfSSL_wolfSSL/wolfssl/wolfcrypt/src/hash.c ****             wc_Sha512Free(sha512);
1180:Middlewares/Third_Party/wolfSSL_wolfSSL_wolfSSL/wolfssl/wolfcrypt/src/hash.c ****         }
ARM GAS  /tmp/ccIUkCMh.s 			page 39


1181:Middlewares/Third_Party/wolfSSL_wolfSSL_wolfSSL/wolfssl/wolfcrypt/src/hash.c **** 
1182:Middlewares/Third_Party/wolfSSL_wolfSSL_wolfSSL/wolfssl/wolfcrypt/src/hash.c ****     #ifdef WOLFSSL_SMALL_STACK
1183:Middlewares/Third_Party/wolfSSL_wolfSSL_wolfSSL/wolfssl/wolfcrypt/src/hash.c ****         XFREE(sha512, NULL, DYNAMIC_TYPE_TMP_BUFFER);
1184:Middlewares/Third_Party/wolfSSL_wolfSSL_wolfSSL/wolfssl/wolfcrypt/src/hash.c ****     #endif
1185:Middlewares/Third_Party/wolfSSL_wolfSSL_wolfSSL/wolfssl/wolfcrypt/src/hash.c **** 
1186:Middlewares/Third_Party/wolfSSL_wolfSSL_wolfSSL/wolfssl/wolfcrypt/src/hash.c ****         return ret;
1187:Middlewares/Third_Party/wolfSSL_wolfSSL_wolfSSL/wolfssl/wolfcrypt/src/hash.c ****     }
1188:Middlewares/Third_Party/wolfSSL_wolfSSL_wolfSSL/wolfssl/wolfcrypt/src/hash.c **** #endif /* WOLFSSL_SHA512 */
1189:Middlewares/Third_Party/wolfSSL_wolfSSL_wolfSSL/wolfssl/wolfcrypt/src/hash.c **** 
1190:Middlewares/Third_Party/wolfSSL_wolfSSL_wolfSSL/wolfssl/wolfcrypt/src/hash.c **** #if defined(WOLFSSL_SHA384)
1191:Middlewares/Third_Party/wolfSSL_wolfSSL_wolfSSL/wolfssl/wolfcrypt/src/hash.c ****     int wc_Sha384Hash(const byte* data, word32 len, byte* hash)
1192:Middlewares/Third_Party/wolfSSL_wolfSSL_wolfSSL/wolfssl/wolfcrypt/src/hash.c ****     {
1193:Middlewares/Third_Party/wolfSSL_wolfSSL_wolfSSL/wolfssl/wolfcrypt/src/hash.c ****         int ret = 0;
1194:Middlewares/Third_Party/wolfSSL_wolfSSL_wolfSSL/wolfssl/wolfcrypt/src/hash.c ****     #ifdef WOLFSSL_SMALL_STACK
1195:Middlewares/Third_Party/wolfSSL_wolfSSL_wolfSSL/wolfssl/wolfcrypt/src/hash.c ****         wc_Sha384* sha384;
1196:Middlewares/Third_Party/wolfSSL_wolfSSL_wolfSSL/wolfssl/wolfcrypt/src/hash.c ****     #else
1197:Middlewares/Third_Party/wolfSSL_wolfSSL_wolfSSL/wolfssl/wolfcrypt/src/hash.c ****         wc_Sha384 sha384[1];
1198:Middlewares/Third_Party/wolfSSL_wolfSSL_wolfSSL/wolfssl/wolfcrypt/src/hash.c ****     #endif
1199:Middlewares/Third_Party/wolfSSL_wolfSSL_wolfSSL/wolfssl/wolfcrypt/src/hash.c **** 
1200:Middlewares/Third_Party/wolfSSL_wolfSSL_wolfSSL/wolfssl/wolfcrypt/src/hash.c ****     #ifdef WOLFSSL_SMALL_STACK
1201:Middlewares/Third_Party/wolfSSL_wolfSSL_wolfSSL/wolfssl/wolfcrypt/src/hash.c ****         sha384 = (wc_Sha384*)XMALLOC(sizeof(wc_Sha384), NULL,
1202:Middlewares/Third_Party/wolfSSL_wolfSSL_wolfSSL/wolfssl/wolfcrypt/src/hash.c ****             DYNAMIC_TYPE_TMP_BUFFER);
1203:Middlewares/Third_Party/wolfSSL_wolfSSL_wolfSSL/wolfssl/wolfcrypt/src/hash.c ****         if (sha384 == NULL)
1204:Middlewares/Third_Party/wolfSSL_wolfSSL_wolfSSL/wolfssl/wolfcrypt/src/hash.c ****             return MEMORY_E;
1205:Middlewares/Third_Party/wolfSSL_wolfSSL_wolfSSL/wolfssl/wolfcrypt/src/hash.c ****     #endif
1206:Middlewares/Third_Party/wolfSSL_wolfSSL_wolfSSL/wolfssl/wolfcrypt/src/hash.c **** 
1207:Middlewares/Third_Party/wolfSSL_wolfSSL_wolfSSL/wolfssl/wolfcrypt/src/hash.c ****         if ((ret = wc_InitSha384(sha384)) != 0) {
1208:Middlewares/Third_Party/wolfSSL_wolfSSL_wolfSSL/wolfssl/wolfcrypt/src/hash.c ****             WOLFSSL_MSG("InitSha384 failed");
1209:Middlewares/Third_Party/wolfSSL_wolfSSL_wolfSSL/wolfssl/wolfcrypt/src/hash.c ****         }
1210:Middlewares/Third_Party/wolfSSL_wolfSSL_wolfSSL/wolfssl/wolfcrypt/src/hash.c ****         else {
1211:Middlewares/Third_Party/wolfSSL_wolfSSL_wolfSSL/wolfssl/wolfcrypt/src/hash.c ****             if ((ret = wc_Sha384Update(sha384, data, len)) != 0) {
1212:Middlewares/Third_Party/wolfSSL_wolfSSL_wolfSSL/wolfssl/wolfcrypt/src/hash.c ****                 WOLFSSL_MSG("Sha384Update failed");
1213:Middlewares/Third_Party/wolfSSL_wolfSSL_wolfSSL/wolfssl/wolfcrypt/src/hash.c ****             }
1214:Middlewares/Third_Party/wolfSSL_wolfSSL_wolfSSL/wolfssl/wolfcrypt/src/hash.c ****             else if ((ret = wc_Sha384Final(sha384, hash)) != 0) {
1215:Middlewares/Third_Party/wolfSSL_wolfSSL_wolfSSL/wolfssl/wolfcrypt/src/hash.c ****                 WOLFSSL_MSG("Sha384Final failed");
1216:Middlewares/Third_Party/wolfSSL_wolfSSL_wolfSSL/wolfssl/wolfcrypt/src/hash.c ****             }
1217:Middlewares/Third_Party/wolfSSL_wolfSSL_wolfSSL/wolfssl/wolfcrypt/src/hash.c ****             wc_Sha384Free(sha384);
1218:Middlewares/Third_Party/wolfSSL_wolfSSL_wolfSSL/wolfssl/wolfcrypt/src/hash.c ****         }
1219:Middlewares/Third_Party/wolfSSL_wolfSSL_wolfSSL/wolfssl/wolfcrypt/src/hash.c **** 
1220:Middlewares/Third_Party/wolfSSL_wolfSSL_wolfSSL/wolfssl/wolfcrypt/src/hash.c ****     #ifdef WOLFSSL_SMALL_STACK
1221:Middlewares/Third_Party/wolfSSL_wolfSSL_wolfSSL/wolfssl/wolfcrypt/src/hash.c ****         XFREE(sha384, NULL, DYNAMIC_TYPE_TMP_BUFFER);
1222:Middlewares/Third_Party/wolfSSL_wolfSSL_wolfSSL/wolfssl/wolfcrypt/src/hash.c ****     #endif
1223:Middlewares/Third_Party/wolfSSL_wolfSSL_wolfSSL/wolfssl/wolfcrypt/src/hash.c **** 
1224:Middlewares/Third_Party/wolfSSL_wolfSSL_wolfSSL/wolfssl/wolfcrypt/src/hash.c ****         return ret;
1225:Middlewares/Third_Party/wolfSSL_wolfSSL_wolfSSL/wolfssl/wolfcrypt/src/hash.c ****     }
1226:Middlewares/Third_Party/wolfSSL_wolfSSL_wolfSSL/wolfssl/wolfcrypt/src/hash.c **** #endif /* WOLFSSL_SHA384 */
1227:Middlewares/Third_Party/wolfSSL_wolfSSL_wolfSSL/wolfssl/wolfcrypt/src/hash.c **** 
1228:Middlewares/Third_Party/wolfSSL_wolfSSL_wolfSSL/wolfssl/wolfcrypt/src/hash.c **** #if defined(WOLFSSL_SHA3)
1229:Middlewares/Third_Party/wolfSSL_wolfSSL_wolfSSL/wolfssl/wolfcrypt/src/hash.c **** #if !defined(WOLFSSL_NOSHA3_224)
1230:Middlewares/Third_Party/wolfSSL_wolfSSL_wolfSSL/wolfssl/wolfcrypt/src/hash.c ****     int wc_Sha3_224Hash(const byte* data, word32 len, byte* hash)
1231:Middlewares/Third_Party/wolfSSL_wolfSSL_wolfSSL/wolfssl/wolfcrypt/src/hash.c ****     {
1232:Middlewares/Third_Party/wolfSSL_wolfSSL_wolfSSL/wolfssl/wolfcrypt/src/hash.c ****         int ret = 0;
1233:Middlewares/Third_Party/wolfSSL_wolfSSL_wolfSSL/wolfssl/wolfcrypt/src/hash.c ****     #ifdef WOLFSSL_SMALL_STACK
1234:Middlewares/Third_Party/wolfSSL_wolfSSL_wolfSSL/wolfssl/wolfcrypt/src/hash.c ****         wc_Sha3* sha3;
1235:Middlewares/Third_Party/wolfSSL_wolfSSL_wolfSSL/wolfssl/wolfcrypt/src/hash.c ****     #else
1236:Middlewares/Third_Party/wolfSSL_wolfSSL_wolfSSL/wolfssl/wolfcrypt/src/hash.c ****         wc_Sha3 sha3[1];
1237:Middlewares/Third_Party/wolfSSL_wolfSSL_wolfSSL/wolfssl/wolfcrypt/src/hash.c ****     #endif
ARM GAS  /tmp/ccIUkCMh.s 			page 40


1238:Middlewares/Third_Party/wolfSSL_wolfSSL_wolfSSL/wolfssl/wolfcrypt/src/hash.c **** 
1239:Middlewares/Third_Party/wolfSSL_wolfSSL_wolfSSL/wolfssl/wolfcrypt/src/hash.c ****     #ifdef WOLFSSL_SMALL_STACK
1240:Middlewares/Third_Party/wolfSSL_wolfSSL_wolfSSL/wolfssl/wolfcrypt/src/hash.c ****         sha3 = (wc_Sha3*)XMALLOC(sizeof(wc_Sha3), NULL,
1241:Middlewares/Third_Party/wolfSSL_wolfSSL_wolfSSL/wolfssl/wolfcrypt/src/hash.c ****             DYNAMIC_TYPE_TMP_BUFFER);
1242:Middlewares/Third_Party/wolfSSL_wolfSSL_wolfSSL/wolfssl/wolfcrypt/src/hash.c ****         if (sha3 == NULL)
1243:Middlewares/Third_Party/wolfSSL_wolfSSL_wolfSSL/wolfssl/wolfcrypt/src/hash.c ****             return MEMORY_E;
1244:Middlewares/Third_Party/wolfSSL_wolfSSL_wolfSSL/wolfssl/wolfcrypt/src/hash.c ****     #endif
1245:Middlewares/Third_Party/wolfSSL_wolfSSL_wolfSSL/wolfssl/wolfcrypt/src/hash.c **** 
1246:Middlewares/Third_Party/wolfSSL_wolfSSL_wolfSSL/wolfssl/wolfcrypt/src/hash.c ****         if ((ret = wc_InitSha3_224(sha3, NULL, INVALID_DEVID)) != 0) {
1247:Middlewares/Third_Party/wolfSSL_wolfSSL_wolfSSL/wolfssl/wolfcrypt/src/hash.c ****             WOLFSSL_MSG("InitSha3_224 failed");
1248:Middlewares/Third_Party/wolfSSL_wolfSSL_wolfSSL/wolfssl/wolfcrypt/src/hash.c ****         }
1249:Middlewares/Third_Party/wolfSSL_wolfSSL_wolfSSL/wolfssl/wolfcrypt/src/hash.c ****         else {
1250:Middlewares/Third_Party/wolfSSL_wolfSSL_wolfSSL/wolfssl/wolfcrypt/src/hash.c ****             if ((ret = wc_Sha3_224_Update(sha3, data, len)) != 0) {
1251:Middlewares/Third_Party/wolfSSL_wolfSSL_wolfSSL/wolfssl/wolfcrypt/src/hash.c ****                 WOLFSSL_MSG("Sha3_224_Update failed");
1252:Middlewares/Third_Party/wolfSSL_wolfSSL_wolfSSL/wolfssl/wolfcrypt/src/hash.c ****             }
1253:Middlewares/Third_Party/wolfSSL_wolfSSL_wolfSSL/wolfssl/wolfcrypt/src/hash.c ****             else if ((ret = wc_Sha3_224_Final(sha3, hash)) != 0) {
1254:Middlewares/Third_Party/wolfSSL_wolfSSL_wolfSSL/wolfssl/wolfcrypt/src/hash.c ****                 WOLFSSL_MSG("Sha3_224_Final failed");
1255:Middlewares/Third_Party/wolfSSL_wolfSSL_wolfSSL/wolfssl/wolfcrypt/src/hash.c ****             }
1256:Middlewares/Third_Party/wolfSSL_wolfSSL_wolfSSL/wolfssl/wolfcrypt/src/hash.c ****             wc_Sha3_224_Free(sha3);
1257:Middlewares/Third_Party/wolfSSL_wolfSSL_wolfSSL/wolfssl/wolfcrypt/src/hash.c ****         }
1258:Middlewares/Third_Party/wolfSSL_wolfSSL_wolfSSL/wolfssl/wolfcrypt/src/hash.c **** 
1259:Middlewares/Third_Party/wolfSSL_wolfSSL_wolfSSL/wolfssl/wolfcrypt/src/hash.c ****     #ifdef WOLFSSL_SMALL_STACK
1260:Middlewares/Third_Party/wolfSSL_wolfSSL_wolfSSL/wolfssl/wolfcrypt/src/hash.c ****         XFREE(sha3, NULL, DYNAMIC_TYPE_TMP_BUFFER);
1261:Middlewares/Third_Party/wolfSSL_wolfSSL_wolfSSL/wolfssl/wolfcrypt/src/hash.c ****     #endif
1262:Middlewares/Third_Party/wolfSSL_wolfSSL_wolfSSL/wolfssl/wolfcrypt/src/hash.c **** 
1263:Middlewares/Third_Party/wolfSSL_wolfSSL_wolfSSL/wolfssl/wolfcrypt/src/hash.c ****         return ret;
1264:Middlewares/Third_Party/wolfSSL_wolfSSL_wolfSSL/wolfssl/wolfcrypt/src/hash.c ****     }
1265:Middlewares/Third_Party/wolfSSL_wolfSSL_wolfSSL/wolfssl/wolfcrypt/src/hash.c **** #endif /* !WOLFSSL_NOSHA3_224 */
1266:Middlewares/Third_Party/wolfSSL_wolfSSL_wolfSSL/wolfssl/wolfcrypt/src/hash.c **** 
1267:Middlewares/Third_Party/wolfSSL_wolfSSL_wolfSSL/wolfssl/wolfcrypt/src/hash.c **** #if !defined(WOLFSSL_NOSHA3_256)
1268:Middlewares/Third_Party/wolfSSL_wolfSSL_wolfSSL/wolfssl/wolfcrypt/src/hash.c ****     int wc_Sha3_256Hash(const byte* data, word32 len, byte* hash)
1269:Middlewares/Third_Party/wolfSSL_wolfSSL_wolfSSL/wolfssl/wolfcrypt/src/hash.c ****     {
1270:Middlewares/Third_Party/wolfSSL_wolfSSL_wolfSSL/wolfssl/wolfcrypt/src/hash.c ****         int ret = 0;
1271:Middlewares/Third_Party/wolfSSL_wolfSSL_wolfSSL/wolfssl/wolfcrypt/src/hash.c ****     #ifdef WOLFSSL_SMALL_STACK
1272:Middlewares/Third_Party/wolfSSL_wolfSSL_wolfSSL/wolfssl/wolfcrypt/src/hash.c ****         wc_Sha3* sha3;
1273:Middlewares/Third_Party/wolfSSL_wolfSSL_wolfSSL/wolfssl/wolfcrypt/src/hash.c ****     #else
1274:Middlewares/Third_Party/wolfSSL_wolfSSL_wolfSSL/wolfssl/wolfcrypt/src/hash.c ****         wc_Sha3 sha3[1];
1275:Middlewares/Third_Party/wolfSSL_wolfSSL_wolfSSL/wolfssl/wolfcrypt/src/hash.c ****     #endif
1276:Middlewares/Third_Party/wolfSSL_wolfSSL_wolfSSL/wolfssl/wolfcrypt/src/hash.c **** 
1277:Middlewares/Third_Party/wolfSSL_wolfSSL_wolfSSL/wolfssl/wolfcrypt/src/hash.c ****     #ifdef WOLFSSL_SMALL_STACK
1278:Middlewares/Third_Party/wolfSSL_wolfSSL_wolfSSL/wolfssl/wolfcrypt/src/hash.c ****         sha3 = (wc_Sha3*)XMALLOC(sizeof(wc_Sha3), NULL,
1279:Middlewares/Third_Party/wolfSSL_wolfSSL_wolfSSL/wolfssl/wolfcrypt/src/hash.c ****             DYNAMIC_TYPE_TMP_BUFFER);
1280:Middlewares/Third_Party/wolfSSL_wolfSSL_wolfSSL/wolfssl/wolfcrypt/src/hash.c ****         if (sha3 == NULL)
1281:Middlewares/Third_Party/wolfSSL_wolfSSL_wolfSSL/wolfssl/wolfcrypt/src/hash.c ****             return MEMORY_E;
1282:Middlewares/Third_Party/wolfSSL_wolfSSL_wolfSSL/wolfssl/wolfcrypt/src/hash.c ****     #endif
1283:Middlewares/Third_Party/wolfSSL_wolfSSL_wolfSSL/wolfssl/wolfcrypt/src/hash.c **** 
1284:Middlewares/Third_Party/wolfSSL_wolfSSL_wolfSSL/wolfssl/wolfcrypt/src/hash.c ****         if ((ret = wc_InitSha3_256(sha3, NULL, INVALID_DEVID)) != 0) {
1285:Middlewares/Third_Party/wolfSSL_wolfSSL_wolfSSL/wolfssl/wolfcrypt/src/hash.c ****             WOLFSSL_MSG("InitSha3_256 failed");
1286:Middlewares/Third_Party/wolfSSL_wolfSSL_wolfSSL/wolfssl/wolfcrypt/src/hash.c ****         }
1287:Middlewares/Third_Party/wolfSSL_wolfSSL_wolfSSL/wolfssl/wolfcrypt/src/hash.c ****         else {
1288:Middlewares/Third_Party/wolfSSL_wolfSSL_wolfSSL/wolfssl/wolfcrypt/src/hash.c ****             if ((ret = wc_Sha3_256_Update(sha3, data, len)) != 0) {
1289:Middlewares/Third_Party/wolfSSL_wolfSSL_wolfSSL/wolfssl/wolfcrypt/src/hash.c ****                 WOLFSSL_MSG("Sha3_256_Update failed");
1290:Middlewares/Third_Party/wolfSSL_wolfSSL_wolfSSL/wolfssl/wolfcrypt/src/hash.c ****             }
1291:Middlewares/Third_Party/wolfSSL_wolfSSL_wolfSSL/wolfssl/wolfcrypt/src/hash.c ****             else if ((ret = wc_Sha3_256_Final(sha3, hash)) != 0) {
1292:Middlewares/Third_Party/wolfSSL_wolfSSL_wolfSSL/wolfssl/wolfcrypt/src/hash.c ****                 WOLFSSL_MSG("Sha3_256_Final failed");
1293:Middlewares/Third_Party/wolfSSL_wolfSSL_wolfSSL/wolfssl/wolfcrypt/src/hash.c ****             }
1294:Middlewares/Third_Party/wolfSSL_wolfSSL_wolfSSL/wolfssl/wolfcrypt/src/hash.c ****             wc_Sha3_256_Free(sha3);
ARM GAS  /tmp/ccIUkCMh.s 			page 41


1295:Middlewares/Third_Party/wolfSSL_wolfSSL_wolfSSL/wolfssl/wolfcrypt/src/hash.c ****         }
1296:Middlewares/Third_Party/wolfSSL_wolfSSL_wolfSSL/wolfssl/wolfcrypt/src/hash.c **** 
1297:Middlewares/Third_Party/wolfSSL_wolfSSL_wolfSSL/wolfssl/wolfcrypt/src/hash.c ****     #ifdef WOLFSSL_SMALL_STACK
1298:Middlewares/Third_Party/wolfSSL_wolfSSL_wolfSSL/wolfssl/wolfcrypt/src/hash.c ****         XFREE(sha3, NULL, DYNAMIC_TYPE_TMP_BUFFER);
1299:Middlewares/Third_Party/wolfSSL_wolfSSL_wolfSSL/wolfssl/wolfcrypt/src/hash.c ****     #endif
1300:Middlewares/Third_Party/wolfSSL_wolfSSL_wolfSSL/wolfssl/wolfcrypt/src/hash.c **** 
1301:Middlewares/Third_Party/wolfSSL_wolfSSL_wolfSSL/wolfssl/wolfcrypt/src/hash.c ****         return ret;
1302:Middlewares/Third_Party/wolfSSL_wolfSSL_wolfSSL/wolfssl/wolfcrypt/src/hash.c ****     }
1303:Middlewares/Third_Party/wolfSSL_wolfSSL_wolfSSL/wolfssl/wolfcrypt/src/hash.c **** #endif /* !WOLFSSL_NOSHA3_256 */
1304:Middlewares/Third_Party/wolfSSL_wolfSSL_wolfSSL/wolfssl/wolfcrypt/src/hash.c **** 
1305:Middlewares/Third_Party/wolfSSL_wolfSSL_wolfSSL/wolfssl/wolfcrypt/src/hash.c **** #if !defined(WOLFSSL_NOSHA3_384)
1306:Middlewares/Third_Party/wolfSSL_wolfSSL_wolfSSL/wolfssl/wolfcrypt/src/hash.c ****     int wc_Sha3_384Hash(const byte* data, word32 len, byte* hash)
1307:Middlewares/Third_Party/wolfSSL_wolfSSL_wolfSSL/wolfssl/wolfcrypt/src/hash.c ****     {
1308:Middlewares/Third_Party/wolfSSL_wolfSSL_wolfSSL/wolfssl/wolfcrypt/src/hash.c ****         int ret = 0;
1309:Middlewares/Third_Party/wolfSSL_wolfSSL_wolfSSL/wolfssl/wolfcrypt/src/hash.c ****     #ifdef WOLFSSL_SMALL_STACK
1310:Middlewares/Third_Party/wolfSSL_wolfSSL_wolfSSL/wolfssl/wolfcrypt/src/hash.c ****         wc_Sha3* sha3;
1311:Middlewares/Third_Party/wolfSSL_wolfSSL_wolfSSL/wolfssl/wolfcrypt/src/hash.c ****     #else
1312:Middlewares/Third_Party/wolfSSL_wolfSSL_wolfSSL/wolfssl/wolfcrypt/src/hash.c ****         wc_Sha3 sha3[1];
1313:Middlewares/Third_Party/wolfSSL_wolfSSL_wolfSSL/wolfssl/wolfcrypt/src/hash.c ****     #endif
1314:Middlewares/Third_Party/wolfSSL_wolfSSL_wolfSSL/wolfssl/wolfcrypt/src/hash.c **** 
1315:Middlewares/Third_Party/wolfSSL_wolfSSL_wolfSSL/wolfssl/wolfcrypt/src/hash.c ****     #ifdef WOLFSSL_SMALL_STACK
1316:Middlewares/Third_Party/wolfSSL_wolfSSL_wolfSSL/wolfssl/wolfcrypt/src/hash.c ****         sha3 = (wc_Sha3*)XMALLOC(sizeof(wc_Sha3), NULL,
1317:Middlewares/Third_Party/wolfSSL_wolfSSL_wolfSSL/wolfssl/wolfcrypt/src/hash.c ****             DYNAMIC_TYPE_TMP_BUFFER);
1318:Middlewares/Third_Party/wolfSSL_wolfSSL_wolfSSL/wolfssl/wolfcrypt/src/hash.c ****         if (sha3 == NULL)
1319:Middlewares/Third_Party/wolfSSL_wolfSSL_wolfSSL/wolfssl/wolfcrypt/src/hash.c ****             return MEMORY_E;
1320:Middlewares/Third_Party/wolfSSL_wolfSSL_wolfSSL/wolfssl/wolfcrypt/src/hash.c ****     #endif
1321:Middlewares/Third_Party/wolfSSL_wolfSSL_wolfSSL/wolfssl/wolfcrypt/src/hash.c **** 
1322:Middlewares/Third_Party/wolfSSL_wolfSSL_wolfSSL/wolfssl/wolfcrypt/src/hash.c ****         if ((ret = wc_InitSha3_384(sha3, NULL, INVALID_DEVID)) != 0) {
1323:Middlewares/Third_Party/wolfSSL_wolfSSL_wolfSSL/wolfssl/wolfcrypt/src/hash.c ****             WOLFSSL_MSG("InitSha3_384 failed");
1324:Middlewares/Third_Party/wolfSSL_wolfSSL_wolfSSL/wolfssl/wolfcrypt/src/hash.c ****         }
1325:Middlewares/Third_Party/wolfSSL_wolfSSL_wolfSSL/wolfssl/wolfcrypt/src/hash.c ****         else {
1326:Middlewares/Third_Party/wolfSSL_wolfSSL_wolfSSL/wolfssl/wolfcrypt/src/hash.c ****             if ((ret = wc_Sha3_384_Update(sha3, data, len)) != 0) {
1327:Middlewares/Third_Party/wolfSSL_wolfSSL_wolfSSL/wolfssl/wolfcrypt/src/hash.c ****                 WOLFSSL_MSG("Sha3_384_Update failed");
1328:Middlewares/Third_Party/wolfSSL_wolfSSL_wolfSSL/wolfssl/wolfcrypt/src/hash.c ****             }
1329:Middlewares/Third_Party/wolfSSL_wolfSSL_wolfSSL/wolfssl/wolfcrypt/src/hash.c ****             else if ((ret = wc_Sha3_384_Final(sha3, hash)) != 0) {
1330:Middlewares/Third_Party/wolfSSL_wolfSSL_wolfSSL/wolfssl/wolfcrypt/src/hash.c ****                 WOLFSSL_MSG("Sha3_384_Final failed");
1331:Middlewares/Third_Party/wolfSSL_wolfSSL_wolfSSL/wolfssl/wolfcrypt/src/hash.c ****             }
1332:Middlewares/Third_Party/wolfSSL_wolfSSL_wolfSSL/wolfssl/wolfcrypt/src/hash.c ****             wc_Sha3_384_Free(sha3);
1333:Middlewares/Third_Party/wolfSSL_wolfSSL_wolfSSL/wolfssl/wolfcrypt/src/hash.c ****         }
1334:Middlewares/Third_Party/wolfSSL_wolfSSL_wolfSSL/wolfssl/wolfcrypt/src/hash.c **** 
1335:Middlewares/Third_Party/wolfSSL_wolfSSL_wolfSSL/wolfssl/wolfcrypt/src/hash.c ****     #ifdef WOLFSSL_SMALL_STACK
1336:Middlewares/Third_Party/wolfSSL_wolfSSL_wolfSSL/wolfssl/wolfcrypt/src/hash.c ****         XFREE(sha3, NULL, DYNAMIC_TYPE_TMP_BUFFER);
1337:Middlewares/Third_Party/wolfSSL_wolfSSL_wolfSSL/wolfssl/wolfcrypt/src/hash.c ****     #endif
1338:Middlewares/Third_Party/wolfSSL_wolfSSL_wolfSSL/wolfssl/wolfcrypt/src/hash.c **** 
1339:Middlewares/Third_Party/wolfSSL_wolfSSL_wolfSSL/wolfssl/wolfcrypt/src/hash.c ****         return ret;
1340:Middlewares/Third_Party/wolfSSL_wolfSSL_wolfSSL/wolfssl/wolfcrypt/src/hash.c ****     }
1341:Middlewares/Third_Party/wolfSSL_wolfSSL_wolfSSL/wolfssl/wolfcrypt/src/hash.c **** #endif /* !WOLFSSL_NOSHA3_384 */
1342:Middlewares/Third_Party/wolfSSL_wolfSSL_wolfSSL/wolfssl/wolfcrypt/src/hash.c **** 
1343:Middlewares/Third_Party/wolfSSL_wolfSSL_wolfSSL/wolfssl/wolfcrypt/src/hash.c **** #if !defined(WOLFSSL_NOSHA3_512)
1344:Middlewares/Third_Party/wolfSSL_wolfSSL_wolfSSL/wolfssl/wolfcrypt/src/hash.c ****     int wc_Sha3_512Hash(const byte* data, word32 len, byte* hash)
1345:Middlewares/Third_Party/wolfSSL_wolfSSL_wolfSSL/wolfssl/wolfcrypt/src/hash.c ****     {
1346:Middlewares/Third_Party/wolfSSL_wolfSSL_wolfSSL/wolfssl/wolfcrypt/src/hash.c ****         int ret = 0;
1347:Middlewares/Third_Party/wolfSSL_wolfSSL_wolfSSL/wolfssl/wolfcrypt/src/hash.c ****     #ifdef WOLFSSL_SMALL_STACK
1348:Middlewares/Third_Party/wolfSSL_wolfSSL_wolfSSL/wolfssl/wolfcrypt/src/hash.c ****         wc_Sha3* sha3;
1349:Middlewares/Third_Party/wolfSSL_wolfSSL_wolfSSL/wolfssl/wolfcrypt/src/hash.c ****     #else
1350:Middlewares/Third_Party/wolfSSL_wolfSSL_wolfSSL/wolfssl/wolfcrypt/src/hash.c ****         wc_Sha3 sha3[1];
1351:Middlewares/Third_Party/wolfSSL_wolfSSL_wolfSSL/wolfssl/wolfcrypt/src/hash.c ****     #endif
ARM GAS  /tmp/ccIUkCMh.s 			page 42


1352:Middlewares/Third_Party/wolfSSL_wolfSSL_wolfSSL/wolfssl/wolfcrypt/src/hash.c **** 
1353:Middlewares/Third_Party/wolfSSL_wolfSSL_wolfSSL/wolfssl/wolfcrypt/src/hash.c ****     #ifdef WOLFSSL_SMALL_STACK
1354:Middlewares/Third_Party/wolfSSL_wolfSSL_wolfSSL/wolfssl/wolfcrypt/src/hash.c ****         sha3 = (wc_Sha3*)XMALLOC(sizeof(wc_Sha3), NULL,
1355:Middlewares/Third_Party/wolfSSL_wolfSSL_wolfSSL/wolfssl/wolfcrypt/src/hash.c ****             DYNAMIC_TYPE_TMP_BUFFER);
1356:Middlewares/Third_Party/wolfSSL_wolfSSL_wolfSSL/wolfssl/wolfcrypt/src/hash.c ****         if (sha3 == NULL)
1357:Middlewares/Third_Party/wolfSSL_wolfSSL_wolfSSL/wolfssl/wolfcrypt/src/hash.c ****             return MEMORY_E;
1358:Middlewares/Third_Party/wolfSSL_wolfSSL_wolfSSL/wolfssl/wolfcrypt/src/hash.c ****     #endif
1359:Middlewares/Third_Party/wolfSSL_wolfSSL_wolfSSL/wolfssl/wolfcrypt/src/hash.c **** 
1360:Middlewares/Third_Party/wolfSSL_wolfSSL_wolfSSL/wolfssl/wolfcrypt/src/hash.c ****         if ((ret = wc_InitSha3_512(sha3, NULL, INVALID_DEVID)) != 0) {
1361:Middlewares/Third_Party/wolfSSL_wolfSSL_wolfSSL/wolfssl/wolfcrypt/src/hash.c ****             WOLFSSL_MSG("InitSha3_512 failed");
1362:Middlewares/Third_Party/wolfSSL_wolfSSL_wolfSSL/wolfssl/wolfcrypt/src/hash.c ****         }
1363:Middlewares/Third_Party/wolfSSL_wolfSSL_wolfSSL/wolfssl/wolfcrypt/src/hash.c ****         else {
1364:Middlewares/Third_Party/wolfSSL_wolfSSL_wolfSSL/wolfssl/wolfcrypt/src/hash.c ****             if ((ret = wc_Sha3_512_Update(sha3, data, len)) != 0) {
1365:Middlewares/Third_Party/wolfSSL_wolfSSL_wolfSSL/wolfssl/wolfcrypt/src/hash.c ****                 WOLFSSL_MSG("Sha3_512_Update failed");
1366:Middlewares/Third_Party/wolfSSL_wolfSSL_wolfSSL/wolfssl/wolfcrypt/src/hash.c ****             }
1367:Middlewares/Third_Party/wolfSSL_wolfSSL_wolfSSL/wolfssl/wolfcrypt/src/hash.c ****             else if ((ret = wc_Sha3_512_Final(sha3, hash)) != 0) {
1368:Middlewares/Third_Party/wolfSSL_wolfSSL_wolfSSL/wolfssl/wolfcrypt/src/hash.c ****                 WOLFSSL_MSG("Sha3_512_Final failed");
1369:Middlewares/Third_Party/wolfSSL_wolfSSL_wolfSSL/wolfssl/wolfcrypt/src/hash.c ****             }
1370:Middlewares/Third_Party/wolfSSL_wolfSSL_wolfSSL/wolfssl/wolfcrypt/src/hash.c ****             wc_Sha3_512_Free(sha3);
1371:Middlewares/Third_Party/wolfSSL_wolfSSL_wolfSSL/wolfssl/wolfcrypt/src/hash.c ****         }
1372:Middlewares/Third_Party/wolfSSL_wolfSSL_wolfSSL/wolfssl/wolfcrypt/src/hash.c **** 
1373:Middlewares/Third_Party/wolfSSL_wolfSSL_wolfSSL/wolfssl/wolfcrypt/src/hash.c ****     #ifdef WOLFSSL_SMALL_STACK
1374:Middlewares/Third_Party/wolfSSL_wolfSSL_wolfSSL/wolfssl/wolfcrypt/src/hash.c ****         XFREE(sha3, NULL, DYNAMIC_TYPE_TMP_BUFFER);
1375:Middlewares/Third_Party/wolfSSL_wolfSSL_wolfSSL/wolfssl/wolfcrypt/src/hash.c ****     #endif
1376:Middlewares/Third_Party/wolfSSL_wolfSSL_wolfSSL/wolfssl/wolfcrypt/src/hash.c **** 
1377:Middlewares/Third_Party/wolfSSL_wolfSSL_wolfSSL/wolfssl/wolfcrypt/src/hash.c ****         return ret;
1378:Middlewares/Third_Party/wolfSSL_wolfSSL_wolfSSL/wolfssl/wolfcrypt/src/hash.c ****     }
1379:Middlewares/Third_Party/wolfSSL_wolfSSL_wolfSSL/wolfssl/wolfcrypt/src/hash.c **** #endif /* !WOLFSSL_NOSHA3_512 */
1380:Middlewares/Third_Party/wolfSSL_wolfSSL_wolfSSL/wolfssl/wolfcrypt/src/hash.c **** 
1381:Middlewares/Third_Party/wolfSSL_wolfSSL_wolfSSL/wolfssl/wolfcrypt/src/hash.c **** #if defined(WOLFSSL_SHAKE256) && !defined(WOLFSSL_NO_SHAKE256)
1382:Middlewares/Third_Party/wolfSSL_wolfSSL_wolfSSL/wolfssl/wolfcrypt/src/hash.c ****     int wc_Shake256Hash(const byte* data, word32 len, byte* hash,
1383:Middlewares/Third_Party/wolfSSL_wolfSSL_wolfSSL/wolfssl/wolfcrypt/src/hash.c ****                         word32 hashLen)
1384:Middlewares/Third_Party/wolfSSL_wolfSSL_wolfSSL/wolfssl/wolfcrypt/src/hash.c ****     {
1385:Middlewares/Third_Party/wolfSSL_wolfSSL_wolfSSL/wolfssl/wolfcrypt/src/hash.c ****         int ret = 0;
1386:Middlewares/Third_Party/wolfSSL_wolfSSL_wolfSSL/wolfssl/wolfcrypt/src/hash.c ****     #ifdef WOLFSSL_SMALL_STACK
1387:Middlewares/Third_Party/wolfSSL_wolfSSL_wolfSSL/wolfssl/wolfcrypt/src/hash.c ****         wc_Shake* shake;
1388:Middlewares/Third_Party/wolfSSL_wolfSSL_wolfSSL/wolfssl/wolfcrypt/src/hash.c ****     #else
1389:Middlewares/Third_Party/wolfSSL_wolfSSL_wolfSSL/wolfssl/wolfcrypt/src/hash.c ****         wc_Shake shake[1];
1390:Middlewares/Third_Party/wolfSSL_wolfSSL_wolfSSL/wolfssl/wolfcrypt/src/hash.c ****     #endif
1391:Middlewares/Third_Party/wolfSSL_wolfSSL_wolfSSL/wolfssl/wolfcrypt/src/hash.c **** 
1392:Middlewares/Third_Party/wolfSSL_wolfSSL_wolfSSL/wolfssl/wolfcrypt/src/hash.c ****     #ifdef WOLFSSL_SMALL_STACK
1393:Middlewares/Third_Party/wolfSSL_wolfSSL_wolfSSL/wolfssl/wolfcrypt/src/hash.c ****         shake = (wc_Shake*)XMALLOC(sizeof(wc_Shake), NULL,
1394:Middlewares/Third_Party/wolfSSL_wolfSSL_wolfSSL/wolfssl/wolfcrypt/src/hash.c ****             DYNAMIC_TYPE_TMP_BUFFER);
1395:Middlewares/Third_Party/wolfSSL_wolfSSL_wolfSSL/wolfssl/wolfcrypt/src/hash.c ****         if (shake == NULL)
1396:Middlewares/Third_Party/wolfSSL_wolfSSL_wolfSSL/wolfssl/wolfcrypt/src/hash.c ****             return MEMORY_E;
1397:Middlewares/Third_Party/wolfSSL_wolfSSL_wolfSSL/wolfssl/wolfcrypt/src/hash.c ****     #endif
1398:Middlewares/Third_Party/wolfSSL_wolfSSL_wolfSSL/wolfssl/wolfcrypt/src/hash.c **** 
1399:Middlewares/Third_Party/wolfSSL_wolfSSL_wolfSSL/wolfssl/wolfcrypt/src/hash.c ****         if ((ret = wc_InitShake256(shake, NULL, INVALID_DEVID)) != 0) {
1400:Middlewares/Third_Party/wolfSSL_wolfSSL_wolfSSL/wolfssl/wolfcrypt/src/hash.c ****             WOLFSSL_MSG("InitShake256 failed");
1401:Middlewares/Third_Party/wolfSSL_wolfSSL_wolfSSL/wolfssl/wolfcrypt/src/hash.c ****         }
1402:Middlewares/Third_Party/wolfSSL_wolfSSL_wolfSSL/wolfssl/wolfcrypt/src/hash.c ****         else {
1403:Middlewares/Third_Party/wolfSSL_wolfSSL_wolfSSL/wolfssl/wolfcrypt/src/hash.c ****             if ((ret = wc_Shake256_Update(shake, data, len)) != 0) {
1404:Middlewares/Third_Party/wolfSSL_wolfSSL_wolfSSL/wolfssl/wolfcrypt/src/hash.c ****                 WOLFSSL_MSG("Shake256_Update failed");
1405:Middlewares/Third_Party/wolfSSL_wolfSSL_wolfSSL/wolfssl/wolfcrypt/src/hash.c ****             }
1406:Middlewares/Third_Party/wolfSSL_wolfSSL_wolfSSL/wolfssl/wolfcrypt/src/hash.c ****             else if ((ret = wc_Shake256_Final(shake, hash, hashLen)) != 0) {
1407:Middlewares/Third_Party/wolfSSL_wolfSSL_wolfSSL/wolfssl/wolfcrypt/src/hash.c ****                 WOLFSSL_MSG("Shake256_Final failed");
1408:Middlewares/Third_Party/wolfSSL_wolfSSL_wolfSSL/wolfssl/wolfcrypt/src/hash.c ****             }
ARM GAS  /tmp/ccIUkCMh.s 			page 43


1409:Middlewares/Third_Party/wolfSSL_wolfSSL_wolfSSL/wolfssl/wolfcrypt/src/hash.c ****             wc_Shake256_Free(shake);
1410:Middlewares/Third_Party/wolfSSL_wolfSSL_wolfSSL/wolfssl/wolfcrypt/src/hash.c ****         }
1411:Middlewares/Third_Party/wolfSSL_wolfSSL_wolfSSL/wolfssl/wolfcrypt/src/hash.c **** 
1412:Middlewares/Third_Party/wolfSSL_wolfSSL_wolfSSL/wolfssl/wolfcrypt/src/hash.c ****     #ifdef WOLFSSL_SMALL_STACK
1413:Middlewares/Third_Party/wolfSSL_wolfSSL_wolfSSL/wolfssl/wolfcrypt/src/hash.c ****         XFREE(shake, NULL, DYNAMIC_TYPE_TMP_BUFFER);
1414:Middlewares/Third_Party/wolfSSL_wolfSSL_wolfSSL/wolfssl/wolfcrypt/src/hash.c ****     #endif
1415:Middlewares/Third_Party/wolfSSL_wolfSSL_wolfSSL/wolfssl/wolfcrypt/src/hash.c **** 
1416:Middlewares/Third_Party/wolfSSL_wolfSSL_wolfSSL/wolfssl/wolfcrypt/src/hash.c ****         return ret;
1417:Middlewares/Third_Party/wolfSSL_wolfSSL_wolfSSL/wolfssl/wolfcrypt/src/hash.c ****     }
1418:Middlewares/Third_Party/wolfSSL_wolfSSL_wolfSSL/wolfssl/wolfcrypt/src/hash.c **** #endif /* WOLFSSL_SHAKE_256 && !WOLFSSL_NO_SHAKE256 */
1419:Middlewares/Third_Party/wolfSSL_wolfSSL_wolfSSL/wolfssl/wolfcrypt/src/hash.c **** #endif /* WOLFSSL_SHA3 */
1420:Middlewares/Third_Party/wolfSSL_wolfSSL_wolfSSL/wolfssl/wolfcrypt/src/hash.c **** 
1421:Middlewares/Third_Party/wolfSSL_wolfSSL_wolfSSL/wolfssl/wolfcrypt/src/hash.c **** #endif /* !NO_HASH_WRAPPER */
1422:Middlewares/Third_Party/wolfSSL_wolfSSL_wolfSSL/wolfssl/wolfcrypt/src/hash.c **** 
1423:Middlewares/Third_Party/wolfSSL_wolfSSL_wolfSSL/wolfssl/wolfcrypt/src/hash.c **** #ifdef WOLFSSL_HAVE_PRF
1424:Middlewares/Third_Party/wolfSSL_wolfSSL_wolfSSL/wolfssl/wolfcrypt/src/hash.c **** 
1425:Middlewares/Third_Party/wolfSSL_wolfSSL_wolfSSL/wolfssl/wolfcrypt/src/hash.c **** #ifdef WOLFSSL_SHA384
1426:Middlewares/Third_Party/wolfSSL_wolfSSL_wolfSSL/wolfssl/wolfcrypt/src/hash.c ****     #define P_HASH_MAX_SIZE WC_SHA384_DIGEST_SIZE
1427:Middlewares/Third_Party/wolfSSL_wolfSSL_wolfSSL/wolfssl/wolfcrypt/src/hash.c **** #else
1428:Middlewares/Third_Party/wolfSSL_wolfSSL_wolfSSL/wolfssl/wolfcrypt/src/hash.c ****     #define P_HASH_MAX_SIZE WC_SHA256_DIGEST_SIZE
1429:Middlewares/Third_Party/wolfSSL_wolfSSL_wolfSSL/wolfssl/wolfcrypt/src/hash.c **** #endif
1430:Middlewares/Third_Party/wolfSSL_wolfSSL_wolfSSL/wolfssl/wolfcrypt/src/hash.c **** 
1431:Middlewares/Third_Party/wolfSSL_wolfSSL_wolfSSL/wolfssl/wolfcrypt/src/hash.c **** /* Pseudo Random Function for MD5, SHA-1, SHA-256, or SHA-384 */
1432:Middlewares/Third_Party/wolfSSL_wolfSSL_wolfSSL/wolfssl/wolfcrypt/src/hash.c **** int wc_PRF(byte* result, word32 resLen, const byte* secret,
1433:Middlewares/Third_Party/wolfSSL_wolfSSL_wolfSSL/wolfssl/wolfcrypt/src/hash.c ****                   word32 secLen, const byte* seed, word32 seedLen, int hash,
1434:Middlewares/Third_Party/wolfSSL_wolfSSL_wolfSSL/wolfssl/wolfcrypt/src/hash.c ****                   void* heap, int devId)
1435:Middlewares/Third_Party/wolfSSL_wolfSSL_wolfSSL/wolfssl/wolfcrypt/src/hash.c **** {
 915              		.loc 1 1435 1 is_stmt 1 view -0
 916              		.cfi_startproc
 917              		@ args = 20, pretend = 0, frame = 8
 918              		@ frame_needed = 0, uses_anonymous_args = 0
 919              		.loc 1 1435 1 is_stmt 0 view .LVU192
 920 0000 2DE9F04F 		push	{r4, r5, r6, r7, r8, r9, r10, fp, lr}
 921              	.LCFI15:
 922              		.cfi_def_cfa_offset 36
 923              		.cfi_offset 4, -36
 924              		.cfi_offset 5, -32
 925              		.cfi_offset 6, -28
 926              		.cfi_offset 7, -24
 927              		.cfi_offset 8, -20
 928              		.cfi_offset 9, -16
 929              		.cfi_offset 10, -12
 930              		.cfi_offset 11, -8
 931              		.cfi_offset 14, -4
 932 0004 83B0     		sub	sp, sp, #12
 933              	.LCFI16:
 934              		.cfi_def_cfa_offset 48
 935 0006 8146     		mov	r9, r0
 936 0008 0E46     		mov	r6, r1
 937 000a 9046     		mov	r8, r2
 938 000c 9A46     		mov	r10, r3
1436:Middlewares/Third_Party/wolfSSL_wolfSSL_wolfSSL/wolfssl/wolfcrypt/src/hash.c ****     word32 len = P_HASH_MAX_SIZE;
 939              		.loc 1 1436 5 is_stmt 1 view .LVU193
 940              	.LVL103:
1437:Middlewares/Third_Party/wolfSSL_wolfSSL_wolfSSL/wolfssl/wolfcrypt/src/hash.c ****     word32 times;
 941              		.loc 1 1437 5 view .LVU194
1438:Middlewares/Third_Party/wolfSSL_wolfSSL_wolfSSL/wolfssl/wolfcrypt/src/hash.c ****     word32 lastLen;
ARM GAS  /tmp/ccIUkCMh.s 			page 44


 942              		.loc 1 1438 5 view .LVU195
1439:Middlewares/Third_Party/wolfSSL_wolfSSL_wolfSSL/wolfssl/wolfcrypt/src/hash.c ****     word32 lastTime;
 943              		.loc 1 1439 5 view .LVU196
1440:Middlewares/Third_Party/wolfSSL_wolfSSL_wolfSSL/wolfssl/wolfcrypt/src/hash.c ****     word32 i;
 944              		.loc 1 1440 5 view .LVU197
1441:Middlewares/Third_Party/wolfSSL_wolfSSL_wolfSSL/wolfssl/wolfcrypt/src/hash.c ****     word32 idx = 0;
 945              		.loc 1 1441 5 view .LVU198
1442:Middlewares/Third_Party/wolfSSL_wolfSSL_wolfSSL/wolfssl/wolfcrypt/src/hash.c ****     int    ret = 0;
 946              		.loc 1 1442 5 view .LVU199
1443:Middlewares/Third_Party/wolfSSL_wolfSSL_wolfSSL/wolfssl/wolfcrypt/src/hash.c **** #ifdef WOLFSSL_SMALL_STACK
1444:Middlewares/Third_Party/wolfSSL_wolfSSL_wolfSSL/wolfssl/wolfcrypt/src/hash.c ****     byte*  previous;
 947              		.loc 1 1444 5 view .LVU200
1445:Middlewares/Third_Party/wolfSSL_wolfSSL_wolfSSL/wolfssl/wolfcrypt/src/hash.c ****     byte*  current;
 948              		.loc 1 1445 5 view .LVU201
1446:Middlewares/Third_Party/wolfSSL_wolfSSL_wolfSSL/wolfssl/wolfcrypt/src/hash.c ****     Hmac*  hmac;
 949              		.loc 1 1446 5 view .LVU202
1447:Middlewares/Third_Party/wolfSSL_wolfSSL_wolfSSL/wolfssl/wolfcrypt/src/hash.c **** #else
1448:Middlewares/Third_Party/wolfSSL_wolfSSL_wolfSSL/wolfssl/wolfcrypt/src/hash.c ****     byte   previous[P_HASH_MAX_SIZE];  /* max size */
1449:Middlewares/Third_Party/wolfSSL_wolfSSL_wolfSSL/wolfssl/wolfcrypt/src/hash.c ****     byte   current[P_HASH_MAX_SIZE];   /* max size */
1450:Middlewares/Third_Party/wolfSSL_wolfSSL_wolfSSL/wolfssl/wolfcrypt/src/hash.c ****     Hmac   hmac[1];
1451:Middlewares/Third_Party/wolfSSL_wolfSSL_wolfSSL/wolfssl/wolfcrypt/src/hash.c **** #endif
1452:Middlewares/Third_Party/wolfSSL_wolfSSL_wolfSSL/wolfssl/wolfcrypt/src/hash.c **** 
1453:Middlewares/Third_Party/wolfSSL_wolfSSL_wolfSSL/wolfssl/wolfcrypt/src/hash.c **** #ifdef WOLFSSL_SMALL_STACK
1454:Middlewares/Third_Party/wolfSSL_wolfSSL_wolfSSL/wolfssl/wolfcrypt/src/hash.c ****     previous = (byte*)XMALLOC(P_HASH_MAX_SIZE, heap, DYNAMIC_TYPE_DIGEST);
 950              		.loc 1 1454 5 view .LVU203
 951              		.loc 1 1454 23 is_stmt 0 view .LVU204
 952 000e 2020     		movs	r0, #32
 953              	.LVL104:
 954              		.loc 1 1454 23 view .LVU205
 955 0010 FFF7FEFF 		bl	pvPortMalloc
 956              	.LVL105:
 957              		.loc 1 1454 23 view .LVU206
 958 0014 0746     		mov	r7, r0
 959              	.LVL106:
1455:Middlewares/Third_Party/wolfSSL_wolfSSL_wolfSSL/wolfssl/wolfcrypt/src/hash.c ****     current  = (byte*)XMALLOC(P_HASH_MAX_SIZE, heap, DYNAMIC_TYPE_DIGEST);
 960              		.loc 1 1455 5 is_stmt 1 view .LVU207
 961              		.loc 1 1455 23 is_stmt 0 view .LVU208
 962 0016 2020     		movs	r0, #32
 963              	.LVL107:
 964              		.loc 1 1455 23 view .LVU209
 965 0018 FFF7FEFF 		bl	pvPortMalloc
 966              	.LVL108:
 967 001c 0446     		mov	r4, r0
 968              	.LVL109:
1456:Middlewares/Third_Party/wolfSSL_wolfSSL_wolfSSL/wolfssl/wolfcrypt/src/hash.c ****     hmac     = (Hmac*)XMALLOC(sizeof(Hmac),    heap, DYNAMIC_TYPE_HMAC);
 969              		.loc 1 1456 5 is_stmt 1 view .LVU210
 970              		.loc 1 1456 23 is_stmt 0 view .LVU211
 971 001e 4FF48C70 		mov	r0, #280
 972              	.LVL110:
 973              		.loc 1 1456 23 view .LVU212
 974 0022 FFF7FEFF 		bl	pvPortMalloc
 975              	.LVL111:
 976 0026 0546     		mov	r5, r0
 977              	.LVL112:
1457:Middlewares/Third_Party/wolfSSL_wolfSSL_wolfSSL/wolfssl/wolfcrypt/src/hash.c **** 
1458:Middlewares/Third_Party/wolfSSL_wolfSSL_wolfSSL/wolfssl/wolfcrypt/src/hash.c ****     if (previous == NULL || current == NULL || hmac == NULL) {
 978              		.loc 1 1458 5 is_stmt 1 view .LVU213
ARM GAS  /tmp/ccIUkCMh.s 			page 45


 979              		.loc 1 1458 8 is_stmt 0 view .LVU214
 980 0028 CFB1     		cbz	r7, .L95
 981              		.loc 1 1458 26 discriminator 1 view .LVU215
 982 002a C4B1     		cbz	r4, .L95
 983              		.loc 1 1458 45 discriminator 2 view .LVU216
 984 002c B8B1     		cbz	r0, .L95
1459:Middlewares/Third_Party/wolfSSL_wolfSSL_wolfSSL/wolfssl/wolfcrypt/src/hash.c ****         if (previous) XFREE(previous, heap, DYNAMIC_TYPE_DIGEST);
1460:Middlewares/Third_Party/wolfSSL_wolfSSL_wolfSSL/wolfssl/wolfcrypt/src/hash.c ****         if (current)  XFREE(current,  heap, DYNAMIC_TYPE_DIGEST);
1461:Middlewares/Third_Party/wolfSSL_wolfSSL_wolfSSL/wolfssl/wolfcrypt/src/hash.c ****         if (hmac)     XFREE(hmac,     heap, DYNAMIC_TYPE_HMAC);
1462:Middlewares/Third_Party/wolfSSL_wolfSSL_wolfSSL/wolfssl/wolfcrypt/src/hash.c **** 
1463:Middlewares/Third_Party/wolfSSL_wolfSSL_wolfSSL/wolfssl/wolfcrypt/src/hash.c ****         return MEMORY_E;
1464:Middlewares/Third_Party/wolfSSL_wolfSSL_wolfSSL/wolfssl/wolfcrypt/src/hash.c ****     }
1465:Middlewares/Third_Party/wolfSSL_wolfSSL_wolfSSL/wolfssl/wolfcrypt/src/hash.c **** #endif
1466:Middlewares/Third_Party/wolfSSL_wolfSSL_wolfSSL/wolfssl/wolfcrypt/src/hash.c **** 
1467:Middlewares/Third_Party/wolfSSL_wolfSSL_wolfSSL/wolfssl/wolfcrypt/src/hash.c ****     switch (hash) {
 985              		.loc 1 1467 5 is_stmt 1 view .LVU217
 986 002e 0E9B     		ldr	r3, [sp, #56]
 987 0030 042B     		cmp	r3, #4
 988 0032 23D0     		beq	.L125
 989              	.LVL113:
 990              	.L101:
1468:Middlewares/Third_Party/wolfSSL_wolfSSL_wolfSSL/wolfssl/wolfcrypt/src/hash.c ****     #ifndef NO_MD5
1469:Middlewares/Third_Party/wolfSSL_wolfSSL_wolfSSL/wolfssl/wolfcrypt/src/hash.c ****         case md5_mac:
1470:Middlewares/Third_Party/wolfSSL_wolfSSL_wolfSSL/wolfssl/wolfcrypt/src/hash.c ****             hash = WC_MD5;
1471:Middlewares/Third_Party/wolfSSL_wolfSSL_wolfSSL/wolfssl/wolfcrypt/src/hash.c ****             len  = WC_MD5_DIGEST_SIZE;
1472:Middlewares/Third_Party/wolfSSL_wolfSSL_wolfSSL/wolfssl/wolfcrypt/src/hash.c ****         break;
1473:Middlewares/Third_Party/wolfSSL_wolfSSL_wolfSSL/wolfssl/wolfcrypt/src/hash.c ****     #endif
1474:Middlewares/Third_Party/wolfSSL_wolfSSL_wolfSSL/wolfssl/wolfcrypt/src/hash.c **** 
1475:Middlewares/Third_Party/wolfSSL_wolfSSL_wolfSSL/wolfssl/wolfcrypt/src/hash.c ****     #ifndef NO_SHA256
1476:Middlewares/Third_Party/wolfSSL_wolfSSL_wolfSSL/wolfssl/wolfcrypt/src/hash.c ****         case sha256_mac:
1477:Middlewares/Third_Party/wolfSSL_wolfSSL_wolfSSL/wolfssl/wolfcrypt/src/hash.c ****             hash = WC_SHA256;
1478:Middlewares/Third_Party/wolfSSL_wolfSSL_wolfSSL/wolfssl/wolfcrypt/src/hash.c ****             len  = WC_SHA256_DIGEST_SIZE;
1479:Middlewares/Third_Party/wolfSSL_wolfSSL_wolfSSL/wolfssl/wolfcrypt/src/hash.c ****         break;
1480:Middlewares/Third_Party/wolfSSL_wolfSSL_wolfSSL/wolfssl/wolfcrypt/src/hash.c ****     #endif
1481:Middlewares/Third_Party/wolfSSL_wolfSSL_wolfSSL/wolfssl/wolfcrypt/src/hash.c **** 
1482:Middlewares/Third_Party/wolfSSL_wolfSSL_wolfSSL/wolfssl/wolfcrypt/src/hash.c ****     #ifdef WOLFSSL_SHA384
1483:Middlewares/Third_Party/wolfSSL_wolfSSL_wolfSSL/wolfssl/wolfcrypt/src/hash.c ****         case sha384_mac:
1484:Middlewares/Third_Party/wolfSSL_wolfSSL_wolfSSL/wolfssl/wolfcrypt/src/hash.c ****             hash = WC_SHA384;
1485:Middlewares/Third_Party/wolfSSL_wolfSSL_wolfSSL/wolfssl/wolfcrypt/src/hash.c ****             len  = WC_SHA384_DIGEST_SIZE;
1486:Middlewares/Third_Party/wolfSSL_wolfSSL_wolfSSL/wolfssl/wolfcrypt/src/hash.c ****         break;
1487:Middlewares/Third_Party/wolfSSL_wolfSSL_wolfSSL/wolfssl/wolfcrypt/src/hash.c ****     #endif
1488:Middlewares/Third_Party/wolfSSL_wolfSSL_wolfSSL/wolfssl/wolfcrypt/src/hash.c **** 
1489:Middlewares/Third_Party/wolfSSL_wolfSSL_wolfSSL/wolfssl/wolfcrypt/src/hash.c ****     #ifndef NO_SHA
1490:Middlewares/Third_Party/wolfSSL_wolfSSL_wolfSSL/wolfssl/wolfcrypt/src/hash.c ****         case sha_mac:
1491:Middlewares/Third_Party/wolfSSL_wolfSSL_wolfSSL/wolfssl/wolfcrypt/src/hash.c ****         default:
1492:Middlewares/Third_Party/wolfSSL_wolfSSL_wolfSSL/wolfssl/wolfcrypt/src/hash.c ****             hash = WC_SHA;
1493:Middlewares/Third_Party/wolfSSL_wolfSSL_wolfSSL/wolfssl/wolfcrypt/src/hash.c ****             len  = WC_SHA_DIGEST_SIZE;
1494:Middlewares/Third_Party/wolfSSL_wolfSSL_wolfSSL/wolfssl/wolfcrypt/src/hash.c ****         break;
1495:Middlewares/Third_Party/wolfSSL_wolfSSL_wolfSSL/wolfssl/wolfcrypt/src/hash.c ****     #endif
1496:Middlewares/Third_Party/wolfSSL_wolfSSL_wolfSSL/wolfssl/wolfcrypt/src/hash.c ****     }
1497:Middlewares/Third_Party/wolfSSL_wolfSSL_wolfSSL/wolfssl/wolfcrypt/src/hash.c **** 
1498:Middlewares/Third_Party/wolfSSL_wolfSSL_wolfSSL/wolfssl/wolfcrypt/src/hash.c ****     times   = resLen / len;
 991              		.loc 1 1498 5 view .LVU218
 992              		.loc 1 1498 13 is_stmt 0 view .LVU219
 993 0034 4FEA561B 		lsr	fp, r6, #5
 994              	.LVL114:
1499:Middlewares/Third_Party/wolfSSL_wolfSSL_wolfSSL/wolfssl/wolfcrypt/src/hash.c ****     lastLen = resLen % len;
ARM GAS  /tmp/ccIUkCMh.s 			page 46


 995              		.loc 1 1499 5 is_stmt 1 view .LVU220
1500:Middlewares/Third_Party/wolfSSL_wolfSSL_wolfSSL/wolfssl/wolfcrypt/src/hash.c **** 
1501:Middlewares/Third_Party/wolfSSL_wolfSSL_wolfSSL/wolfssl/wolfcrypt/src/hash.c ****     if (lastLen)
 996              		.loc 1 1501 5 view .LVU221
 997              		.loc 1 1501 8 is_stmt 0 view .LVU222
 998 0038 16F01F03 		ands	r3, r6, #31
 999              	.LVL115:
 1000              		.loc 1 1501 8 view .LVU223
 1001 003c 0193     		str	r3, [sp, #4]
 1002 003e 01D0     		beq	.L102
1502:Middlewares/Third_Party/wolfSSL_wolfSSL_wolfSSL/wolfssl/wolfcrypt/src/hash.c ****         times += 1;
 1003              		.loc 1 1502 9 is_stmt 1 view .LVU224
 1004              		.loc 1 1502 15 is_stmt 0 view .LVU225
 1005 0040 0BF1010B 		add	fp, fp, #1
 1006              	.LVL116:
 1007              	.L102:
1503:Middlewares/Third_Party/wolfSSL_wolfSSL_wolfSSL/wolfssl/wolfcrypt/src/hash.c **** 
1504:Middlewares/Third_Party/wolfSSL_wolfSSL_wolfSSL/wolfssl/wolfcrypt/src/hash.c ****     lastTime = times - 1;
 1008              		.loc 1 1504 5 is_stmt 1 view .LVU226
 1009              		.loc 1 1504 14 is_stmt 0 view .LVU227
 1010 0044 0BF1FF33 		add	r3, fp, #-1
 1011              	.LVL117:
 1012              		.loc 1 1504 14 view .LVU228
 1013 0048 0093     		str	r3, [sp]
 1014              	.LVL118:
1505:Middlewares/Third_Party/wolfSSL_wolfSSL_wolfSSL/wolfssl/wolfcrypt/src/hash.c **** 
1506:Middlewares/Third_Party/wolfSSL_wolfSSL_wolfSSL/wolfssl/wolfcrypt/src/hash.c ****     ret = wc_HmacInit(hmac, heap, devId);
 1015              		.loc 1 1506 5 is_stmt 1 view .LVU229
 1016              		.loc 1 1506 11 is_stmt 0 view .LVU230
 1017 004a 109A     		ldr	r2, [sp, #64]
 1018 004c 0F99     		ldr	r1, [sp, #60]
 1019 004e 2846     		mov	r0, r5
 1020              	.LVL119:
 1021              		.loc 1 1506 11 view .LVU231
 1022 0050 FFF7FEFF 		bl	wc_HmacInit
 1023              	.LVL120:
1507:Middlewares/Third_Party/wolfSSL_wolfSSL_wolfSSL/wolfssl/wolfcrypt/src/hash.c ****     if (ret == 0) {
 1024              		.loc 1 1507 5 is_stmt 1 view .LVU232
 1025              		.loc 1 1507 8 is_stmt 0 view .LVU233
 1026 0054 0646     		mov	r6, r0
 1027              	.LVL121:
 1028              		.loc 1 1507 8 view .LVU234
 1029 0056 A0B1     		cbz	r0, .L126
 1030              	.LVL122:
 1031              	.L103:
1508:Middlewares/Third_Party/wolfSSL_wolfSSL_wolfSSL/wolfssl/wolfcrypt/src/hash.c ****         ret = wc_HmacSetKey(hmac, hash, secret, secLen);
1509:Middlewares/Third_Party/wolfSSL_wolfSSL_wolfSSL/wolfssl/wolfcrypt/src/hash.c ****         if (ret == 0)
1510:Middlewares/Third_Party/wolfSSL_wolfSSL_wolfSSL/wolfssl/wolfcrypt/src/hash.c ****             ret = wc_HmacUpdate(hmac, seed, seedLen); /* A0 = seed */
1511:Middlewares/Third_Party/wolfSSL_wolfSSL_wolfSSL/wolfssl/wolfcrypt/src/hash.c ****         if (ret == 0)
1512:Middlewares/Third_Party/wolfSSL_wolfSSL_wolfSSL/wolfssl/wolfcrypt/src/hash.c ****             ret = wc_HmacFinal(hmac, previous);       /* A1 */
1513:Middlewares/Third_Party/wolfSSL_wolfSSL_wolfSSL/wolfssl/wolfcrypt/src/hash.c ****         if (ret == 0) {
1514:Middlewares/Third_Party/wolfSSL_wolfSSL_wolfSSL/wolfssl/wolfcrypt/src/hash.c ****             for (i = 0; i < times; i++) {
1515:Middlewares/Third_Party/wolfSSL_wolfSSL_wolfSSL/wolfssl/wolfcrypt/src/hash.c ****                 ret = wc_HmacUpdate(hmac, previous, len);
1516:Middlewares/Third_Party/wolfSSL_wolfSSL_wolfSSL/wolfssl/wolfcrypt/src/hash.c ****                 if (ret != 0)
1517:Middlewares/Third_Party/wolfSSL_wolfSSL_wolfSSL/wolfssl/wolfcrypt/src/hash.c ****                     break;
1518:Middlewares/Third_Party/wolfSSL_wolfSSL_wolfSSL/wolfssl/wolfcrypt/src/hash.c ****                 ret = wc_HmacUpdate(hmac, seed, seedLen);
1519:Middlewares/Third_Party/wolfSSL_wolfSSL_wolfSSL/wolfssl/wolfcrypt/src/hash.c ****                 if (ret != 0)
ARM GAS  /tmp/ccIUkCMh.s 			page 47


1520:Middlewares/Third_Party/wolfSSL_wolfSSL_wolfSSL/wolfssl/wolfcrypt/src/hash.c ****                     break;
1521:Middlewares/Third_Party/wolfSSL_wolfSSL_wolfSSL/wolfssl/wolfcrypt/src/hash.c ****                 ret = wc_HmacFinal(hmac, current);
1522:Middlewares/Third_Party/wolfSSL_wolfSSL_wolfSSL/wolfssl/wolfcrypt/src/hash.c ****                 if (ret != 0)
1523:Middlewares/Third_Party/wolfSSL_wolfSSL_wolfSSL/wolfssl/wolfcrypt/src/hash.c ****                     break;
1524:Middlewares/Third_Party/wolfSSL_wolfSSL_wolfSSL/wolfssl/wolfcrypt/src/hash.c **** 
1525:Middlewares/Third_Party/wolfSSL_wolfSSL_wolfSSL/wolfssl/wolfcrypt/src/hash.c ****                 if ((i == lastTime) && lastLen)
1526:Middlewares/Third_Party/wolfSSL_wolfSSL_wolfSSL/wolfssl/wolfcrypt/src/hash.c ****                     XMEMCPY(&result[idx], current,
1527:Middlewares/Third_Party/wolfSSL_wolfSSL_wolfSSL/wolfssl/wolfcrypt/src/hash.c ****                                              min(lastLen, P_HASH_MAX_SIZE));
1528:Middlewares/Third_Party/wolfSSL_wolfSSL_wolfSSL/wolfssl/wolfcrypt/src/hash.c ****                 else {
1529:Middlewares/Third_Party/wolfSSL_wolfSSL_wolfSSL/wolfssl/wolfcrypt/src/hash.c ****                     XMEMCPY(&result[idx], current, len);
1530:Middlewares/Third_Party/wolfSSL_wolfSSL_wolfSSL/wolfssl/wolfcrypt/src/hash.c ****                     idx += len;
1531:Middlewares/Third_Party/wolfSSL_wolfSSL_wolfSSL/wolfssl/wolfcrypt/src/hash.c ****                     ret = wc_HmacUpdate(hmac, previous, len);
1532:Middlewares/Third_Party/wolfSSL_wolfSSL_wolfSSL/wolfssl/wolfcrypt/src/hash.c ****                     if (ret != 0)
1533:Middlewares/Third_Party/wolfSSL_wolfSSL_wolfSSL/wolfssl/wolfcrypt/src/hash.c ****                         break;
1534:Middlewares/Third_Party/wolfSSL_wolfSSL_wolfSSL/wolfssl/wolfcrypt/src/hash.c ****                     ret = wc_HmacFinal(hmac, previous);
1535:Middlewares/Third_Party/wolfSSL_wolfSSL_wolfSSL/wolfssl/wolfcrypt/src/hash.c ****                     if (ret != 0)
1536:Middlewares/Third_Party/wolfSSL_wolfSSL_wolfSSL/wolfssl/wolfcrypt/src/hash.c ****                         break;
1537:Middlewares/Third_Party/wolfSSL_wolfSSL_wolfSSL/wolfssl/wolfcrypt/src/hash.c ****                 }
1538:Middlewares/Third_Party/wolfSSL_wolfSSL_wolfSSL/wolfssl/wolfcrypt/src/hash.c ****             }
1539:Middlewares/Third_Party/wolfSSL_wolfSSL_wolfSSL/wolfssl/wolfcrypt/src/hash.c ****         }
1540:Middlewares/Third_Party/wolfSSL_wolfSSL_wolfSSL/wolfssl/wolfcrypt/src/hash.c ****         wc_HmacFree(hmac);
1541:Middlewares/Third_Party/wolfSSL_wolfSSL_wolfSSL/wolfssl/wolfcrypt/src/hash.c ****     }
1542:Middlewares/Third_Party/wolfSSL_wolfSSL_wolfSSL/wolfssl/wolfcrypt/src/hash.c **** 
1543:Middlewares/Third_Party/wolfSSL_wolfSSL_wolfSSL/wolfssl/wolfcrypt/src/hash.c ****     ForceZero(previous,  P_HASH_MAX_SIZE);
 1032              		.loc 1 1543 5 is_stmt 1 view .LVU235
 1033              	.LBB13:
 1034              	.LBI13:
 1035              		.file 2 "Middlewares/Third_Party/wolfSSL_wolfSSL_wolfSSL/wolfssl/wolfcrypt/src/misc.c"
   1:Middlewares/Third_Party/wolfSSL_wolfSSL_wolfSSL/wolfssl/wolfcrypt/src/misc.c **** /* misc.c
   2:Middlewares/Third_Party/wolfSSL_wolfSSL_wolfSSL/wolfssl/wolfcrypt/src/misc.c ****  *
   3:Middlewares/Third_Party/wolfSSL_wolfSSL_wolfSSL/wolfssl/wolfcrypt/src/misc.c ****  * Copyright (C) 2006-2020 wolfSSL Inc.
   4:Middlewares/Third_Party/wolfSSL_wolfSSL_wolfSSL/wolfssl/wolfcrypt/src/misc.c ****  *
   5:Middlewares/Third_Party/wolfSSL_wolfSSL_wolfSSL/wolfssl/wolfcrypt/src/misc.c ****  * This file is part of wolfSSL.
   6:Middlewares/Third_Party/wolfSSL_wolfSSL_wolfSSL/wolfssl/wolfcrypt/src/misc.c ****  *
   7:Middlewares/Third_Party/wolfSSL_wolfSSL_wolfSSL/wolfssl/wolfcrypt/src/misc.c ****  * wolfSSL is free software; you can redistribute it and/or modify
   8:Middlewares/Third_Party/wolfSSL_wolfSSL_wolfSSL/wolfssl/wolfcrypt/src/misc.c ****  * it under the terms of the GNU General Public License as published by
   9:Middlewares/Third_Party/wolfSSL_wolfSSL_wolfSSL/wolfssl/wolfcrypt/src/misc.c ****  * the Free Software Foundation; either version 2 of the License, or
  10:Middlewares/Third_Party/wolfSSL_wolfSSL_wolfSSL/wolfssl/wolfcrypt/src/misc.c ****  * (at your option) any later version.
  11:Middlewares/Third_Party/wolfSSL_wolfSSL_wolfSSL/wolfssl/wolfcrypt/src/misc.c ****  *
  12:Middlewares/Third_Party/wolfSSL_wolfSSL_wolfSSL/wolfssl/wolfcrypt/src/misc.c ****  * wolfSSL is distributed in the hope that it will be useful,
  13:Middlewares/Third_Party/wolfSSL_wolfSSL_wolfSSL/wolfssl/wolfcrypt/src/misc.c ****  * but WITHOUT ANY WARRANTY; without even the implied warranty of
  14:Middlewares/Third_Party/wolfSSL_wolfSSL_wolfSSL/wolfssl/wolfcrypt/src/misc.c ****  * MERCHANTABILITY or FITNESS FOR A PARTICULAR PURPOSE.  See the
  15:Middlewares/Third_Party/wolfSSL_wolfSSL_wolfSSL/wolfssl/wolfcrypt/src/misc.c ****  * GNU General Public License for more details.
  16:Middlewares/Third_Party/wolfSSL_wolfSSL_wolfSSL/wolfssl/wolfcrypt/src/misc.c ****  *
  17:Middlewares/Third_Party/wolfSSL_wolfSSL_wolfSSL/wolfssl/wolfcrypt/src/misc.c ****  * You should have received a copy of the GNU General Public License
  18:Middlewares/Third_Party/wolfSSL_wolfSSL_wolfSSL/wolfssl/wolfcrypt/src/misc.c ****  * along with this program; if not, write to the Free Software
  19:Middlewares/Third_Party/wolfSSL_wolfSSL_wolfSSL/wolfssl/wolfcrypt/src/misc.c ****  * Foundation, Inc., 51 Franklin Street, Fifth Floor, Boston, MA 02110-1335, USA
  20:Middlewares/Third_Party/wolfSSL_wolfSSL_wolfSSL/wolfssl/wolfcrypt/src/misc.c ****  */
  21:Middlewares/Third_Party/wolfSSL_wolfSSL_wolfSSL/wolfssl/wolfcrypt/src/misc.c **** /*
  22:Middlewares/Third_Party/wolfSSL_wolfSSL_wolfSSL/wolfssl/wolfcrypt/src/misc.c **** 
  23:Middlewares/Third_Party/wolfSSL_wolfSSL_wolfSSL/wolfssl/wolfcrypt/src/misc.c **** DESCRIPTION
  24:Middlewares/Third_Party/wolfSSL_wolfSSL_wolfSSL/wolfssl/wolfcrypt/src/misc.c **** This module implements the arithmetic-shift right, left, byte swapping, XOR,
  25:Middlewares/Third_Party/wolfSSL_wolfSSL_wolfSSL/wolfssl/wolfcrypt/src/misc.c **** masking and clearing memory logic.
  26:Middlewares/Third_Party/wolfSSL_wolfSSL_wolfSSL/wolfssl/wolfcrypt/src/misc.c **** 
  27:Middlewares/Third_Party/wolfSSL_wolfSSL_wolfSSL/wolfssl/wolfcrypt/src/misc.c **** */
  28:Middlewares/Third_Party/wolfSSL_wolfSSL_wolfSSL/wolfssl/wolfcrypt/src/misc.c **** #ifdef HAVE_CONFIG_H
  29:Middlewares/Third_Party/wolfSSL_wolfSSL_wolfSSL/wolfssl/wolfcrypt/src/misc.c ****     #include <config.h>
ARM GAS  /tmp/ccIUkCMh.s 			page 48


  30:Middlewares/Third_Party/wolfSSL_wolfSSL_wolfSSL/wolfssl/wolfcrypt/src/misc.c **** #endif
  31:Middlewares/Third_Party/wolfSSL_wolfSSL_wolfSSL/wolfssl/wolfcrypt/src/misc.c **** 
  32:Middlewares/Third_Party/wolfSSL_wolfSSL_wolfSSL/wolfssl/wolfcrypt/src/misc.c **** #include <wolfssl/wolfcrypt/settings.h>
  33:Middlewares/Third_Party/wolfSSL_wolfSSL_wolfSSL/wolfssl/wolfcrypt/src/misc.c **** 
  34:Middlewares/Third_Party/wolfSSL_wolfSSL_wolfSSL/wolfssl/wolfcrypt/src/misc.c **** #ifndef WOLF_CRYPT_MISC_C
  35:Middlewares/Third_Party/wolfSSL_wolfSSL_wolfSSL/wolfssl/wolfcrypt/src/misc.c **** #define WOLF_CRYPT_MISC_C
  36:Middlewares/Third_Party/wolfSSL_wolfSSL_wolfSSL/wolfssl/wolfcrypt/src/misc.c **** 
  37:Middlewares/Third_Party/wolfSSL_wolfSSL_wolfSSL/wolfssl/wolfcrypt/src/misc.c **** #include <wolfssl/wolfcrypt/misc.h>
  38:Middlewares/Third_Party/wolfSSL_wolfSSL_wolfSSL/wolfssl/wolfcrypt/src/misc.c **** 
  39:Middlewares/Third_Party/wolfSSL_wolfSSL_wolfSSL/wolfssl/wolfcrypt/src/misc.c **** /* inlining these functions is a huge speed increase and a small size decrease,
  40:Middlewares/Third_Party/wolfSSL_wolfSSL_wolfSSL/wolfssl/wolfcrypt/src/misc.c ****    because the functions are smaller than function call setup/cleanup, e.g.,
  41:Middlewares/Third_Party/wolfSSL_wolfSSL_wolfSSL/wolfssl/wolfcrypt/src/misc.c ****    md5 benchmark is twice as fast with inline.  If you don't want it, then
  42:Middlewares/Third_Party/wolfSSL_wolfSSL_wolfSSL/wolfssl/wolfcrypt/src/misc.c ****    define NO_INLINE and compile this file into wolfssl, otherwise it's used as
  43:Middlewares/Third_Party/wolfSSL_wolfSSL_wolfSSL/wolfssl/wolfcrypt/src/misc.c ****    a source header
  44:Middlewares/Third_Party/wolfSSL_wolfSSL_wolfSSL/wolfssl/wolfcrypt/src/misc.c ****  */
  45:Middlewares/Third_Party/wolfSSL_wolfSSL_wolfSSL/wolfssl/wolfcrypt/src/misc.c **** 
  46:Middlewares/Third_Party/wolfSSL_wolfSSL_wolfSSL/wolfssl/wolfcrypt/src/misc.c **** #ifdef NO_INLINE
  47:Middlewares/Third_Party/wolfSSL_wolfSSL_wolfSSL/wolfssl/wolfcrypt/src/misc.c ****     #define WC_STATIC
  48:Middlewares/Third_Party/wolfSSL_wolfSSL_wolfSSL/wolfssl/wolfcrypt/src/misc.c **** #else
  49:Middlewares/Third_Party/wolfSSL_wolfSSL_wolfSSL/wolfssl/wolfcrypt/src/misc.c ****     #define WC_STATIC static
  50:Middlewares/Third_Party/wolfSSL_wolfSSL_wolfSSL/wolfssl/wolfcrypt/src/misc.c **** #endif
  51:Middlewares/Third_Party/wolfSSL_wolfSSL_wolfSSL/wolfssl/wolfcrypt/src/misc.c **** 
  52:Middlewares/Third_Party/wolfSSL_wolfSSL_wolfSSL/wolfssl/wolfcrypt/src/misc.c **** /* Check for if compiling misc.c when not needed. */
  53:Middlewares/Third_Party/wolfSSL_wolfSSL_wolfSSL/wolfssl/wolfcrypt/src/misc.c **** #if !defined(WOLFSSL_MISC_INCLUDED) && !defined(NO_INLINE)
  54:Middlewares/Third_Party/wolfSSL_wolfSSL_wolfSSL/wolfssl/wolfcrypt/src/misc.c ****     #ifndef WOLFSSL_IGNORE_FILE_WARN
  55:Middlewares/Third_Party/wolfSSL_wolfSSL_wolfSSL/wolfssl/wolfcrypt/src/misc.c ****         #warning misc.c does not need to be compiled when using inline (NO_INLINE not defined)
  56:Middlewares/Third_Party/wolfSSL_wolfSSL_wolfSSL/wolfssl/wolfcrypt/src/misc.c ****     #endif
  57:Middlewares/Third_Party/wolfSSL_wolfSSL_wolfSSL/wolfssl/wolfcrypt/src/misc.c **** 
  58:Middlewares/Third_Party/wolfSSL_wolfSSL_wolfSSL/wolfssl/wolfcrypt/src/misc.c **** #else
  59:Middlewares/Third_Party/wolfSSL_wolfSSL_wolfSSL/wolfssl/wolfcrypt/src/misc.c **** 
  60:Middlewares/Third_Party/wolfSSL_wolfSSL_wolfSSL/wolfssl/wolfcrypt/src/misc.c **** 
  61:Middlewares/Third_Party/wolfSSL_wolfSSL_wolfSSL/wolfssl/wolfcrypt/src/misc.c **** #if defined(__ICCARM__)
  62:Middlewares/Third_Party/wolfSSL_wolfSSL_wolfSSL/wolfssl/wolfcrypt/src/misc.c ****     #include <intrinsics.h>
  63:Middlewares/Third_Party/wolfSSL_wolfSSL_wolfSSL/wolfssl/wolfcrypt/src/misc.c **** #endif
  64:Middlewares/Third_Party/wolfSSL_wolfSSL_wolfSSL/wolfssl/wolfcrypt/src/misc.c **** 
  65:Middlewares/Third_Party/wolfSSL_wolfSSL_wolfSSL/wolfssl/wolfcrypt/src/misc.c **** 
  66:Middlewares/Third_Party/wolfSSL_wolfSSL_wolfSSL/wolfssl/wolfcrypt/src/misc.c **** #ifdef INTEL_INTRINSICS
  67:Middlewares/Third_Party/wolfSSL_wolfSSL_wolfSSL/wolfssl/wolfcrypt/src/misc.c **** 
  68:Middlewares/Third_Party/wolfSSL_wolfSSL_wolfSSL/wolfssl/wolfcrypt/src/misc.c ****     #include <stdlib.h>      /* get intrinsic definitions */
  69:Middlewares/Third_Party/wolfSSL_wolfSSL_wolfSSL/wolfssl/wolfcrypt/src/misc.c **** 
  70:Middlewares/Third_Party/wolfSSL_wolfSSL_wolfSSL/wolfssl/wolfcrypt/src/misc.c ****     /* for non visual studio probably need no long version, 32 bit only
  71:Middlewares/Third_Party/wolfSSL_wolfSSL_wolfSSL/wolfssl/wolfcrypt/src/misc.c ****      * i.e., _rotl and _rotr */
  72:Middlewares/Third_Party/wolfSSL_wolfSSL_wolfSSL/wolfssl/wolfcrypt/src/misc.c ****     #pragma intrinsic(_lrotl, _lrotr)
  73:Middlewares/Third_Party/wolfSSL_wolfSSL_wolfSSL/wolfssl/wolfcrypt/src/misc.c **** 
  74:Middlewares/Third_Party/wolfSSL_wolfSSL_wolfSSL/wolfssl/wolfcrypt/src/misc.c ****     WC_STATIC WC_INLINE word32 rotlFixed(word32 x, word32 y)
  75:Middlewares/Third_Party/wolfSSL_wolfSSL_wolfSSL/wolfssl/wolfcrypt/src/misc.c ****     {
  76:Middlewares/Third_Party/wolfSSL_wolfSSL_wolfSSL/wolfssl/wolfcrypt/src/misc.c ****         return y ? _lrotl(x, y) : x;
  77:Middlewares/Third_Party/wolfSSL_wolfSSL_wolfSSL/wolfssl/wolfcrypt/src/misc.c ****     }
  78:Middlewares/Third_Party/wolfSSL_wolfSSL_wolfSSL/wolfssl/wolfcrypt/src/misc.c **** 
  79:Middlewares/Third_Party/wolfSSL_wolfSSL_wolfSSL/wolfssl/wolfcrypt/src/misc.c ****     WC_STATIC WC_INLINE word32 rotrFixed(word32 x, word32 y)
  80:Middlewares/Third_Party/wolfSSL_wolfSSL_wolfSSL/wolfssl/wolfcrypt/src/misc.c ****     {
  81:Middlewares/Third_Party/wolfSSL_wolfSSL_wolfSSL/wolfssl/wolfcrypt/src/misc.c ****         return y ? _lrotr(x, y) : x;
  82:Middlewares/Third_Party/wolfSSL_wolfSSL_wolfSSL/wolfssl/wolfcrypt/src/misc.c ****     }
  83:Middlewares/Third_Party/wolfSSL_wolfSSL_wolfSSL/wolfssl/wolfcrypt/src/misc.c **** 
  84:Middlewares/Third_Party/wolfSSL_wolfSSL_wolfSSL/wolfssl/wolfcrypt/src/misc.c **** #else /* generic */
  85:Middlewares/Third_Party/wolfSSL_wolfSSL_wolfSSL/wolfssl/wolfcrypt/src/misc.c **** /* This routine performs a left circular arithmetic shift of <x> by <y> value. */
  86:Middlewares/Third_Party/wolfSSL_wolfSSL_wolfSSL/wolfssl/wolfcrypt/src/misc.c **** 
ARM GAS  /tmp/ccIUkCMh.s 			page 49


  87:Middlewares/Third_Party/wolfSSL_wolfSSL_wolfSSL/wolfssl/wolfcrypt/src/misc.c ****     WC_STATIC WC_INLINE word32 rotlFixed(word32 x, word32 y)
  88:Middlewares/Third_Party/wolfSSL_wolfSSL_wolfSSL/wolfssl/wolfcrypt/src/misc.c ****     {
  89:Middlewares/Third_Party/wolfSSL_wolfSSL_wolfSSL/wolfssl/wolfcrypt/src/misc.c ****         return (x << y) | (x >> (sizeof(y) * 8 - y));
  90:Middlewares/Third_Party/wolfSSL_wolfSSL_wolfSSL/wolfssl/wolfcrypt/src/misc.c ****     }
  91:Middlewares/Third_Party/wolfSSL_wolfSSL_wolfSSL/wolfssl/wolfcrypt/src/misc.c **** 
  92:Middlewares/Third_Party/wolfSSL_wolfSSL_wolfSSL/wolfssl/wolfcrypt/src/misc.c **** /* This routine performs a right circular arithmetic shift of <x> by <y> value. */
  93:Middlewares/Third_Party/wolfSSL_wolfSSL_wolfSSL/wolfssl/wolfcrypt/src/misc.c ****     WC_STATIC WC_INLINE word32 rotrFixed(word32 x, word32 y)
  94:Middlewares/Third_Party/wolfSSL_wolfSSL_wolfSSL/wolfssl/wolfcrypt/src/misc.c ****     {
  95:Middlewares/Third_Party/wolfSSL_wolfSSL_wolfSSL/wolfssl/wolfcrypt/src/misc.c ****         return (x >> y) | (x << (sizeof(y) * 8 - y));
  96:Middlewares/Third_Party/wolfSSL_wolfSSL_wolfSSL/wolfssl/wolfcrypt/src/misc.c ****     }
  97:Middlewares/Third_Party/wolfSSL_wolfSSL_wolfSSL/wolfssl/wolfcrypt/src/misc.c **** 
  98:Middlewares/Third_Party/wolfSSL_wolfSSL_wolfSSL/wolfssl/wolfcrypt/src/misc.c **** #endif
  99:Middlewares/Third_Party/wolfSSL_wolfSSL_wolfSSL/wolfssl/wolfcrypt/src/misc.c **** 
 100:Middlewares/Third_Party/wolfSSL_wolfSSL_wolfSSL/wolfssl/wolfcrypt/src/misc.c **** #ifdef WC_RC2
 101:Middlewares/Third_Party/wolfSSL_wolfSSL_wolfSSL/wolfssl/wolfcrypt/src/misc.c **** 
 102:Middlewares/Third_Party/wolfSSL_wolfSSL_wolfSSL/wolfssl/wolfcrypt/src/misc.c **** /* This routine performs a left circular arithmetic shift of <x> by <y> value */
 103:Middlewares/Third_Party/wolfSSL_wolfSSL_wolfSSL/wolfssl/wolfcrypt/src/misc.c **** WC_STATIC WC_INLINE word16 rotlFixed16(word16 x, word16 y)
 104:Middlewares/Third_Party/wolfSSL_wolfSSL_wolfSSL/wolfssl/wolfcrypt/src/misc.c **** {
 105:Middlewares/Third_Party/wolfSSL_wolfSSL_wolfSSL/wolfssl/wolfcrypt/src/misc.c ****     return (x << y) | (x >> (sizeof(y) * 8 - y));
 106:Middlewares/Third_Party/wolfSSL_wolfSSL_wolfSSL/wolfssl/wolfcrypt/src/misc.c **** }
 107:Middlewares/Third_Party/wolfSSL_wolfSSL_wolfSSL/wolfssl/wolfcrypt/src/misc.c **** 
 108:Middlewares/Third_Party/wolfSSL_wolfSSL_wolfSSL/wolfssl/wolfcrypt/src/misc.c **** 
 109:Middlewares/Third_Party/wolfSSL_wolfSSL_wolfSSL/wolfssl/wolfcrypt/src/misc.c **** /* This routine performs a right circular arithmetic shift of <x> by <y> value */
 110:Middlewares/Third_Party/wolfSSL_wolfSSL_wolfSSL/wolfssl/wolfcrypt/src/misc.c **** WC_STATIC WC_INLINE word16 rotrFixed16(word16 x, word16 y)
 111:Middlewares/Third_Party/wolfSSL_wolfSSL_wolfSSL/wolfssl/wolfcrypt/src/misc.c **** {
 112:Middlewares/Third_Party/wolfSSL_wolfSSL_wolfSSL/wolfssl/wolfcrypt/src/misc.c ****     return (x >> y) | (x << (sizeof(y) * 8 - y));
 113:Middlewares/Third_Party/wolfSSL_wolfSSL_wolfSSL/wolfssl/wolfcrypt/src/misc.c **** }
 114:Middlewares/Third_Party/wolfSSL_wolfSSL_wolfSSL/wolfssl/wolfcrypt/src/misc.c **** 
 115:Middlewares/Third_Party/wolfSSL_wolfSSL_wolfSSL/wolfssl/wolfcrypt/src/misc.c **** #endif /* WC_RC2 */
 116:Middlewares/Third_Party/wolfSSL_wolfSSL_wolfSSL/wolfssl/wolfcrypt/src/misc.c **** 
 117:Middlewares/Third_Party/wolfSSL_wolfSSL_wolfSSL/wolfssl/wolfcrypt/src/misc.c **** /* This routine performs a byte swap of 32-bit word value. */
 118:Middlewares/Third_Party/wolfSSL_wolfSSL_wolfSSL/wolfssl/wolfcrypt/src/misc.c **** WC_STATIC WC_INLINE word32 ByteReverseWord32(word32 value)
 119:Middlewares/Third_Party/wolfSSL_wolfSSL_wolfSSL/wolfssl/wolfcrypt/src/misc.c **** {
 120:Middlewares/Third_Party/wolfSSL_wolfSSL_wolfSSL/wolfssl/wolfcrypt/src/misc.c **** #ifdef PPC_INTRINSICS
 121:Middlewares/Third_Party/wolfSSL_wolfSSL_wolfSSL/wolfssl/wolfcrypt/src/misc.c ****     /* PPC: load reverse indexed instruction */
 122:Middlewares/Third_Party/wolfSSL_wolfSSL_wolfSSL/wolfssl/wolfcrypt/src/misc.c ****     return (word32)__lwbrx(&value,0);
 123:Middlewares/Third_Party/wolfSSL_wolfSSL_wolfSSL/wolfssl/wolfcrypt/src/misc.c **** #elif defined(__ICCARM__)
 124:Middlewares/Third_Party/wolfSSL_wolfSSL_wolfSSL/wolfssl/wolfcrypt/src/misc.c ****     return (word32)__REV(value);
 125:Middlewares/Third_Party/wolfSSL_wolfSSL_wolfSSL/wolfssl/wolfcrypt/src/misc.c **** #elif defined(KEIL_INTRINSICS)
 126:Middlewares/Third_Party/wolfSSL_wolfSSL_wolfSSL/wolfssl/wolfcrypt/src/misc.c ****     return (word32)__rev(value);
 127:Middlewares/Third_Party/wolfSSL_wolfSSL_wolfSSL/wolfssl/wolfcrypt/src/misc.c **** #elif defined(WOLF_ALLOW_BUILTIN) && \
 128:Middlewares/Third_Party/wolfSSL_wolfSSL_wolfSSL/wolfssl/wolfcrypt/src/misc.c ****         defined(__GNUC_PREREQ) && __GNUC_PREREQ(4, 3)
 129:Middlewares/Third_Party/wolfSSL_wolfSSL_wolfSSL/wolfssl/wolfcrypt/src/misc.c ****     return (word32)__builtin_bswap32(value);
 130:Middlewares/Third_Party/wolfSSL_wolfSSL_wolfSSL/wolfssl/wolfcrypt/src/misc.c **** #elif defined(WOLFSSL_BYTESWAP32_ASM) && defined(__GNUC__) && \
 131:Middlewares/Third_Party/wolfSSL_wolfSSL_wolfSSL/wolfssl/wolfcrypt/src/misc.c ****       defined(__aarch64__)
 132:Middlewares/Third_Party/wolfSSL_wolfSSL_wolfSSL/wolfssl/wolfcrypt/src/misc.c ****     __asm__ volatile (
 133:Middlewares/Third_Party/wolfSSL_wolfSSL_wolfSSL/wolfssl/wolfcrypt/src/misc.c ****         "REV32 %0, %0  \n"
 134:Middlewares/Third_Party/wolfSSL_wolfSSL_wolfSSL/wolfssl/wolfcrypt/src/misc.c ****         : "+r" (value)
 135:Middlewares/Third_Party/wolfSSL_wolfSSL_wolfSSL/wolfssl/wolfcrypt/src/misc.c ****         :
 136:Middlewares/Third_Party/wolfSSL_wolfSSL_wolfSSL/wolfssl/wolfcrypt/src/misc.c ****     );
 137:Middlewares/Third_Party/wolfSSL_wolfSSL_wolfSSL/wolfssl/wolfcrypt/src/misc.c ****     return value;
 138:Middlewares/Third_Party/wolfSSL_wolfSSL_wolfSSL/wolfssl/wolfcrypt/src/misc.c **** #elif defined(WOLFSSL_BYTESWAP32_ASM) && defined(__GNUC__) && \
 139:Middlewares/Third_Party/wolfSSL_wolfSSL_wolfSSL/wolfssl/wolfcrypt/src/misc.c ****       (defined(__thumb__) || defined(__arm__))
 140:Middlewares/Third_Party/wolfSSL_wolfSSL_wolfSSL/wolfssl/wolfcrypt/src/misc.c ****     __asm__ volatile (
 141:Middlewares/Third_Party/wolfSSL_wolfSSL_wolfSSL/wolfssl/wolfcrypt/src/misc.c ****         "REV %0, %0  \n"
 142:Middlewares/Third_Party/wolfSSL_wolfSSL_wolfSSL/wolfssl/wolfcrypt/src/misc.c ****         : "+r" (value)
 143:Middlewares/Third_Party/wolfSSL_wolfSSL_wolfSSL/wolfssl/wolfcrypt/src/misc.c ****         :
ARM GAS  /tmp/ccIUkCMh.s 			page 50


 144:Middlewares/Third_Party/wolfSSL_wolfSSL_wolfSSL/wolfssl/wolfcrypt/src/misc.c ****     );
 145:Middlewares/Third_Party/wolfSSL_wolfSSL_wolfSSL/wolfssl/wolfcrypt/src/misc.c ****     return value;
 146:Middlewares/Third_Party/wolfSSL_wolfSSL_wolfSSL/wolfssl/wolfcrypt/src/misc.c **** #elif defined(FAST_ROTATE)
 147:Middlewares/Third_Party/wolfSSL_wolfSSL_wolfSSL/wolfssl/wolfcrypt/src/misc.c ****     /* 5 instructions with rotate instruction, 9 without */
 148:Middlewares/Third_Party/wolfSSL_wolfSSL_wolfSSL/wolfssl/wolfcrypt/src/misc.c ****     return (rotrFixed(value, 8U) & 0xff00ff00) |
 149:Middlewares/Third_Party/wolfSSL_wolfSSL_wolfSSL/wolfssl/wolfcrypt/src/misc.c ****            (rotlFixed(value, 8U) & 0x00ff00ff);
 150:Middlewares/Third_Party/wolfSSL_wolfSSL_wolfSSL/wolfssl/wolfcrypt/src/misc.c **** #else
 151:Middlewares/Third_Party/wolfSSL_wolfSSL_wolfSSL/wolfssl/wolfcrypt/src/misc.c ****     /* 6 instructions with rotate instruction, 8 without */
 152:Middlewares/Third_Party/wolfSSL_wolfSSL_wolfSSL/wolfssl/wolfcrypt/src/misc.c ****     value = ((value & 0xFF00FF00) >> 8) | ((value & 0x00FF00FF) << 8);
 153:Middlewares/Third_Party/wolfSSL_wolfSSL_wolfSSL/wolfssl/wolfcrypt/src/misc.c ****     return rotlFixed(value, 16U);
 154:Middlewares/Third_Party/wolfSSL_wolfSSL_wolfSSL/wolfssl/wolfcrypt/src/misc.c **** #endif
 155:Middlewares/Third_Party/wolfSSL_wolfSSL_wolfSSL/wolfssl/wolfcrypt/src/misc.c **** }
 156:Middlewares/Third_Party/wolfSSL_wolfSSL_wolfSSL/wolfssl/wolfcrypt/src/misc.c **** /* This routine performs a byte swap of words array of a given count. */
 157:Middlewares/Third_Party/wolfSSL_wolfSSL_wolfSSL/wolfssl/wolfcrypt/src/misc.c **** WC_STATIC WC_INLINE void ByteReverseWords(word32* out, const word32* in,
 158:Middlewares/Third_Party/wolfSSL_wolfSSL_wolfSSL/wolfssl/wolfcrypt/src/misc.c ****                                     word32 byteCount)
 159:Middlewares/Third_Party/wolfSSL_wolfSSL_wolfSSL/wolfssl/wolfcrypt/src/misc.c **** {
 160:Middlewares/Third_Party/wolfSSL_wolfSSL_wolfSSL/wolfssl/wolfcrypt/src/misc.c ****     word32 count = byteCount/(word32)sizeof(word32), i;
 161:Middlewares/Third_Party/wolfSSL_wolfSSL_wolfSSL/wolfssl/wolfcrypt/src/misc.c **** 
 162:Middlewares/Third_Party/wolfSSL_wolfSSL_wolfSSL/wolfssl/wolfcrypt/src/misc.c ****     for (i = 0; i < count; i++)
 163:Middlewares/Third_Party/wolfSSL_wolfSSL_wolfSSL/wolfssl/wolfcrypt/src/misc.c ****         out[i] = ByteReverseWord32(in[i]);
 164:Middlewares/Third_Party/wolfSSL_wolfSSL_wolfSSL/wolfssl/wolfcrypt/src/misc.c **** 
 165:Middlewares/Third_Party/wolfSSL_wolfSSL_wolfSSL/wolfssl/wolfcrypt/src/misc.c **** }
 166:Middlewares/Third_Party/wolfSSL_wolfSSL_wolfSSL/wolfssl/wolfcrypt/src/misc.c **** 
 167:Middlewares/Third_Party/wolfSSL_wolfSSL_wolfSSL/wolfssl/wolfcrypt/src/misc.c **** #if defined(WORD64_AVAILABLE) && !defined(WOLFSSL_NO_WORD64_OPS)
 168:Middlewares/Third_Party/wolfSSL_wolfSSL_wolfSSL/wolfssl/wolfcrypt/src/misc.c **** 
 169:Middlewares/Third_Party/wolfSSL_wolfSSL_wolfSSL/wolfssl/wolfcrypt/src/misc.c **** 
 170:Middlewares/Third_Party/wolfSSL_wolfSSL_wolfSSL/wolfssl/wolfcrypt/src/misc.c **** WC_STATIC WC_INLINE word64 rotlFixed64(word64 x, word64 y)
 171:Middlewares/Third_Party/wolfSSL_wolfSSL_wolfSSL/wolfssl/wolfcrypt/src/misc.c **** {
 172:Middlewares/Third_Party/wolfSSL_wolfSSL_wolfSSL/wolfssl/wolfcrypt/src/misc.c ****     return (x << y) | (x >> (sizeof(y) * 8 - y));
 173:Middlewares/Third_Party/wolfSSL_wolfSSL_wolfSSL/wolfssl/wolfcrypt/src/misc.c **** }
 174:Middlewares/Third_Party/wolfSSL_wolfSSL_wolfSSL/wolfssl/wolfcrypt/src/misc.c **** 
 175:Middlewares/Third_Party/wolfSSL_wolfSSL_wolfSSL/wolfssl/wolfcrypt/src/misc.c **** 
 176:Middlewares/Third_Party/wolfSSL_wolfSSL_wolfSSL/wolfssl/wolfcrypt/src/misc.c **** WC_STATIC WC_INLINE word64 rotrFixed64(word64 x, word64 y)
 177:Middlewares/Third_Party/wolfSSL_wolfSSL_wolfSSL/wolfssl/wolfcrypt/src/misc.c **** {
 178:Middlewares/Third_Party/wolfSSL_wolfSSL_wolfSSL/wolfssl/wolfcrypt/src/misc.c ****     return (x >> y) | (x << (sizeof(y) * 8 - y));
 179:Middlewares/Third_Party/wolfSSL_wolfSSL_wolfSSL/wolfssl/wolfcrypt/src/misc.c **** }
 180:Middlewares/Third_Party/wolfSSL_wolfSSL_wolfSSL/wolfssl/wolfcrypt/src/misc.c **** 
 181:Middlewares/Third_Party/wolfSSL_wolfSSL_wolfSSL/wolfssl/wolfcrypt/src/misc.c **** 
 182:Middlewares/Third_Party/wolfSSL_wolfSSL_wolfSSL/wolfssl/wolfcrypt/src/misc.c **** WC_STATIC WC_INLINE word64 ByteReverseWord64(word64 value)
 183:Middlewares/Third_Party/wolfSSL_wolfSSL_wolfSSL/wolfssl/wolfcrypt/src/misc.c **** {
 184:Middlewares/Third_Party/wolfSSL_wolfSSL_wolfSSL/wolfssl/wolfcrypt/src/misc.c **** #if defined(WOLF_ALLOW_BUILTIN) && defined(__GNUC_PREREQ) && __GNUC_PREREQ(4, 3)
 185:Middlewares/Third_Party/wolfSSL_wolfSSL_wolfSSL/wolfssl/wolfcrypt/src/misc.c ****     return (word64)__builtin_bswap64(value);
 186:Middlewares/Third_Party/wolfSSL_wolfSSL_wolfSSL/wolfssl/wolfcrypt/src/misc.c **** #elif defined(WOLFCRYPT_SLOW_WORD64)
 187:Middlewares/Third_Party/wolfSSL_wolfSSL_wolfSSL/wolfssl/wolfcrypt/src/misc.c **** 	return (word64)((word64)ByteReverseWord32((word32) value)) << 32 |
 188:Middlewares/Third_Party/wolfSSL_wolfSSL_wolfSSL/wolfssl/wolfcrypt/src/misc.c ****                     (word64)ByteReverseWord32((word32)(value   >> 32));
 189:Middlewares/Third_Party/wolfSSL_wolfSSL_wolfSSL/wolfssl/wolfcrypt/src/misc.c **** #else
 190:Middlewares/Third_Party/wolfSSL_wolfSSL_wolfSSL/wolfssl/wolfcrypt/src/misc.c **** 	value = ((value & W64LIT(0xFF00FF00FF00FF00)) >> 8) |
 191:Middlewares/Third_Party/wolfSSL_wolfSSL_wolfSSL/wolfssl/wolfcrypt/src/misc.c ****             ((value & W64LIT(0x00FF00FF00FF00FF)) << 8);
 192:Middlewares/Third_Party/wolfSSL_wolfSSL_wolfSSL/wolfssl/wolfcrypt/src/misc.c **** 	value = ((value & W64LIT(0xFFFF0000FFFF0000)) >> 16) |
 193:Middlewares/Third_Party/wolfSSL_wolfSSL_wolfSSL/wolfssl/wolfcrypt/src/misc.c ****             ((value & W64LIT(0x0000FFFF0000FFFF)) << 16);
 194:Middlewares/Third_Party/wolfSSL_wolfSSL_wolfSSL/wolfssl/wolfcrypt/src/misc.c **** 	return rotlFixed64(value, 32U);
 195:Middlewares/Third_Party/wolfSSL_wolfSSL_wolfSSL/wolfssl/wolfcrypt/src/misc.c **** #endif
 196:Middlewares/Third_Party/wolfSSL_wolfSSL_wolfSSL/wolfssl/wolfcrypt/src/misc.c **** }
 197:Middlewares/Third_Party/wolfSSL_wolfSSL_wolfSSL/wolfssl/wolfcrypt/src/misc.c **** 
 198:Middlewares/Third_Party/wolfSSL_wolfSSL_wolfSSL/wolfssl/wolfcrypt/src/misc.c **** 
 199:Middlewares/Third_Party/wolfSSL_wolfSSL_wolfSSL/wolfssl/wolfcrypt/src/misc.c **** WC_STATIC WC_INLINE void ByteReverseWords64(word64* out, const word64* in,
 200:Middlewares/Third_Party/wolfSSL_wolfSSL_wolfSSL/wolfssl/wolfcrypt/src/misc.c ****                                       word32 byteCount)
ARM GAS  /tmp/ccIUkCMh.s 			page 51


 201:Middlewares/Third_Party/wolfSSL_wolfSSL_wolfSSL/wolfssl/wolfcrypt/src/misc.c **** {
 202:Middlewares/Third_Party/wolfSSL_wolfSSL_wolfSSL/wolfssl/wolfcrypt/src/misc.c ****     word32 count = byteCount/(word32)sizeof(word64), i;
 203:Middlewares/Third_Party/wolfSSL_wolfSSL_wolfSSL/wolfssl/wolfcrypt/src/misc.c **** 
 204:Middlewares/Third_Party/wolfSSL_wolfSSL_wolfSSL/wolfssl/wolfcrypt/src/misc.c ****     for (i = 0; i < count; i++)
 205:Middlewares/Third_Party/wolfSSL_wolfSSL_wolfSSL/wolfssl/wolfcrypt/src/misc.c ****         out[i] = ByteReverseWord64(in[i]);
 206:Middlewares/Third_Party/wolfSSL_wolfSSL_wolfSSL/wolfssl/wolfcrypt/src/misc.c **** 
 207:Middlewares/Third_Party/wolfSSL_wolfSSL_wolfSSL/wolfssl/wolfcrypt/src/misc.c **** }
 208:Middlewares/Third_Party/wolfSSL_wolfSSL_wolfSSL/wolfssl/wolfcrypt/src/misc.c **** 
 209:Middlewares/Third_Party/wolfSSL_wolfSSL_wolfSSL/wolfssl/wolfcrypt/src/misc.c **** #endif /* WORD64_AVAILABLE && !WOLFSSL_NO_WORD64_OPS */
 210:Middlewares/Third_Party/wolfSSL_wolfSSL_wolfSSL/wolfssl/wolfcrypt/src/misc.c **** 
 211:Middlewares/Third_Party/wolfSSL_wolfSSL_wolfSSL/wolfssl/wolfcrypt/src/misc.c **** #ifndef WOLFSSL_NO_XOR_OPS
 212:Middlewares/Third_Party/wolfSSL_wolfSSL_wolfSSL/wolfssl/wolfcrypt/src/misc.c **** /* This routine performs a bitwise XOR operation of <*r> and <*a> for <n> number
 213:Middlewares/Third_Party/wolfSSL_wolfSSL_wolfSSL/wolfssl/wolfcrypt/src/misc.c **** of wolfssl_words, placing the result in <*r>. */
 214:Middlewares/Third_Party/wolfSSL_wolfSSL_wolfSSL/wolfssl/wolfcrypt/src/misc.c **** WC_STATIC WC_INLINE void XorWordsOut(wolfssl_word* r, const wolfssl_word* a,
 215:Middlewares/Third_Party/wolfSSL_wolfSSL_wolfSSL/wolfssl/wolfcrypt/src/misc.c ****                                      const wolfssl_word* b, word32 n)
 216:Middlewares/Third_Party/wolfSSL_wolfSSL_wolfSSL/wolfssl/wolfcrypt/src/misc.c **** {
 217:Middlewares/Third_Party/wolfSSL_wolfSSL_wolfSSL/wolfssl/wolfcrypt/src/misc.c ****     word32 i;
 218:Middlewares/Third_Party/wolfSSL_wolfSSL_wolfSSL/wolfssl/wolfcrypt/src/misc.c **** 
 219:Middlewares/Third_Party/wolfSSL_wolfSSL_wolfSSL/wolfssl/wolfcrypt/src/misc.c ****     for (i = 0; i < n; i++) r[i] = a[i] ^ b[i];
 220:Middlewares/Third_Party/wolfSSL_wolfSSL_wolfSSL/wolfssl/wolfcrypt/src/misc.c **** }
 221:Middlewares/Third_Party/wolfSSL_wolfSSL_wolfSSL/wolfssl/wolfcrypt/src/misc.c **** 
 222:Middlewares/Third_Party/wolfSSL_wolfSSL_wolfSSL/wolfssl/wolfcrypt/src/misc.c **** /* This routine performs a bitwise XOR operation of <*buf> and <*mask> of n
 223:Middlewares/Third_Party/wolfSSL_wolfSSL_wolfSSL/wolfssl/wolfcrypt/src/misc.c **** counts, placing the result in <*buf>. */
 224:Middlewares/Third_Party/wolfSSL_wolfSSL_wolfSSL/wolfssl/wolfcrypt/src/misc.c **** 
 225:Middlewares/Third_Party/wolfSSL_wolfSSL_wolfSSL/wolfssl/wolfcrypt/src/misc.c **** WC_STATIC WC_INLINE void xorbufout(void*out, const void* buf, const void* mask,
 226:Middlewares/Third_Party/wolfSSL_wolfSSL_wolfSSL/wolfssl/wolfcrypt/src/misc.c ****                                    word32 count)
 227:Middlewares/Third_Party/wolfSSL_wolfSSL_wolfSSL/wolfssl/wolfcrypt/src/misc.c **** {
 228:Middlewares/Third_Party/wolfSSL_wolfSSL_wolfSSL/wolfssl/wolfcrypt/src/misc.c ****     if (((wolfssl_word)out | (wolfssl_word)buf | (wolfssl_word)mask | count) % \
 229:Middlewares/Third_Party/wolfSSL_wolfSSL_wolfSSL/wolfssl/wolfcrypt/src/misc.c ****                                                          WOLFSSL_WORD_SIZE == 0)
 230:Middlewares/Third_Party/wolfSSL_wolfSSL_wolfSSL/wolfssl/wolfcrypt/src/misc.c ****         XorWordsOut( (wolfssl_word*)out, (wolfssl_word*)buf,
 231:Middlewares/Third_Party/wolfSSL_wolfSSL_wolfSSL/wolfssl/wolfcrypt/src/misc.c ****                      (const wolfssl_word*)mask, count / WOLFSSL_WORD_SIZE);
 232:Middlewares/Third_Party/wolfSSL_wolfSSL_wolfSSL/wolfssl/wolfcrypt/src/misc.c ****     else {
 233:Middlewares/Third_Party/wolfSSL_wolfSSL_wolfSSL/wolfssl/wolfcrypt/src/misc.c ****         word32 i;
 234:Middlewares/Third_Party/wolfSSL_wolfSSL_wolfSSL/wolfssl/wolfcrypt/src/misc.c ****         byte*       o = (byte*)out;
 235:Middlewares/Third_Party/wolfSSL_wolfSSL_wolfSSL/wolfssl/wolfcrypt/src/misc.c ****         byte*       b = (byte*)buf;
 236:Middlewares/Third_Party/wolfSSL_wolfSSL_wolfSSL/wolfssl/wolfcrypt/src/misc.c ****         const byte* m = (const byte*)mask;
 237:Middlewares/Third_Party/wolfSSL_wolfSSL_wolfSSL/wolfssl/wolfcrypt/src/misc.c **** 
 238:Middlewares/Third_Party/wolfSSL_wolfSSL_wolfSSL/wolfssl/wolfcrypt/src/misc.c ****         for (i = 0; i < count; i++) o[i] = b[i] ^ m[i];
 239:Middlewares/Third_Party/wolfSSL_wolfSSL_wolfSSL/wolfssl/wolfcrypt/src/misc.c ****     }
 240:Middlewares/Third_Party/wolfSSL_wolfSSL_wolfSSL/wolfssl/wolfcrypt/src/misc.c **** }
 241:Middlewares/Third_Party/wolfSSL_wolfSSL_wolfSSL/wolfssl/wolfcrypt/src/misc.c **** 
 242:Middlewares/Third_Party/wolfSSL_wolfSSL_wolfSSL/wolfssl/wolfcrypt/src/misc.c **** /* This routine performs a bitwise XOR operation of <*r> and <*a> for <n> number
 243:Middlewares/Third_Party/wolfSSL_wolfSSL_wolfSSL/wolfssl/wolfcrypt/src/misc.c **** of wolfssl_words, placing the result in <*r>. */
 244:Middlewares/Third_Party/wolfSSL_wolfSSL_wolfSSL/wolfssl/wolfcrypt/src/misc.c **** WC_STATIC WC_INLINE void XorWords(wolfssl_word* r, const wolfssl_word* a, word32 n)
 245:Middlewares/Third_Party/wolfSSL_wolfSSL_wolfSSL/wolfssl/wolfcrypt/src/misc.c **** {
 246:Middlewares/Third_Party/wolfSSL_wolfSSL_wolfSSL/wolfssl/wolfcrypt/src/misc.c ****     word32 i;
 247:Middlewares/Third_Party/wolfSSL_wolfSSL_wolfSSL/wolfssl/wolfcrypt/src/misc.c **** 
 248:Middlewares/Third_Party/wolfSSL_wolfSSL_wolfSSL/wolfssl/wolfcrypt/src/misc.c ****     for (i = 0; i < n; i++) r[i] ^= a[i];
 249:Middlewares/Third_Party/wolfSSL_wolfSSL_wolfSSL/wolfssl/wolfcrypt/src/misc.c **** }
 250:Middlewares/Third_Party/wolfSSL_wolfSSL_wolfSSL/wolfssl/wolfcrypt/src/misc.c **** 
 251:Middlewares/Third_Party/wolfSSL_wolfSSL_wolfSSL/wolfssl/wolfcrypt/src/misc.c **** /* This routine performs a bitwise XOR operation of <*buf> and <*mask> of n
 252:Middlewares/Third_Party/wolfSSL_wolfSSL_wolfSSL/wolfssl/wolfcrypt/src/misc.c **** counts, placing the result in <*buf>. */
 253:Middlewares/Third_Party/wolfSSL_wolfSSL_wolfSSL/wolfssl/wolfcrypt/src/misc.c **** 
 254:Middlewares/Third_Party/wolfSSL_wolfSSL_wolfSSL/wolfssl/wolfcrypt/src/misc.c **** WC_STATIC WC_INLINE void xorbuf(void* buf, const void* mask, word32 count)
 255:Middlewares/Third_Party/wolfSSL_wolfSSL_wolfSSL/wolfssl/wolfcrypt/src/misc.c **** {
 256:Middlewares/Third_Party/wolfSSL_wolfSSL_wolfSSL/wolfssl/wolfcrypt/src/misc.c ****     if (((wolfssl_word)buf | (wolfssl_word)mask | count) % WOLFSSL_WORD_SIZE == 0)
 257:Middlewares/Third_Party/wolfSSL_wolfSSL_wolfSSL/wolfssl/wolfcrypt/src/misc.c ****         XorWords( (wolfssl_word*)buf,
ARM GAS  /tmp/ccIUkCMh.s 			page 52


 258:Middlewares/Third_Party/wolfSSL_wolfSSL_wolfSSL/wolfssl/wolfcrypt/src/misc.c ****                   (const wolfssl_word*)mask, count / WOLFSSL_WORD_SIZE);
 259:Middlewares/Third_Party/wolfSSL_wolfSSL_wolfSSL/wolfssl/wolfcrypt/src/misc.c ****     else {
 260:Middlewares/Third_Party/wolfSSL_wolfSSL_wolfSSL/wolfssl/wolfcrypt/src/misc.c ****         word32 i;
 261:Middlewares/Third_Party/wolfSSL_wolfSSL_wolfSSL/wolfssl/wolfcrypt/src/misc.c ****         byte*       b = (byte*)buf;
 262:Middlewares/Third_Party/wolfSSL_wolfSSL_wolfSSL/wolfssl/wolfcrypt/src/misc.c ****         const byte* m = (const byte*)mask;
 263:Middlewares/Third_Party/wolfSSL_wolfSSL_wolfSSL/wolfssl/wolfcrypt/src/misc.c **** 
 264:Middlewares/Third_Party/wolfSSL_wolfSSL_wolfSSL/wolfssl/wolfcrypt/src/misc.c ****         for (i = 0; i < count; i++) b[i] ^= m[i];
 265:Middlewares/Third_Party/wolfSSL_wolfSSL_wolfSSL/wolfssl/wolfcrypt/src/misc.c ****     }
 266:Middlewares/Third_Party/wolfSSL_wolfSSL_wolfSSL/wolfssl/wolfcrypt/src/misc.c **** }
 267:Middlewares/Third_Party/wolfSSL_wolfSSL_wolfSSL/wolfssl/wolfcrypt/src/misc.c **** #endif
 268:Middlewares/Third_Party/wolfSSL_wolfSSL_wolfSSL/wolfssl/wolfcrypt/src/misc.c **** 
 269:Middlewares/Third_Party/wolfSSL_wolfSSL_wolfSSL/wolfssl/wolfcrypt/src/misc.c **** #ifndef WOLFSSL_NO_FORCE_ZERO
 270:Middlewares/Third_Party/wolfSSL_wolfSSL_wolfSSL/wolfssl/wolfcrypt/src/misc.c **** /* This routine fills the first len bytes of the memory area pointed by mem
 271:Middlewares/Third_Party/wolfSSL_wolfSSL_wolfSSL/wolfssl/wolfcrypt/src/misc.c ****    with zeros. It ensures compiler optimizations doesn't skip it  */
 272:Middlewares/Third_Party/wolfSSL_wolfSSL_wolfSSL/wolfssl/wolfcrypt/src/misc.c **** WC_STATIC WC_INLINE void ForceZero(const void* mem, word32 len)
 1036              		.loc 2 272 26 view .LVU236
 1037              	.LBB14:
 273:Middlewares/Third_Party/wolfSSL_wolfSSL_wolfSSL/wolfssl/wolfcrypt/src/misc.c **** {
 274:Middlewares/Third_Party/wolfSSL_wolfSSL_wolfSSL/wolfssl/wolfcrypt/src/misc.c ****     volatile byte* z = (volatile byte*)mem;
 1038              		.loc 2 274 5 view .LVU237
 275:Middlewares/Third_Party/wolfSSL_wolfSSL_wolfSSL/wolfssl/wolfcrypt/src/misc.c **** 
 276:Middlewares/Third_Party/wolfSSL_wolfSSL_wolfSSL/wolfssl/wolfcrypt/src/misc.c **** #if (defined(WOLFSSL_X86_64_BUILD) || defined(WOLFSSL_AARCH64_BUILD)) \
 277:Middlewares/Third_Party/wolfSSL_wolfSSL_wolfSSL/wolfssl/wolfcrypt/src/misc.c ****             && defined(WORD64_AVAILABLE)
 278:Middlewares/Third_Party/wolfSSL_wolfSSL_wolfSSL/wolfssl/wolfcrypt/src/misc.c ****     volatile word64* w;
 279:Middlewares/Third_Party/wolfSSL_wolfSSL_wolfSSL/wolfssl/wolfcrypt/src/misc.c ****     #ifndef WOLFSSL_UNALIGNED_64BIT_ACCESS
 280:Middlewares/Third_Party/wolfSSL_wolfSSL_wolfSSL/wolfssl/wolfcrypt/src/misc.c ****         word32 l = (sizeof(word64) - ((size_t)z & (sizeof(word64)-1))) &
 281:Middlewares/Third_Party/wolfSSL_wolfSSL_wolfSSL/wolfssl/wolfcrypt/src/misc.c ****                                                              (sizeof(word64)-1);
 282:Middlewares/Third_Party/wolfSSL_wolfSSL_wolfSSL/wolfssl/wolfcrypt/src/misc.c **** 
 283:Middlewares/Third_Party/wolfSSL_wolfSSL_wolfSSL/wolfssl/wolfcrypt/src/misc.c ****         if (len < l) l = len;
 284:Middlewares/Third_Party/wolfSSL_wolfSSL_wolfSSL/wolfssl/wolfcrypt/src/misc.c ****         len -= l;
 285:Middlewares/Third_Party/wolfSSL_wolfSSL_wolfSSL/wolfssl/wolfcrypt/src/misc.c ****         while (l--) *z++ = 0;
 286:Middlewares/Third_Party/wolfSSL_wolfSSL_wolfSSL/wolfssl/wolfcrypt/src/misc.c ****     #endif
 287:Middlewares/Third_Party/wolfSSL_wolfSSL_wolfSSL/wolfssl/wolfcrypt/src/misc.c ****     for (w = (volatile word64*)z; len >= sizeof(*w); len -= sizeof(*w))
 288:Middlewares/Third_Party/wolfSSL_wolfSSL_wolfSSL/wolfssl/wolfcrypt/src/misc.c ****         *w++ = 0;
 289:Middlewares/Third_Party/wolfSSL_wolfSSL_wolfSSL/wolfssl/wolfcrypt/src/misc.c ****     z = (volatile byte*)w;
 290:Middlewares/Third_Party/wolfSSL_wolfSSL_wolfSSL/wolfssl/wolfcrypt/src/misc.c **** #endif
 291:Middlewares/Third_Party/wolfSSL_wolfSSL_wolfSSL/wolfssl/wolfcrypt/src/misc.c **** 
 292:Middlewares/Third_Party/wolfSSL_wolfSSL_wolfSSL/wolfssl/wolfcrypt/src/misc.c ****     while (len--) *z++ = 0;
 1039              		.loc 2 292 5 view .LVU238
 274:Middlewares/Third_Party/wolfSSL_wolfSSL_wolfSSL/wolfssl/wolfcrypt/src/misc.c **** 
 1040              		.loc 2 274 20 is_stmt 0 view .LVU239
 1041 0058 3B46     		mov	r3, r7
 1042              		.loc 2 292 11 view .LVU240
 1043 005a 2022     		movs	r2, #32
 1044 005c 84E0     		b	.L111
 1045              	.LVL123:
 1046              	.L95:
 1047              		.loc 2 292 11 view .LVU241
 1048              	.LBE14:
 1049              	.LBE13:
1459:Middlewares/Third_Party/wolfSSL_wolfSSL_wolfSSL/wolfssl/wolfcrypt/src/hash.c ****         if (current)  XFREE(current,  heap, DYNAMIC_TYPE_DIGEST);
 1050              		.loc 1 1459 9 is_stmt 1 view .LVU242
1459:Middlewares/Third_Party/wolfSSL_wolfSSL_wolfSSL/wolfssl/wolfcrypt/src/hash.c ****         if (current)  XFREE(current,  heap, DYNAMIC_TYPE_DIGEST);
 1051              		.loc 1 1459 12 is_stmt 0 view .LVU243
 1052 005e 17B1     		cbz	r7, .L97
1459:Middlewares/Third_Party/wolfSSL_wolfSSL_wolfSSL/wolfssl/wolfcrypt/src/hash.c ****         if (current)  XFREE(current,  heap, DYNAMIC_TYPE_DIGEST);
 1053              		.loc 1 1459 23 is_stmt 1 discriminator 1 view .LVU244
ARM GAS  /tmp/ccIUkCMh.s 			page 53


 1054 0060 3846     		mov	r0, r7
 1055              	.LVL124:
1459:Middlewares/Third_Party/wolfSSL_wolfSSL_wolfSSL/wolfssl/wolfcrypt/src/hash.c ****         if (current)  XFREE(current,  heap, DYNAMIC_TYPE_DIGEST);
 1056              		.loc 1 1459 23 is_stmt 0 discriminator 1 view .LVU245
 1057 0062 FFF7FEFF 		bl	vPortFree
 1058              	.LVL125:
 1059              	.L97:
1460:Middlewares/Third_Party/wolfSSL_wolfSSL_wolfSSL/wolfssl/wolfcrypt/src/hash.c ****         if (hmac)     XFREE(hmac,     heap, DYNAMIC_TYPE_HMAC);
 1060              		.loc 1 1460 9 is_stmt 1 view .LVU246
1460:Middlewares/Third_Party/wolfSSL_wolfSSL_wolfSSL/wolfssl/wolfcrypt/src/hash.c ****         if (hmac)     XFREE(hmac,     heap, DYNAMIC_TYPE_HMAC);
 1061              		.loc 1 1460 12 is_stmt 0 view .LVU247
 1062 0066 14B1     		cbz	r4, .L98
1460:Middlewares/Third_Party/wolfSSL_wolfSSL_wolfSSL/wolfssl/wolfcrypt/src/hash.c ****         if (hmac)     XFREE(hmac,     heap, DYNAMIC_TYPE_HMAC);
 1063              		.loc 1 1460 23 is_stmt 1 discriminator 1 view .LVU248
 1064 0068 2046     		mov	r0, r4
 1065 006a FFF7FEFF 		bl	vPortFree
 1066              	.LVL126:
 1067              	.L98:
1461:Middlewares/Third_Party/wolfSSL_wolfSSL_wolfSSL/wolfssl/wolfcrypt/src/hash.c **** 
 1068              		.loc 1 1461 9 view .LVU249
1461:Middlewares/Third_Party/wolfSSL_wolfSSL_wolfSSL/wolfssl/wolfcrypt/src/hash.c **** 
 1069              		.loc 1 1461 12 is_stmt 0 view .LVU250
 1070 006e 15B1     		cbz	r5, .L99
1461:Middlewares/Third_Party/wolfSSL_wolfSSL_wolfSSL/wolfssl/wolfcrypt/src/hash.c **** 
 1071              		.loc 1 1461 23 is_stmt 1 discriminator 1 view .LVU251
 1072 0070 2846     		mov	r0, r5
 1073 0072 FFF7FEFF 		bl	vPortFree
 1074              	.LVL127:
 1075              	.L99:
1463:Middlewares/Third_Party/wolfSSL_wolfSSL_wolfSSL/wolfssl/wolfcrypt/src/hash.c ****     }
 1076              		.loc 1 1463 9 view .LVU252
1463:Middlewares/Third_Party/wolfSSL_wolfSSL_wolfSSL/wolfssl/wolfcrypt/src/hash.c ****     }
 1077              		.loc 1 1463 16 is_stmt 0 view .LVU253
 1078 0076 6FF07C06 		mvn	r6, #124
 1079              	.LVL128:
1463:Middlewares/Third_Party/wolfSSL_wolfSSL_wolfSSL/wolfssl/wolfcrypt/src/hash.c ****     }
 1080              		.loc 1 1463 16 view .LVU254
 1081 007a 96E0     		b	.L94
 1082              	.LVL129:
 1083              	.L125:
1477:Middlewares/Third_Party/wolfSSL_wolfSSL_wolfSSL/wolfssl/wolfcrypt/src/hash.c ****             len  = WC_SHA256_DIGEST_SIZE;
 1084              		.loc 1 1477 18 view .LVU255
 1085 007c 0623     		movs	r3, #6
 1086 007e 0E93     		str	r3, [sp, #56]
 1087              	.LVL130:
1477:Middlewares/Third_Party/wolfSSL_wolfSSL_wolfSSL/wolfssl/wolfcrypt/src/hash.c ****             len  = WC_SHA256_DIGEST_SIZE;
 1088              		.loc 1 1477 18 view .LVU256
 1089 0080 D8E7     		b	.L101
 1090              	.LVL131:
 1091              	.L126:
1508:Middlewares/Third_Party/wolfSSL_wolfSSL_wolfSSL/wolfssl/wolfcrypt/src/hash.c ****         if (ret == 0)
 1092              		.loc 1 1508 9 is_stmt 1 view .LVU257
1508:Middlewares/Third_Party/wolfSSL_wolfSSL_wolfSSL/wolfssl/wolfcrypt/src/hash.c ****         if (ret == 0)
 1093              		.loc 1 1508 15 is_stmt 0 view .LVU258
 1094 0082 5346     		mov	r3, r10
 1095 0084 4246     		mov	r2, r8
 1096 0086 0E99     		ldr	r1, [sp, #56]
ARM GAS  /tmp/ccIUkCMh.s 			page 54


 1097 0088 2846     		mov	r0, r5
 1098              	.LVL132:
1508:Middlewares/Third_Party/wolfSSL_wolfSSL_wolfSSL/wolfssl/wolfcrypt/src/hash.c ****         if (ret == 0)
 1099              		.loc 1 1508 15 view .LVU259
 1100 008a FFF7FEFF 		bl	wc_HmacSetKey
 1101              	.LVL133:
1509:Middlewares/Third_Party/wolfSSL_wolfSSL_wolfSSL/wolfssl/wolfcrypt/src/hash.c ****             ret = wc_HmacUpdate(hmac, seed, seedLen); /* A0 = seed */
 1102              		.loc 1 1509 9 is_stmt 1 view .LVU260
1509:Middlewares/Third_Party/wolfSSL_wolfSSL_wolfSSL/wolfssl/wolfcrypt/src/hash.c ****             ret = wc_HmacUpdate(hmac, seed, seedLen); /* A0 = seed */
 1103              		.loc 1 1509 12 is_stmt 0 view .LVU261
 1104 008e 0646     		mov	r6, r0
 1105 0090 30B1     		cbz	r0, .L127
 1106              	.L104:
1511:Middlewares/Third_Party/wolfSSL_wolfSSL_wolfSSL/wolfssl/wolfcrypt/src/hash.c ****             ret = wc_HmacFinal(hmac, previous);       /* A1 */
 1107              		.loc 1 1511 9 is_stmt 1 view .LVU262
1511:Middlewares/Third_Party/wolfSSL_wolfSSL_wolfSSL/wolfssl/wolfcrypt/src/hash.c ****             ret = wc_HmacFinal(hmac, previous);       /* A1 */
 1108              		.loc 1 1511 12 is_stmt 0 view .LVU263
 1109 0092 66B1     		cbz	r6, .L128
 1110              	.L105:
1513:Middlewares/Third_Party/wolfSSL_wolfSSL_wolfSSL/wolfssl/wolfcrypt/src/hash.c ****             for (i = 0; i < times; i++) {
 1111              		.loc 1 1513 9 is_stmt 1 view .LVU264
1513:Middlewares/Third_Party/wolfSSL_wolfSSL_wolfSSL/wolfssl/wolfcrypt/src/hash.c ****             for (i = 0; i < times; i++) {
 1112              		.loc 1 1513 12 is_stmt 0 view .LVU265
 1113 0094 002E     		cmp	r6, #0
 1114 0096 5FD0     		beq	.L118
 1115              	.LVL134:
 1116              	.L107:
1540:Middlewares/Third_Party/wolfSSL_wolfSSL_wolfSSL/wolfssl/wolfcrypt/src/hash.c ****     }
 1117              		.loc 1 1540 9 is_stmt 1 view .LVU266
 1118 0098 2846     		mov	r0, r5
 1119 009a FFF7FEFF 		bl	wc_HmacFree
 1120              	.LVL135:
 1121 009e DBE7     		b	.L103
 1122              	.LVL136:
 1123              	.L127:
1510:Middlewares/Third_Party/wolfSSL_wolfSSL_wolfSSL/wolfssl/wolfcrypt/src/hash.c ****         if (ret == 0)
 1124              		.loc 1 1510 13 view .LVU267
1510:Middlewares/Third_Party/wolfSSL_wolfSSL_wolfSSL/wolfssl/wolfcrypt/src/hash.c ****         if (ret == 0)
 1125              		.loc 1 1510 19 is_stmt 0 view .LVU268
 1126 00a0 0D9A     		ldr	r2, [sp, #52]
 1127 00a2 0C99     		ldr	r1, [sp, #48]
 1128 00a4 2846     		mov	r0, r5
 1129              	.LVL137:
1510:Middlewares/Third_Party/wolfSSL_wolfSSL_wolfSSL/wolfssl/wolfcrypt/src/hash.c ****         if (ret == 0)
 1130              		.loc 1 1510 19 view .LVU269
 1131 00a6 FFF7FEFF 		bl	wc_HmacUpdate
 1132              	.LVL138:
 1133 00aa 0646     		mov	r6, r0
 1134              	.LVL139:
1510:Middlewares/Third_Party/wolfSSL_wolfSSL_wolfSSL/wolfssl/wolfcrypt/src/hash.c ****         if (ret == 0)
 1135              		.loc 1 1510 19 view .LVU270
 1136 00ac F1E7     		b	.L104
 1137              	.L128:
1512:Middlewares/Third_Party/wolfSSL_wolfSSL_wolfSSL/wolfssl/wolfcrypt/src/hash.c ****         if (ret == 0) {
 1138              		.loc 1 1512 13 is_stmt 1 view .LVU271
1512:Middlewares/Third_Party/wolfSSL_wolfSSL_wolfSSL/wolfssl/wolfcrypt/src/hash.c ****         if (ret == 0) {
 1139              		.loc 1 1512 19 is_stmt 0 view .LVU272
ARM GAS  /tmp/ccIUkCMh.s 			page 55


 1140 00ae 3946     		mov	r1, r7
 1141 00b0 2846     		mov	r0, r5
 1142              	.LVL140:
1512:Middlewares/Third_Party/wolfSSL_wolfSSL_wolfSSL/wolfssl/wolfcrypt/src/hash.c ****         if (ret == 0) {
 1143              		.loc 1 1512 19 view .LVU273
 1144 00b2 FFF7FEFF 		bl	wc_HmacFinal
 1145              	.LVL141:
 1146 00b6 0646     		mov	r6, r0
 1147              	.LVL142:
1512:Middlewares/Third_Party/wolfSSL_wolfSSL_wolfSSL/wolfssl/wolfcrypt/src/hash.c ****         if (ret == 0) {
 1148              		.loc 1 1512 19 view .LVU274
 1149 00b8 ECE7     		b	.L105
 1150              	.LVL143:
 1151              	.L108:
1529:Middlewares/Third_Party/wolfSSL_wolfSSL_wolfSSL/wolfssl/wolfcrypt/src/hash.c ****                     idx += len;
 1152              		.loc 1 1529 21 is_stmt 1 view .LVU275
 1153 00ba 09EB0A03 		add	r3, r9, r10
 1154 00be 2668     		ldr	r6, [r4]	@ unaligned
 1155 00c0 6068     		ldr	r0, [r4, #4]	@ unaligned
 1156              	.LVL144:
1529:Middlewares/Third_Party/wolfSSL_wolfSSL_wolfSSL/wolfssl/wolfcrypt/src/hash.c ****                     idx += len;
 1157              		.loc 1 1529 21 is_stmt 0 view .LVU276
 1158 00c2 A168     		ldr	r1, [r4, #8]	@ unaligned
 1159 00c4 E268     		ldr	r2, [r4, #12]	@ unaligned
 1160 00c6 49F80A60 		str	r6, [r9, r10]	@ unaligned
 1161 00ca 5860     		str	r0, [r3, #4]	@ unaligned
 1162 00cc 9960     		str	r1, [r3, #8]	@ unaligned
 1163 00ce DA60     		str	r2, [r3, #12]	@ unaligned
 1164 00d0 2669     		ldr	r6, [r4, #16]	@ unaligned
 1165 00d2 6069     		ldr	r0, [r4, #20]	@ unaligned
 1166 00d4 A169     		ldr	r1, [r4, #24]	@ unaligned
 1167 00d6 E269     		ldr	r2, [r4, #28]	@ unaligned
 1168 00d8 1E61     		str	r6, [r3, #16]	@ unaligned
 1169 00da 5861     		str	r0, [r3, #20]	@ unaligned
 1170 00dc 9961     		str	r1, [r3, #24]	@ unaligned
 1171 00de DA61     		str	r2, [r3, #28]	@ unaligned
1530:Middlewares/Third_Party/wolfSSL_wolfSSL_wolfSSL/wolfssl/wolfcrypt/src/hash.c ****                     ret = wc_HmacUpdate(hmac, previous, len);
 1172              		.loc 1 1530 21 is_stmt 1 view .LVU277
1530:Middlewares/Third_Party/wolfSSL_wolfSSL_wolfSSL/wolfssl/wolfcrypt/src/hash.c ****                     ret = wc_HmacUpdate(hmac, previous, len);
 1173              		.loc 1 1530 25 is_stmt 0 view .LVU278
 1174 00e0 0AF1200A 		add	r10, r10, #32
 1175              	.LVL145:
1531:Middlewares/Third_Party/wolfSSL_wolfSSL_wolfSSL/wolfssl/wolfcrypt/src/hash.c ****                     if (ret != 0)
 1176              		.loc 1 1531 21 is_stmt 1 view .LVU279
1531:Middlewares/Third_Party/wolfSSL_wolfSSL_wolfSSL/wolfssl/wolfcrypt/src/hash.c ****                     if (ret != 0)
 1177              		.loc 1 1531 27 is_stmt 0 view .LVU280
 1178 00e4 2022     		movs	r2, #32
 1179 00e6 3946     		mov	r1, r7
 1180 00e8 2846     		mov	r0, r5
 1181 00ea FFF7FEFF 		bl	wc_HmacUpdate
 1182              	.LVL146:
1532:Middlewares/Third_Party/wolfSSL_wolfSSL_wolfSSL/wolfssl/wolfcrypt/src/hash.c ****                         break;
 1183              		.loc 1 1532 21 is_stmt 1 view .LVU281
1532:Middlewares/Third_Party/wolfSSL_wolfSSL_wolfSSL/wolfssl/wolfcrypt/src/hash.c ****                         break;
 1184              		.loc 1 1532 24 is_stmt 0 view .LVU282
 1185 00ee 0646     		mov	r6, r0
 1186 00f0 0028     		cmp	r0, #0
ARM GAS  /tmp/ccIUkCMh.s 			page 56


 1187 00f2 D1D1     		bne	.L107
1534:Middlewares/Third_Party/wolfSSL_wolfSSL_wolfSSL/wolfssl/wolfcrypt/src/hash.c ****                     if (ret != 0)
 1188              		.loc 1 1534 21 is_stmt 1 view .LVU283
1534:Middlewares/Third_Party/wolfSSL_wolfSSL_wolfSSL/wolfssl/wolfcrypt/src/hash.c ****                     if (ret != 0)
 1189              		.loc 1 1534 27 is_stmt 0 view .LVU284
 1190 00f4 3946     		mov	r1, r7
 1191 00f6 2846     		mov	r0, r5
 1192              	.LVL147:
1534:Middlewares/Third_Party/wolfSSL_wolfSSL_wolfSSL/wolfssl/wolfcrypt/src/hash.c ****                     if (ret != 0)
 1193              		.loc 1 1534 27 view .LVU285
 1194 00f8 FFF7FEFF 		bl	wc_HmacFinal
 1195              	.LVL148:
1535:Middlewares/Third_Party/wolfSSL_wolfSSL_wolfSSL/wolfssl/wolfcrypt/src/hash.c ****                         break;
 1196              		.loc 1 1535 21 is_stmt 1 view .LVU286
1535:Middlewares/Third_Party/wolfSSL_wolfSSL_wolfSSL/wolfssl/wolfcrypt/src/hash.c ****                         break;
 1197              		.loc 1 1535 24 is_stmt 0 view .LVU287
 1198 00fc 0646     		mov	r6, r0
 1199 00fe 0028     		cmp	r0, #0
 1200 0100 CAD1     		bne	.L107
 1201              	.LVL149:
 1202              	.L109:
1514:Middlewares/Third_Party/wolfSSL_wolfSSL_wolfSSL/wolfssl/wolfcrypt/src/hash.c ****                 ret = wc_HmacUpdate(hmac, previous, len);
 1203              		.loc 1 1514 36 is_stmt 1 discriminator 2 view .LVU288
1514:Middlewares/Third_Party/wolfSSL_wolfSSL_wolfSSL/wolfssl/wolfcrypt/src/hash.c ****                 ret = wc_HmacUpdate(hmac, previous, len);
 1204              		.loc 1 1514 37 is_stmt 0 discriminator 2 view .LVU289
 1205 0102 08F10108 		add	r8, r8, #1
 1206              	.LVL150:
 1207              	.L106:
1514:Middlewares/Third_Party/wolfSSL_wolfSSL_wolfSSL/wolfssl/wolfcrypt/src/hash.c ****                 ret = wc_HmacUpdate(hmac, previous, len);
 1208              		.loc 1 1514 25 is_stmt 1 discriminator 1 view .LVU290
1514:Middlewares/Third_Party/wolfSSL_wolfSSL_wolfSSL/wolfssl/wolfcrypt/src/hash.c ****                 ret = wc_HmacUpdate(hmac, previous, len);
 1209              		.loc 1 1514 13 is_stmt 0 discriminator 1 view .LVU291
 1210 0106 C345     		cmp	fp, r8
 1211 0108 C6D9     		bls	.L107
1515:Middlewares/Third_Party/wolfSSL_wolfSSL_wolfSSL/wolfssl/wolfcrypt/src/hash.c ****                 if (ret != 0)
 1212              		.loc 1 1515 17 is_stmt 1 view .LVU292
1515:Middlewares/Third_Party/wolfSSL_wolfSSL_wolfSSL/wolfssl/wolfcrypt/src/hash.c ****                 if (ret != 0)
 1213              		.loc 1 1515 23 is_stmt 0 view .LVU293
 1214 010a 2022     		movs	r2, #32
 1215 010c 3946     		mov	r1, r7
 1216 010e 2846     		mov	r0, r5
 1217 0110 FFF7FEFF 		bl	wc_HmacUpdate
 1218              	.LVL151:
1516:Middlewares/Third_Party/wolfSSL_wolfSSL_wolfSSL/wolfssl/wolfcrypt/src/hash.c ****                     break;
 1219              		.loc 1 1516 17 is_stmt 1 view .LVU294
1516:Middlewares/Third_Party/wolfSSL_wolfSSL_wolfSSL/wolfssl/wolfcrypt/src/hash.c ****                     break;
 1220              		.loc 1 1516 20 is_stmt 0 view .LVU295
 1221 0114 0646     		mov	r6, r0
 1222 0116 0028     		cmp	r0, #0
 1223 0118 BED1     		bne	.L107
1518:Middlewares/Third_Party/wolfSSL_wolfSSL_wolfSSL/wolfssl/wolfcrypt/src/hash.c ****                 if (ret != 0)
 1224              		.loc 1 1518 17 is_stmt 1 view .LVU296
1518:Middlewares/Third_Party/wolfSSL_wolfSSL_wolfSSL/wolfssl/wolfcrypt/src/hash.c ****                 if (ret != 0)
 1225              		.loc 1 1518 23 is_stmt 0 view .LVU297
 1226 011a 0D9A     		ldr	r2, [sp, #52]
 1227 011c 0C99     		ldr	r1, [sp, #48]
 1228 011e 2846     		mov	r0, r5
ARM GAS  /tmp/ccIUkCMh.s 			page 57


 1229              	.LVL152:
1518:Middlewares/Third_Party/wolfSSL_wolfSSL_wolfSSL/wolfssl/wolfcrypt/src/hash.c ****                 if (ret != 0)
 1230              		.loc 1 1518 23 view .LVU298
 1231 0120 FFF7FEFF 		bl	wc_HmacUpdate
 1232              	.LVL153:
1519:Middlewares/Third_Party/wolfSSL_wolfSSL_wolfSSL/wolfssl/wolfcrypt/src/hash.c ****                     break;
 1233              		.loc 1 1519 17 is_stmt 1 view .LVU299
1519:Middlewares/Third_Party/wolfSSL_wolfSSL_wolfSSL/wolfssl/wolfcrypt/src/hash.c ****                     break;
 1234              		.loc 1 1519 20 is_stmt 0 view .LVU300
 1235 0124 0646     		mov	r6, r0
 1236 0126 0028     		cmp	r0, #0
 1237 0128 B6D1     		bne	.L107
1521:Middlewares/Third_Party/wolfSSL_wolfSSL_wolfSSL/wolfssl/wolfcrypt/src/hash.c ****                 if (ret != 0)
 1238              		.loc 1 1521 17 is_stmt 1 view .LVU301
1521:Middlewares/Third_Party/wolfSSL_wolfSSL_wolfSSL/wolfssl/wolfcrypt/src/hash.c ****                 if (ret != 0)
 1239              		.loc 1 1521 23 is_stmt 0 view .LVU302
 1240 012a 2146     		mov	r1, r4
 1241 012c 2846     		mov	r0, r5
 1242              	.LVL154:
1521:Middlewares/Third_Party/wolfSSL_wolfSSL_wolfSSL/wolfssl/wolfcrypt/src/hash.c ****                 if (ret != 0)
 1243              		.loc 1 1521 23 view .LVU303
 1244 012e FFF7FEFF 		bl	wc_HmacFinal
 1245              	.LVL155:
1522:Middlewares/Third_Party/wolfSSL_wolfSSL_wolfSSL/wolfssl/wolfcrypt/src/hash.c ****                     break;
 1246              		.loc 1 1522 17 is_stmt 1 view .LVU304
1522:Middlewares/Third_Party/wolfSSL_wolfSSL_wolfSSL/wolfssl/wolfcrypt/src/hash.c ****                     break;
 1247              		.loc 1 1522 20 is_stmt 0 view .LVU305
 1248 0132 0646     		mov	r6, r0
 1249 0134 0028     		cmp	r0, #0
 1250 0136 AFD1     		bne	.L107
1525:Middlewares/Third_Party/wolfSSL_wolfSSL_wolfSSL/wolfssl/wolfcrypt/src/hash.c ****                     XMEMCPY(&result[idx], current,
 1251              		.loc 1 1525 17 is_stmt 1 view .LVU306
1525:Middlewares/Third_Party/wolfSSL_wolfSSL_wolfSSL/wolfssl/wolfcrypt/src/hash.c ****                     XMEMCPY(&result[idx], current,
 1252              		.loc 1 1525 20 is_stmt 0 view .LVU307
 1253 0138 009B     		ldr	r3, [sp]
 1254 013a 9845     		cmp	r8, r3
 1255 013c BDD1     		bne	.L108
1525:Middlewares/Third_Party/wolfSSL_wolfSSL_wolfSSL/wolfssl/wolfcrypt/src/hash.c ****                     XMEMCPY(&result[idx], current,
 1256              		.loc 1 1525 37 discriminator 1 view .LVU308
 1257 013e 019B     		ldr	r3, [sp, #4]
 1258 0140 002B     		cmp	r3, #0
 1259 0142 BAD0     		beq	.L108
1526:Middlewares/Third_Party/wolfSSL_wolfSSL_wolfSSL/wolfssl/wolfcrypt/src/hash.c ****                                              min(lastLen, P_HASH_MAX_SIZE));
 1260              		.loc 1 1526 21 is_stmt 1 view .LVU309
 1261              	.LVL156:
 1262              	.LBB17:
 1263              	.LBI17:
 293:Middlewares/Third_Party/wolfSSL_wolfSSL_wolfSSL/wolfssl/wolfcrypt/src/misc.c **** }
 294:Middlewares/Third_Party/wolfSSL_wolfSSL_wolfSSL/wolfssl/wolfcrypt/src/misc.c **** #endif
 295:Middlewares/Third_Party/wolfSSL_wolfSSL_wolfSSL/wolfssl/wolfcrypt/src/misc.c **** 
 296:Middlewares/Third_Party/wolfSSL_wolfSSL_wolfSSL/wolfssl/wolfcrypt/src/misc.c **** 
 297:Middlewares/Third_Party/wolfSSL_wolfSSL_wolfSSL/wolfssl/wolfcrypt/src/misc.c **** #ifndef WOLFSSL_NO_CONST_CMP
 298:Middlewares/Third_Party/wolfSSL_wolfSSL_wolfSSL/wolfssl/wolfcrypt/src/misc.c **** /* check all length bytes for equality, return 0 on success */
 299:Middlewares/Third_Party/wolfSSL_wolfSSL_wolfSSL/wolfssl/wolfcrypt/src/misc.c **** WC_STATIC WC_INLINE int ConstantCompare(const byte* a, const byte* b, int length)
 300:Middlewares/Third_Party/wolfSSL_wolfSSL_wolfSSL/wolfssl/wolfcrypt/src/misc.c **** {
 301:Middlewares/Third_Party/wolfSSL_wolfSSL_wolfSSL/wolfssl/wolfcrypt/src/misc.c ****     int i;
 302:Middlewares/Third_Party/wolfSSL_wolfSSL_wolfSSL/wolfssl/wolfcrypt/src/misc.c ****     int compareSum = 0;
ARM GAS  /tmp/ccIUkCMh.s 			page 58


 303:Middlewares/Third_Party/wolfSSL_wolfSSL_wolfSSL/wolfssl/wolfcrypt/src/misc.c **** 
 304:Middlewares/Third_Party/wolfSSL_wolfSSL_wolfSSL/wolfssl/wolfcrypt/src/misc.c ****     for (i = 0; i < length; i++) {
 305:Middlewares/Third_Party/wolfSSL_wolfSSL_wolfSSL/wolfssl/wolfcrypt/src/misc.c ****         compareSum |= a[i] ^ b[i];
 306:Middlewares/Third_Party/wolfSSL_wolfSSL_wolfSSL/wolfssl/wolfcrypt/src/misc.c ****     }
 307:Middlewares/Third_Party/wolfSSL_wolfSSL_wolfSSL/wolfssl/wolfcrypt/src/misc.c **** 
 308:Middlewares/Third_Party/wolfSSL_wolfSSL_wolfSSL/wolfssl/wolfcrypt/src/misc.c ****     return compareSum;
 309:Middlewares/Third_Party/wolfSSL_wolfSSL_wolfSSL/wolfssl/wolfcrypt/src/misc.c **** }
 310:Middlewares/Third_Party/wolfSSL_wolfSSL_wolfSSL/wolfssl/wolfcrypt/src/misc.c **** #endif
 311:Middlewares/Third_Party/wolfSSL_wolfSSL_wolfSSL/wolfssl/wolfcrypt/src/misc.c **** 
 312:Middlewares/Third_Party/wolfSSL_wolfSSL_wolfSSL/wolfssl/wolfcrypt/src/misc.c **** 
 313:Middlewares/Third_Party/wolfSSL_wolfSSL_wolfSSL/wolfssl/wolfcrypt/src/misc.c **** #ifndef WOLFSSL_HAVE_MIN
 314:Middlewares/Third_Party/wolfSSL_wolfSSL_wolfSSL/wolfssl/wolfcrypt/src/misc.c ****     #define WOLFSSL_HAVE_MIN
 315:Middlewares/Third_Party/wolfSSL_wolfSSL_wolfSSL/wolfssl/wolfcrypt/src/misc.c ****     #if defined(HAVE_FIPS) && !defined(min) /* so ifdef check passes */
 316:Middlewares/Third_Party/wolfSSL_wolfSSL_wolfSSL/wolfssl/wolfcrypt/src/misc.c ****         #define min min
 317:Middlewares/Third_Party/wolfSSL_wolfSSL_wolfSSL/wolfssl/wolfcrypt/src/misc.c ****     #endif
 318:Middlewares/Third_Party/wolfSSL_wolfSSL_wolfSSL/wolfssl/wolfcrypt/src/misc.c ****     /* returns the smaller of a and b */
 319:Middlewares/Third_Party/wolfSSL_wolfSSL_wolfSSL/wolfssl/wolfcrypt/src/misc.c ****     WC_STATIC WC_INLINE word32 min(word32 a, word32 b)
 1264              		.loc 2 319 32 view .LVU310
 1265              	.LBB18:
 320:Middlewares/Third_Party/wolfSSL_wolfSSL_wolfSSL/wolfssl/wolfcrypt/src/misc.c ****     {
 321:Middlewares/Third_Party/wolfSSL_wolfSSL_wolfSSL/wolfssl/wolfcrypt/src/misc.c ****         return a > b ? b : a;
 1266              		.loc 2 321 9 view .LVU311
 1267              		.loc 2 321 9 is_stmt 0 view .LVU312
 1268              	.LBE18:
 1269              	.LBE17:
1526:Middlewares/Third_Party/wolfSSL_wolfSSL_wolfSSL/wolfssl/wolfcrypt/src/hash.c ****                                              min(lastLen, P_HASH_MAX_SIZE));
 1270              		.loc 1 1526 21 view .LVU313
 1271 0144 1A46     		mov	r2, r3
 1272 0146 202B     		cmp	r3, #32
 1273 0148 28BF     		it	cs
 1274 014a 2022     		movcs	r2, #32
 1275 014c 2146     		mov	r1, r4
 1276 014e 09EB0A00 		add	r0, r9, r10
 1277              	.LVL157:
1526:Middlewares/Third_Party/wolfSSL_wolfSSL_wolfSSL/wolfssl/wolfcrypt/src/hash.c ****                                              min(lastLen, P_HASH_MAX_SIZE));
 1278              		.loc 1 1526 21 view .LVU314
 1279 0152 FFF7FEFF 		bl	memcpy
 1280              	.LVL158:
 1281 0156 D4E7     		b	.L109
 1282              	.LVL159:
 1283              	.L118:
1441:Middlewares/Third_Party/wolfSSL_wolfSSL_wolfSSL/wolfssl/wolfcrypt/src/hash.c ****     int    ret = 0;
 1284              		.loc 1 1441 12 view .LVU315
 1285 0158 4FF0000A 		mov	r10, #0
 1286              	.LVL160:
1514:Middlewares/Third_Party/wolfSSL_wolfSSL_wolfSSL/wolfssl/wolfcrypt/src/hash.c ****                 ret = wc_HmacUpdate(hmac, previous, len);
 1287              		.loc 1 1514 20 view .LVU316
 1288 015c D046     		mov	r8, r10
 1289              	.LVL161:
1514:Middlewares/Third_Party/wolfSSL_wolfSSL_wolfSSL/wolfssl/wolfcrypt/src/hash.c ****                 ret = wc_HmacUpdate(hmac, previous, len);
 1290              		.loc 1 1514 20 view .LVU317
 1291 015e D2E7     		b	.L106
 1292              	.LVL162:
 1293              	.L112:
 1294              	.LBB19:
 1295              	.LBB15:
 292:Middlewares/Third_Party/wolfSSL_wolfSSL_wolfSSL/wolfssl/wolfcrypt/src/misc.c **** }
ARM GAS  /tmp/ccIUkCMh.s 			page 59


 1296              		.loc 2 292 19 is_stmt 1 view .LVU318
 292:Middlewares/Third_Party/wolfSSL_wolfSSL_wolfSSL/wolfssl/wolfcrypt/src/misc.c **** }
 1297              		.loc 2 292 24 is_stmt 0 view .LVU319
 1298 0160 0022     		movs	r2, #0
 1299 0162 03F8012B 		strb	r2, [r3], #1
 1300              	.LVL163:
 292:Middlewares/Third_Party/wolfSSL_wolfSSL_wolfSSL/wolfssl/wolfcrypt/src/misc.c **** }
 1301              		.loc 2 292 15 view .LVU320
 1302 0166 0A46     		mov	r2, r1
 1303              	.LVL164:
 1304              	.L111:
 292:Middlewares/Third_Party/wolfSSL_wolfSSL_wolfSSL/wolfssl/wolfcrypt/src/misc.c **** }
 1305              		.loc 2 292 11 is_stmt 1 view .LVU321
 292:Middlewares/Third_Party/wolfSSL_wolfSSL_wolfSSL/wolfssl/wolfcrypt/src/misc.c **** }
 1306              		.loc 2 292 15 is_stmt 0 view .LVU322
 1307 0168 511E     		subs	r1, r2, #1
 1308              	.LVL165:
 292:Middlewares/Third_Party/wolfSSL_wolfSSL_wolfSSL/wolfssl/wolfcrypt/src/misc.c **** }
 1309              		.loc 2 292 11 view .LVU323
 1310 016a 002A     		cmp	r2, #0
 1311 016c F8D1     		bne	.L112
 1312              	.LBE15:
 1313              	.LBE19:
 1314              	.LBB20:
 1315              	.LBB21:
 274:Middlewares/Third_Party/wolfSSL_wolfSSL_wolfSSL/wolfssl/wolfcrypt/src/misc.c **** 
 1316              		.loc 2 274 20 view .LVU324
 1317 016e 2346     		mov	r3, r4
 1318              	.LVL166:
 274:Middlewares/Third_Party/wolfSSL_wolfSSL_wolfSSL/wolfssl/wolfcrypt/src/misc.c **** 
 1319              		.loc 2 274 20 view .LVU325
 1320              	.LBE21:
 1321              	.LBE20:
 1322              	.LBB24:
 1323              	.LBB16:
 1324 0170 2022     		movs	r2, #32
 1325 0172 03E0     		b	.L113
 1326              	.LVL167:
 1327              	.L114:
 274:Middlewares/Third_Party/wolfSSL_wolfSSL_wolfSSL/wolfssl/wolfcrypt/src/misc.c **** 
 1328              		.loc 2 274 20 view .LVU326
 1329              	.LBE16:
 1330              	.LBE24:
 1331              	.LBB25:
 1332              	.LBB22:
 292:Middlewares/Third_Party/wolfSSL_wolfSSL_wolfSSL/wolfssl/wolfcrypt/src/misc.c **** }
 1333              		.loc 2 292 19 is_stmt 1 view .LVU327
 292:Middlewares/Third_Party/wolfSSL_wolfSSL_wolfSSL/wolfssl/wolfcrypt/src/misc.c **** }
 1334              		.loc 2 292 24 is_stmt 0 view .LVU328
 1335 0174 0022     		movs	r2, #0
 1336 0176 03F8012B 		strb	r2, [r3], #1
 1337              	.LVL168:
 292:Middlewares/Third_Party/wolfSSL_wolfSSL_wolfSSL/wolfssl/wolfcrypt/src/misc.c **** }
 1338              		.loc 2 292 15 view .LVU329
 1339 017a 0A46     		mov	r2, r1
 1340              	.LVL169:
 1341              	.L113:
ARM GAS  /tmp/ccIUkCMh.s 			page 60


 292:Middlewares/Third_Party/wolfSSL_wolfSSL_wolfSSL/wolfssl/wolfcrypt/src/misc.c **** }
 1342              		.loc 2 292 11 is_stmt 1 view .LVU330
 292:Middlewares/Third_Party/wolfSSL_wolfSSL_wolfSSL/wolfssl/wolfcrypt/src/misc.c **** }
 1343              		.loc 2 292 15 is_stmt 0 view .LVU331
 1344 017c 511E     		subs	r1, r2, #1
 1345              	.LVL170:
 292:Middlewares/Third_Party/wolfSSL_wolfSSL_wolfSSL/wolfssl/wolfcrypt/src/misc.c **** }
 1346              		.loc 2 292 11 view .LVU332
 1347 017e 002A     		cmp	r2, #0
 1348 0180 F8D1     		bne	.L114
 1349              	.LBE22:
 1350              	.LBE25:
 1351              	.LBB26:
 1352              	.LBB27:
 274:Middlewares/Third_Party/wolfSSL_wolfSSL_wolfSSL/wolfssl/wolfcrypt/src/misc.c **** 
 1353              		.loc 2 274 20 view .LVU333
 1354 0182 2B46     		mov	r3, r5
 1355              	.LBE27:
 1356              	.LBE26:
 1357              	.LBB29:
 1358              	.LBB23:
 1359 0184 4FF48C72 		mov	r2, #280
 1360 0188 03E0     		b	.L115
 1361              	.LVL171:
 1362              	.L116:
 274:Middlewares/Third_Party/wolfSSL_wolfSSL_wolfSSL/wolfssl/wolfcrypt/src/misc.c **** 
 1363              		.loc 2 274 20 view .LVU334
 1364              	.LBE23:
 1365              	.LBE29:
 1366              	.LBB30:
 1367              	.LBB28:
 292:Middlewares/Third_Party/wolfSSL_wolfSSL_wolfSSL/wolfssl/wolfcrypt/src/misc.c **** }
 1368              		.loc 2 292 19 is_stmt 1 view .LVU335
 292:Middlewares/Third_Party/wolfSSL_wolfSSL_wolfSSL/wolfssl/wolfcrypt/src/misc.c **** }
 1369              		.loc 2 292 24 is_stmt 0 view .LVU336
 1370 018a 0022     		movs	r2, #0
 1371 018c 03F8012B 		strb	r2, [r3], #1
 1372              	.LVL172:
 292:Middlewares/Third_Party/wolfSSL_wolfSSL_wolfSSL/wolfssl/wolfcrypt/src/misc.c **** }
 1373              		.loc 2 292 15 view .LVU337
 1374 0190 0A46     		mov	r2, r1
 1375              	.LVL173:
 1376              	.L115:
 292:Middlewares/Third_Party/wolfSSL_wolfSSL_wolfSSL/wolfssl/wolfcrypt/src/misc.c **** }
 1377              		.loc 2 292 11 is_stmt 1 view .LVU338
 292:Middlewares/Third_Party/wolfSSL_wolfSSL_wolfSSL/wolfssl/wolfcrypt/src/misc.c **** }
 1378              		.loc 2 292 15 is_stmt 0 view .LVU339
 1379 0192 511E     		subs	r1, r2, #1
 1380              	.LVL174:
 292:Middlewares/Third_Party/wolfSSL_wolfSSL_wolfSSL/wolfssl/wolfcrypt/src/misc.c **** }
 1381              		.loc 2 292 11 view .LVU340
 1382 0194 002A     		cmp	r2, #0
 1383 0196 F8D1     		bne	.L116
 1384              	.LVL175:
 292:Middlewares/Third_Party/wolfSSL_wolfSSL_wolfSSL/wolfssl/wolfcrypt/src/misc.c **** }
 1385              		.loc 2 292 11 view .LVU341
 1386              	.LBE28:
ARM GAS  /tmp/ccIUkCMh.s 			page 61


 1387              	.LBE30:
1544:Middlewares/Third_Party/wolfSSL_wolfSSL_wolfSSL/wolfssl/wolfcrypt/src/hash.c ****     ForceZero(current,   P_HASH_MAX_SIZE);
1545:Middlewares/Third_Party/wolfSSL_wolfSSL_wolfSSL/wolfssl/wolfcrypt/src/hash.c ****     ForceZero(hmac,      sizeof(Hmac));
1546:Middlewares/Third_Party/wolfSSL_wolfSSL_wolfSSL/wolfssl/wolfcrypt/src/hash.c **** 
1547:Middlewares/Third_Party/wolfSSL_wolfSSL_wolfSSL/wolfssl/wolfcrypt/src/hash.c **** #ifdef WOLFSSL_SMALL_STACK
1548:Middlewares/Third_Party/wolfSSL_wolfSSL_wolfSSL/wolfssl/wolfcrypt/src/hash.c ****     XFREE(previous, heap, DYNAMIC_TYPE_DIGEST);
 1388              		.loc 1 1548 5 is_stmt 1 view .LVU342
 1389 0198 3846     		mov	r0, r7
 1390 019a FFF7FEFF 		bl	vPortFree
 1391              	.LVL176:
1549:Middlewares/Third_Party/wolfSSL_wolfSSL_wolfSSL/wolfssl/wolfcrypt/src/hash.c ****     XFREE(current,  heap, DYNAMIC_TYPE_DIGEST);
 1392              		.loc 1 1549 5 view .LVU343
 1393 019e 2046     		mov	r0, r4
 1394 01a0 FFF7FEFF 		bl	vPortFree
 1395              	.LVL177:
1550:Middlewares/Third_Party/wolfSSL_wolfSSL_wolfSSL/wolfssl/wolfcrypt/src/hash.c ****     XFREE(hmac,     heap, DYNAMIC_TYPE_HMAC);
 1396              		.loc 1 1550 5 view .LVU344
 1397 01a4 2846     		mov	r0, r5
 1398 01a6 FFF7FEFF 		bl	vPortFree
 1399              	.LVL178:
1551:Middlewares/Third_Party/wolfSSL_wolfSSL_wolfSSL/wolfssl/wolfcrypt/src/hash.c **** #endif
1552:Middlewares/Third_Party/wolfSSL_wolfSSL_wolfSSL/wolfssl/wolfcrypt/src/hash.c **** 
1553:Middlewares/Third_Party/wolfSSL_wolfSSL_wolfSSL/wolfssl/wolfcrypt/src/hash.c ****     return ret;
 1400              		.loc 1 1553 5 view .LVU345
 1401              	.L94:
1554:Middlewares/Third_Party/wolfSSL_wolfSSL_wolfSSL/wolfssl/wolfcrypt/src/hash.c **** }
 1402              		.loc 1 1554 1 is_stmt 0 view .LVU346
 1403 01aa 3046     		mov	r0, r6
 1404 01ac 03B0     		add	sp, sp, #12
 1405              	.LCFI17:
 1406              		.cfi_def_cfa_offset 36
 1407              		@ sp needed
 1408 01ae BDE8F08F 		pop	{r4, r5, r6, r7, r8, r9, r10, fp, pc}
 1409              		.loc 1 1554 1 view .LVU347
 1410              		.cfi_endproc
 1411              	.LFE187:
 1413              		.section	.text.wc_PRF_TLSv1,"ax",%progbits
 1414              		.align	1
 1415              		.global	wc_PRF_TLSv1
 1416              		.syntax unified
 1417              		.thumb
 1418              		.thumb_func
 1419              		.fpu fpv4-sp-d16
 1421              	wc_PRF_TLSv1:
 1422              	.LVL179:
 1423              	.LFB188:
1555:Middlewares/Third_Party/wolfSSL_wolfSSL_wolfSSL/wolfssl/wolfcrypt/src/hash.c **** #undef P_HASH_MAX_SIZE
1556:Middlewares/Third_Party/wolfSSL_wolfSSL_wolfSSL/wolfssl/wolfcrypt/src/hash.c **** 
1557:Middlewares/Third_Party/wolfSSL_wolfSSL_wolfSSL/wolfssl/wolfcrypt/src/hash.c **** /* compute PRF (pseudo random function) using SHA1 and MD5 for TLSv1 */
1558:Middlewares/Third_Party/wolfSSL_wolfSSL_wolfSSL/wolfssl/wolfcrypt/src/hash.c **** int wc_PRF_TLSv1(byte* digest, word32 digLen, const byte* secret,
1559:Middlewares/Third_Party/wolfSSL_wolfSSL_wolfSSL/wolfssl/wolfcrypt/src/hash.c ****            word32 secLen, const byte* label, word32 labLen,
1560:Middlewares/Third_Party/wolfSSL_wolfSSL_wolfSSL/wolfssl/wolfcrypt/src/hash.c ****            const byte* seed, word32 seedLen, void* heap, int devId)
1561:Middlewares/Third_Party/wolfSSL_wolfSSL_wolfSSL/wolfssl/wolfcrypt/src/hash.c **** {
 1424              		.loc 1 1561 1 is_stmt 1 view -0
 1425              		.cfi_startproc
 1426              		@ args = 24, pretend = 0, frame = 136
 1427              		@ frame_needed = 0, uses_anonymous_args = 0
ARM GAS  /tmp/ccIUkCMh.s 			page 62


 1428              		.loc 1 1561 1 is_stmt 0 view .LVU349
 1429 0000 2DE9F04F 		push	{r4, r5, r6, r7, r8, r9, r10, fp, lr}
 1430              	.LCFI18:
 1431              		.cfi_def_cfa_offset 36
 1432              		.cfi_offset 4, -36
 1433              		.cfi_offset 5, -32
 1434              		.cfi_offset 6, -28
 1435              		.cfi_offset 7, -24
 1436              		.cfi_offset 8, -20
 1437              		.cfi_offset 9, -16
 1438              		.cfi_offset 10, -12
 1439              		.cfi_offset 11, -8
 1440              		.cfi_offset 14, -4
 1441 0004 A9B0     		sub	sp, sp, #164
 1442              	.LCFI19:
 1443              		.cfi_def_cfa_offset 200
 1444 0006 0790     		str	r0, [sp, #28]
 1445 0008 0692     		str	r2, [sp, #24]
 1446 000a 1C46     		mov	r4, r3
1562:Middlewares/Third_Party/wolfSSL_wolfSSL_wolfSSL/wolfssl/wolfcrypt/src/hash.c ****     int    ret  = 0;
 1447              		.loc 1 1562 5 is_stmt 1 view .LVU350
 1448              	.LVL180:
1563:Middlewares/Third_Party/wolfSSL_wolfSSL_wolfSSL/wolfssl/wolfcrypt/src/hash.c ****     word32 half = (secLen + 1) / 2;
 1449              		.loc 1 1563 5 view .LVU351
 1450              		.loc 1 1563 27 is_stmt 0 view .LVU352
 1451 000c 0133     		adds	r3, r3, #1
 1452              	.LVL181:
1564:Middlewares/Third_Party/wolfSSL_wolfSSL_wolfSSL/wolfssl/wolfcrypt/src/hash.c **** 
1565:Middlewares/Third_Party/wolfSSL_wolfSSL_wolfSSL/wolfssl/wolfcrypt/src/hash.c **** #ifdef WOLFSSL_SMALL_STACK
1566:Middlewares/Third_Party/wolfSSL_wolfSSL_wolfSSL/wolfssl/wolfcrypt/src/hash.c ****     byte* md5_half;
 1453              		.loc 1 1566 5 is_stmt 1 view .LVU353
1567:Middlewares/Third_Party/wolfSSL_wolfSSL_wolfSSL/wolfssl/wolfcrypt/src/hash.c ****     byte* sha_half;
 1454              		.loc 1 1567 5 view .LVU354
1568:Middlewares/Third_Party/wolfSSL_wolfSSL_wolfSSL/wolfssl/wolfcrypt/src/hash.c ****     byte* md5_result;
 1455              		.loc 1 1568 5 view .LVU355
1569:Middlewares/Third_Party/wolfSSL_wolfSSL_wolfSSL/wolfssl/wolfcrypt/src/hash.c ****     byte* sha_result;
 1456              		.loc 1 1569 5 view .LVU356
1570:Middlewares/Third_Party/wolfSSL_wolfSSL_wolfSSL/wolfssl/wolfcrypt/src/hash.c **** #else
1571:Middlewares/Third_Party/wolfSSL_wolfSSL_wolfSSL/wolfssl/wolfcrypt/src/hash.c ****     byte  md5_half[MAX_PRF_HALF];     /* half is real size */
1572:Middlewares/Third_Party/wolfSSL_wolfSSL_wolfSSL/wolfssl/wolfcrypt/src/hash.c ****     byte  sha_half[MAX_PRF_HALF];     /* half is real size */
1573:Middlewares/Third_Party/wolfSSL_wolfSSL_wolfSSL/wolfssl/wolfcrypt/src/hash.c ****     byte  md5_result[MAX_PRF_DIG];    /* digLen is real size */
1574:Middlewares/Third_Party/wolfSSL_wolfSSL_wolfSSL/wolfssl/wolfcrypt/src/hash.c ****     byte  sha_result[MAX_PRF_DIG];    /* digLen is real size */
1575:Middlewares/Third_Party/wolfSSL_wolfSSL_wolfSSL/wolfssl/wolfcrypt/src/hash.c **** #endif
1576:Middlewares/Third_Party/wolfSSL_wolfSSL_wolfSSL/wolfssl/wolfcrypt/src/hash.c **** #if defined(WOLFSSL_ASYNC_CRYPT) && !defined(WC_ASYNC_NO_HASH)
1577:Middlewares/Third_Party/wolfSSL_wolfSSL_wolfSSL/wolfssl/wolfcrypt/src/hash.c ****     DECLARE_VAR(labelSeed, byte, MAX_PRF_LABSEED, heap);
1578:Middlewares/Third_Party/wolfSSL_wolfSSL_wolfSSL/wolfssl/wolfcrypt/src/hash.c ****     if (labelSeed == NULL)
1579:Middlewares/Third_Party/wolfSSL_wolfSSL_wolfSSL/wolfssl/wolfcrypt/src/hash.c ****         return MEMORY_E;
1580:Middlewares/Third_Party/wolfSSL_wolfSSL_wolfSSL/wolfssl/wolfcrypt/src/hash.c **** #else
1581:Middlewares/Third_Party/wolfSSL_wolfSSL_wolfSSL/wolfssl/wolfcrypt/src/hash.c ****     byte labelSeed[MAX_PRF_LABSEED];
 1457              		.loc 1 1581 5 view .LVU357
1582:Middlewares/Third_Party/wolfSSL_wolfSSL_wolfSSL/wolfssl/wolfcrypt/src/hash.c **** #endif
1583:Middlewares/Third_Party/wolfSSL_wolfSSL_wolfSSL/wolfssl/wolfcrypt/src/hash.c **** 
1584:Middlewares/Third_Party/wolfSSL_wolfSSL_wolfSSL/wolfssl/wolfcrypt/src/hash.c ****     if (half > MAX_PRF_HALF ||
 1458              		.loc 1 1584 5 view .LVU358
 1459              		.loc 1 1584 8 is_stmt 0 view .LVU359
 1460 000e 40F20922 		movw	r2, #521
 1461              	.LVL182:
ARM GAS  /tmp/ccIUkCMh.s 			page 63


 1462              		.loc 1 1584 8 view .LVU360
 1463 0012 9342     		cmp	r3, r2
 1464 0014 00F2C180 		bhi	.L143
 1465 0018 0D46     		mov	r5, r1
 1466 001a 4FEA530A 		lsr	r10, r3, #1
 1467              	.LVL183:
1585:Middlewares/Third_Party/wolfSSL_wolfSSL_wolfSSL/wolfssl/wolfcrypt/src/hash.c ****         labLen + seedLen > MAX_PRF_LABSEED ||
 1468              		.loc 1 1585 16 discriminator 1 view .LVU361
 1469 001e 339B     		ldr	r3, [sp, #204]
 1470 0020 359A     		ldr	r2, [sp, #212]
 1471 0022 03EB020B 		add	fp, r3, r2
1584:Middlewares/Third_Party/wolfSSL_wolfSSL_wolfSSL/wolfssl/wolfcrypt/src/hash.c ****         labLen + seedLen > MAX_PRF_LABSEED ||
 1472              		.loc 1 1584 29 discriminator 1 view .LVU362
 1473 0026 BBF1800F 		cmp	fp, #128
 1474 002a 00F2B980 		bhi	.L144
 1475              		.loc 1 1585 44 view .LVU363
 1476 002e E029     		cmp	r1, #224
 1477 0030 00F2B980 		bhi	.L145
1586:Middlewares/Third_Party/wolfSSL_wolfSSL_wolfSSL/wolfssl/wolfcrypt/src/hash.c ****         digLen > MAX_PRF_DIG)
1587:Middlewares/Third_Party/wolfSSL_wolfSSL_wolfSSL/wolfssl/wolfcrypt/src/hash.c ****     {
1588:Middlewares/Third_Party/wolfSSL_wolfSSL_wolfSSL/wolfssl/wolfcrypt/src/hash.c ****     #if defined(WOLFSSL_ASYNC_CRYPT) && !defined(WC_ASYNC_NO_HASH)
1589:Middlewares/Third_Party/wolfSSL_wolfSSL_wolfSSL/wolfssl/wolfcrypt/src/hash.c ****         FREE_VAR(labelSeed, heap);
1590:Middlewares/Third_Party/wolfSSL_wolfSSL_wolfSSL/wolfssl/wolfcrypt/src/hash.c ****     #endif
1591:Middlewares/Third_Party/wolfSSL_wolfSSL_wolfSSL/wolfssl/wolfcrypt/src/hash.c ****         return BUFFER_E;
1592:Middlewares/Third_Party/wolfSSL_wolfSSL_wolfSSL/wolfssl/wolfcrypt/src/hash.c ****     }
1593:Middlewares/Third_Party/wolfSSL_wolfSSL_wolfSSL/wolfssl/wolfcrypt/src/hash.c **** 
1594:Middlewares/Third_Party/wolfSSL_wolfSSL_wolfSSL/wolfssl/wolfcrypt/src/hash.c **** #ifdef WOLFSSL_SMALL_STACK
1595:Middlewares/Third_Party/wolfSSL_wolfSSL_wolfSSL/wolfssl/wolfcrypt/src/hash.c ****     md5_half   = (byte*)XMALLOC(MAX_PRF_HALF,    heap, DYNAMIC_TYPE_DIGEST);
 1478              		.loc 1 1595 5 is_stmt 1 view .LVU364
 1479              		.loc 1 1595 25 is_stmt 0 view .LVU365
 1480 0034 4FF48270 		mov	r0, #260
 1481              	.LVL184:
 1482              		.loc 1 1595 25 view .LVU366
 1483 0038 FFF7FEFF 		bl	pvPortMalloc
 1484              	.LVL185:
 1485              		.loc 1 1595 25 view .LVU367
 1486 003c 8046     		mov	r8, r0
 1487              	.LVL186:
1596:Middlewares/Third_Party/wolfSSL_wolfSSL_wolfSSL/wolfssl/wolfcrypt/src/hash.c ****     sha_half   = (byte*)XMALLOC(MAX_PRF_HALF,    heap, DYNAMIC_TYPE_DIGEST);
 1488              		.loc 1 1596 5 is_stmt 1 view .LVU368
 1489              		.loc 1 1596 25 is_stmt 0 view .LVU369
 1490 003e 4FF48270 		mov	r0, #260
 1491              	.LVL187:
 1492              		.loc 1 1596 25 view .LVU370
 1493 0042 FFF7FEFF 		bl	pvPortMalloc
 1494              	.LVL188:
 1495 0046 8146     		mov	r9, r0
 1496              	.LVL189:
1597:Middlewares/Third_Party/wolfSSL_wolfSSL_wolfSSL/wolfssl/wolfcrypt/src/hash.c ****     md5_result = (byte*)XMALLOC(MAX_PRF_DIG,     heap, DYNAMIC_TYPE_DIGEST);
 1497              		.loc 1 1597 5 is_stmt 1 view .LVU371
 1498              		.loc 1 1597 25 is_stmt 0 view .LVU372
 1499 0048 E020     		movs	r0, #224
 1500              	.LVL190:
 1501              		.loc 1 1597 25 view .LVU373
 1502 004a FFF7FEFF 		bl	pvPortMalloc
 1503              	.LVL191:
 1504 004e 0746     		mov	r7, r0
ARM GAS  /tmp/ccIUkCMh.s 			page 64


 1505              	.LVL192:
1598:Middlewares/Third_Party/wolfSSL_wolfSSL_wolfSSL/wolfssl/wolfcrypt/src/hash.c ****     sha_result = (byte*)XMALLOC(MAX_PRF_DIG,     heap, DYNAMIC_TYPE_DIGEST);
 1506              		.loc 1 1598 5 is_stmt 1 view .LVU374
 1507              		.loc 1 1598 25 is_stmt 0 view .LVU375
 1508 0050 E020     		movs	r0, #224
 1509              	.LVL193:
 1510              		.loc 1 1598 25 view .LVU376
 1511 0052 FFF7FEFF 		bl	pvPortMalloc
 1512              	.LVL194:
 1513 0056 0646     		mov	r6, r0
 1514              	.LVL195:
1599:Middlewares/Third_Party/wolfSSL_wolfSSL_wolfSSL/wolfssl/wolfcrypt/src/hash.c **** 
1600:Middlewares/Third_Party/wolfSSL_wolfSSL_wolfSSL/wolfssl/wolfcrypt/src/hash.c ****     if (md5_half == NULL || sha_half == NULL || md5_result == NULL ||
 1515              		.loc 1 1600 5 is_stmt 1 view .LVU377
 1516              		.loc 1 1600 8 is_stmt 0 view .LVU378
 1517 0058 B8F1000F 		cmp	r8, #0
 1518 005c 4DD0     		beq	.L131
 1519              		.loc 1 1600 26 discriminator 1 view .LVU379
 1520 005e B9F1000F 		cmp	r9, #0
 1521 0062 4AD0     		beq	.L131
 1522              		.loc 1 1600 46 discriminator 2 view .LVU380
 1523 0064 002F     		cmp	r7, #0
 1524 0066 48D0     		beq	.L131
 1525              		.loc 1 1600 68 discriminator 3 view .LVU381
 1526 0068 0028     		cmp	r0, #0
 1527 006a 46D0     		beq	.L131
1601:Middlewares/Third_Party/wolfSSL_wolfSSL_wolfSSL/wolfssl/wolfcrypt/src/hash.c ****                                                            sha_result == NULL) {
1602:Middlewares/Third_Party/wolfSSL_wolfSSL_wolfSSL/wolfssl/wolfcrypt/src/hash.c ****         if (md5_half)   XFREE(md5_half,   heap, DYNAMIC_TYPE_DIGEST);
1603:Middlewares/Third_Party/wolfSSL_wolfSSL_wolfSSL/wolfssl/wolfcrypt/src/hash.c ****         if (sha_half)   XFREE(sha_half,   heap, DYNAMIC_TYPE_DIGEST);
1604:Middlewares/Third_Party/wolfSSL_wolfSSL_wolfSSL/wolfssl/wolfcrypt/src/hash.c ****         if (md5_result) XFREE(md5_result, heap, DYNAMIC_TYPE_DIGEST);
1605:Middlewares/Third_Party/wolfSSL_wolfSSL_wolfSSL/wolfssl/wolfcrypt/src/hash.c ****         if (sha_result) XFREE(sha_result, heap, DYNAMIC_TYPE_DIGEST);
1606:Middlewares/Third_Party/wolfSSL_wolfSSL_wolfSSL/wolfssl/wolfcrypt/src/hash.c ****     #if defined(WOLFSSL_ASYNC_CRYPT) && !defined(WC_ASYNC_NO_HASH)
1607:Middlewares/Third_Party/wolfSSL_wolfSSL_wolfSSL/wolfssl/wolfcrypt/src/hash.c ****         FREE_VAR(labelSeed, heap);
1608:Middlewares/Third_Party/wolfSSL_wolfSSL_wolfSSL/wolfssl/wolfcrypt/src/hash.c ****     #endif
1609:Middlewares/Third_Party/wolfSSL_wolfSSL_wolfSSL/wolfssl/wolfcrypt/src/hash.c **** 
1610:Middlewares/Third_Party/wolfSSL_wolfSSL_wolfSSL/wolfssl/wolfcrypt/src/hash.c ****         return MEMORY_E;
1611:Middlewares/Third_Party/wolfSSL_wolfSSL_wolfSSL/wolfssl/wolfcrypt/src/hash.c ****     }
1612:Middlewares/Third_Party/wolfSSL_wolfSSL_wolfSSL/wolfssl/wolfcrypt/src/hash.c **** #endif
1613:Middlewares/Third_Party/wolfSSL_wolfSSL_wolfSSL/wolfssl/wolfcrypt/src/hash.c **** 
1614:Middlewares/Third_Party/wolfSSL_wolfSSL_wolfSSL/wolfssl/wolfcrypt/src/hash.c ****     XMEMSET(md5_result, 0, digLen);
 1528              		.loc 1 1614 5 is_stmt 1 view .LVU382
 1529 006c 2A46     		mov	r2, r5
 1530 006e 0021     		movs	r1, #0
 1531 0070 3846     		mov	r0, r7
 1532              	.LVL196:
 1533              		.loc 1 1614 5 is_stmt 0 view .LVU383
 1534 0072 FFF7FEFF 		bl	memset
 1535              	.LVL197:
1615:Middlewares/Third_Party/wolfSSL_wolfSSL_wolfSSL/wolfssl/wolfcrypt/src/hash.c ****     XMEMSET(sha_result, 0, digLen);
 1536              		.loc 1 1615 5 is_stmt 1 view .LVU384
 1537 0076 2A46     		mov	r2, r5
 1538 0078 0021     		movs	r1, #0
 1539 007a 3046     		mov	r0, r6
 1540 007c FFF7FEFF 		bl	memset
 1541              	.LVL198:
1616:Middlewares/Third_Party/wolfSSL_wolfSSL_wolfSSL/wolfssl/wolfcrypt/src/hash.c **** 
1617:Middlewares/Third_Party/wolfSSL_wolfSSL_wolfSSL/wolfssl/wolfcrypt/src/hash.c ****     XMEMCPY(md5_half, secret, half);
ARM GAS  /tmp/ccIUkCMh.s 			page 65


 1542              		.loc 1 1617 5 view .LVU385
 1543 0080 5246     		mov	r2, r10
 1544 0082 0699     		ldr	r1, [sp, #24]
 1545 0084 4046     		mov	r0, r8
 1546 0086 FFF7FEFF 		bl	memcpy
 1547              	.LVL199:
1618:Middlewares/Third_Party/wolfSSL_wolfSSL_wolfSSL/wolfssl/wolfcrypt/src/hash.c ****     XMEMCPY(sha_half, secret + half - secLen % 2, half);
 1548              		.loc 1 1618 5 view .LVU386
 1549 008a 04F00101 		and	r1, r4, #1
 1550 008e AAEB0101 		sub	r1, r10, r1
 1551 0092 5246     		mov	r2, r10
 1552 0094 069B     		ldr	r3, [sp, #24]
 1553 0096 0B44     		add	r3, r3, r1
 1554 0098 1946     		mov	r1, r3
 1555 009a 4846     		mov	r0, r9
 1556 009c FFF7FEFF 		bl	memcpy
 1557              	.LVL200:
1619:Middlewares/Third_Party/wolfSSL_wolfSSL_wolfSSL/wolfssl/wolfcrypt/src/hash.c **** 
1620:Middlewares/Third_Party/wolfSSL_wolfSSL_wolfSSL/wolfssl/wolfcrypt/src/hash.c ****     XMEMCPY(labelSeed, label, labLen);
 1558              		.loc 1 1620 5 view .LVU387
 1559 00a0 08AC     		add	r4, sp, #32
 1560              	.LVL201:
 1561              		.loc 1 1620 5 is_stmt 0 view .LVU388
 1562 00a2 339A     		ldr	r2, [sp, #204]
 1563 00a4 3299     		ldr	r1, [sp, #200]
 1564 00a6 2046     		mov	r0, r4
 1565 00a8 FFF7FEFF 		bl	memcpy
 1566              	.LVL202:
1621:Middlewares/Third_Party/wolfSSL_wolfSSL_wolfSSL/wolfssl/wolfcrypt/src/hash.c ****     XMEMCPY(labelSeed + labLen, seed, seedLen);
 1567              		.loc 1 1621 5 is_stmt 1 view .LVU389
 1568 00ac 359A     		ldr	r2, [sp, #212]
 1569 00ae 3499     		ldr	r1, [sp, #208]
 1570 00b0 339B     		ldr	r3, [sp, #204]
 1571 00b2 E018     		adds	r0, r4, r3
 1572 00b4 FFF7FEFF 		bl	memcpy
 1573              	.LVL203:
1622:Middlewares/Third_Party/wolfSSL_wolfSSL_wolfSSL/wolfssl/wolfcrypt/src/hash.c **** 
1623:Middlewares/Third_Party/wolfSSL_wolfSSL_wolfSSL/wolfssl/wolfcrypt/src/hash.c ****     if ((ret = wc_PRF(md5_result, digLen, md5_half, half, labelSeed,
 1574              		.loc 1 1623 5 view .LVU390
 1575              		.loc 1 1623 16 is_stmt 0 view .LVU391
 1576 00b8 379B     		ldr	r3, [sp, #220]
 1577 00ba 0493     		str	r3, [sp, #16]
 1578 00bc 369B     		ldr	r3, [sp, #216]
 1579 00be 0393     		str	r3, [sp, #12]
 1580 00c0 0123     		movs	r3, #1
 1581 00c2 0293     		str	r3, [sp, #8]
 1582 00c4 CDF804B0 		str	fp, [sp, #4]
 1583 00c8 0094     		str	r4, [sp]
 1584 00ca 5346     		mov	r3, r10
 1585 00cc 4246     		mov	r2, r8
 1586 00ce 2946     		mov	r1, r5
 1587 00d0 3846     		mov	r0, r7
 1588 00d2 FFF7FEFF 		bl	wc_PRF
 1589              	.LVL204:
 1590              		.loc 1 1623 8 view .LVU392
 1591 00d6 0446     		mov	r4, r0
 1592 00d8 30B3     		cbz	r0, .L148
ARM GAS  /tmp/ccIUkCMh.s 			page 66


 1593              	.LVL205:
 1594              	.L137:
1624:Middlewares/Third_Party/wolfSSL_wolfSSL_wolfSSL/wolfssl/wolfcrypt/src/hash.c ****                                 labLen + seedLen, md5_mac, heap, devId)) == 0) {
1625:Middlewares/Third_Party/wolfSSL_wolfSSL_wolfSSL/wolfssl/wolfcrypt/src/hash.c ****         if ((ret = wc_PRF(sha_result, digLen, sha_half, half, labelSeed,
1626:Middlewares/Third_Party/wolfSSL_wolfSSL_wolfSSL/wolfssl/wolfcrypt/src/hash.c ****                                 labLen + seedLen, sha_mac, heap, devId)) == 0) {
1627:Middlewares/Third_Party/wolfSSL_wolfSSL_wolfSSL/wolfssl/wolfcrypt/src/hash.c ****             /* calculate XOR for TLSv1 PRF */
1628:Middlewares/Third_Party/wolfSSL_wolfSSL_wolfSSL/wolfssl/wolfcrypt/src/hash.c ****             XMEMCPY(digest, md5_result, digLen);
1629:Middlewares/Third_Party/wolfSSL_wolfSSL_wolfSSL/wolfssl/wolfcrypt/src/hash.c ****             xorbuf(digest, sha_result, digLen);
1630:Middlewares/Third_Party/wolfSSL_wolfSSL_wolfSSL/wolfssl/wolfcrypt/src/hash.c ****         }
1631:Middlewares/Third_Party/wolfSSL_wolfSSL_wolfSSL/wolfssl/wolfcrypt/src/hash.c ****     }
1632:Middlewares/Third_Party/wolfSSL_wolfSSL_wolfSSL/wolfssl/wolfcrypt/src/hash.c **** 
1633:Middlewares/Third_Party/wolfSSL_wolfSSL_wolfSSL/wolfssl/wolfcrypt/src/hash.c **** #ifdef WOLFSSL_SMALL_STACK
1634:Middlewares/Third_Party/wolfSSL_wolfSSL_wolfSSL/wolfssl/wolfcrypt/src/hash.c ****     XFREE(md5_half,   heap, DYNAMIC_TYPE_DIGEST);
 1595              		.loc 1 1634 5 is_stmt 1 view .LVU393
 1596 00da 4046     		mov	r0, r8
 1597 00dc FFF7FEFF 		bl	vPortFree
 1598              	.LVL206:
1635:Middlewares/Third_Party/wolfSSL_wolfSSL_wolfSSL/wolfssl/wolfcrypt/src/hash.c ****     XFREE(sha_half,   heap, DYNAMIC_TYPE_DIGEST);
 1599              		.loc 1 1635 5 view .LVU394
 1600 00e0 4846     		mov	r0, r9
 1601 00e2 FFF7FEFF 		bl	vPortFree
 1602              	.LVL207:
1636:Middlewares/Third_Party/wolfSSL_wolfSSL_wolfSSL/wolfssl/wolfcrypt/src/hash.c ****     XFREE(md5_result, heap, DYNAMIC_TYPE_DIGEST);
 1603              		.loc 1 1636 5 view .LVU395
 1604 00e6 3846     		mov	r0, r7
 1605 00e8 FFF7FEFF 		bl	vPortFree
 1606              	.LVL208:
1637:Middlewares/Third_Party/wolfSSL_wolfSSL_wolfSSL/wolfssl/wolfcrypt/src/hash.c ****     XFREE(sha_result, heap, DYNAMIC_TYPE_DIGEST);
 1607              		.loc 1 1637 5 view .LVU396
 1608 00ec 3046     		mov	r0, r6
 1609 00ee FFF7FEFF 		bl	vPortFree
 1610              	.LVL209:
1638:Middlewares/Third_Party/wolfSSL_wolfSSL_wolfSSL/wolfssl/wolfcrypt/src/hash.c **** #endif
1639:Middlewares/Third_Party/wolfSSL_wolfSSL_wolfSSL/wolfssl/wolfcrypt/src/hash.c **** 
1640:Middlewares/Third_Party/wolfSSL_wolfSSL_wolfSSL/wolfssl/wolfcrypt/src/hash.c **** #if defined(WOLFSSL_ASYNC_CRYPT) && !defined(WC_ASYNC_NO_HASH)
1641:Middlewares/Third_Party/wolfSSL_wolfSSL_wolfSSL/wolfssl/wolfcrypt/src/hash.c ****     FREE_VAR(labelSeed, heap);
1642:Middlewares/Third_Party/wolfSSL_wolfSSL_wolfSSL/wolfssl/wolfcrypt/src/hash.c **** #endif
1643:Middlewares/Third_Party/wolfSSL_wolfSSL_wolfSSL/wolfssl/wolfcrypt/src/hash.c **** 
1644:Middlewares/Third_Party/wolfSSL_wolfSSL_wolfSSL/wolfssl/wolfcrypt/src/hash.c ****     return ret;
 1611              		.loc 1 1644 5 view .LVU397
 1612              	.L129:
1645:Middlewares/Third_Party/wolfSSL_wolfSSL_wolfSSL/wolfssl/wolfcrypt/src/hash.c **** }
 1613              		.loc 1 1645 1 is_stmt 0 view .LVU398
 1614 00f2 2046     		mov	r0, r4
 1615 00f4 29B0     		add	sp, sp, #164
 1616              	.LCFI20:
 1617              		.cfi_remember_state
 1618              		.cfi_def_cfa_offset 36
 1619              		@ sp needed
 1620 00f6 BDE8F08F 		pop	{r4, r5, r6, r7, r8, r9, r10, fp, pc}
 1621              	.LVL210:
 1622              	.L131:
 1623              	.LCFI21:
 1624              		.cfi_restore_state
1602:Middlewares/Third_Party/wolfSSL_wolfSSL_wolfSSL/wolfssl/wolfcrypt/src/hash.c ****         if (sha_half)   XFREE(sha_half,   heap, DYNAMIC_TYPE_DIGEST);
 1625              		.loc 1 1602 9 is_stmt 1 view .LVU399
1602:Middlewares/Third_Party/wolfSSL_wolfSSL_wolfSSL/wolfssl/wolfcrypt/src/hash.c ****         if (sha_half)   XFREE(sha_half,   heap, DYNAMIC_TYPE_DIGEST);
ARM GAS  /tmp/ccIUkCMh.s 			page 67


 1626              		.loc 1 1602 12 is_stmt 0 view .LVU400
 1627 00fa B8F1000F 		cmp	r8, #0
 1628 00fe 02D0     		beq	.L133
1602:Middlewares/Third_Party/wolfSSL_wolfSSL_wolfSSL/wolfssl/wolfcrypt/src/hash.c ****         if (sha_half)   XFREE(sha_half,   heap, DYNAMIC_TYPE_DIGEST);
 1629              		.loc 1 1602 25 is_stmt 1 discriminator 1 view .LVU401
 1630 0100 4046     		mov	r0, r8
 1631              	.LVL211:
1602:Middlewares/Third_Party/wolfSSL_wolfSSL_wolfSSL/wolfssl/wolfcrypt/src/hash.c ****         if (sha_half)   XFREE(sha_half,   heap, DYNAMIC_TYPE_DIGEST);
 1632              		.loc 1 1602 25 is_stmt 0 discriminator 1 view .LVU402
 1633 0102 FFF7FEFF 		bl	vPortFree
 1634              	.LVL212:
 1635              	.L133:
1603:Middlewares/Third_Party/wolfSSL_wolfSSL_wolfSSL/wolfssl/wolfcrypt/src/hash.c ****         if (md5_result) XFREE(md5_result, heap, DYNAMIC_TYPE_DIGEST);
 1636              		.loc 1 1603 9 is_stmt 1 view .LVU403
1603:Middlewares/Third_Party/wolfSSL_wolfSSL_wolfSSL/wolfssl/wolfcrypt/src/hash.c ****         if (md5_result) XFREE(md5_result, heap, DYNAMIC_TYPE_DIGEST);
 1637              		.loc 1 1603 12 is_stmt 0 view .LVU404
 1638 0106 B9F1000F 		cmp	r9, #0
 1639 010a 02D0     		beq	.L134
1603:Middlewares/Third_Party/wolfSSL_wolfSSL_wolfSSL/wolfssl/wolfcrypt/src/hash.c ****         if (md5_result) XFREE(md5_result, heap, DYNAMIC_TYPE_DIGEST);
 1640              		.loc 1 1603 25 is_stmt 1 discriminator 1 view .LVU405
 1641 010c 4846     		mov	r0, r9
 1642 010e FFF7FEFF 		bl	vPortFree
 1643              	.LVL213:
 1644              	.L134:
1604:Middlewares/Third_Party/wolfSSL_wolfSSL_wolfSSL/wolfssl/wolfcrypt/src/hash.c ****         if (sha_result) XFREE(sha_result, heap, DYNAMIC_TYPE_DIGEST);
 1645              		.loc 1 1604 9 view .LVU406
1604:Middlewares/Third_Party/wolfSSL_wolfSSL_wolfSSL/wolfssl/wolfcrypt/src/hash.c ****         if (sha_result) XFREE(sha_result, heap, DYNAMIC_TYPE_DIGEST);
 1646              		.loc 1 1604 12 is_stmt 0 view .LVU407
 1647 0112 17B1     		cbz	r7, .L135
1604:Middlewares/Third_Party/wolfSSL_wolfSSL_wolfSSL/wolfssl/wolfcrypt/src/hash.c ****         if (sha_result) XFREE(sha_result, heap, DYNAMIC_TYPE_DIGEST);
 1648              		.loc 1 1604 25 is_stmt 1 discriminator 1 view .LVU408
 1649 0114 3846     		mov	r0, r7
 1650 0116 FFF7FEFF 		bl	vPortFree
 1651              	.LVL214:
 1652              	.L135:
1605:Middlewares/Third_Party/wolfSSL_wolfSSL_wolfSSL/wolfssl/wolfcrypt/src/hash.c ****     #if defined(WOLFSSL_ASYNC_CRYPT) && !defined(WC_ASYNC_NO_HASH)
 1653              		.loc 1 1605 9 view .LVU409
1605:Middlewares/Third_Party/wolfSSL_wolfSSL_wolfSSL/wolfssl/wolfcrypt/src/hash.c ****     #if defined(WOLFSSL_ASYNC_CRYPT) && !defined(WC_ASYNC_NO_HASH)
 1654              		.loc 1 1605 12 is_stmt 0 view .LVU410
 1655 011a 16B1     		cbz	r6, .L136
1605:Middlewares/Third_Party/wolfSSL_wolfSSL_wolfSSL/wolfssl/wolfcrypt/src/hash.c ****     #if defined(WOLFSSL_ASYNC_CRYPT) && !defined(WC_ASYNC_NO_HASH)
 1656              		.loc 1 1605 25 is_stmt 1 discriminator 1 view .LVU411
 1657 011c 3046     		mov	r0, r6
 1658 011e FFF7FEFF 		bl	vPortFree
 1659              	.LVL215:
 1660              	.L136:
1610:Middlewares/Third_Party/wolfSSL_wolfSSL_wolfSSL/wolfssl/wolfcrypt/src/hash.c ****     }
 1661              		.loc 1 1610 9 view .LVU412
1610:Middlewares/Third_Party/wolfSSL_wolfSSL_wolfSSL/wolfssl/wolfcrypt/src/hash.c ****     }
 1662              		.loc 1 1610 16 is_stmt 0 view .LVU413
 1663 0122 6FF07C04 		mvn	r4, #124
 1664              	.LVL216:
1610:Middlewares/Third_Party/wolfSSL_wolfSSL_wolfSSL/wolfssl/wolfcrypt/src/hash.c ****     }
 1665              		.loc 1 1610 16 view .LVU414
 1666 0126 E4E7     		b	.L129
 1667              	.LVL217:
 1668              	.L148:
ARM GAS  /tmp/ccIUkCMh.s 			page 68


1625:Middlewares/Third_Party/wolfSSL_wolfSSL_wolfSSL/wolfssl/wolfcrypt/src/hash.c ****                                 labLen + seedLen, sha_mac, heap, devId)) == 0) {
 1669              		.loc 1 1625 9 is_stmt 1 view .LVU415
1625:Middlewares/Third_Party/wolfSSL_wolfSSL_wolfSSL/wolfssl/wolfcrypt/src/hash.c ****                                 labLen + seedLen, sha_mac, heap, devId)) == 0) {
 1670              		.loc 1 1625 20 is_stmt 0 view .LVU416
 1671 0128 379B     		ldr	r3, [sp, #220]
 1672 012a 0493     		str	r3, [sp, #16]
 1673 012c 369B     		ldr	r3, [sp, #216]
 1674 012e 0393     		str	r3, [sp, #12]
 1675 0130 0223     		movs	r3, #2
 1676 0132 0293     		str	r3, [sp, #8]
 1677 0134 CDF804B0 		str	fp, [sp, #4]
 1678 0138 08AB     		add	r3, sp, #32
 1679 013a 0093     		str	r3, [sp]
 1680 013c 5346     		mov	r3, r10
 1681 013e 4A46     		mov	r2, r9
 1682 0140 2946     		mov	r1, r5
 1683 0142 3046     		mov	r0, r6
 1684              	.LVL218:
1625:Middlewares/Third_Party/wolfSSL_wolfSSL_wolfSSL/wolfssl/wolfcrypt/src/hash.c ****                                 labLen + seedLen, sha_mac, heap, devId)) == 0) {
 1685              		.loc 1 1625 20 view .LVU417
 1686 0144 FFF7FEFF 		bl	wc_PRF
 1687              	.LVL219:
1625:Middlewares/Third_Party/wolfSSL_wolfSSL_wolfSSL/wolfssl/wolfcrypt/src/hash.c ****                                 labLen + seedLen, sha_mac, heap, devId)) == 0) {
 1688              		.loc 1 1625 12 view .LVU418
 1689 0148 0446     		mov	r4, r0
 1690 014a 0028     		cmp	r0, #0
 1691 014c C5D1     		bne	.L137
1628:Middlewares/Third_Party/wolfSSL_wolfSSL_wolfSSL/wolfssl/wolfcrypt/src/hash.c ****             xorbuf(digest, sha_result, digLen);
 1692              		.loc 1 1628 13 is_stmt 1 view .LVU419
 1693 014e 2A46     		mov	r2, r5
 1694 0150 3946     		mov	r1, r7
 1695 0152 DDF81CA0 		ldr	r10, [sp, #28]
 1696              	.LVL220:
1628:Middlewares/Third_Party/wolfSSL_wolfSSL_wolfSSL/wolfssl/wolfcrypt/src/hash.c ****             xorbuf(digest, sha_result, digLen);
 1697              		.loc 1 1628 13 is_stmt 0 view .LVU420
 1698 0156 5046     		mov	r0, r10
 1699              	.LVL221:
1628:Middlewares/Third_Party/wolfSSL_wolfSSL_wolfSSL/wolfssl/wolfcrypt/src/hash.c ****             xorbuf(digest, sha_result, digLen);
 1700              		.loc 1 1628 13 view .LVU421
 1701 0158 FFF7FEFF 		bl	memcpy
 1702              	.LVL222:
1629:Middlewares/Third_Party/wolfSSL_wolfSSL_wolfSSL/wolfssl/wolfcrypt/src/hash.c ****         }
 1703              		.loc 1 1629 13 is_stmt 1 view .LVU422
 1704              	.LBB36:
 1705              	.LBI36:
 254:Middlewares/Third_Party/wolfSSL_wolfSSL_wolfSSL/wolfssl/wolfcrypt/src/misc.c **** {
 1706              		.loc 2 254 26 view .LVU423
 1707              	.LBB37:
 256:Middlewares/Third_Party/wolfSSL_wolfSSL_wolfSSL/wolfssl/wolfcrypt/src/misc.c ****         XorWords( (wolfssl_word*)buf,
 1708              		.loc 2 256 5 view .LVU424
 256:Middlewares/Third_Party/wolfSSL_wolfSSL_wolfSSL/wolfssl/wolfcrypt/src/misc.c ****         XorWords( (wolfssl_word*)buf,
 1709              		.loc 2 256 28 is_stmt 0 view .LVU425
 1710 015c 5146     		mov	r1, r10
 1711 015e 5346     		mov	r3, r10
 1712 0160 3343     		orrs	r3, r3, r6
 256:Middlewares/Third_Party/wolfSSL_wolfSSL_wolfSSL/wolfssl/wolfcrypt/src/misc.c ****         XorWords( (wolfssl_word*)buf,
 1713              		.loc 2 256 49 view .LVU426
ARM GAS  /tmp/ccIUkCMh.s 			page 69


 1714 0162 2B43     		orrs	r3, r3, r5
 256:Middlewares/Third_Party/wolfSSL_wolfSSL_wolfSSL/wolfssl/wolfcrypt/src/misc.c ****         XorWords( (wolfssl_word*)buf,
 1715              		.loc 2 256 8 view .LVU427
 1716 0164 13F00303 		ands	r3, r3, #3
 1717 0168 14D1     		bne	.L146
 257:Middlewares/Third_Party/wolfSSL_wolfSSL_wolfSSL/wolfssl/wolfcrypt/src/misc.c ****                   (const wolfssl_word*)mask, count / WOLFSSL_WORD_SIZE);
 1718              		.loc 2 257 9 is_stmt 1 view .LVU428
 1719 016a AD08     		lsrs	r5, r5, #2
 1720              	.LVL223:
 1721              	.LBB38:
 1722              	.LBI38:
 244:Middlewares/Third_Party/wolfSSL_wolfSSL_wolfSSL/wolfssl/wolfcrypt/src/misc.c **** {
 1723              		.loc 2 244 26 view .LVU429
 1724              	.LBB39:
 246:Middlewares/Third_Party/wolfSSL_wolfSSL_wolfSSL/wolfssl/wolfcrypt/src/misc.c **** 
 1725              		.loc 2 246 5 view .LVU430
 248:Middlewares/Third_Party/wolfSSL_wolfSSL_wolfSSL/wolfssl/wolfcrypt/src/misc.c **** }
 1726              		.loc 2 248 5 view .LVU431
 248:Middlewares/Third_Party/wolfSSL_wolfSSL_wolfSSL/wolfssl/wolfcrypt/src/misc.c **** }
 1727              		.loc 2 248 5 is_stmt 0 view .LVU432
 1728 016c 07E0     		b	.L139
 1729              	.LVL224:
 1730              	.L140:
 248:Middlewares/Third_Party/wolfSSL_wolfSSL_wolfSSL/wolfssl/wolfcrypt/src/misc.c **** }
 1731              		.loc 2 248 29 is_stmt 1 view .LVU433
 248:Middlewares/Third_Party/wolfSSL_wolfSSL_wolfSSL/wolfssl/wolfcrypt/src/misc.c **** }
 1732              		.loc 2 248 38 is_stmt 0 view .LVU434
 1733 016e 56F82300 		ldr	r0, [r6, r3, lsl #2]
 248:Middlewares/Third_Party/wolfSSL_wolfSSL_wolfSSL/wolfssl/wolfcrypt/src/misc.c **** }
 1734              		.loc 2 248 34 view .LVU435
 1735 0172 51F82320 		ldr	r2, [r1, r3, lsl #2]
 1736 0176 4240     		eors	r2, r2, r0
 1737 0178 41F82320 		str	r2, [r1, r3, lsl #2]
 248:Middlewares/Third_Party/wolfSSL_wolfSSL_wolfSSL/wolfssl/wolfcrypt/src/misc.c **** }
 1738              		.loc 2 248 24 is_stmt 1 view .LVU436
 248:Middlewares/Third_Party/wolfSSL_wolfSSL_wolfSSL/wolfssl/wolfcrypt/src/misc.c **** }
 1739              		.loc 2 248 25 is_stmt 0 view .LVU437
 1740 017c 0133     		adds	r3, r3, #1
 1741              	.LVL225:
 1742              	.L139:
 248:Middlewares/Third_Party/wolfSSL_wolfSSL_wolfSSL/wolfssl/wolfcrypt/src/misc.c **** }
 1743              		.loc 2 248 17 is_stmt 1 view .LVU438
 248:Middlewares/Third_Party/wolfSSL_wolfSSL_wolfSSL/wolfssl/wolfcrypt/src/misc.c **** }
 1744              		.loc 2 248 5 is_stmt 0 view .LVU439
 1745 017e 9D42     		cmp	r5, r3
 1746 0180 F5D8     		bhi	.L140
 1747 0182 AAE7     		b	.L137
 1748              	.LVL226:
 1749              	.L142:
 248:Middlewares/Third_Party/wolfSSL_wolfSSL_wolfSSL/wolfssl/wolfcrypt/src/misc.c **** }
 1750              		.loc 2 248 5 view .LVU440
 1751              	.LBE39:
 1752              	.LBE38:
 1753              	.LBB40:
 264:Middlewares/Third_Party/wolfSSL_wolfSSL_wolfSSL/wolfssl/wolfcrypt/src/misc.c ****     }
 1754              		.loc 2 264 37 is_stmt 1 view .LVU441
 264:Middlewares/Third_Party/wolfSSL_wolfSSL_wolfSSL/wolfssl/wolfcrypt/src/misc.c ****     }
ARM GAS  /tmp/ccIUkCMh.s 			page 70


 1755              		.loc 2 264 46 is_stmt 0 view .LVU442
 1756 0184 F25C     		ldrb	r2, [r6, r3]	@ zero_extendqisi2
 264:Middlewares/Third_Party/wolfSSL_wolfSSL_wolfSSL/wolfssl/wolfcrypt/src/misc.c ****     }
 1757              		.loc 2 264 42 view .LVU443
 1758 0186 C85C     		ldrb	r0, [r1, r3]	@ zero_extendqisi2
 1759 0188 4240     		eors	r2, r2, r0
 1760 018a CA54     		strb	r2, [r1, r3]
 264:Middlewares/Third_Party/wolfSSL_wolfSSL_wolfSSL/wolfssl/wolfcrypt/src/misc.c ****     }
 1761              		.loc 2 264 32 is_stmt 1 view .LVU444
 264:Middlewares/Third_Party/wolfSSL_wolfSSL_wolfSSL/wolfssl/wolfcrypt/src/misc.c ****     }
 1762              		.loc 2 264 33 is_stmt 0 view .LVU445
 1763 018c 0133     		adds	r3, r3, #1
 1764              	.LVL227:
 1765              	.L138:
 264:Middlewares/Third_Party/wolfSSL_wolfSSL_wolfSSL/wolfssl/wolfcrypt/src/misc.c ****     }
 1766              		.loc 2 264 21 is_stmt 1 view .LVU446
 264:Middlewares/Third_Party/wolfSSL_wolfSSL_wolfSSL/wolfssl/wolfcrypt/src/misc.c ****     }
 1767              		.loc 2 264 9 is_stmt 0 view .LVU447
 1768 018e 9D42     		cmp	r5, r3
 1769 0190 F8D8     		bhi	.L142
 1770 0192 A2E7     		b	.L137
 1771              	.LVL228:
 1772              	.L146:
 264:Middlewares/Third_Party/wolfSSL_wolfSSL_wolfSSL/wolfssl/wolfcrypt/src/misc.c ****     }
 1773              		.loc 2 264 16 view .LVU448
 1774 0194 0023     		movs	r3, #0
 1775 0196 0799     		ldr	r1, [sp, #28]
 1776              	.LVL229:
 264:Middlewares/Third_Party/wolfSSL_wolfSSL_wolfSSL/wolfssl/wolfcrypt/src/misc.c ****     }
 1777              		.loc 2 264 16 view .LVU449
 1778 0198 F9E7     		b	.L138
 1779              	.LVL230:
 1780              	.L143:
 264:Middlewares/Third_Party/wolfSSL_wolfSSL_wolfSSL/wolfssl/wolfcrypt/src/misc.c ****     }
 1781              		.loc 2 264 16 view .LVU450
 1782              	.LBE40:
 1783              	.LBE37:
 1784              	.LBE36:
1591:Middlewares/Third_Party/wolfSSL_wolfSSL_wolfSSL/wolfssl/wolfcrypt/src/hash.c ****     }
 1785              		.loc 1 1591 16 view .LVU451
 1786 019a 6FF08304 		mvn	r4, #131
 1787              	.LVL231:
1591:Middlewares/Third_Party/wolfSSL_wolfSSL_wolfSSL/wolfssl/wolfcrypt/src/hash.c ****     }
 1788              		.loc 1 1591 16 view .LVU452
 1789 019e A8E7     		b	.L129
 1790              	.LVL232:
 1791              	.L144:
1591:Middlewares/Third_Party/wolfSSL_wolfSSL_wolfSSL/wolfssl/wolfcrypt/src/hash.c ****     }
 1792              		.loc 1 1591 16 view .LVU453
 1793 01a0 6FF08304 		mvn	r4, #131
 1794              	.LVL233:
1591:Middlewares/Third_Party/wolfSSL_wolfSSL_wolfSSL/wolfssl/wolfcrypt/src/hash.c ****     }
 1795              		.loc 1 1591 16 view .LVU454
 1796 01a4 A5E7     		b	.L129
 1797              	.LVL234:
 1798              	.L145:
1591:Middlewares/Third_Party/wolfSSL_wolfSSL_wolfSSL/wolfssl/wolfcrypt/src/hash.c ****     }
ARM GAS  /tmp/ccIUkCMh.s 			page 71


 1799              		.loc 1 1591 16 view .LVU455
 1800 01a6 6FF08304 		mvn	r4, #131
 1801              	.LVL235:
1591:Middlewares/Third_Party/wolfSSL_wolfSSL_wolfSSL/wolfssl/wolfcrypt/src/hash.c ****     }
 1802              		.loc 1 1591 16 view .LVU456
 1803 01aa A2E7     		b	.L129
 1804              		.cfi_endproc
 1805              	.LFE188:
 1807              		.section	.text.wc_PRF_TLS,"ax",%progbits
 1808              		.align	1
 1809              		.global	wc_PRF_TLS
 1810              		.syntax unified
 1811              		.thumb
 1812              		.thumb_func
 1813              		.fpu fpv4-sp-d16
 1815              	wc_PRF_TLS:
 1816              	.LVL236:
 1817              	.LFB189:
1646:Middlewares/Third_Party/wolfSSL_wolfSSL_wolfSSL/wolfssl/wolfcrypt/src/hash.c **** 
1647:Middlewares/Third_Party/wolfSSL_wolfSSL_wolfSSL/wolfssl/wolfcrypt/src/hash.c **** /* Wrapper for TLS 1.2 and TLSv1 cases to calculate PRF */
1648:Middlewares/Third_Party/wolfSSL_wolfSSL_wolfSSL/wolfssl/wolfcrypt/src/hash.c **** /* In TLS 1.2 case call straight thru to wc_PRF */
1649:Middlewares/Third_Party/wolfSSL_wolfSSL_wolfSSL/wolfssl/wolfcrypt/src/hash.c **** int wc_PRF_TLS(byte* digest, word32 digLen, const byte* secret, word32 secLen,
1650:Middlewares/Third_Party/wolfSSL_wolfSSL_wolfSSL/wolfssl/wolfcrypt/src/hash.c ****             const byte* label, word32 labLen, const byte* seed, word32 seedLen,
1651:Middlewares/Third_Party/wolfSSL_wolfSSL_wolfSSL/wolfssl/wolfcrypt/src/hash.c ****             int useAtLeastSha256, int hash_type, void* heap, int devId)
1652:Middlewares/Third_Party/wolfSSL_wolfSSL_wolfSSL/wolfssl/wolfcrypt/src/hash.c **** {
 1818              		.loc 1 1652 1 is_stmt 1 view -0
 1819              		.cfi_startproc
 1820              		@ args = 32, pretend = 0, frame = 128
 1821              		@ frame_needed = 0, uses_anonymous_args = 0
 1822              		.loc 1 1652 1 is_stmt 0 view .LVU458
 1823 0000 2DE9F047 		push	{r4, r5, r6, r7, r8, r9, r10, lr}
 1824              	.LCFI22:
 1825              		.cfi_def_cfa_offset 32
 1826              		.cfi_offset 4, -32
 1827              		.cfi_offset 5, -28
 1828              		.cfi_offset 6, -24
 1829              		.cfi_offset 7, -20
 1830              		.cfi_offset 8, -16
 1831              		.cfi_offset 9, -12
 1832              		.cfi_offset 10, -8
 1833              		.cfi_offset 14, -4
 1834 0004 A6B0     		sub	sp, sp, #152
 1835              	.LCFI23:
 1836              		.cfi_def_cfa_offset 184
 1837 0006 0446     		mov	r4, r0
 1838 0008 2F9F     		ldr	r7, [sp, #188]
 1839 000a 3298     		ldr	r0, [sp, #200]
 1840              	.LVL237:
 1841              		.loc 1 1652 1 view .LVU459
 1842 000c 339E     		ldr	r6, [sp, #204]
1653:Middlewares/Third_Party/wolfSSL_wolfSSL_wolfSSL/wolfssl/wolfcrypt/src/hash.c ****     int ret = 0;
 1843              		.loc 1 1653 5 is_stmt 1 view .LVU460
 1844              	.LVL238:
1654:Middlewares/Third_Party/wolfSSL_wolfSSL_wolfSSL/wolfssl/wolfcrypt/src/hash.c **** 
1655:Middlewares/Third_Party/wolfSSL_wolfSSL_wolfSSL/wolfssl/wolfcrypt/src/hash.c ****     if (useAtLeastSha256) {
 1845              		.loc 1 1655 5 view .LVU461
 1846              		.loc 1 1655 8 is_stmt 0 view .LVU462
ARM GAS  /tmp/ccIUkCMh.s 			page 72


 1847 000e 60B3     		cbz	r0, .L150
 1848 0010 0D46     		mov	r5, r1
 1849 0012 9146     		mov	r9, r2
 1850 0014 9846     		mov	r8, r3
 1851              	.LBB41:
1656:Middlewares/Third_Party/wolfSSL_wolfSSL_wolfSSL/wolfssl/wolfcrypt/src/hash.c ****     #if defined(WOLFSSL_ASYNC_CRYPT) && !defined(WC_ASYNC_NO_HASH)
1657:Middlewares/Third_Party/wolfSSL_wolfSSL_wolfSSL/wolfssl/wolfcrypt/src/hash.c ****         DECLARE_VAR(labelSeed, byte, MAX_PRF_LABSEED, heap);
1658:Middlewares/Third_Party/wolfSSL_wolfSSL_wolfSSL/wolfssl/wolfcrypt/src/hash.c ****         if (labelSeed == NULL)
1659:Middlewares/Third_Party/wolfSSL_wolfSSL_wolfSSL/wolfssl/wolfcrypt/src/hash.c ****             return MEMORY_E;
1660:Middlewares/Third_Party/wolfSSL_wolfSSL_wolfSSL/wolfssl/wolfcrypt/src/hash.c ****     #else
1661:Middlewares/Third_Party/wolfSSL_wolfSSL_wolfSSL/wolfssl/wolfcrypt/src/hash.c ****         byte labelSeed[MAX_PRF_LABSEED];
 1852              		.loc 1 1661 9 is_stmt 1 view .LVU463
1662:Middlewares/Third_Party/wolfSSL_wolfSSL_wolfSSL/wolfssl/wolfcrypt/src/hash.c ****     #endif
1663:Middlewares/Third_Party/wolfSSL_wolfSSL_wolfSSL/wolfssl/wolfcrypt/src/hash.c **** 
1664:Middlewares/Third_Party/wolfSSL_wolfSSL_wolfSSL/wolfssl/wolfcrypt/src/hash.c ****         if (labLen + seedLen > MAX_PRF_LABSEED)
 1853              		.loc 1 1664 9 view .LVU464
 1854              		.loc 1 1664 20 is_stmt 0 view .LVU465
 1855 0016 319B     		ldr	r3, [sp, #196]
 1856              	.LVL239:
 1857              		.loc 1 1664 20 view .LVU466
 1858 0018 07EB030A 		add	r10, r7, r3
 1859              		.loc 1 1664 12 view .LVU467
 1860 001c BAF1800F 		cmp	r10, #128
 1861 0020 10D8     		bhi	.L156
1665:Middlewares/Third_Party/wolfSSL_wolfSSL_wolfSSL/wolfssl/wolfcrypt/src/hash.c ****             return BUFFER_E;
1666:Middlewares/Third_Party/wolfSSL_wolfSSL_wolfSSL/wolfssl/wolfcrypt/src/hash.c **** 
1667:Middlewares/Third_Party/wolfSSL_wolfSSL_wolfSSL/wolfssl/wolfcrypt/src/hash.c ****         XMEMCPY(labelSeed, label, labLen);
 1862              		.loc 1 1667 9 is_stmt 1 view .LVU468
 1863 0022 3A46     		mov	r2, r7
 1864              	.LVL240:
 1865              		.loc 1 1667 9 is_stmt 0 view .LVU469
 1866 0024 2E99     		ldr	r1, [sp, #184]
 1867              	.LVL241:
 1868              		.loc 1 1667 9 view .LVU470
 1869 0026 06A8     		add	r0, sp, #24
 1870 0028 FFF7FEFF 		bl	memcpy
 1871              	.LVL242:
1668:Middlewares/Third_Party/wolfSSL_wolfSSL_wolfSSL/wolfssl/wolfcrypt/src/hash.c ****         XMEMCPY(labelSeed + labLen, seed, seedLen);
 1872              		.loc 1 1668 9 is_stmt 1 view .LVU471
 1873 002c 319A     		ldr	r2, [sp, #196]
 1874 002e 3099     		ldr	r1, [sp, #192]
 1875 0030 06AB     		add	r3, sp, #24
 1876 0032 D819     		adds	r0, r3, r7
 1877 0034 FFF7FEFF 		bl	memcpy
 1878              	.LVL243:
1669:Middlewares/Third_Party/wolfSSL_wolfSSL_wolfSSL/wolfssl/wolfcrypt/src/hash.c **** 
1670:Middlewares/Third_Party/wolfSSL_wolfSSL_wolfSSL/wolfssl/wolfcrypt/src/hash.c ****         /* If a cipher suite wants an algorithm better than sha256, it
1671:Middlewares/Third_Party/wolfSSL_wolfSSL_wolfSSL/wolfssl/wolfcrypt/src/hash.c ****          * should use better. */
1672:Middlewares/Third_Party/wolfSSL_wolfSSL_wolfSSL/wolfssl/wolfcrypt/src/hash.c ****         if (hash_type < sha256_mac || hash_type == blake2b_mac)
 1879              		.loc 1 1672 9 view .LVU472
 1880              		.loc 1 1672 12 is_stmt 0 view .LVU473
 1881 0038 032E     		cmp	r6, #3
 1882 003a 06DD     		ble	.L153
 1883              		.loc 1 1672 36 discriminator 1 view .LVU474
 1884 003c 082E     		cmp	r6, #8
 1885 003e 05D1     		bne	.L152
1673:Middlewares/Third_Party/wolfSSL_wolfSSL_wolfSSL/wolfssl/wolfcrypt/src/hash.c ****             hash_type = sha256_mac;
ARM GAS  /tmp/ccIUkCMh.s 			page 73


 1886              		.loc 1 1673 23 view .LVU475
 1887 0040 0426     		movs	r6, #4
 1888 0042 03E0     		b	.L152
 1889              	.LVL244:
 1890              	.L156:
1665:Middlewares/Third_Party/wolfSSL_wolfSSL_wolfSSL/wolfssl/wolfcrypt/src/hash.c **** 
 1891              		.loc 1 1665 13 is_stmt 1 view .LVU476
1665:Middlewares/Third_Party/wolfSSL_wolfSSL_wolfSSL/wolfssl/wolfcrypt/src/hash.c **** 
 1892              		.loc 1 1665 20 is_stmt 0 view .LVU477
 1893 0044 6FF08300 		mvn	r0, #131
 1894 0048 0FE0     		b	.L150
 1895              	.LVL245:
 1896              	.L153:
 1897              		.loc 1 1673 23 view .LVU478
 1898 004a 0426     		movs	r6, #4
 1899              	.L152:
 1900              	.LVL246:
1674:Middlewares/Third_Party/wolfSSL_wolfSSL_wolfSSL/wolfssl/wolfcrypt/src/hash.c ****         /* compute PRF for MD5, SHA-1, SHA-256, or SHA-384 for TLSv1.2 PRF */
1675:Middlewares/Third_Party/wolfSSL_wolfSSL_wolfSSL/wolfssl/wolfcrypt/src/hash.c ****         ret = wc_PRF(digest, digLen, secret, secLen, labelSeed,
 1901              		.loc 1 1675 9 is_stmt 1 view .LVU479
 1902              		.loc 1 1675 15 is_stmt 0 view .LVU480
 1903 004c 359B     		ldr	r3, [sp, #212]
 1904 004e 0493     		str	r3, [sp, #16]
 1905 0050 349B     		ldr	r3, [sp, #208]
 1906 0052 0393     		str	r3, [sp, #12]
 1907 0054 0296     		str	r6, [sp, #8]
 1908 0056 CDF804A0 		str	r10, [sp, #4]
 1909 005a 06AB     		add	r3, sp, #24
 1910 005c 0093     		str	r3, [sp]
 1911 005e 4346     		mov	r3, r8
 1912 0060 4A46     		mov	r2, r9
 1913 0062 2946     		mov	r1, r5
 1914 0064 2046     		mov	r0, r4
 1915 0066 FFF7FEFF 		bl	wc_PRF
 1916              	.LVL247:
 1917              	.L150:
 1918              		.loc 1 1675 15 view .LVU481
 1919              	.LBE41:
1676:Middlewares/Third_Party/wolfSSL_wolfSSL_wolfSSL/wolfssl/wolfcrypt/src/hash.c ****                      labLen + seedLen, hash_type, heap, devId);
1677:Middlewares/Third_Party/wolfSSL_wolfSSL_wolfSSL/wolfssl/wolfcrypt/src/hash.c **** 
1678:Middlewares/Third_Party/wolfSSL_wolfSSL_wolfSSL/wolfssl/wolfcrypt/src/hash.c ****     #if defined(WOLFSSL_ASYNC_CRYPT) && !defined(WC_ASYNC_NO_HASH)
1679:Middlewares/Third_Party/wolfSSL_wolfSSL_wolfSSL/wolfssl/wolfcrypt/src/hash.c ****         FREE_VAR(labelSeed, heap);
1680:Middlewares/Third_Party/wolfSSL_wolfSSL_wolfSSL/wolfssl/wolfcrypt/src/hash.c ****     #endif
1681:Middlewares/Third_Party/wolfSSL_wolfSSL_wolfSSL/wolfssl/wolfcrypt/src/hash.c ****     }
1682:Middlewares/Third_Party/wolfSSL_wolfSSL_wolfSSL/wolfssl/wolfcrypt/src/hash.c **** #ifndef NO_OLD_TLS
1683:Middlewares/Third_Party/wolfSSL_wolfSSL_wolfSSL/wolfssl/wolfcrypt/src/hash.c ****     else {
1684:Middlewares/Third_Party/wolfSSL_wolfSSL_wolfSSL/wolfssl/wolfcrypt/src/hash.c ****         /* compute TLSv1 PRF (pseudo random function using HMAC) */
1685:Middlewares/Third_Party/wolfSSL_wolfSSL_wolfSSL/wolfssl/wolfcrypt/src/hash.c ****         ret = wc_PRF_TLSv1(digest, digLen, secret, secLen, label, labLen, seed,
1686:Middlewares/Third_Party/wolfSSL_wolfSSL_wolfSSL/wolfssl/wolfcrypt/src/hash.c ****                           seedLen, heap, devId);
1687:Middlewares/Third_Party/wolfSSL_wolfSSL_wolfSSL/wolfssl/wolfcrypt/src/hash.c ****     }
1688:Middlewares/Third_Party/wolfSSL_wolfSSL_wolfSSL/wolfssl/wolfcrypt/src/hash.c **** #endif
1689:Middlewares/Third_Party/wolfSSL_wolfSSL_wolfSSL/wolfssl/wolfcrypt/src/hash.c **** 
1690:Middlewares/Third_Party/wolfSSL_wolfSSL_wolfSSL/wolfssl/wolfcrypt/src/hash.c ****     return ret;
1691:Middlewares/Third_Party/wolfSSL_wolfSSL_wolfSSL/wolfssl/wolfcrypt/src/hash.c **** }
 1920              		.loc 1 1691 1 view .LVU482
 1921 006a 26B0     		add	sp, sp, #152
 1922              	.LCFI24:
ARM GAS  /tmp/ccIUkCMh.s 			page 74


 1923              		.cfi_def_cfa_offset 32
 1924              		@ sp needed
 1925 006c BDE8F087 		pop	{r4, r5, r6, r7, r8, r9, r10, pc}
 1926              		.loc 1 1691 1 view .LVU483
 1927              		.cfi_endproc
 1928              	.LFE189:
 1930              		.text
 1931              	.Letext0:
 1932              		.file 3 "Middlewares/Third_Party/wolfSSL_wolfSSL_wolfSSL/wolfssl/wolfssl/wolfcrypt/types.h"
 1933              		.file 4 "Middlewares/Third_Party/wolfSSL_wolfSSL_wolfSSL/wolfssl/wolfssl/wolfcrypt/error-crypt.h"
 1934              		.file 5 "Middlewares/Third_Party/wolfSSL_wolfSSL_wolfSSL/wolfssl/wolfssl/wolfcrypt/sha256.h"
 1935              		.file 6 "Middlewares/Third_Party/wolfSSL_wolfSSL_wolfSSL/wolfssl/wolfssl/wolfcrypt/asn.h"
 1936              		.file 7 "Middlewares/Third_Party/wolfSSL_wolfSSL_wolfSSL/wolfssl/wolfssl/wolfcrypt/hash.h"
 1937              		.file 8 "Middlewares/Third_Party/wolfSSL_wolfSSL_wolfSSL/wolfssl/wolfssl/wolfcrypt/hmac.h"
 1938              		.file 9 "<built-in>"
 1939              		.file 10 "Middlewares/Third_Party/FreeRTOS/Source/include/portable.h"
ARM GAS  /tmp/ccIUkCMh.s 			page 75


DEFINED SYMBOLS
                            *ABS*:0000000000000000 hash.c
     /tmp/ccIUkCMh.s:18     .text.wc_HashTypeConvert:0000000000000000 $t
     /tmp/ccIUkCMh.s:26     .text.wc_HashTypeConvert:0000000000000000 wc_HashTypeConvert
     /tmp/ccIUkCMh.s:60     .text.wc_HashGetOID:0000000000000000 $t
     /tmp/ccIUkCMh.s:67     .text.wc_HashGetOID:0000000000000000 wc_HashGetOID
     /tmp/ccIUkCMh.s:84     .text.wc_HashGetOID:000000000000000a $d
     /tmp/ccIUkCMh.s:122    .text.wc_OidGetHash:0000000000000000 $t
     /tmp/ccIUkCMh.s:129    .text.wc_OidGetHash:0000000000000000 wc_OidGetHash
     /tmp/ccIUkCMh.s:158    .text.wc_HashGetDigestSize:0000000000000000 $t
     /tmp/ccIUkCMh.s:165    .text.wc_HashGetDigestSize:0000000000000000 wc_HashGetDigestSize
     /tmp/ccIUkCMh.s:219    .text.wc_HashGetBlockSize:0000000000000000 $t
     /tmp/ccIUkCMh.s:226    .text.wc_HashGetBlockSize:0000000000000000 wc_HashGetBlockSize
     /tmp/ccIUkCMh.s:280    .text.wc_HashInit_ex:0000000000000000 $t
     /tmp/ccIUkCMh.s:287    .text.wc_HashInit_ex:0000000000000000 wc_HashInit_ex
     /tmp/ccIUkCMh.s:312    .text.wc_HashInit_ex:0000000000000014 $d
     /tmp/ccIUkCMh.s:369    .text.wc_HashInit:0000000000000000 $t
     /tmp/ccIUkCMh.s:376    .text.wc_HashInit:0000000000000000 wc_HashInit
     /tmp/ccIUkCMh.s:401    .text.wc_HashUpdate:0000000000000000 $t
     /tmp/ccIUkCMh.s:408    .text.wc_HashUpdate:0000000000000000 wc_HashUpdate
     /tmp/ccIUkCMh.s:437    .text.wc_HashUpdate:0000000000000018 $d
     /tmp/ccIUkCMh.s:507    .text.wc_HashFinal:0000000000000000 $t
     /tmp/ccIUkCMh.s:514    .text.wc_HashFinal:0000000000000000 wc_HashFinal
     /tmp/ccIUkCMh.s:540    .text.wc_HashFinal:0000000000000010 $d
     /tmp/ccIUkCMh.s:601    .text.wc_HashFree:0000000000000000 $t
     /tmp/ccIUkCMh.s:608    .text.wc_HashFree:0000000000000000 wc_HashFree
     /tmp/ccIUkCMh.s:633    .text.wc_HashFree:000000000000000e $d
     /tmp/ccIUkCMh.s:689    .text.wc_Sha256Hash:0000000000000000 $t
     /tmp/ccIUkCMh.s:696    .text.wc_Sha256Hash:0000000000000000 wc_Sha256Hash
     /tmp/ccIUkCMh.s:797    .text.wc_Hash:0000000000000000 $t
     /tmp/ccIUkCMh.s:804    .text.wc_Hash:0000000000000000 wc_Hash
     /tmp/ccIUkCMh.s:905    .text.wc_PRF:0000000000000000 $t
     /tmp/ccIUkCMh.s:912    .text.wc_PRF:0000000000000000 wc_PRF
     /tmp/ccIUkCMh.s:1414   .text.wc_PRF_TLSv1:0000000000000000 $t
     /tmp/ccIUkCMh.s:1421   .text.wc_PRF_TLSv1:0000000000000000 wc_PRF_TLSv1
     /tmp/ccIUkCMh.s:1808   .text.wc_PRF_TLS:0000000000000000 $t
     /tmp/ccIUkCMh.s:1815   .text.wc_PRF_TLS:0000000000000000 wc_PRF_TLS
     /tmp/ccIUkCMh.s:97     .text.wc_HashGetOID:0000000000000017 $d
     /tmp/ccIUkCMh.s:97     .text.wc_HashGetOID:0000000000000018 $t
     /tmp/ccIUkCMh.s:323    .text.wc_HashInit_ex:000000000000001f $d
     /tmp/ccIUkCMh.s:323    .text.wc_HashInit_ex:0000000000000020 $t
     /tmp/ccIUkCMh.s:448    .text.wc_HashUpdate:0000000000000023 $d
     /tmp/ccIUkCMh.s:448    .text.wc_HashUpdate:0000000000000024 $t
     /tmp/ccIUkCMh.s:551    .text.wc_HashFinal:000000000000001b $d
     /tmp/ccIUkCMh.s:551    .text.wc_HashFinal:000000000000001c $t
     /tmp/ccIUkCMh.s:644    .text.wc_HashFree:0000000000000019 $d
     /tmp/ccIUkCMh.s:644    .text.wc_HashFree:000000000000001a $t

UNDEFINED SYMBOLS
wc_InitSha256_ex
wc_Sha256Update
wc_Sha256Final
wc_Sha256Free
pvPortMalloc
vPortFree
wc_HmacInit
wc_HmacSetKey
ARM GAS  /tmp/ccIUkCMh.s 			page 76


wc_HmacFree
wc_HmacUpdate
wc_HmacFinal
memcpy
memset
