ARM GAS  /tmp/ccxfTf9S.s 			page 1


   1              		.cpu cortex-m4
   2              		.eabi_attribute 27, 1
   3              		.eabi_attribute 28, 1
   4              		.eabi_attribute 20, 1
   5              		.eabi_attribute 21, 1
   6              		.eabi_attribute 23, 3
   7              		.eabi_attribute 24, 1
   8              		.eabi_attribute 25, 1
   9              		.eabi_attribute 26, 1
  10              		.eabi_attribute 30, 1
  11              		.eabi_attribute 34, 1
  12              		.eabi_attribute 18, 4
  13              		.file	"hmac.c"
  14              		.text
  15              	.Ltext0:
  16              		.cfi_sections	.debug_frame
  17              		.section	.text.HmacKeyInnerHash,"ax",%progbits
  18              		.align	1
  19              		.arch armv7e-m
  20              		.syntax unified
  21              		.thumb
  22              		.thumb_func
  23              		.fpu fpv4-sp-d16
  25              	HmacKeyInnerHash:
  26              	.LVL0:
  27              	.LFB178:
  28              		.file 1 "Middlewares/Third_Party/wolfSSL_wolfSSL_wolfSSL/wolfssl/wolfcrypt/src/hmac.c"
   1:Middlewares/Third_Party/wolfSSL_wolfSSL_wolfSSL/wolfssl/wolfcrypt/src/hmac.c **** /* hmac.c
   2:Middlewares/Third_Party/wolfSSL_wolfSSL_wolfSSL/wolfssl/wolfcrypt/src/hmac.c ****  *
   3:Middlewares/Third_Party/wolfSSL_wolfSSL_wolfSSL/wolfssl/wolfcrypt/src/hmac.c ****  * Copyright (C) 2006-2020 wolfSSL Inc.
   4:Middlewares/Third_Party/wolfSSL_wolfSSL_wolfSSL/wolfssl/wolfcrypt/src/hmac.c ****  *
   5:Middlewares/Third_Party/wolfSSL_wolfSSL_wolfSSL/wolfssl/wolfcrypt/src/hmac.c ****  * This file is part of wolfSSL.
   6:Middlewares/Third_Party/wolfSSL_wolfSSL_wolfSSL/wolfssl/wolfcrypt/src/hmac.c ****  *
   7:Middlewares/Third_Party/wolfSSL_wolfSSL_wolfSSL/wolfssl/wolfcrypt/src/hmac.c ****  * wolfSSL is free software; you can redistribute it and/or modify
   8:Middlewares/Third_Party/wolfSSL_wolfSSL_wolfSSL/wolfssl/wolfcrypt/src/hmac.c ****  * it under the terms of the GNU General Public License as published by
   9:Middlewares/Third_Party/wolfSSL_wolfSSL_wolfSSL/wolfssl/wolfcrypt/src/hmac.c ****  * the Free Software Foundation; either version 2 of the License, or
  10:Middlewares/Third_Party/wolfSSL_wolfSSL_wolfSSL/wolfssl/wolfcrypt/src/hmac.c ****  * (at your option) any later version.
  11:Middlewares/Third_Party/wolfSSL_wolfSSL_wolfSSL/wolfssl/wolfcrypt/src/hmac.c ****  *
  12:Middlewares/Third_Party/wolfSSL_wolfSSL_wolfSSL/wolfssl/wolfcrypt/src/hmac.c ****  * wolfSSL is distributed in the hope that it will be useful,
  13:Middlewares/Third_Party/wolfSSL_wolfSSL_wolfSSL/wolfssl/wolfcrypt/src/hmac.c ****  * but WITHOUT ANY WARRANTY; without even the implied warranty of
  14:Middlewares/Third_Party/wolfSSL_wolfSSL_wolfSSL/wolfssl/wolfcrypt/src/hmac.c ****  * MERCHANTABILITY or FITNESS FOR A PARTICULAR PURPOSE.  See the
  15:Middlewares/Third_Party/wolfSSL_wolfSSL_wolfSSL/wolfssl/wolfcrypt/src/hmac.c ****  * GNU General Public License for more details.
  16:Middlewares/Third_Party/wolfSSL_wolfSSL_wolfSSL/wolfssl/wolfcrypt/src/hmac.c ****  *
  17:Middlewares/Third_Party/wolfSSL_wolfSSL_wolfSSL/wolfssl/wolfcrypt/src/hmac.c ****  * You should have received a copy of the GNU General Public License
  18:Middlewares/Third_Party/wolfSSL_wolfSSL_wolfSSL/wolfssl/wolfcrypt/src/hmac.c ****  * along with this program; if not, write to the Free Software
  19:Middlewares/Third_Party/wolfSSL_wolfSSL_wolfSSL/wolfssl/wolfcrypt/src/hmac.c ****  * Foundation, Inc., 51 Franklin Street, Fifth Floor, Boston, MA 02110-1335, USA
  20:Middlewares/Third_Party/wolfSSL_wolfSSL_wolfSSL/wolfssl/wolfcrypt/src/hmac.c ****  */
  21:Middlewares/Third_Party/wolfSSL_wolfSSL_wolfSSL/wolfssl/wolfcrypt/src/hmac.c **** 
  22:Middlewares/Third_Party/wolfSSL_wolfSSL_wolfSSL/wolfssl/wolfcrypt/src/hmac.c **** 
  23:Middlewares/Third_Party/wolfSSL_wolfSSL_wolfSSL/wolfssl/wolfcrypt/src/hmac.c **** #ifdef HAVE_CONFIG_H
  24:Middlewares/Third_Party/wolfSSL_wolfSSL_wolfSSL/wolfssl/wolfcrypt/src/hmac.c ****     #include <config.h>
  25:Middlewares/Third_Party/wolfSSL_wolfSSL_wolfSSL/wolfssl/wolfcrypt/src/hmac.c **** #endif
  26:Middlewares/Third_Party/wolfSSL_wolfSSL_wolfSSL/wolfssl/wolfcrypt/src/hmac.c **** 
  27:Middlewares/Third_Party/wolfSSL_wolfSSL_wolfSSL/wolfssl/wolfcrypt/src/hmac.c **** #include <wolfssl/wolfcrypt/wc_port.h>
  28:Middlewares/Third_Party/wolfSSL_wolfSSL_wolfSSL/wolfssl/wolfcrypt/src/hmac.c **** #include <wolfssl/wolfcrypt/error-crypt.h>
  29:Middlewares/Third_Party/wolfSSL_wolfSSL_wolfSSL/wolfssl/wolfcrypt/src/hmac.c **** 
  30:Middlewares/Third_Party/wolfSSL_wolfSSL_wolfSSL/wolfssl/wolfcrypt/src/hmac.c **** #ifndef NO_HMAC
ARM GAS  /tmp/ccxfTf9S.s 			page 2


  31:Middlewares/Third_Party/wolfSSL_wolfSSL_wolfSSL/wolfssl/wolfcrypt/src/hmac.c **** 
  32:Middlewares/Third_Party/wolfSSL_wolfSSL_wolfSSL/wolfssl/wolfcrypt/src/hmac.c **** #if defined(HAVE_FIPS) && \
  33:Middlewares/Third_Party/wolfSSL_wolfSSL_wolfSSL/wolfssl/wolfcrypt/src/hmac.c ****     defined(HAVE_FIPS_VERSION) && (HAVE_FIPS_VERSION >= 2)
  34:Middlewares/Third_Party/wolfSSL_wolfSSL_wolfSSL/wolfssl/wolfcrypt/src/hmac.c **** 
  35:Middlewares/Third_Party/wolfSSL_wolfSSL_wolfSSL/wolfssl/wolfcrypt/src/hmac.c ****     /* set NO_WRAPPERS before headers, use direct internal f()s not wrappers */
  36:Middlewares/Third_Party/wolfSSL_wolfSSL_wolfSSL/wolfssl/wolfcrypt/src/hmac.c ****     #define FIPS_NO_WRAPPERS
  37:Middlewares/Third_Party/wolfSSL_wolfSSL_wolfSSL/wolfssl/wolfcrypt/src/hmac.c **** 
  38:Middlewares/Third_Party/wolfSSL_wolfSSL_wolfSSL/wolfssl/wolfcrypt/src/hmac.c ****     #ifdef USE_WINDOWS_API
  39:Middlewares/Third_Party/wolfSSL_wolfSSL_wolfSSL/wolfssl/wolfcrypt/src/hmac.c ****         #pragma code_seg(".fipsA$b")
  40:Middlewares/Third_Party/wolfSSL_wolfSSL_wolfSSL/wolfssl/wolfcrypt/src/hmac.c ****         #pragma const_seg(".fipsB$b")
  41:Middlewares/Third_Party/wolfSSL_wolfSSL_wolfSSL/wolfssl/wolfcrypt/src/hmac.c ****     #endif
  42:Middlewares/Third_Party/wolfSSL_wolfSSL_wolfSSL/wolfssl/wolfcrypt/src/hmac.c **** #endif
  43:Middlewares/Third_Party/wolfSSL_wolfSSL_wolfSSL/wolfssl/wolfcrypt/src/hmac.c **** 
  44:Middlewares/Third_Party/wolfSSL_wolfSSL_wolfSSL/wolfssl/wolfcrypt/src/hmac.c **** #include <wolfssl/wolfcrypt/hmac.h>
  45:Middlewares/Third_Party/wolfSSL_wolfSSL_wolfSSL/wolfssl/wolfcrypt/src/hmac.c **** 
  46:Middlewares/Third_Party/wolfSSL_wolfSSL_wolfSSL/wolfssl/wolfcrypt/src/hmac.c **** #ifdef WOLF_CRYPTO_CB
  47:Middlewares/Third_Party/wolfSSL_wolfSSL_wolfSSL/wolfssl/wolfcrypt/src/hmac.c ****     #include <wolfssl/wolfcrypt/cryptocb.h>
  48:Middlewares/Third_Party/wolfSSL_wolfSSL_wolfSSL/wolfssl/wolfcrypt/src/hmac.c **** #endif
  49:Middlewares/Third_Party/wolfSSL_wolfSSL_wolfSSL/wolfssl/wolfcrypt/src/hmac.c **** 
  50:Middlewares/Third_Party/wolfSSL_wolfSSL_wolfSSL/wolfssl/wolfcrypt/src/hmac.c **** #ifdef NO_INLINE
  51:Middlewares/Third_Party/wolfSSL_wolfSSL_wolfSSL/wolfssl/wolfcrypt/src/hmac.c ****     #include <wolfssl/wolfcrypt/misc.h>
  52:Middlewares/Third_Party/wolfSSL_wolfSSL_wolfSSL/wolfssl/wolfcrypt/src/hmac.c **** #else
  53:Middlewares/Third_Party/wolfSSL_wolfSSL_wolfSSL/wolfssl/wolfcrypt/src/hmac.c ****     #define WOLFSSL_MISC_INCLUDED
  54:Middlewares/Third_Party/wolfSSL_wolfSSL_wolfSSL/wolfssl/wolfcrypt/src/hmac.c ****     #include <wolfcrypt/src/misc.c>
  55:Middlewares/Third_Party/wolfSSL_wolfSSL_wolfSSL/wolfssl/wolfcrypt/src/hmac.c **** #endif
  56:Middlewares/Third_Party/wolfSSL_wolfSSL_wolfSSL/wolfssl/wolfcrypt/src/hmac.c **** 
  57:Middlewares/Third_Party/wolfSSL_wolfSSL_wolfSSL/wolfssl/wolfcrypt/src/hmac.c **** 
  58:Middlewares/Third_Party/wolfSSL_wolfSSL_wolfSSL/wolfssl/wolfcrypt/src/hmac.c **** /* fips wrapper calls, user can call direct */
  59:Middlewares/Third_Party/wolfSSL_wolfSSL_wolfSSL/wolfssl/wolfcrypt/src/hmac.c **** /* If building for old FIPS. */
  60:Middlewares/Third_Party/wolfSSL_wolfSSL_wolfSSL/wolfssl/wolfcrypt/src/hmac.c **** #if defined(HAVE_FIPS) && \
  61:Middlewares/Third_Party/wolfSSL_wolfSSL_wolfSSL/wolfssl/wolfcrypt/src/hmac.c ****     (!defined(HAVE_FIPS_VERSION) || (HAVE_FIPS_VERSION < 2))
  62:Middlewares/Third_Party/wolfSSL_wolfSSL_wolfSSL/wolfssl/wolfcrypt/src/hmac.c **** 
  63:Middlewares/Third_Party/wolfSSL_wolfSSL_wolfSSL/wolfssl/wolfcrypt/src/hmac.c ****     /* does init */
  64:Middlewares/Third_Party/wolfSSL_wolfSSL_wolfSSL/wolfssl/wolfcrypt/src/hmac.c ****     int wc_HmacSetKey(Hmac* hmac, int type, const byte* key, word32 keySz)
  65:Middlewares/Third_Party/wolfSSL_wolfSSL_wolfSSL/wolfssl/wolfcrypt/src/hmac.c ****     {
  66:Middlewares/Third_Party/wolfSSL_wolfSSL_wolfSSL/wolfssl/wolfcrypt/src/hmac.c ****         if (hmac == NULL || (key == NULL && keySz != 0) ||
  67:Middlewares/Third_Party/wolfSSL_wolfSSL_wolfSSL/wolfssl/wolfcrypt/src/hmac.c ****            !(type == WC_MD5 || type == WC_SHA || type == WC_SHA256 ||
  68:Middlewares/Third_Party/wolfSSL_wolfSSL_wolfSSL/wolfssl/wolfcrypt/src/hmac.c ****                 type == WC_SHA384 || type == WC_SHA512)) {
  69:Middlewares/Third_Party/wolfSSL_wolfSSL_wolfSSL/wolfssl/wolfcrypt/src/hmac.c ****             return BAD_FUNC_ARG;
  70:Middlewares/Third_Party/wolfSSL_wolfSSL_wolfSSL/wolfssl/wolfcrypt/src/hmac.c ****         }
  71:Middlewares/Third_Party/wolfSSL_wolfSSL_wolfSSL/wolfssl/wolfcrypt/src/hmac.c **** 
  72:Middlewares/Third_Party/wolfSSL_wolfSSL_wolfSSL/wolfssl/wolfcrypt/src/hmac.c ****         return HmacSetKey_fips(hmac, type, key, keySz);
  73:Middlewares/Third_Party/wolfSSL_wolfSSL_wolfSSL/wolfssl/wolfcrypt/src/hmac.c ****     }
  74:Middlewares/Third_Party/wolfSSL_wolfSSL_wolfSSL/wolfssl/wolfcrypt/src/hmac.c ****     int wc_HmacUpdate(Hmac* hmac, const byte* in, word32 sz)
  75:Middlewares/Third_Party/wolfSSL_wolfSSL_wolfSSL/wolfssl/wolfcrypt/src/hmac.c ****     {
  76:Middlewares/Third_Party/wolfSSL_wolfSSL_wolfSSL/wolfssl/wolfcrypt/src/hmac.c ****         if (hmac == NULL || (in == NULL && sz > 0)) {
  77:Middlewares/Third_Party/wolfSSL_wolfSSL_wolfSSL/wolfssl/wolfcrypt/src/hmac.c ****             return BAD_FUNC_ARG;
  78:Middlewares/Third_Party/wolfSSL_wolfSSL_wolfSSL/wolfssl/wolfcrypt/src/hmac.c ****         }
  79:Middlewares/Third_Party/wolfSSL_wolfSSL_wolfSSL/wolfssl/wolfcrypt/src/hmac.c **** 
  80:Middlewares/Third_Party/wolfSSL_wolfSSL_wolfSSL/wolfssl/wolfcrypt/src/hmac.c ****         return HmacUpdate_fips(hmac, in, sz);
  81:Middlewares/Third_Party/wolfSSL_wolfSSL_wolfSSL/wolfssl/wolfcrypt/src/hmac.c ****     }
  82:Middlewares/Third_Party/wolfSSL_wolfSSL_wolfSSL/wolfssl/wolfcrypt/src/hmac.c ****     int wc_HmacFinal(Hmac* hmac, byte* out)
  83:Middlewares/Third_Party/wolfSSL_wolfSSL_wolfSSL/wolfssl/wolfcrypt/src/hmac.c ****     {
  84:Middlewares/Third_Party/wolfSSL_wolfSSL_wolfSSL/wolfssl/wolfcrypt/src/hmac.c ****         if (hmac == NULL) {
  85:Middlewares/Third_Party/wolfSSL_wolfSSL_wolfSSL/wolfssl/wolfcrypt/src/hmac.c ****             return BAD_FUNC_ARG;
  86:Middlewares/Third_Party/wolfSSL_wolfSSL_wolfSSL/wolfssl/wolfcrypt/src/hmac.c ****         }
  87:Middlewares/Third_Party/wolfSSL_wolfSSL_wolfSSL/wolfssl/wolfcrypt/src/hmac.c **** 
ARM GAS  /tmp/ccxfTf9S.s 			page 3


  88:Middlewares/Third_Party/wolfSSL_wolfSSL_wolfSSL/wolfssl/wolfcrypt/src/hmac.c ****         return HmacFinal_fips(hmac, out);
  89:Middlewares/Third_Party/wolfSSL_wolfSSL_wolfSSL/wolfssl/wolfcrypt/src/hmac.c ****     }
  90:Middlewares/Third_Party/wolfSSL_wolfSSL_wolfSSL/wolfssl/wolfcrypt/src/hmac.c ****     int wolfSSL_GetHmacMaxSize(void)
  91:Middlewares/Third_Party/wolfSSL_wolfSSL_wolfSSL/wolfssl/wolfcrypt/src/hmac.c ****     {
  92:Middlewares/Third_Party/wolfSSL_wolfSSL_wolfSSL/wolfssl/wolfcrypt/src/hmac.c ****         return CyaSSL_GetHmacMaxSize();
  93:Middlewares/Third_Party/wolfSSL_wolfSSL_wolfSSL/wolfssl/wolfcrypt/src/hmac.c ****     }
  94:Middlewares/Third_Party/wolfSSL_wolfSSL_wolfSSL/wolfssl/wolfcrypt/src/hmac.c **** 
  95:Middlewares/Third_Party/wolfSSL_wolfSSL_wolfSSL/wolfssl/wolfcrypt/src/hmac.c ****     int wc_HmacInit(Hmac* hmac, void* heap, int devId)
  96:Middlewares/Third_Party/wolfSSL_wolfSSL_wolfSSL/wolfssl/wolfcrypt/src/hmac.c ****     {
  97:Middlewares/Third_Party/wolfSSL_wolfSSL_wolfSSL/wolfssl/wolfcrypt/src/hmac.c ****         (void)hmac;
  98:Middlewares/Third_Party/wolfSSL_wolfSSL_wolfSSL/wolfssl/wolfcrypt/src/hmac.c ****         (void)heap;
  99:Middlewares/Third_Party/wolfSSL_wolfSSL_wolfSSL/wolfssl/wolfcrypt/src/hmac.c ****         (void)devId;
 100:Middlewares/Third_Party/wolfSSL_wolfSSL_wolfSSL/wolfssl/wolfcrypt/src/hmac.c ****         /* FIPS doesn't support:
 101:Middlewares/Third_Party/wolfSSL_wolfSSL_wolfSSL/wolfssl/wolfcrypt/src/hmac.c ****             return HmacInit(hmac, heap, devId); */
 102:Middlewares/Third_Party/wolfSSL_wolfSSL_wolfSSL/wolfssl/wolfcrypt/src/hmac.c ****         return 0;
 103:Middlewares/Third_Party/wolfSSL_wolfSSL_wolfSSL/wolfssl/wolfcrypt/src/hmac.c ****     }
 104:Middlewares/Third_Party/wolfSSL_wolfSSL_wolfSSL/wolfssl/wolfcrypt/src/hmac.c ****     void wc_HmacFree(Hmac* hmac)
 105:Middlewares/Third_Party/wolfSSL_wolfSSL_wolfSSL/wolfssl/wolfcrypt/src/hmac.c ****     {
 106:Middlewares/Third_Party/wolfSSL_wolfSSL_wolfSSL/wolfssl/wolfcrypt/src/hmac.c ****         (void)hmac;
 107:Middlewares/Third_Party/wolfSSL_wolfSSL_wolfSSL/wolfssl/wolfcrypt/src/hmac.c ****         /* FIPS doesn't support:
 108:Middlewares/Third_Party/wolfSSL_wolfSSL_wolfSSL/wolfssl/wolfcrypt/src/hmac.c ****             HmacFree(hmac); */
 109:Middlewares/Third_Party/wolfSSL_wolfSSL_wolfSSL/wolfssl/wolfcrypt/src/hmac.c ****     }
 110:Middlewares/Third_Party/wolfSSL_wolfSSL_wolfSSL/wolfssl/wolfcrypt/src/hmac.c **** 
 111:Middlewares/Third_Party/wolfSSL_wolfSSL_wolfSSL/wolfssl/wolfcrypt/src/hmac.c ****     #ifdef HAVE_HKDF
 112:Middlewares/Third_Party/wolfSSL_wolfSSL_wolfSSL/wolfssl/wolfcrypt/src/hmac.c ****         int wc_HKDF(int type, const byte* inKey, word32 inKeySz,
 113:Middlewares/Third_Party/wolfSSL_wolfSSL_wolfSSL/wolfssl/wolfcrypt/src/hmac.c ****                     const byte* salt, word32 saltSz,
 114:Middlewares/Third_Party/wolfSSL_wolfSSL_wolfSSL/wolfssl/wolfcrypt/src/hmac.c ****                     const byte* info, word32 infoSz,
 115:Middlewares/Third_Party/wolfSSL_wolfSSL_wolfSSL/wolfssl/wolfcrypt/src/hmac.c ****                     byte* out, word32 outSz)
 116:Middlewares/Third_Party/wolfSSL_wolfSSL_wolfSSL/wolfssl/wolfcrypt/src/hmac.c ****         {
 117:Middlewares/Third_Party/wolfSSL_wolfSSL_wolfSSL/wolfssl/wolfcrypt/src/hmac.c ****             return HKDF(type, inKey, inKeySz, salt, saltSz,
 118:Middlewares/Third_Party/wolfSSL_wolfSSL_wolfSSL/wolfssl/wolfcrypt/src/hmac.c ****                 info, infoSz, out, outSz);
 119:Middlewares/Third_Party/wolfSSL_wolfSSL_wolfSSL/wolfssl/wolfcrypt/src/hmac.c ****         }
 120:Middlewares/Third_Party/wolfSSL_wolfSSL_wolfSSL/wolfssl/wolfcrypt/src/hmac.c ****     #endif /* HAVE_HKDF */
 121:Middlewares/Third_Party/wolfSSL_wolfSSL_wolfSSL/wolfssl/wolfcrypt/src/hmac.c **** 
 122:Middlewares/Third_Party/wolfSSL_wolfSSL_wolfSSL/wolfssl/wolfcrypt/src/hmac.c **** #else /* else build without fips, or for new fips */
 123:Middlewares/Third_Party/wolfSSL_wolfSSL_wolfSSL/wolfssl/wolfcrypt/src/hmac.c **** 
 124:Middlewares/Third_Party/wolfSSL_wolfSSL_wolfSSL/wolfssl/wolfcrypt/src/hmac.c **** 
 125:Middlewares/Third_Party/wolfSSL_wolfSSL_wolfSSL/wolfssl/wolfcrypt/src/hmac.c **** int wc_HmacSizeByType(int type)
 126:Middlewares/Third_Party/wolfSSL_wolfSSL_wolfSSL/wolfssl/wolfcrypt/src/hmac.c **** {
 127:Middlewares/Third_Party/wolfSSL_wolfSSL_wolfSSL/wolfssl/wolfcrypt/src/hmac.c ****     int ret;
 128:Middlewares/Third_Party/wolfSSL_wolfSSL_wolfSSL/wolfssl/wolfcrypt/src/hmac.c **** 
 129:Middlewares/Third_Party/wolfSSL_wolfSSL_wolfSSL/wolfssl/wolfcrypt/src/hmac.c ****     if (!(type == WC_MD5 || type == WC_SHA ||
 130:Middlewares/Third_Party/wolfSSL_wolfSSL_wolfSSL/wolfssl/wolfcrypt/src/hmac.c ****             type == WC_SHA224 || type == WC_SHA256 ||
 131:Middlewares/Third_Party/wolfSSL_wolfSSL_wolfSSL/wolfssl/wolfcrypt/src/hmac.c ****             type == WC_SHA384 || type == WC_SHA512 ||
 132:Middlewares/Third_Party/wolfSSL_wolfSSL_wolfSSL/wolfssl/wolfcrypt/src/hmac.c ****             type == WC_SHA3_224 || type == WC_SHA3_256 ||
 133:Middlewares/Third_Party/wolfSSL_wolfSSL_wolfSSL/wolfssl/wolfcrypt/src/hmac.c ****             type == WC_SHA3_384 || type == WC_SHA3_512)) {
 134:Middlewares/Third_Party/wolfSSL_wolfSSL_wolfSSL/wolfssl/wolfcrypt/src/hmac.c ****         return BAD_FUNC_ARG;
 135:Middlewares/Third_Party/wolfSSL_wolfSSL_wolfSSL/wolfssl/wolfcrypt/src/hmac.c ****     }
 136:Middlewares/Third_Party/wolfSSL_wolfSSL_wolfSSL/wolfssl/wolfcrypt/src/hmac.c **** 
 137:Middlewares/Third_Party/wolfSSL_wolfSSL_wolfSSL/wolfssl/wolfcrypt/src/hmac.c ****     switch (type) {
 138:Middlewares/Third_Party/wolfSSL_wolfSSL_wolfSSL/wolfssl/wolfcrypt/src/hmac.c ****     #ifndef NO_MD5
 139:Middlewares/Third_Party/wolfSSL_wolfSSL_wolfSSL/wolfssl/wolfcrypt/src/hmac.c ****         case WC_MD5:
 140:Middlewares/Third_Party/wolfSSL_wolfSSL_wolfSSL/wolfssl/wolfcrypt/src/hmac.c ****             ret = WC_MD5_DIGEST_SIZE;
 141:Middlewares/Third_Party/wolfSSL_wolfSSL_wolfSSL/wolfssl/wolfcrypt/src/hmac.c ****             break;
 142:Middlewares/Third_Party/wolfSSL_wolfSSL_wolfSSL/wolfssl/wolfcrypt/src/hmac.c ****     #endif /* !NO_MD5 */
 143:Middlewares/Third_Party/wolfSSL_wolfSSL_wolfSSL/wolfssl/wolfcrypt/src/hmac.c **** 
 144:Middlewares/Third_Party/wolfSSL_wolfSSL_wolfSSL/wolfssl/wolfcrypt/src/hmac.c ****     #ifndef NO_SHA
ARM GAS  /tmp/ccxfTf9S.s 			page 4


 145:Middlewares/Third_Party/wolfSSL_wolfSSL_wolfSSL/wolfssl/wolfcrypt/src/hmac.c ****         case WC_SHA:
 146:Middlewares/Third_Party/wolfSSL_wolfSSL_wolfSSL/wolfssl/wolfcrypt/src/hmac.c ****             ret = WC_SHA_DIGEST_SIZE;
 147:Middlewares/Third_Party/wolfSSL_wolfSSL_wolfSSL/wolfssl/wolfcrypt/src/hmac.c ****             break;
 148:Middlewares/Third_Party/wolfSSL_wolfSSL_wolfSSL/wolfssl/wolfcrypt/src/hmac.c ****     #endif /* !NO_SHA */
 149:Middlewares/Third_Party/wolfSSL_wolfSSL_wolfSSL/wolfssl/wolfcrypt/src/hmac.c **** 
 150:Middlewares/Third_Party/wolfSSL_wolfSSL_wolfSSL/wolfssl/wolfcrypt/src/hmac.c ****     #ifdef WOLFSSL_SHA224
 151:Middlewares/Third_Party/wolfSSL_wolfSSL_wolfSSL/wolfssl/wolfcrypt/src/hmac.c ****         case WC_SHA224:
 152:Middlewares/Third_Party/wolfSSL_wolfSSL_wolfSSL/wolfssl/wolfcrypt/src/hmac.c ****             ret = WC_SHA224_DIGEST_SIZE;
 153:Middlewares/Third_Party/wolfSSL_wolfSSL_wolfSSL/wolfssl/wolfcrypt/src/hmac.c ****             break;
 154:Middlewares/Third_Party/wolfSSL_wolfSSL_wolfSSL/wolfssl/wolfcrypt/src/hmac.c ****     #endif /* WOLFSSL_SHA224 */
 155:Middlewares/Third_Party/wolfSSL_wolfSSL_wolfSSL/wolfssl/wolfcrypt/src/hmac.c **** 
 156:Middlewares/Third_Party/wolfSSL_wolfSSL_wolfSSL/wolfssl/wolfcrypt/src/hmac.c ****     #ifndef NO_SHA256
 157:Middlewares/Third_Party/wolfSSL_wolfSSL_wolfSSL/wolfssl/wolfcrypt/src/hmac.c ****         case WC_SHA256:
 158:Middlewares/Third_Party/wolfSSL_wolfSSL_wolfSSL/wolfssl/wolfcrypt/src/hmac.c ****             ret = WC_SHA256_DIGEST_SIZE;
 159:Middlewares/Third_Party/wolfSSL_wolfSSL_wolfSSL/wolfssl/wolfcrypt/src/hmac.c ****             break;
 160:Middlewares/Third_Party/wolfSSL_wolfSSL_wolfSSL/wolfssl/wolfcrypt/src/hmac.c ****     #endif /* !NO_SHA256 */
 161:Middlewares/Third_Party/wolfSSL_wolfSSL_wolfSSL/wolfssl/wolfcrypt/src/hmac.c **** 
 162:Middlewares/Third_Party/wolfSSL_wolfSSL_wolfSSL/wolfssl/wolfcrypt/src/hmac.c ****     #ifdef WOLFSSL_SHA384
 163:Middlewares/Third_Party/wolfSSL_wolfSSL_wolfSSL/wolfssl/wolfcrypt/src/hmac.c ****         case WC_SHA384:
 164:Middlewares/Third_Party/wolfSSL_wolfSSL_wolfSSL/wolfssl/wolfcrypt/src/hmac.c ****             ret = WC_SHA384_DIGEST_SIZE;
 165:Middlewares/Third_Party/wolfSSL_wolfSSL_wolfSSL/wolfssl/wolfcrypt/src/hmac.c ****             break;
 166:Middlewares/Third_Party/wolfSSL_wolfSSL_wolfSSL/wolfssl/wolfcrypt/src/hmac.c ****     #endif /* WOLFSSL_SHA384 */
 167:Middlewares/Third_Party/wolfSSL_wolfSSL_wolfSSL/wolfssl/wolfcrypt/src/hmac.c ****     #ifdef WOLFSSL_SHA512
 168:Middlewares/Third_Party/wolfSSL_wolfSSL_wolfSSL/wolfssl/wolfcrypt/src/hmac.c ****         case WC_SHA512:
 169:Middlewares/Third_Party/wolfSSL_wolfSSL_wolfSSL/wolfssl/wolfcrypt/src/hmac.c ****             ret = WC_SHA512_DIGEST_SIZE;
 170:Middlewares/Third_Party/wolfSSL_wolfSSL_wolfSSL/wolfssl/wolfcrypt/src/hmac.c ****             break;
 171:Middlewares/Third_Party/wolfSSL_wolfSSL_wolfSSL/wolfssl/wolfcrypt/src/hmac.c ****     #endif /* WOLFSSL_SHA512 */
 172:Middlewares/Third_Party/wolfSSL_wolfSSL_wolfSSL/wolfssl/wolfcrypt/src/hmac.c **** 
 173:Middlewares/Third_Party/wolfSSL_wolfSSL_wolfSSL/wolfssl/wolfcrypt/src/hmac.c ****     #ifdef WOLFSSL_SHA3
 174:Middlewares/Third_Party/wolfSSL_wolfSSL_wolfSSL/wolfssl/wolfcrypt/src/hmac.c ****         case WC_SHA3_224:
 175:Middlewares/Third_Party/wolfSSL_wolfSSL_wolfSSL/wolfssl/wolfcrypt/src/hmac.c ****             ret = WC_SHA3_224_DIGEST_SIZE;
 176:Middlewares/Third_Party/wolfSSL_wolfSSL_wolfSSL/wolfssl/wolfcrypt/src/hmac.c ****             break;
 177:Middlewares/Third_Party/wolfSSL_wolfSSL_wolfSSL/wolfssl/wolfcrypt/src/hmac.c **** 
 178:Middlewares/Third_Party/wolfSSL_wolfSSL_wolfSSL/wolfssl/wolfcrypt/src/hmac.c ****         case WC_SHA3_256:
 179:Middlewares/Third_Party/wolfSSL_wolfSSL_wolfSSL/wolfssl/wolfcrypt/src/hmac.c ****             ret = WC_SHA3_256_DIGEST_SIZE;
 180:Middlewares/Third_Party/wolfSSL_wolfSSL_wolfSSL/wolfssl/wolfcrypt/src/hmac.c ****             break;
 181:Middlewares/Third_Party/wolfSSL_wolfSSL_wolfSSL/wolfssl/wolfcrypt/src/hmac.c **** 
 182:Middlewares/Third_Party/wolfSSL_wolfSSL_wolfSSL/wolfssl/wolfcrypt/src/hmac.c ****         case WC_SHA3_384:
 183:Middlewares/Third_Party/wolfSSL_wolfSSL_wolfSSL/wolfssl/wolfcrypt/src/hmac.c ****             ret = WC_SHA3_384_DIGEST_SIZE;
 184:Middlewares/Third_Party/wolfSSL_wolfSSL_wolfSSL/wolfssl/wolfcrypt/src/hmac.c ****             break;
 185:Middlewares/Third_Party/wolfSSL_wolfSSL_wolfSSL/wolfssl/wolfcrypt/src/hmac.c **** 
 186:Middlewares/Third_Party/wolfSSL_wolfSSL_wolfSSL/wolfssl/wolfcrypt/src/hmac.c ****         case WC_SHA3_512:
 187:Middlewares/Third_Party/wolfSSL_wolfSSL_wolfSSL/wolfssl/wolfcrypt/src/hmac.c ****             ret = WC_SHA3_512_DIGEST_SIZE;
 188:Middlewares/Third_Party/wolfSSL_wolfSSL_wolfSSL/wolfssl/wolfcrypt/src/hmac.c ****             break;
 189:Middlewares/Third_Party/wolfSSL_wolfSSL_wolfSSL/wolfssl/wolfcrypt/src/hmac.c **** 
 190:Middlewares/Third_Party/wolfSSL_wolfSSL_wolfSSL/wolfssl/wolfcrypt/src/hmac.c ****     #endif
 191:Middlewares/Third_Party/wolfSSL_wolfSSL_wolfSSL/wolfssl/wolfcrypt/src/hmac.c **** 
 192:Middlewares/Third_Party/wolfSSL_wolfSSL_wolfSSL/wolfssl/wolfcrypt/src/hmac.c ****         default:
 193:Middlewares/Third_Party/wolfSSL_wolfSSL_wolfSSL/wolfssl/wolfcrypt/src/hmac.c ****             ret = BAD_FUNC_ARG;
 194:Middlewares/Third_Party/wolfSSL_wolfSSL_wolfSSL/wolfssl/wolfcrypt/src/hmac.c ****             break;
 195:Middlewares/Third_Party/wolfSSL_wolfSSL_wolfSSL/wolfssl/wolfcrypt/src/hmac.c ****     }
 196:Middlewares/Third_Party/wolfSSL_wolfSSL_wolfSSL/wolfssl/wolfcrypt/src/hmac.c **** 
 197:Middlewares/Third_Party/wolfSSL_wolfSSL_wolfSSL/wolfssl/wolfcrypt/src/hmac.c ****     return ret;
 198:Middlewares/Third_Party/wolfSSL_wolfSSL_wolfSSL/wolfssl/wolfcrypt/src/hmac.c **** }
 199:Middlewares/Third_Party/wolfSSL_wolfSSL_wolfSSL/wolfssl/wolfcrypt/src/hmac.c **** 
 200:Middlewares/Third_Party/wolfSSL_wolfSSL_wolfSSL/wolfssl/wolfcrypt/src/hmac.c **** int _InitHmac(Hmac* hmac, int type, void* heap)
 201:Middlewares/Third_Party/wolfSSL_wolfSSL_wolfSSL/wolfssl/wolfcrypt/src/hmac.c **** {
ARM GAS  /tmp/ccxfTf9S.s 			page 5


 202:Middlewares/Third_Party/wolfSSL_wolfSSL_wolfSSL/wolfssl/wolfcrypt/src/hmac.c ****     int ret = 0;
 203:Middlewares/Third_Party/wolfSSL_wolfSSL_wolfSSL/wolfssl/wolfcrypt/src/hmac.c **** 
 204:Middlewares/Third_Party/wolfSSL_wolfSSL_wolfSSL/wolfssl/wolfcrypt/src/hmac.c ****     switch (type) {
 205:Middlewares/Third_Party/wolfSSL_wolfSSL_wolfSSL/wolfssl/wolfcrypt/src/hmac.c ****     #ifndef NO_MD5
 206:Middlewares/Third_Party/wolfSSL_wolfSSL_wolfSSL/wolfssl/wolfcrypt/src/hmac.c ****         case WC_MD5:
 207:Middlewares/Third_Party/wolfSSL_wolfSSL_wolfSSL/wolfssl/wolfcrypt/src/hmac.c ****             ret = wc_InitMd5(&hmac->hash.md5);
 208:Middlewares/Third_Party/wolfSSL_wolfSSL_wolfSSL/wolfssl/wolfcrypt/src/hmac.c ****             break;
 209:Middlewares/Third_Party/wolfSSL_wolfSSL_wolfSSL/wolfssl/wolfcrypt/src/hmac.c ****     #endif /* !NO_MD5 */
 210:Middlewares/Third_Party/wolfSSL_wolfSSL_wolfSSL/wolfssl/wolfcrypt/src/hmac.c **** 
 211:Middlewares/Third_Party/wolfSSL_wolfSSL_wolfSSL/wolfssl/wolfcrypt/src/hmac.c ****     #ifndef NO_SHA
 212:Middlewares/Third_Party/wolfSSL_wolfSSL_wolfSSL/wolfssl/wolfcrypt/src/hmac.c ****         case WC_SHA:
 213:Middlewares/Third_Party/wolfSSL_wolfSSL_wolfSSL/wolfssl/wolfcrypt/src/hmac.c ****             ret = wc_InitSha(&hmac->hash.sha);
 214:Middlewares/Third_Party/wolfSSL_wolfSSL_wolfSSL/wolfssl/wolfcrypt/src/hmac.c ****             break;
 215:Middlewares/Third_Party/wolfSSL_wolfSSL_wolfSSL/wolfssl/wolfcrypt/src/hmac.c ****     #endif /* !NO_SHA */
 216:Middlewares/Third_Party/wolfSSL_wolfSSL_wolfSSL/wolfssl/wolfcrypt/src/hmac.c **** 
 217:Middlewares/Third_Party/wolfSSL_wolfSSL_wolfSSL/wolfssl/wolfcrypt/src/hmac.c ****     #ifdef WOLFSSL_SHA224
 218:Middlewares/Third_Party/wolfSSL_wolfSSL_wolfSSL/wolfssl/wolfcrypt/src/hmac.c ****         case WC_SHA224:
 219:Middlewares/Third_Party/wolfSSL_wolfSSL_wolfSSL/wolfssl/wolfcrypt/src/hmac.c ****             ret = wc_InitSha224(&hmac->hash.sha224);
 220:Middlewares/Third_Party/wolfSSL_wolfSSL_wolfSSL/wolfssl/wolfcrypt/src/hmac.c ****             break;
 221:Middlewares/Third_Party/wolfSSL_wolfSSL_wolfSSL/wolfssl/wolfcrypt/src/hmac.c ****     #endif /* WOLFSSL_SHA224 */
 222:Middlewares/Third_Party/wolfSSL_wolfSSL_wolfSSL/wolfssl/wolfcrypt/src/hmac.c **** 
 223:Middlewares/Third_Party/wolfSSL_wolfSSL_wolfSSL/wolfssl/wolfcrypt/src/hmac.c ****     #ifndef NO_SHA256
 224:Middlewares/Third_Party/wolfSSL_wolfSSL_wolfSSL/wolfssl/wolfcrypt/src/hmac.c ****         case WC_SHA256:
 225:Middlewares/Third_Party/wolfSSL_wolfSSL_wolfSSL/wolfssl/wolfcrypt/src/hmac.c ****             ret = wc_InitSha256(&hmac->hash.sha256);
 226:Middlewares/Third_Party/wolfSSL_wolfSSL_wolfSSL/wolfssl/wolfcrypt/src/hmac.c ****             break;
 227:Middlewares/Third_Party/wolfSSL_wolfSSL_wolfSSL/wolfssl/wolfcrypt/src/hmac.c ****     #endif /* !NO_SHA256 */
 228:Middlewares/Third_Party/wolfSSL_wolfSSL_wolfSSL/wolfssl/wolfcrypt/src/hmac.c **** 
 229:Middlewares/Third_Party/wolfSSL_wolfSSL_wolfSSL/wolfssl/wolfcrypt/src/hmac.c ****     #ifdef WOLFSSL_SHA384
 230:Middlewares/Third_Party/wolfSSL_wolfSSL_wolfSSL/wolfssl/wolfcrypt/src/hmac.c ****         case WC_SHA384:
 231:Middlewares/Third_Party/wolfSSL_wolfSSL_wolfSSL/wolfssl/wolfcrypt/src/hmac.c ****             ret = wc_InitSha384(&hmac->hash.sha384);
 232:Middlewares/Third_Party/wolfSSL_wolfSSL_wolfSSL/wolfssl/wolfcrypt/src/hmac.c ****             break;
 233:Middlewares/Third_Party/wolfSSL_wolfSSL_wolfSSL/wolfssl/wolfcrypt/src/hmac.c ****     #endif /* WOLFSSL_SHA384 */
 234:Middlewares/Third_Party/wolfSSL_wolfSSL_wolfSSL/wolfssl/wolfcrypt/src/hmac.c ****     #ifdef WOLFSSL_SHA512
 235:Middlewares/Third_Party/wolfSSL_wolfSSL_wolfSSL/wolfssl/wolfcrypt/src/hmac.c ****         case WC_SHA512:
 236:Middlewares/Third_Party/wolfSSL_wolfSSL_wolfSSL/wolfssl/wolfcrypt/src/hmac.c ****             ret = wc_InitSha512(&hmac->hash.sha512);
 237:Middlewares/Third_Party/wolfSSL_wolfSSL_wolfSSL/wolfssl/wolfcrypt/src/hmac.c ****             break;
 238:Middlewares/Third_Party/wolfSSL_wolfSSL_wolfSSL/wolfssl/wolfcrypt/src/hmac.c ****     #endif /* WOLFSSL_SHA512 */
 239:Middlewares/Third_Party/wolfSSL_wolfSSL_wolfSSL/wolfssl/wolfcrypt/src/hmac.c **** 
 240:Middlewares/Third_Party/wolfSSL_wolfSSL_wolfSSL/wolfssl/wolfcrypt/src/hmac.c ****     #ifdef WOLFSSL_SHA3
 241:Middlewares/Third_Party/wolfSSL_wolfSSL_wolfSSL/wolfssl/wolfcrypt/src/hmac.c ****     #ifndef WOLFSSL_NOSHA3_224
 242:Middlewares/Third_Party/wolfSSL_wolfSSL_wolfSSL/wolfssl/wolfcrypt/src/hmac.c ****         case WC_SHA3_224:
 243:Middlewares/Third_Party/wolfSSL_wolfSSL_wolfSSL/wolfssl/wolfcrypt/src/hmac.c ****             ret = wc_InitSha3_224(&hmac->hash.sha3, heap, INVALID_DEVID);
 244:Middlewares/Third_Party/wolfSSL_wolfSSL_wolfSSL/wolfssl/wolfcrypt/src/hmac.c ****             break;
 245:Middlewares/Third_Party/wolfSSL_wolfSSL_wolfSSL/wolfssl/wolfcrypt/src/hmac.c ****     #endif
 246:Middlewares/Third_Party/wolfSSL_wolfSSL_wolfSSL/wolfssl/wolfcrypt/src/hmac.c ****     #ifndef WOLFSSL_NOSHA3_256
 247:Middlewares/Third_Party/wolfSSL_wolfSSL_wolfSSL/wolfssl/wolfcrypt/src/hmac.c ****         case WC_SHA3_256:
 248:Middlewares/Third_Party/wolfSSL_wolfSSL_wolfSSL/wolfssl/wolfcrypt/src/hmac.c ****             ret = wc_InitSha3_256(&hmac->hash.sha3, heap, INVALID_DEVID);
 249:Middlewares/Third_Party/wolfSSL_wolfSSL_wolfSSL/wolfssl/wolfcrypt/src/hmac.c ****             break;
 250:Middlewares/Third_Party/wolfSSL_wolfSSL_wolfSSL/wolfssl/wolfcrypt/src/hmac.c ****     #endif
 251:Middlewares/Third_Party/wolfSSL_wolfSSL_wolfSSL/wolfssl/wolfcrypt/src/hmac.c ****     #ifndef WOLFSSL_NOSHA3_384
 252:Middlewares/Third_Party/wolfSSL_wolfSSL_wolfSSL/wolfssl/wolfcrypt/src/hmac.c ****         case WC_SHA3_384:
 253:Middlewares/Third_Party/wolfSSL_wolfSSL_wolfSSL/wolfssl/wolfcrypt/src/hmac.c ****             ret = wc_InitSha3_384(&hmac->hash.sha3, heap, INVALID_DEVID);
 254:Middlewares/Third_Party/wolfSSL_wolfSSL_wolfSSL/wolfssl/wolfcrypt/src/hmac.c ****             break;
 255:Middlewares/Third_Party/wolfSSL_wolfSSL_wolfSSL/wolfssl/wolfcrypt/src/hmac.c ****     #endif
 256:Middlewares/Third_Party/wolfSSL_wolfSSL_wolfSSL/wolfssl/wolfcrypt/src/hmac.c ****     #ifndef WOLFSSL_NOSHA3_512
 257:Middlewares/Third_Party/wolfSSL_wolfSSL_wolfSSL/wolfssl/wolfcrypt/src/hmac.c ****         case WC_SHA3_512:
 258:Middlewares/Third_Party/wolfSSL_wolfSSL_wolfSSL/wolfssl/wolfcrypt/src/hmac.c ****             ret = wc_InitSha3_512(&hmac->hash.sha3, heap, INVALID_DEVID);
ARM GAS  /tmp/ccxfTf9S.s 			page 6


 259:Middlewares/Third_Party/wolfSSL_wolfSSL_wolfSSL/wolfssl/wolfcrypt/src/hmac.c ****             break;
 260:Middlewares/Third_Party/wolfSSL_wolfSSL_wolfSSL/wolfssl/wolfcrypt/src/hmac.c ****     #endif
 261:Middlewares/Third_Party/wolfSSL_wolfSSL_wolfSSL/wolfssl/wolfcrypt/src/hmac.c ****     #endif
 262:Middlewares/Third_Party/wolfSSL_wolfSSL_wolfSSL/wolfssl/wolfcrypt/src/hmac.c **** 
 263:Middlewares/Third_Party/wolfSSL_wolfSSL_wolfSSL/wolfssl/wolfcrypt/src/hmac.c ****         default:
 264:Middlewares/Third_Party/wolfSSL_wolfSSL_wolfSSL/wolfssl/wolfcrypt/src/hmac.c ****             ret = BAD_FUNC_ARG;
 265:Middlewares/Third_Party/wolfSSL_wolfSSL_wolfSSL/wolfssl/wolfcrypt/src/hmac.c ****             break;
 266:Middlewares/Third_Party/wolfSSL_wolfSSL_wolfSSL/wolfssl/wolfcrypt/src/hmac.c ****     }
 267:Middlewares/Third_Party/wolfSSL_wolfSSL_wolfSSL/wolfssl/wolfcrypt/src/hmac.c **** 
 268:Middlewares/Third_Party/wolfSSL_wolfSSL_wolfSSL/wolfssl/wolfcrypt/src/hmac.c ****     /* default to NULL heap hint or test value */
 269:Middlewares/Third_Party/wolfSSL_wolfSSL_wolfSSL/wolfssl/wolfcrypt/src/hmac.c **** #ifdef WOLFSSL_HEAP_TEST
 270:Middlewares/Third_Party/wolfSSL_wolfSSL_wolfSSL/wolfssl/wolfcrypt/src/hmac.c ****     hmac->heap = (void)WOLFSSL_HEAP_TEST;
 271:Middlewares/Third_Party/wolfSSL_wolfSSL_wolfSSL/wolfssl/wolfcrypt/src/hmac.c **** #else
 272:Middlewares/Third_Party/wolfSSL_wolfSSL_wolfSSL/wolfssl/wolfcrypt/src/hmac.c ****     hmac->heap = heap;
 273:Middlewares/Third_Party/wolfSSL_wolfSSL_wolfSSL/wolfssl/wolfcrypt/src/hmac.c **** #endif /* WOLFSSL_HEAP_TEST */
 274:Middlewares/Third_Party/wolfSSL_wolfSSL_wolfSSL/wolfssl/wolfcrypt/src/hmac.c **** 
 275:Middlewares/Third_Party/wolfSSL_wolfSSL_wolfSSL/wolfssl/wolfcrypt/src/hmac.c ****     return ret;
 276:Middlewares/Third_Party/wolfSSL_wolfSSL_wolfSSL/wolfssl/wolfcrypt/src/hmac.c **** }
 277:Middlewares/Third_Party/wolfSSL_wolfSSL_wolfSSL/wolfssl/wolfcrypt/src/hmac.c **** 
 278:Middlewares/Third_Party/wolfSSL_wolfSSL_wolfSSL/wolfssl/wolfcrypt/src/hmac.c **** 
 279:Middlewares/Third_Party/wolfSSL_wolfSSL_wolfSSL/wolfssl/wolfcrypt/src/hmac.c **** int wc_HmacSetKey(Hmac* hmac, int type, const byte* key, word32 length)
 280:Middlewares/Third_Party/wolfSSL_wolfSSL_wolfSSL/wolfssl/wolfcrypt/src/hmac.c **** {
 281:Middlewares/Third_Party/wolfSSL_wolfSSL_wolfSSL/wolfssl/wolfcrypt/src/hmac.c ****     byte*  ip;
 282:Middlewares/Third_Party/wolfSSL_wolfSSL_wolfSSL/wolfssl/wolfcrypt/src/hmac.c ****     byte*  op;
 283:Middlewares/Third_Party/wolfSSL_wolfSSL_wolfSSL/wolfssl/wolfcrypt/src/hmac.c ****     word32 i, hmac_block_size = 0;
 284:Middlewares/Third_Party/wolfSSL_wolfSSL_wolfSSL/wolfssl/wolfcrypt/src/hmac.c ****     int    ret = 0;
 285:Middlewares/Third_Party/wolfSSL_wolfSSL_wolfSSL/wolfssl/wolfcrypt/src/hmac.c ****     void*  heap = NULL;
 286:Middlewares/Third_Party/wolfSSL_wolfSSL_wolfSSL/wolfssl/wolfcrypt/src/hmac.c **** 
 287:Middlewares/Third_Party/wolfSSL_wolfSSL_wolfSSL/wolfssl/wolfcrypt/src/hmac.c ****     if (hmac == NULL || (key == NULL && length != 0) ||
 288:Middlewares/Third_Party/wolfSSL_wolfSSL_wolfSSL/wolfssl/wolfcrypt/src/hmac.c ****        !(type == WC_MD5 || type == WC_SHA ||
 289:Middlewares/Third_Party/wolfSSL_wolfSSL_wolfSSL/wolfssl/wolfcrypt/src/hmac.c ****             type == WC_SHA224 || type == WC_SHA256 ||
 290:Middlewares/Third_Party/wolfSSL_wolfSSL_wolfSSL/wolfssl/wolfcrypt/src/hmac.c ****             type == WC_SHA384 || type == WC_SHA512 ||
 291:Middlewares/Third_Party/wolfSSL_wolfSSL_wolfSSL/wolfssl/wolfcrypt/src/hmac.c ****             type == WC_SHA3_224 || type == WC_SHA3_256 ||
 292:Middlewares/Third_Party/wolfSSL_wolfSSL_wolfSSL/wolfssl/wolfcrypt/src/hmac.c ****             type == WC_SHA3_384 || type == WC_SHA3_512)) {
 293:Middlewares/Third_Party/wolfSSL_wolfSSL_wolfSSL/wolfssl/wolfcrypt/src/hmac.c ****         return BAD_FUNC_ARG;
 294:Middlewares/Third_Party/wolfSSL_wolfSSL_wolfSSL/wolfssl/wolfcrypt/src/hmac.c ****     }
 295:Middlewares/Third_Party/wolfSSL_wolfSSL_wolfSSL/wolfssl/wolfcrypt/src/hmac.c **** 
 296:Middlewares/Third_Party/wolfSSL_wolfSSL_wolfSSL/wolfssl/wolfcrypt/src/hmac.c **** #ifndef HAVE_FIPS
 297:Middlewares/Third_Party/wolfSSL_wolfSSL_wolfSSL/wolfssl/wolfcrypt/src/hmac.c ****     /* if set key has already been run then make sure and free existing */
 298:Middlewares/Third_Party/wolfSSL_wolfSSL_wolfSSL/wolfssl/wolfcrypt/src/hmac.c ****     /* This is for async and PIC32MZ situations, and just normally OK,
 299:Middlewares/Third_Party/wolfSSL_wolfSSL_wolfSSL/wolfssl/wolfcrypt/src/hmac.c ****        provided the user calls wc_HmacInit() first. That function is not
 300:Middlewares/Third_Party/wolfSSL_wolfSSL_wolfSSL/wolfssl/wolfcrypt/src/hmac.c ****        available in FIPS builds. In current FIPS builds, the hashes are
 301:Middlewares/Third_Party/wolfSSL_wolfSSL_wolfSSL/wolfssl/wolfcrypt/src/hmac.c ****        not allocating resources. */
 302:Middlewares/Third_Party/wolfSSL_wolfSSL_wolfSSL/wolfssl/wolfcrypt/src/hmac.c ****     if (hmac->macType != WC_HASH_TYPE_NONE) {
 303:Middlewares/Third_Party/wolfSSL_wolfSSL_wolfSSL/wolfssl/wolfcrypt/src/hmac.c ****         wc_HmacFree(hmac);
 304:Middlewares/Third_Party/wolfSSL_wolfSSL_wolfSSL/wolfssl/wolfcrypt/src/hmac.c ****     }
 305:Middlewares/Third_Party/wolfSSL_wolfSSL_wolfSSL/wolfssl/wolfcrypt/src/hmac.c **** #endif
 306:Middlewares/Third_Party/wolfSSL_wolfSSL_wolfSSL/wolfssl/wolfcrypt/src/hmac.c **** 
 307:Middlewares/Third_Party/wolfSSL_wolfSSL_wolfSSL/wolfssl/wolfcrypt/src/hmac.c ****     hmac->innerHashKeyed = 0;
 308:Middlewares/Third_Party/wolfSSL_wolfSSL_wolfSSL/wolfssl/wolfcrypt/src/hmac.c ****     hmac->macType = (byte)type;
 309:Middlewares/Third_Party/wolfSSL_wolfSSL_wolfSSL/wolfssl/wolfcrypt/src/hmac.c **** 
 310:Middlewares/Third_Party/wolfSSL_wolfSSL_wolfSSL/wolfssl/wolfcrypt/src/hmac.c ****     ret = _InitHmac(hmac, type, heap);
 311:Middlewares/Third_Party/wolfSSL_wolfSSL_wolfSSL/wolfssl/wolfcrypt/src/hmac.c ****     if (ret != 0)
 312:Middlewares/Third_Party/wolfSSL_wolfSSL_wolfSSL/wolfssl/wolfcrypt/src/hmac.c ****         return ret;
 313:Middlewares/Third_Party/wolfSSL_wolfSSL_wolfSSL/wolfssl/wolfcrypt/src/hmac.c **** 
 314:Middlewares/Third_Party/wolfSSL_wolfSSL_wolfSSL/wolfssl/wolfcrypt/src/hmac.c **** #ifdef HAVE_FIPS
 315:Middlewares/Third_Party/wolfSSL_wolfSSL_wolfSSL/wolfssl/wolfcrypt/src/hmac.c ****     if (length < HMAC_FIPS_MIN_KEY)
ARM GAS  /tmp/ccxfTf9S.s 			page 7


 316:Middlewares/Third_Party/wolfSSL_wolfSSL_wolfSSL/wolfssl/wolfcrypt/src/hmac.c ****         return HMAC_MIN_KEYLEN_E;
 317:Middlewares/Third_Party/wolfSSL_wolfSSL_wolfSSL/wolfssl/wolfcrypt/src/hmac.c **** #endif
 318:Middlewares/Third_Party/wolfSSL_wolfSSL_wolfSSL/wolfssl/wolfcrypt/src/hmac.c **** 
 319:Middlewares/Third_Party/wolfSSL_wolfSSL_wolfSSL/wolfssl/wolfcrypt/src/hmac.c **** #ifdef WOLF_CRYPTO_CB
 320:Middlewares/Third_Party/wolfSSL_wolfSSL_wolfSSL/wolfssl/wolfcrypt/src/hmac.c ****     hmac->keyRaw = key; /* use buffer directly */
 321:Middlewares/Third_Party/wolfSSL_wolfSSL_wolfSSL/wolfssl/wolfcrypt/src/hmac.c ****     hmac->keyLen = length;
 322:Middlewares/Third_Party/wolfSSL_wolfSSL_wolfSSL/wolfssl/wolfcrypt/src/hmac.c **** #endif
 323:Middlewares/Third_Party/wolfSSL_wolfSSL_wolfSSL/wolfssl/wolfcrypt/src/hmac.c **** 
 324:Middlewares/Third_Party/wolfSSL_wolfSSL_wolfSSL/wolfssl/wolfcrypt/src/hmac.c ****     ip = (byte*)hmac->ipad;
 325:Middlewares/Third_Party/wolfSSL_wolfSSL_wolfSSL/wolfssl/wolfcrypt/src/hmac.c ****     op = (byte*)hmac->opad;
 326:Middlewares/Third_Party/wolfSSL_wolfSSL_wolfSSL/wolfssl/wolfcrypt/src/hmac.c **** 
 327:Middlewares/Third_Party/wolfSSL_wolfSSL_wolfSSL/wolfssl/wolfcrypt/src/hmac.c ****     switch (hmac->macType) {
 328:Middlewares/Third_Party/wolfSSL_wolfSSL_wolfSSL/wolfssl/wolfcrypt/src/hmac.c ****     #ifndef NO_MD5
 329:Middlewares/Third_Party/wolfSSL_wolfSSL_wolfSSL/wolfssl/wolfcrypt/src/hmac.c ****         case WC_MD5:
 330:Middlewares/Third_Party/wolfSSL_wolfSSL_wolfSSL/wolfssl/wolfcrypt/src/hmac.c ****             hmac_block_size = WC_MD5_BLOCK_SIZE;
 331:Middlewares/Third_Party/wolfSSL_wolfSSL_wolfSSL/wolfssl/wolfcrypt/src/hmac.c ****             if (length <= WC_MD5_BLOCK_SIZE) {
 332:Middlewares/Third_Party/wolfSSL_wolfSSL_wolfSSL/wolfssl/wolfcrypt/src/hmac.c ****                 if (key != NULL) {
 333:Middlewares/Third_Party/wolfSSL_wolfSSL_wolfSSL/wolfssl/wolfcrypt/src/hmac.c ****                     XMEMCPY(ip, key, length);
 334:Middlewares/Third_Party/wolfSSL_wolfSSL_wolfSSL/wolfssl/wolfcrypt/src/hmac.c ****                 }
 335:Middlewares/Third_Party/wolfSSL_wolfSSL_wolfSSL/wolfssl/wolfcrypt/src/hmac.c ****             }
 336:Middlewares/Third_Party/wolfSSL_wolfSSL_wolfSSL/wolfssl/wolfcrypt/src/hmac.c ****             else {
 337:Middlewares/Third_Party/wolfSSL_wolfSSL_wolfSSL/wolfssl/wolfcrypt/src/hmac.c ****                 ret = wc_Md5Update(&hmac->hash.md5, key, length);
 338:Middlewares/Third_Party/wolfSSL_wolfSSL_wolfSSL/wolfssl/wolfcrypt/src/hmac.c ****                 if (ret != 0)
 339:Middlewares/Third_Party/wolfSSL_wolfSSL_wolfSSL/wolfssl/wolfcrypt/src/hmac.c ****                     break;
 340:Middlewares/Third_Party/wolfSSL_wolfSSL_wolfSSL/wolfssl/wolfcrypt/src/hmac.c ****                 ret = wc_Md5Final(&hmac->hash.md5, ip);
 341:Middlewares/Third_Party/wolfSSL_wolfSSL_wolfSSL/wolfssl/wolfcrypt/src/hmac.c ****                 if (ret != 0)
 342:Middlewares/Third_Party/wolfSSL_wolfSSL_wolfSSL/wolfssl/wolfcrypt/src/hmac.c ****                     break;
 343:Middlewares/Third_Party/wolfSSL_wolfSSL_wolfSSL/wolfssl/wolfcrypt/src/hmac.c ****                 length = WC_MD5_DIGEST_SIZE;
 344:Middlewares/Third_Party/wolfSSL_wolfSSL_wolfSSL/wolfssl/wolfcrypt/src/hmac.c ****             }
 345:Middlewares/Third_Party/wolfSSL_wolfSSL_wolfSSL/wolfssl/wolfcrypt/src/hmac.c ****             break;
 346:Middlewares/Third_Party/wolfSSL_wolfSSL_wolfSSL/wolfssl/wolfcrypt/src/hmac.c ****     #endif /* !NO_MD5 */
 347:Middlewares/Third_Party/wolfSSL_wolfSSL_wolfSSL/wolfssl/wolfcrypt/src/hmac.c **** 
 348:Middlewares/Third_Party/wolfSSL_wolfSSL_wolfSSL/wolfssl/wolfcrypt/src/hmac.c ****     #ifndef NO_SHA
 349:Middlewares/Third_Party/wolfSSL_wolfSSL_wolfSSL/wolfssl/wolfcrypt/src/hmac.c ****         case WC_SHA:
 350:Middlewares/Third_Party/wolfSSL_wolfSSL_wolfSSL/wolfssl/wolfcrypt/src/hmac.c ****             hmac_block_size = WC_SHA_BLOCK_SIZE;
 351:Middlewares/Third_Party/wolfSSL_wolfSSL_wolfSSL/wolfssl/wolfcrypt/src/hmac.c ****             if (length <= WC_SHA_BLOCK_SIZE) {
 352:Middlewares/Third_Party/wolfSSL_wolfSSL_wolfSSL/wolfssl/wolfcrypt/src/hmac.c ****                 if (key != NULL) {
 353:Middlewares/Third_Party/wolfSSL_wolfSSL_wolfSSL/wolfssl/wolfcrypt/src/hmac.c ****                     XMEMCPY(ip, key, length);
 354:Middlewares/Third_Party/wolfSSL_wolfSSL_wolfSSL/wolfssl/wolfcrypt/src/hmac.c ****                 }
 355:Middlewares/Third_Party/wolfSSL_wolfSSL_wolfSSL/wolfssl/wolfcrypt/src/hmac.c ****             }
 356:Middlewares/Third_Party/wolfSSL_wolfSSL_wolfSSL/wolfssl/wolfcrypt/src/hmac.c ****             else {
 357:Middlewares/Third_Party/wolfSSL_wolfSSL_wolfSSL/wolfssl/wolfcrypt/src/hmac.c ****                 ret = wc_ShaUpdate(&hmac->hash.sha, key, length);
 358:Middlewares/Third_Party/wolfSSL_wolfSSL_wolfSSL/wolfssl/wolfcrypt/src/hmac.c ****                 if (ret != 0)
 359:Middlewares/Third_Party/wolfSSL_wolfSSL_wolfSSL/wolfssl/wolfcrypt/src/hmac.c ****                     break;
 360:Middlewares/Third_Party/wolfSSL_wolfSSL_wolfSSL/wolfssl/wolfcrypt/src/hmac.c ****                 ret = wc_ShaFinal(&hmac->hash.sha, ip);
 361:Middlewares/Third_Party/wolfSSL_wolfSSL_wolfSSL/wolfssl/wolfcrypt/src/hmac.c ****                 if (ret != 0)
 362:Middlewares/Third_Party/wolfSSL_wolfSSL_wolfSSL/wolfssl/wolfcrypt/src/hmac.c ****                     break;
 363:Middlewares/Third_Party/wolfSSL_wolfSSL_wolfSSL/wolfssl/wolfcrypt/src/hmac.c **** 
 364:Middlewares/Third_Party/wolfSSL_wolfSSL_wolfSSL/wolfssl/wolfcrypt/src/hmac.c ****                 length = WC_SHA_DIGEST_SIZE;
 365:Middlewares/Third_Party/wolfSSL_wolfSSL_wolfSSL/wolfssl/wolfcrypt/src/hmac.c ****             }
 366:Middlewares/Third_Party/wolfSSL_wolfSSL_wolfSSL/wolfssl/wolfcrypt/src/hmac.c ****             break;
 367:Middlewares/Third_Party/wolfSSL_wolfSSL_wolfSSL/wolfssl/wolfcrypt/src/hmac.c ****     #endif /* !NO_SHA */
 368:Middlewares/Third_Party/wolfSSL_wolfSSL_wolfSSL/wolfssl/wolfcrypt/src/hmac.c **** 
 369:Middlewares/Third_Party/wolfSSL_wolfSSL_wolfSSL/wolfssl/wolfcrypt/src/hmac.c ****     #ifdef WOLFSSL_SHA224
 370:Middlewares/Third_Party/wolfSSL_wolfSSL_wolfSSL/wolfssl/wolfcrypt/src/hmac.c ****         case WC_SHA224:
 371:Middlewares/Third_Party/wolfSSL_wolfSSL_wolfSSL/wolfssl/wolfcrypt/src/hmac.c ****             hmac_block_size = WC_SHA224_BLOCK_SIZE;
 372:Middlewares/Third_Party/wolfSSL_wolfSSL_wolfSSL/wolfssl/wolfcrypt/src/hmac.c ****             if (length <= WC_SHA224_BLOCK_SIZE) {
ARM GAS  /tmp/ccxfTf9S.s 			page 8


 373:Middlewares/Third_Party/wolfSSL_wolfSSL_wolfSSL/wolfssl/wolfcrypt/src/hmac.c ****                 if (key != NULL) {
 374:Middlewares/Third_Party/wolfSSL_wolfSSL_wolfSSL/wolfssl/wolfcrypt/src/hmac.c ****                     XMEMCPY(ip, key, length);
 375:Middlewares/Third_Party/wolfSSL_wolfSSL_wolfSSL/wolfssl/wolfcrypt/src/hmac.c ****                 }
 376:Middlewares/Third_Party/wolfSSL_wolfSSL_wolfSSL/wolfssl/wolfcrypt/src/hmac.c ****             }
 377:Middlewares/Third_Party/wolfSSL_wolfSSL_wolfSSL/wolfssl/wolfcrypt/src/hmac.c ****             else {
 378:Middlewares/Third_Party/wolfSSL_wolfSSL_wolfSSL/wolfssl/wolfcrypt/src/hmac.c ****                 ret = wc_Sha224Update(&hmac->hash.sha224, key, length);
 379:Middlewares/Third_Party/wolfSSL_wolfSSL_wolfSSL/wolfssl/wolfcrypt/src/hmac.c ****                 if (ret != 0)
 380:Middlewares/Third_Party/wolfSSL_wolfSSL_wolfSSL/wolfssl/wolfcrypt/src/hmac.c ****                     break;
 381:Middlewares/Third_Party/wolfSSL_wolfSSL_wolfSSL/wolfssl/wolfcrypt/src/hmac.c ****                 ret = wc_Sha224Final(&hmac->hash.sha224, ip);
 382:Middlewares/Third_Party/wolfSSL_wolfSSL_wolfSSL/wolfssl/wolfcrypt/src/hmac.c ****                 if (ret != 0)
 383:Middlewares/Third_Party/wolfSSL_wolfSSL_wolfSSL/wolfssl/wolfcrypt/src/hmac.c ****                     break;
 384:Middlewares/Third_Party/wolfSSL_wolfSSL_wolfSSL/wolfssl/wolfcrypt/src/hmac.c **** 
 385:Middlewares/Third_Party/wolfSSL_wolfSSL_wolfSSL/wolfssl/wolfcrypt/src/hmac.c ****                 length = WC_SHA224_DIGEST_SIZE;
 386:Middlewares/Third_Party/wolfSSL_wolfSSL_wolfSSL/wolfssl/wolfcrypt/src/hmac.c ****             }
 387:Middlewares/Third_Party/wolfSSL_wolfSSL_wolfSSL/wolfssl/wolfcrypt/src/hmac.c ****             break;
 388:Middlewares/Third_Party/wolfSSL_wolfSSL_wolfSSL/wolfssl/wolfcrypt/src/hmac.c ****     #endif /* WOLFSSL_SHA224 */
 389:Middlewares/Third_Party/wolfSSL_wolfSSL_wolfSSL/wolfssl/wolfcrypt/src/hmac.c ****     #ifndef NO_SHA256
 390:Middlewares/Third_Party/wolfSSL_wolfSSL_wolfSSL/wolfssl/wolfcrypt/src/hmac.c ****         case WC_SHA256:
 391:Middlewares/Third_Party/wolfSSL_wolfSSL_wolfSSL/wolfssl/wolfcrypt/src/hmac.c ****             hmac_block_size = WC_SHA256_BLOCK_SIZE;
 392:Middlewares/Third_Party/wolfSSL_wolfSSL_wolfSSL/wolfssl/wolfcrypt/src/hmac.c ****             if (length <= WC_SHA256_BLOCK_SIZE) {
 393:Middlewares/Third_Party/wolfSSL_wolfSSL_wolfSSL/wolfssl/wolfcrypt/src/hmac.c ****                 if (key != NULL) {
 394:Middlewares/Third_Party/wolfSSL_wolfSSL_wolfSSL/wolfssl/wolfcrypt/src/hmac.c ****                     XMEMCPY(ip, key, length);
 395:Middlewares/Third_Party/wolfSSL_wolfSSL_wolfSSL/wolfssl/wolfcrypt/src/hmac.c ****                 }
 396:Middlewares/Third_Party/wolfSSL_wolfSSL_wolfSSL/wolfssl/wolfcrypt/src/hmac.c ****             }
 397:Middlewares/Third_Party/wolfSSL_wolfSSL_wolfSSL/wolfssl/wolfcrypt/src/hmac.c ****             else {
 398:Middlewares/Third_Party/wolfSSL_wolfSSL_wolfSSL/wolfssl/wolfcrypt/src/hmac.c ****                 ret = wc_Sha256Update(&hmac->hash.sha256, key, length);
 399:Middlewares/Third_Party/wolfSSL_wolfSSL_wolfSSL/wolfssl/wolfcrypt/src/hmac.c ****                 if (ret != 0)
 400:Middlewares/Third_Party/wolfSSL_wolfSSL_wolfSSL/wolfssl/wolfcrypt/src/hmac.c ****                     break;
 401:Middlewares/Third_Party/wolfSSL_wolfSSL_wolfSSL/wolfssl/wolfcrypt/src/hmac.c ****                 ret = wc_Sha256Final(&hmac->hash.sha256, ip);
 402:Middlewares/Third_Party/wolfSSL_wolfSSL_wolfSSL/wolfssl/wolfcrypt/src/hmac.c ****                 if (ret != 0)
 403:Middlewares/Third_Party/wolfSSL_wolfSSL_wolfSSL/wolfssl/wolfcrypt/src/hmac.c ****                     break;
 404:Middlewares/Third_Party/wolfSSL_wolfSSL_wolfSSL/wolfssl/wolfcrypt/src/hmac.c **** 
 405:Middlewares/Third_Party/wolfSSL_wolfSSL_wolfSSL/wolfssl/wolfcrypt/src/hmac.c ****                 length = WC_SHA256_DIGEST_SIZE;
 406:Middlewares/Third_Party/wolfSSL_wolfSSL_wolfSSL/wolfssl/wolfcrypt/src/hmac.c ****             }
 407:Middlewares/Third_Party/wolfSSL_wolfSSL_wolfSSL/wolfssl/wolfcrypt/src/hmac.c ****             break;
 408:Middlewares/Third_Party/wolfSSL_wolfSSL_wolfSSL/wolfssl/wolfcrypt/src/hmac.c ****     #endif /* !NO_SHA256 */
 409:Middlewares/Third_Party/wolfSSL_wolfSSL_wolfSSL/wolfssl/wolfcrypt/src/hmac.c **** 
 410:Middlewares/Third_Party/wolfSSL_wolfSSL_wolfSSL/wolfssl/wolfcrypt/src/hmac.c ****     #ifdef WOLFSSL_SHA384
 411:Middlewares/Third_Party/wolfSSL_wolfSSL_wolfSSL/wolfssl/wolfcrypt/src/hmac.c ****         case WC_SHA384:
 412:Middlewares/Third_Party/wolfSSL_wolfSSL_wolfSSL/wolfssl/wolfcrypt/src/hmac.c ****             hmac_block_size = WC_SHA384_BLOCK_SIZE;
 413:Middlewares/Third_Party/wolfSSL_wolfSSL_wolfSSL/wolfssl/wolfcrypt/src/hmac.c ****             if (length <= WC_SHA384_BLOCK_SIZE) {
 414:Middlewares/Third_Party/wolfSSL_wolfSSL_wolfSSL/wolfssl/wolfcrypt/src/hmac.c ****                 if (key != NULL) {
 415:Middlewares/Third_Party/wolfSSL_wolfSSL_wolfSSL/wolfssl/wolfcrypt/src/hmac.c ****                     XMEMCPY(ip, key, length);
 416:Middlewares/Third_Party/wolfSSL_wolfSSL_wolfSSL/wolfssl/wolfcrypt/src/hmac.c ****                 }
 417:Middlewares/Third_Party/wolfSSL_wolfSSL_wolfSSL/wolfssl/wolfcrypt/src/hmac.c ****             }
 418:Middlewares/Third_Party/wolfSSL_wolfSSL_wolfSSL/wolfssl/wolfcrypt/src/hmac.c ****             else {
 419:Middlewares/Third_Party/wolfSSL_wolfSSL_wolfSSL/wolfssl/wolfcrypt/src/hmac.c ****                 ret = wc_Sha384Update(&hmac->hash.sha384, key, length);
 420:Middlewares/Third_Party/wolfSSL_wolfSSL_wolfSSL/wolfssl/wolfcrypt/src/hmac.c ****                 if (ret != 0)
 421:Middlewares/Third_Party/wolfSSL_wolfSSL_wolfSSL/wolfssl/wolfcrypt/src/hmac.c ****                     break;
 422:Middlewares/Third_Party/wolfSSL_wolfSSL_wolfSSL/wolfssl/wolfcrypt/src/hmac.c ****                 ret = wc_Sha384Final(&hmac->hash.sha384, ip);
 423:Middlewares/Third_Party/wolfSSL_wolfSSL_wolfSSL/wolfssl/wolfcrypt/src/hmac.c ****                 if (ret != 0)
 424:Middlewares/Third_Party/wolfSSL_wolfSSL_wolfSSL/wolfssl/wolfcrypt/src/hmac.c ****                     break;
 425:Middlewares/Third_Party/wolfSSL_wolfSSL_wolfSSL/wolfssl/wolfcrypt/src/hmac.c **** 
 426:Middlewares/Third_Party/wolfSSL_wolfSSL_wolfSSL/wolfssl/wolfcrypt/src/hmac.c ****                 length = WC_SHA384_DIGEST_SIZE;
 427:Middlewares/Third_Party/wolfSSL_wolfSSL_wolfSSL/wolfssl/wolfcrypt/src/hmac.c ****             }
 428:Middlewares/Third_Party/wolfSSL_wolfSSL_wolfSSL/wolfssl/wolfcrypt/src/hmac.c ****             break;
 429:Middlewares/Third_Party/wolfSSL_wolfSSL_wolfSSL/wolfssl/wolfcrypt/src/hmac.c ****     #endif /* WOLFSSL_SHA384 */
ARM GAS  /tmp/ccxfTf9S.s 			page 9


 430:Middlewares/Third_Party/wolfSSL_wolfSSL_wolfSSL/wolfssl/wolfcrypt/src/hmac.c ****     #ifdef WOLFSSL_SHA512
 431:Middlewares/Third_Party/wolfSSL_wolfSSL_wolfSSL/wolfssl/wolfcrypt/src/hmac.c ****         case WC_SHA512:
 432:Middlewares/Third_Party/wolfSSL_wolfSSL_wolfSSL/wolfssl/wolfcrypt/src/hmac.c ****             hmac_block_size = WC_SHA512_BLOCK_SIZE;
 433:Middlewares/Third_Party/wolfSSL_wolfSSL_wolfSSL/wolfssl/wolfcrypt/src/hmac.c ****             if (length <= WC_SHA512_BLOCK_SIZE) {
 434:Middlewares/Third_Party/wolfSSL_wolfSSL_wolfSSL/wolfssl/wolfcrypt/src/hmac.c ****                 if (key != NULL) {
 435:Middlewares/Third_Party/wolfSSL_wolfSSL_wolfSSL/wolfssl/wolfcrypt/src/hmac.c ****                     XMEMCPY(ip, key, length);
 436:Middlewares/Third_Party/wolfSSL_wolfSSL_wolfSSL/wolfssl/wolfcrypt/src/hmac.c ****                 }
 437:Middlewares/Third_Party/wolfSSL_wolfSSL_wolfSSL/wolfssl/wolfcrypt/src/hmac.c ****             }
 438:Middlewares/Third_Party/wolfSSL_wolfSSL_wolfSSL/wolfssl/wolfcrypt/src/hmac.c ****             else {
 439:Middlewares/Third_Party/wolfSSL_wolfSSL_wolfSSL/wolfssl/wolfcrypt/src/hmac.c ****                 ret = wc_Sha512Update(&hmac->hash.sha512, key, length);
 440:Middlewares/Third_Party/wolfSSL_wolfSSL_wolfSSL/wolfssl/wolfcrypt/src/hmac.c ****                 if (ret != 0)
 441:Middlewares/Third_Party/wolfSSL_wolfSSL_wolfSSL/wolfssl/wolfcrypt/src/hmac.c ****                     break;
 442:Middlewares/Third_Party/wolfSSL_wolfSSL_wolfSSL/wolfssl/wolfcrypt/src/hmac.c ****                 ret = wc_Sha512Final(&hmac->hash.sha512, ip);
 443:Middlewares/Third_Party/wolfSSL_wolfSSL_wolfSSL/wolfssl/wolfcrypt/src/hmac.c ****                 if (ret != 0)
 444:Middlewares/Third_Party/wolfSSL_wolfSSL_wolfSSL/wolfssl/wolfcrypt/src/hmac.c ****                     break;
 445:Middlewares/Third_Party/wolfSSL_wolfSSL_wolfSSL/wolfssl/wolfcrypt/src/hmac.c **** 
 446:Middlewares/Third_Party/wolfSSL_wolfSSL_wolfSSL/wolfssl/wolfcrypt/src/hmac.c ****                 length = WC_SHA512_DIGEST_SIZE;
 447:Middlewares/Third_Party/wolfSSL_wolfSSL_wolfSSL/wolfssl/wolfcrypt/src/hmac.c ****             }
 448:Middlewares/Third_Party/wolfSSL_wolfSSL_wolfSSL/wolfssl/wolfcrypt/src/hmac.c ****             break;
 449:Middlewares/Third_Party/wolfSSL_wolfSSL_wolfSSL/wolfssl/wolfcrypt/src/hmac.c ****     #endif /* WOLFSSL_SHA512 */
 450:Middlewares/Third_Party/wolfSSL_wolfSSL_wolfSSL/wolfssl/wolfcrypt/src/hmac.c **** 
 451:Middlewares/Third_Party/wolfSSL_wolfSSL_wolfSSL/wolfssl/wolfcrypt/src/hmac.c ****     #ifdef WOLFSSL_SHA3
 452:Middlewares/Third_Party/wolfSSL_wolfSSL_wolfSSL/wolfssl/wolfcrypt/src/hmac.c ****     #ifndef WOLFSSL_NOSHA3_224
 453:Middlewares/Third_Party/wolfSSL_wolfSSL_wolfSSL/wolfssl/wolfcrypt/src/hmac.c ****         case WC_SHA3_224:
 454:Middlewares/Third_Party/wolfSSL_wolfSSL_wolfSSL/wolfssl/wolfcrypt/src/hmac.c ****             hmac_block_size = WC_SHA3_224_BLOCK_SIZE;
 455:Middlewares/Third_Party/wolfSSL_wolfSSL_wolfSSL/wolfssl/wolfcrypt/src/hmac.c ****             if (length <= WC_SHA3_224_BLOCK_SIZE) {
 456:Middlewares/Third_Party/wolfSSL_wolfSSL_wolfSSL/wolfssl/wolfcrypt/src/hmac.c ****                 if (key != NULL) {
 457:Middlewares/Third_Party/wolfSSL_wolfSSL_wolfSSL/wolfssl/wolfcrypt/src/hmac.c ****                     XMEMCPY(ip, key, length);
 458:Middlewares/Third_Party/wolfSSL_wolfSSL_wolfSSL/wolfssl/wolfcrypt/src/hmac.c ****                 }
 459:Middlewares/Third_Party/wolfSSL_wolfSSL_wolfSSL/wolfssl/wolfcrypt/src/hmac.c ****             }
 460:Middlewares/Third_Party/wolfSSL_wolfSSL_wolfSSL/wolfssl/wolfcrypt/src/hmac.c ****             else {
 461:Middlewares/Third_Party/wolfSSL_wolfSSL_wolfSSL/wolfssl/wolfcrypt/src/hmac.c ****                 ret = wc_Sha3_224_Update(&hmac->hash.sha3, key, length);
 462:Middlewares/Third_Party/wolfSSL_wolfSSL_wolfSSL/wolfssl/wolfcrypt/src/hmac.c ****                 if (ret != 0)
 463:Middlewares/Third_Party/wolfSSL_wolfSSL_wolfSSL/wolfssl/wolfcrypt/src/hmac.c ****                     break;
 464:Middlewares/Third_Party/wolfSSL_wolfSSL_wolfSSL/wolfssl/wolfcrypt/src/hmac.c ****                 ret = wc_Sha3_224_Final(&hmac->hash.sha3, ip);
 465:Middlewares/Third_Party/wolfSSL_wolfSSL_wolfSSL/wolfssl/wolfcrypt/src/hmac.c ****                 if (ret != 0)
 466:Middlewares/Third_Party/wolfSSL_wolfSSL_wolfSSL/wolfssl/wolfcrypt/src/hmac.c ****                     break;
 467:Middlewares/Third_Party/wolfSSL_wolfSSL_wolfSSL/wolfssl/wolfcrypt/src/hmac.c **** 
 468:Middlewares/Third_Party/wolfSSL_wolfSSL_wolfSSL/wolfssl/wolfcrypt/src/hmac.c ****                 length = WC_SHA3_224_DIGEST_SIZE;
 469:Middlewares/Third_Party/wolfSSL_wolfSSL_wolfSSL/wolfssl/wolfcrypt/src/hmac.c ****             }
 470:Middlewares/Third_Party/wolfSSL_wolfSSL_wolfSSL/wolfssl/wolfcrypt/src/hmac.c ****             break;
 471:Middlewares/Third_Party/wolfSSL_wolfSSL_wolfSSL/wolfssl/wolfcrypt/src/hmac.c ****     #endif
 472:Middlewares/Third_Party/wolfSSL_wolfSSL_wolfSSL/wolfssl/wolfcrypt/src/hmac.c ****     #ifndef WOLFSSL_NOSHA3_256
 473:Middlewares/Third_Party/wolfSSL_wolfSSL_wolfSSL/wolfssl/wolfcrypt/src/hmac.c ****         case WC_SHA3_256:
 474:Middlewares/Third_Party/wolfSSL_wolfSSL_wolfSSL/wolfssl/wolfcrypt/src/hmac.c ****             hmac_block_size = WC_SHA3_256_BLOCK_SIZE;
 475:Middlewares/Third_Party/wolfSSL_wolfSSL_wolfSSL/wolfssl/wolfcrypt/src/hmac.c ****             if (length <= WC_SHA3_256_BLOCK_SIZE) {
 476:Middlewares/Third_Party/wolfSSL_wolfSSL_wolfSSL/wolfssl/wolfcrypt/src/hmac.c ****                 if (key != NULL) {
 477:Middlewares/Third_Party/wolfSSL_wolfSSL_wolfSSL/wolfssl/wolfcrypt/src/hmac.c ****                     XMEMCPY(ip, key, length);
 478:Middlewares/Third_Party/wolfSSL_wolfSSL_wolfSSL/wolfssl/wolfcrypt/src/hmac.c ****                 }
 479:Middlewares/Third_Party/wolfSSL_wolfSSL_wolfSSL/wolfssl/wolfcrypt/src/hmac.c ****             }
 480:Middlewares/Third_Party/wolfSSL_wolfSSL_wolfSSL/wolfssl/wolfcrypt/src/hmac.c ****             else {
 481:Middlewares/Third_Party/wolfSSL_wolfSSL_wolfSSL/wolfssl/wolfcrypt/src/hmac.c ****                 ret = wc_Sha3_256_Update(&hmac->hash.sha3, key, length);
 482:Middlewares/Third_Party/wolfSSL_wolfSSL_wolfSSL/wolfssl/wolfcrypt/src/hmac.c ****                 if (ret != 0)
 483:Middlewares/Third_Party/wolfSSL_wolfSSL_wolfSSL/wolfssl/wolfcrypt/src/hmac.c ****                     break;
 484:Middlewares/Third_Party/wolfSSL_wolfSSL_wolfSSL/wolfssl/wolfcrypt/src/hmac.c ****                 ret = wc_Sha3_256_Final(&hmac->hash.sha3, ip);
 485:Middlewares/Third_Party/wolfSSL_wolfSSL_wolfSSL/wolfssl/wolfcrypt/src/hmac.c ****                 if (ret != 0)
 486:Middlewares/Third_Party/wolfSSL_wolfSSL_wolfSSL/wolfssl/wolfcrypt/src/hmac.c ****                     break;
ARM GAS  /tmp/ccxfTf9S.s 			page 10


 487:Middlewares/Third_Party/wolfSSL_wolfSSL_wolfSSL/wolfssl/wolfcrypt/src/hmac.c **** 
 488:Middlewares/Third_Party/wolfSSL_wolfSSL_wolfSSL/wolfssl/wolfcrypt/src/hmac.c ****                 length = WC_SHA3_256_DIGEST_SIZE;
 489:Middlewares/Third_Party/wolfSSL_wolfSSL_wolfSSL/wolfssl/wolfcrypt/src/hmac.c ****             }
 490:Middlewares/Third_Party/wolfSSL_wolfSSL_wolfSSL/wolfssl/wolfcrypt/src/hmac.c ****             break;
 491:Middlewares/Third_Party/wolfSSL_wolfSSL_wolfSSL/wolfssl/wolfcrypt/src/hmac.c ****     #endif
 492:Middlewares/Third_Party/wolfSSL_wolfSSL_wolfSSL/wolfssl/wolfcrypt/src/hmac.c ****     #ifndef WOLFSSL_NOSHA3_384
 493:Middlewares/Third_Party/wolfSSL_wolfSSL_wolfSSL/wolfssl/wolfcrypt/src/hmac.c ****         case WC_SHA3_384:
 494:Middlewares/Third_Party/wolfSSL_wolfSSL_wolfSSL/wolfssl/wolfcrypt/src/hmac.c ****             hmac_block_size = WC_SHA3_384_BLOCK_SIZE;
 495:Middlewares/Third_Party/wolfSSL_wolfSSL_wolfSSL/wolfssl/wolfcrypt/src/hmac.c ****             if (length <= WC_SHA3_384_BLOCK_SIZE) {
 496:Middlewares/Third_Party/wolfSSL_wolfSSL_wolfSSL/wolfssl/wolfcrypt/src/hmac.c ****                 if (key != NULL) {
 497:Middlewares/Third_Party/wolfSSL_wolfSSL_wolfSSL/wolfssl/wolfcrypt/src/hmac.c ****                     XMEMCPY(ip, key, length);
 498:Middlewares/Third_Party/wolfSSL_wolfSSL_wolfSSL/wolfssl/wolfcrypt/src/hmac.c ****                 }
 499:Middlewares/Third_Party/wolfSSL_wolfSSL_wolfSSL/wolfssl/wolfcrypt/src/hmac.c ****             }
 500:Middlewares/Third_Party/wolfSSL_wolfSSL_wolfSSL/wolfssl/wolfcrypt/src/hmac.c ****             else {
 501:Middlewares/Third_Party/wolfSSL_wolfSSL_wolfSSL/wolfssl/wolfcrypt/src/hmac.c ****                 ret = wc_Sha3_384_Update(&hmac->hash.sha3, key, length);
 502:Middlewares/Third_Party/wolfSSL_wolfSSL_wolfSSL/wolfssl/wolfcrypt/src/hmac.c ****                 if (ret != 0)
 503:Middlewares/Third_Party/wolfSSL_wolfSSL_wolfSSL/wolfssl/wolfcrypt/src/hmac.c ****                     break;
 504:Middlewares/Third_Party/wolfSSL_wolfSSL_wolfSSL/wolfssl/wolfcrypt/src/hmac.c ****                 ret = wc_Sha3_384_Final(&hmac->hash.sha3, ip);
 505:Middlewares/Third_Party/wolfSSL_wolfSSL_wolfSSL/wolfssl/wolfcrypt/src/hmac.c ****                 if (ret != 0)
 506:Middlewares/Third_Party/wolfSSL_wolfSSL_wolfSSL/wolfssl/wolfcrypt/src/hmac.c ****                     break;
 507:Middlewares/Third_Party/wolfSSL_wolfSSL_wolfSSL/wolfssl/wolfcrypt/src/hmac.c **** 
 508:Middlewares/Third_Party/wolfSSL_wolfSSL_wolfSSL/wolfssl/wolfcrypt/src/hmac.c ****                 length = WC_SHA3_384_DIGEST_SIZE;
 509:Middlewares/Third_Party/wolfSSL_wolfSSL_wolfSSL/wolfssl/wolfcrypt/src/hmac.c ****             }
 510:Middlewares/Third_Party/wolfSSL_wolfSSL_wolfSSL/wolfssl/wolfcrypt/src/hmac.c ****             break;
 511:Middlewares/Third_Party/wolfSSL_wolfSSL_wolfSSL/wolfssl/wolfcrypt/src/hmac.c ****     #endif
 512:Middlewares/Third_Party/wolfSSL_wolfSSL_wolfSSL/wolfssl/wolfcrypt/src/hmac.c ****     #ifndef WOLFSSL_NOSHA3_512
 513:Middlewares/Third_Party/wolfSSL_wolfSSL_wolfSSL/wolfssl/wolfcrypt/src/hmac.c ****         case WC_SHA3_512:
 514:Middlewares/Third_Party/wolfSSL_wolfSSL_wolfSSL/wolfssl/wolfcrypt/src/hmac.c ****             hmac_block_size = WC_SHA3_512_BLOCK_SIZE;
 515:Middlewares/Third_Party/wolfSSL_wolfSSL_wolfSSL/wolfssl/wolfcrypt/src/hmac.c ****             if (length <= WC_SHA3_512_BLOCK_SIZE) {
 516:Middlewares/Third_Party/wolfSSL_wolfSSL_wolfSSL/wolfssl/wolfcrypt/src/hmac.c ****                 if (key != NULL) {
 517:Middlewares/Third_Party/wolfSSL_wolfSSL_wolfSSL/wolfssl/wolfcrypt/src/hmac.c ****                     XMEMCPY(ip, key, length);
 518:Middlewares/Third_Party/wolfSSL_wolfSSL_wolfSSL/wolfssl/wolfcrypt/src/hmac.c ****                 }
 519:Middlewares/Third_Party/wolfSSL_wolfSSL_wolfSSL/wolfssl/wolfcrypt/src/hmac.c ****             }
 520:Middlewares/Third_Party/wolfSSL_wolfSSL_wolfSSL/wolfssl/wolfcrypt/src/hmac.c ****             else {
 521:Middlewares/Third_Party/wolfSSL_wolfSSL_wolfSSL/wolfssl/wolfcrypt/src/hmac.c ****                 ret = wc_Sha3_512_Update(&hmac->hash.sha3, key, length);
 522:Middlewares/Third_Party/wolfSSL_wolfSSL_wolfSSL/wolfssl/wolfcrypt/src/hmac.c ****                 if (ret != 0)
 523:Middlewares/Third_Party/wolfSSL_wolfSSL_wolfSSL/wolfssl/wolfcrypt/src/hmac.c ****                     break;
 524:Middlewares/Third_Party/wolfSSL_wolfSSL_wolfSSL/wolfssl/wolfcrypt/src/hmac.c ****                 ret = wc_Sha3_512_Final(&hmac->hash.sha3, ip);
 525:Middlewares/Third_Party/wolfSSL_wolfSSL_wolfSSL/wolfssl/wolfcrypt/src/hmac.c ****                 if (ret != 0)
 526:Middlewares/Third_Party/wolfSSL_wolfSSL_wolfSSL/wolfssl/wolfcrypt/src/hmac.c ****                     break;
 527:Middlewares/Third_Party/wolfSSL_wolfSSL_wolfSSL/wolfssl/wolfcrypt/src/hmac.c **** 
 528:Middlewares/Third_Party/wolfSSL_wolfSSL_wolfSSL/wolfssl/wolfcrypt/src/hmac.c ****                 length = WC_SHA3_512_DIGEST_SIZE;
 529:Middlewares/Third_Party/wolfSSL_wolfSSL_wolfSSL/wolfssl/wolfcrypt/src/hmac.c ****             }
 530:Middlewares/Third_Party/wolfSSL_wolfSSL_wolfSSL/wolfssl/wolfcrypt/src/hmac.c ****             break;
 531:Middlewares/Third_Party/wolfSSL_wolfSSL_wolfSSL/wolfssl/wolfcrypt/src/hmac.c ****     #endif
 532:Middlewares/Third_Party/wolfSSL_wolfSSL_wolfSSL/wolfssl/wolfcrypt/src/hmac.c ****     #endif /* WOLFSSL_SHA3 */
 533:Middlewares/Third_Party/wolfSSL_wolfSSL_wolfSSL/wolfssl/wolfcrypt/src/hmac.c **** 
 534:Middlewares/Third_Party/wolfSSL_wolfSSL_wolfSSL/wolfssl/wolfcrypt/src/hmac.c ****         default:
 535:Middlewares/Third_Party/wolfSSL_wolfSSL_wolfSSL/wolfssl/wolfcrypt/src/hmac.c ****             return BAD_FUNC_ARG;
 536:Middlewares/Third_Party/wolfSSL_wolfSSL_wolfSSL/wolfssl/wolfcrypt/src/hmac.c ****     }
 537:Middlewares/Third_Party/wolfSSL_wolfSSL_wolfSSL/wolfssl/wolfcrypt/src/hmac.c **** 
 538:Middlewares/Third_Party/wolfSSL_wolfSSL_wolfSSL/wolfssl/wolfcrypt/src/hmac.c **** #if defined(WOLFSSL_ASYNC_CRYPT) && defined(WC_ASYNC_ENABLE_HMAC)
 539:Middlewares/Third_Party/wolfSSL_wolfSSL_wolfSSL/wolfssl/wolfcrypt/src/hmac.c ****     if (hmac->asyncDev.marker == WOLFSSL_ASYNC_MARKER_HMAC) {
 540:Middlewares/Third_Party/wolfSSL_wolfSSL_wolfSSL/wolfssl/wolfcrypt/src/hmac.c ****     #if defined(HAVE_INTEL_QA) || defined(HAVE_CAVIUM)
 541:Middlewares/Third_Party/wolfSSL_wolfSSL_wolfSSL/wolfssl/wolfcrypt/src/hmac.c ****         #ifdef HAVE_INTEL_QA
 542:Middlewares/Third_Party/wolfSSL_wolfSSL_wolfSSL/wolfssl/wolfcrypt/src/hmac.c ****         if (IntelQaHmacGetType(hmac->macType, NULL) == 0)
 543:Middlewares/Third_Party/wolfSSL_wolfSSL_wolfSSL/wolfssl/wolfcrypt/src/hmac.c ****         #endif
ARM GAS  /tmp/ccxfTf9S.s 			page 11


 544:Middlewares/Third_Party/wolfSSL_wolfSSL_wolfSSL/wolfssl/wolfcrypt/src/hmac.c ****         {
 545:Middlewares/Third_Party/wolfSSL_wolfSSL_wolfSSL/wolfssl/wolfcrypt/src/hmac.c ****             if (length > hmac_block_size)
 546:Middlewares/Third_Party/wolfSSL_wolfSSL_wolfSSL/wolfssl/wolfcrypt/src/hmac.c ****                 length = hmac_block_size;
 547:Middlewares/Third_Party/wolfSSL_wolfSSL_wolfSSL/wolfssl/wolfcrypt/src/hmac.c ****             /* update key length */
 548:Middlewares/Third_Party/wolfSSL_wolfSSL_wolfSSL/wolfssl/wolfcrypt/src/hmac.c ****             hmac->keyLen = (word16)length;
 549:Middlewares/Third_Party/wolfSSL_wolfSSL_wolfSSL/wolfssl/wolfcrypt/src/hmac.c **** 
 550:Middlewares/Third_Party/wolfSSL_wolfSSL_wolfSSL/wolfssl/wolfcrypt/src/hmac.c ****             return ret;
 551:Middlewares/Third_Party/wolfSSL_wolfSSL_wolfSSL/wolfssl/wolfcrypt/src/hmac.c ****         }
 552:Middlewares/Third_Party/wolfSSL_wolfSSL_wolfSSL/wolfssl/wolfcrypt/src/hmac.c ****         /* no need to pad below */
 553:Middlewares/Third_Party/wolfSSL_wolfSSL_wolfSSL/wolfssl/wolfcrypt/src/hmac.c ****     #endif
 554:Middlewares/Third_Party/wolfSSL_wolfSSL_wolfSSL/wolfssl/wolfcrypt/src/hmac.c ****     }
 555:Middlewares/Third_Party/wolfSSL_wolfSSL_wolfSSL/wolfssl/wolfcrypt/src/hmac.c **** #endif
 556:Middlewares/Third_Party/wolfSSL_wolfSSL_wolfSSL/wolfssl/wolfcrypt/src/hmac.c **** 
 557:Middlewares/Third_Party/wolfSSL_wolfSSL_wolfSSL/wolfssl/wolfcrypt/src/hmac.c ****     if (ret == 0) {
 558:Middlewares/Third_Party/wolfSSL_wolfSSL_wolfSSL/wolfssl/wolfcrypt/src/hmac.c ****         if (length < hmac_block_size)
 559:Middlewares/Third_Party/wolfSSL_wolfSSL_wolfSSL/wolfssl/wolfcrypt/src/hmac.c ****             XMEMSET(ip + length, 0, hmac_block_size - length);
 560:Middlewares/Third_Party/wolfSSL_wolfSSL_wolfSSL/wolfssl/wolfcrypt/src/hmac.c **** 
 561:Middlewares/Third_Party/wolfSSL_wolfSSL_wolfSSL/wolfssl/wolfcrypt/src/hmac.c ****         for(i = 0; i < hmac_block_size; i++) {
 562:Middlewares/Third_Party/wolfSSL_wolfSSL_wolfSSL/wolfssl/wolfcrypt/src/hmac.c ****             op[i] = ip[i] ^ OPAD;
 563:Middlewares/Third_Party/wolfSSL_wolfSSL_wolfSSL/wolfssl/wolfcrypt/src/hmac.c ****             ip[i] ^= IPAD;
 564:Middlewares/Third_Party/wolfSSL_wolfSSL_wolfSSL/wolfssl/wolfcrypt/src/hmac.c ****         }
 565:Middlewares/Third_Party/wolfSSL_wolfSSL_wolfSSL/wolfssl/wolfcrypt/src/hmac.c ****     }
 566:Middlewares/Third_Party/wolfSSL_wolfSSL_wolfSSL/wolfssl/wolfcrypt/src/hmac.c **** 
 567:Middlewares/Third_Party/wolfSSL_wolfSSL_wolfSSL/wolfssl/wolfcrypt/src/hmac.c ****     return ret;
 568:Middlewares/Third_Party/wolfSSL_wolfSSL_wolfSSL/wolfssl/wolfcrypt/src/hmac.c **** }
 569:Middlewares/Third_Party/wolfSSL_wolfSSL_wolfSSL/wolfssl/wolfcrypt/src/hmac.c **** 
 570:Middlewares/Third_Party/wolfSSL_wolfSSL_wolfSSL/wolfssl/wolfcrypt/src/hmac.c **** 
 571:Middlewares/Third_Party/wolfSSL_wolfSSL_wolfSSL/wolfssl/wolfcrypt/src/hmac.c **** static int HmacKeyInnerHash(Hmac* hmac)
 572:Middlewares/Third_Party/wolfSSL_wolfSSL_wolfSSL/wolfssl/wolfcrypt/src/hmac.c **** {
  29              		.loc 1 572 1 view -0
  30              		.cfi_startproc
  31              		@ args = 0, pretend = 0, frame = 0
  32              		@ frame_needed = 0, uses_anonymous_args = 0
  33              		.loc 1 572 1 is_stmt 0 view .LVU1
  34 0000 10B5     		push	{r4, lr}
  35              	.LCFI0:
  36              		.cfi_def_cfa_offset 8
  37              		.cfi_offset 4, -8
  38              		.cfi_offset 14, -4
  39 0002 0446     		mov	r4, r0
 573:Middlewares/Third_Party/wolfSSL_wolfSSL_wolfSSL/wolfssl/wolfcrypt/src/hmac.c ****     int ret = 0;
  40              		.loc 1 573 5 is_stmt 1 view .LVU2
  41              	.LVL1:
 574:Middlewares/Third_Party/wolfSSL_wolfSSL_wolfSSL/wolfssl/wolfcrypt/src/hmac.c **** 
 575:Middlewares/Third_Party/wolfSSL_wolfSSL_wolfSSL/wolfssl/wolfcrypt/src/hmac.c ****     switch (hmac->macType) {
  42              		.loc 1 575 5 view .LVU3
  43              		.loc 1 575 17 is_stmt 0 view .LVU4
  44 0004 90F81431 		ldrb	r3, [r0, #276]	@ zero_extendqisi2
  45              		.loc 1 575 5 view .LVU5
  46 0008 062B     		cmp	r3, #6
  47 000a 04D0     		beq	.L6
 573:Middlewares/Third_Party/wolfSSL_wolfSSL_wolfSSL/wolfssl/wolfcrypt/src/hmac.c ****     int ret = 0;
  48              		.loc 1 573 9 view .LVU6
  49 000c 0020     		movs	r0, #0
  50              	.LVL2:
  51              	.L2:
 576:Middlewares/Third_Party/wolfSSL_wolfSSL_wolfSSL/wolfssl/wolfcrypt/src/hmac.c ****     #ifndef NO_MD5
ARM GAS  /tmp/ccxfTf9S.s 			page 12


 577:Middlewares/Third_Party/wolfSSL_wolfSSL_wolfSSL/wolfssl/wolfcrypt/src/hmac.c ****         case WC_MD5:
 578:Middlewares/Third_Party/wolfSSL_wolfSSL_wolfSSL/wolfssl/wolfcrypt/src/hmac.c ****             ret = wc_Md5Update(&hmac->hash.md5, (byte*)hmac->ipad,
 579:Middlewares/Third_Party/wolfSSL_wolfSSL_wolfSSL/wolfssl/wolfcrypt/src/hmac.c ****                                                              WC_MD5_BLOCK_SIZE);
 580:Middlewares/Third_Party/wolfSSL_wolfSSL_wolfSSL/wolfssl/wolfcrypt/src/hmac.c ****             break;
 581:Middlewares/Third_Party/wolfSSL_wolfSSL_wolfSSL/wolfssl/wolfcrypt/src/hmac.c ****     #endif /* !NO_MD5 */
 582:Middlewares/Third_Party/wolfSSL_wolfSSL_wolfSSL/wolfssl/wolfcrypt/src/hmac.c **** 
 583:Middlewares/Third_Party/wolfSSL_wolfSSL_wolfSSL/wolfssl/wolfcrypt/src/hmac.c ****     #ifndef NO_SHA
 584:Middlewares/Third_Party/wolfSSL_wolfSSL_wolfSSL/wolfssl/wolfcrypt/src/hmac.c ****         case WC_SHA:
 585:Middlewares/Third_Party/wolfSSL_wolfSSL_wolfSSL/wolfssl/wolfcrypt/src/hmac.c ****             ret = wc_ShaUpdate(&hmac->hash.sha, (byte*)hmac->ipad,
 586:Middlewares/Third_Party/wolfSSL_wolfSSL_wolfSSL/wolfssl/wolfcrypt/src/hmac.c ****                                                              WC_SHA_BLOCK_SIZE);
 587:Middlewares/Third_Party/wolfSSL_wolfSSL_wolfSSL/wolfssl/wolfcrypt/src/hmac.c ****             break;
 588:Middlewares/Third_Party/wolfSSL_wolfSSL_wolfSSL/wolfssl/wolfcrypt/src/hmac.c ****     #endif /* !NO_SHA */
 589:Middlewares/Third_Party/wolfSSL_wolfSSL_wolfSSL/wolfssl/wolfcrypt/src/hmac.c **** 
 590:Middlewares/Third_Party/wolfSSL_wolfSSL_wolfSSL/wolfssl/wolfcrypt/src/hmac.c ****     #ifdef WOLFSSL_SHA224
 591:Middlewares/Third_Party/wolfSSL_wolfSSL_wolfSSL/wolfssl/wolfcrypt/src/hmac.c ****         case WC_SHA224:
 592:Middlewares/Third_Party/wolfSSL_wolfSSL_wolfSSL/wolfssl/wolfcrypt/src/hmac.c ****             ret = wc_Sha224Update(&hmac->hash.sha224, (byte*)hmac->ipad,
 593:Middlewares/Third_Party/wolfSSL_wolfSSL_wolfSSL/wolfssl/wolfcrypt/src/hmac.c ****                                                           WC_SHA224_BLOCK_SIZE);
 594:Middlewares/Third_Party/wolfSSL_wolfSSL_wolfSSL/wolfssl/wolfcrypt/src/hmac.c ****             break;
 595:Middlewares/Third_Party/wolfSSL_wolfSSL_wolfSSL/wolfssl/wolfcrypt/src/hmac.c ****     #endif /* WOLFSSL_SHA224 */
 596:Middlewares/Third_Party/wolfSSL_wolfSSL_wolfSSL/wolfssl/wolfcrypt/src/hmac.c ****     #ifndef NO_SHA256
 597:Middlewares/Third_Party/wolfSSL_wolfSSL_wolfSSL/wolfssl/wolfcrypt/src/hmac.c ****         case WC_SHA256:
 598:Middlewares/Third_Party/wolfSSL_wolfSSL_wolfSSL/wolfssl/wolfcrypt/src/hmac.c ****             ret = wc_Sha256Update(&hmac->hash.sha256, (byte*)hmac->ipad,
 599:Middlewares/Third_Party/wolfSSL_wolfSSL_wolfSSL/wolfssl/wolfcrypt/src/hmac.c ****                                                           WC_SHA256_BLOCK_SIZE);
 600:Middlewares/Third_Party/wolfSSL_wolfSSL_wolfSSL/wolfssl/wolfcrypt/src/hmac.c ****             break;
 601:Middlewares/Third_Party/wolfSSL_wolfSSL_wolfSSL/wolfssl/wolfcrypt/src/hmac.c ****     #endif /* !NO_SHA256 */
 602:Middlewares/Third_Party/wolfSSL_wolfSSL_wolfSSL/wolfssl/wolfcrypt/src/hmac.c **** 
 603:Middlewares/Third_Party/wolfSSL_wolfSSL_wolfSSL/wolfssl/wolfcrypt/src/hmac.c ****     #ifdef WOLFSSL_SHA384
 604:Middlewares/Third_Party/wolfSSL_wolfSSL_wolfSSL/wolfssl/wolfcrypt/src/hmac.c ****         case WC_SHA384:
 605:Middlewares/Third_Party/wolfSSL_wolfSSL_wolfSSL/wolfssl/wolfcrypt/src/hmac.c ****             ret = wc_Sha384Update(&hmac->hash.sha384, (byte*)hmac->ipad,
 606:Middlewares/Third_Party/wolfSSL_wolfSSL_wolfSSL/wolfssl/wolfcrypt/src/hmac.c ****                                                           WC_SHA384_BLOCK_SIZE);
 607:Middlewares/Third_Party/wolfSSL_wolfSSL_wolfSSL/wolfssl/wolfcrypt/src/hmac.c ****             break;
 608:Middlewares/Third_Party/wolfSSL_wolfSSL_wolfSSL/wolfssl/wolfcrypt/src/hmac.c ****     #endif /* WOLFSSL_SHA384 */
 609:Middlewares/Third_Party/wolfSSL_wolfSSL_wolfSSL/wolfssl/wolfcrypt/src/hmac.c ****     #ifdef WOLFSSL_SHA512
 610:Middlewares/Third_Party/wolfSSL_wolfSSL_wolfSSL/wolfssl/wolfcrypt/src/hmac.c ****         case WC_SHA512:
 611:Middlewares/Third_Party/wolfSSL_wolfSSL_wolfSSL/wolfssl/wolfcrypt/src/hmac.c ****             ret = wc_Sha512Update(&hmac->hash.sha512, (byte*)hmac->ipad,
 612:Middlewares/Third_Party/wolfSSL_wolfSSL_wolfSSL/wolfssl/wolfcrypt/src/hmac.c ****                                                           WC_SHA512_BLOCK_SIZE);
 613:Middlewares/Third_Party/wolfSSL_wolfSSL_wolfSSL/wolfssl/wolfcrypt/src/hmac.c ****             break;
 614:Middlewares/Third_Party/wolfSSL_wolfSSL_wolfSSL/wolfssl/wolfcrypt/src/hmac.c ****     #endif /* WOLFSSL_SHA512 */
 615:Middlewares/Third_Party/wolfSSL_wolfSSL_wolfSSL/wolfssl/wolfcrypt/src/hmac.c **** 
 616:Middlewares/Third_Party/wolfSSL_wolfSSL_wolfSSL/wolfssl/wolfcrypt/src/hmac.c ****     #ifdef WOLFSSL_SHA3
 617:Middlewares/Third_Party/wolfSSL_wolfSSL_wolfSSL/wolfssl/wolfcrypt/src/hmac.c ****     #ifndef WOLFSSL_NOSHA3_224
 618:Middlewares/Third_Party/wolfSSL_wolfSSL_wolfSSL/wolfssl/wolfcrypt/src/hmac.c ****         case WC_SHA3_224:
 619:Middlewares/Third_Party/wolfSSL_wolfSSL_wolfSSL/wolfssl/wolfcrypt/src/hmac.c ****             ret = wc_Sha3_224_Update(&hmac->hash.sha3, (byte*)hmac->ipad,
 620:Middlewares/Third_Party/wolfSSL_wolfSSL_wolfSSL/wolfssl/wolfcrypt/src/hmac.c ****                                                         WC_SHA3_224_BLOCK_SIZE);
 621:Middlewares/Third_Party/wolfSSL_wolfSSL_wolfSSL/wolfssl/wolfcrypt/src/hmac.c ****             break;
 622:Middlewares/Third_Party/wolfSSL_wolfSSL_wolfSSL/wolfssl/wolfcrypt/src/hmac.c ****     #endif
 623:Middlewares/Third_Party/wolfSSL_wolfSSL_wolfSSL/wolfssl/wolfcrypt/src/hmac.c ****     #ifndef WOLFSSL_NOSHA3_256
 624:Middlewares/Third_Party/wolfSSL_wolfSSL_wolfSSL/wolfssl/wolfcrypt/src/hmac.c ****         case WC_SHA3_256:
 625:Middlewares/Third_Party/wolfSSL_wolfSSL_wolfSSL/wolfssl/wolfcrypt/src/hmac.c ****             ret = wc_Sha3_256_Update(&hmac->hash.sha3, (byte*)hmac->ipad,
 626:Middlewares/Third_Party/wolfSSL_wolfSSL_wolfSSL/wolfssl/wolfcrypt/src/hmac.c ****                                                         WC_SHA3_256_BLOCK_SIZE);
 627:Middlewares/Third_Party/wolfSSL_wolfSSL_wolfSSL/wolfssl/wolfcrypt/src/hmac.c ****             break;
 628:Middlewares/Third_Party/wolfSSL_wolfSSL_wolfSSL/wolfssl/wolfcrypt/src/hmac.c ****     #endif
 629:Middlewares/Third_Party/wolfSSL_wolfSSL_wolfSSL/wolfssl/wolfcrypt/src/hmac.c ****     #ifndef WOLFSSL_NOSHA3_384
 630:Middlewares/Third_Party/wolfSSL_wolfSSL_wolfSSL/wolfssl/wolfcrypt/src/hmac.c ****         case WC_SHA3_384:
 631:Middlewares/Third_Party/wolfSSL_wolfSSL_wolfSSL/wolfssl/wolfcrypt/src/hmac.c ****             ret = wc_Sha3_384_Update(&hmac->hash.sha3, (byte*)hmac->ipad,
 632:Middlewares/Third_Party/wolfSSL_wolfSSL_wolfSSL/wolfssl/wolfcrypt/src/hmac.c ****                                                         WC_SHA3_384_BLOCK_SIZE);
 633:Middlewares/Third_Party/wolfSSL_wolfSSL_wolfSSL/wolfssl/wolfcrypt/src/hmac.c ****             break;
ARM GAS  /tmp/ccxfTf9S.s 			page 13


 634:Middlewares/Third_Party/wolfSSL_wolfSSL_wolfSSL/wolfssl/wolfcrypt/src/hmac.c ****     #endif
 635:Middlewares/Third_Party/wolfSSL_wolfSSL_wolfSSL/wolfssl/wolfcrypt/src/hmac.c ****     #ifndef WOLFSSL_NOSHA3_512
 636:Middlewares/Third_Party/wolfSSL_wolfSSL_wolfSSL/wolfssl/wolfcrypt/src/hmac.c ****         case WC_SHA3_512:
 637:Middlewares/Third_Party/wolfSSL_wolfSSL_wolfSSL/wolfssl/wolfcrypt/src/hmac.c ****             ret = wc_Sha3_512_Update(&hmac->hash.sha3, (byte*)hmac->ipad,
 638:Middlewares/Third_Party/wolfSSL_wolfSSL_wolfSSL/wolfssl/wolfcrypt/src/hmac.c ****                                                         WC_SHA3_512_BLOCK_SIZE);
 639:Middlewares/Third_Party/wolfSSL_wolfSSL_wolfSSL/wolfssl/wolfcrypt/src/hmac.c ****             break;
 640:Middlewares/Third_Party/wolfSSL_wolfSSL_wolfSSL/wolfssl/wolfcrypt/src/hmac.c ****     #endif
 641:Middlewares/Third_Party/wolfSSL_wolfSSL_wolfSSL/wolfssl/wolfcrypt/src/hmac.c ****     #endif /* WOLFSSL_SHA3 */
 642:Middlewares/Third_Party/wolfSSL_wolfSSL_wolfSSL/wolfssl/wolfcrypt/src/hmac.c **** 
 643:Middlewares/Third_Party/wolfSSL_wolfSSL_wolfSSL/wolfssl/wolfcrypt/src/hmac.c ****         default:
 644:Middlewares/Third_Party/wolfSSL_wolfSSL_wolfSSL/wolfssl/wolfcrypt/src/hmac.c ****             break;
 645:Middlewares/Third_Party/wolfSSL_wolfSSL_wolfSSL/wolfssl/wolfcrypt/src/hmac.c ****     }
 646:Middlewares/Third_Party/wolfSSL_wolfSSL_wolfSSL/wolfssl/wolfcrypt/src/hmac.c **** 
 647:Middlewares/Third_Party/wolfSSL_wolfSSL_wolfSSL/wolfssl/wolfcrypt/src/hmac.c ****     if (ret == 0)
 648:Middlewares/Third_Party/wolfSSL_wolfSSL_wolfSSL/wolfssl/wolfcrypt/src/hmac.c ****         hmac->innerHashKeyed = WC_HMAC_INNER_HASH_KEYED_SW;
  52              		.loc 1 648 9 is_stmt 1 view .LVU7
  53              		.loc 1 648 30 is_stmt 0 view .LVU8
  54 000e 0123     		movs	r3, #1
  55 0010 84F81531 		strb	r3, [r4, #277]
 649:Middlewares/Third_Party/wolfSSL_wolfSSL_wolfSSL/wolfssl/wolfcrypt/src/hmac.c **** 
 650:Middlewares/Third_Party/wolfSSL_wolfSSL_wolfSSL/wolfssl/wolfcrypt/src/hmac.c ****     return ret;
  56              		.loc 1 650 5 is_stmt 1 view .LVU9
  57              	.L1:
 651:Middlewares/Third_Party/wolfSSL_wolfSSL_wolfSSL/wolfssl/wolfcrypt/src/hmac.c **** }
  58              		.loc 1 651 1 is_stmt 0 view .LVU10
  59 0014 10BD     		pop	{r4, pc}
  60              	.LVL3:
  61              	.L6:
 598:Middlewares/Third_Party/wolfSSL_wolfSSL_wolfSSL/wolfssl/wolfcrypt/src/hmac.c ****                                                           WC_SHA256_BLOCK_SIZE);
  62              		.loc 1 598 13 is_stmt 1 view .LVU11
 598:Middlewares/Third_Party/wolfSSL_wolfSSL_wolfSSL/wolfssl/wolfcrypt/src/hmac.c ****                                                           WC_SHA256_BLOCK_SIZE);
  63              		.loc 1 598 19 is_stmt 0 view .LVU12
  64 0016 4022     		movs	r2, #64
  65 0018 00F17001 		add	r1, r0, #112
  66 001c FFF7FEFF 		bl	wc_Sha256Update
  67              	.LVL4:
 600:Middlewares/Third_Party/wolfSSL_wolfSSL_wolfSSL/wolfssl/wolfcrypt/src/hmac.c ****     #endif /* !NO_SHA256 */
  68              		.loc 1 600 13 is_stmt 1 view .LVU13
 647:Middlewares/Third_Party/wolfSSL_wolfSSL_wolfSSL/wolfssl/wolfcrypt/src/hmac.c ****         hmac->innerHashKeyed = WC_HMAC_INNER_HASH_KEYED_SW;
  69              		.loc 1 647 5 view .LVU14
 647:Middlewares/Third_Party/wolfSSL_wolfSSL_wolfSSL/wolfssl/wolfcrypt/src/hmac.c ****         hmac->innerHashKeyed = WC_HMAC_INNER_HASH_KEYED_SW;
  70              		.loc 1 647 8 is_stmt 0 view .LVU15
  71 0020 0028     		cmp	r0, #0
  72 0022 F7D1     		bne	.L1
  73 0024 F3E7     		b	.L2
  74              		.cfi_endproc
  75              	.LFE178:
  77              		.section	.text.wc_HmacSizeByType,"ax",%progbits
  78              		.align	1
  79              		.global	wc_HmacSizeByType
  80              		.syntax unified
  81              		.thumb
  82              		.thumb_func
  83              		.fpu fpv4-sp-d16
  85              	wc_HmacSizeByType:
  86              	.LVL5:
  87              	.LFB175:
ARM GAS  /tmp/ccxfTf9S.s 			page 14


 126:Middlewares/Third_Party/wolfSSL_wolfSSL_wolfSSL/wolfssl/wolfcrypt/src/hmac.c ****     int ret;
  88              		.loc 1 126 1 is_stmt 1 view -0
  89              		.cfi_startproc
  90              		@ args = 0, pretend = 0, frame = 0
  91              		@ frame_needed = 0, uses_anonymous_args = 0
  92              		@ link register save eliminated.
 127:Middlewares/Third_Party/wolfSSL_wolfSSL_wolfSSL/wolfssl/wolfcrypt/src/hmac.c **** 
  93              		.loc 1 127 5 view .LVU17
 129:Middlewares/Third_Party/wolfSSL_wolfSSL_wolfSSL/wolfssl/wolfcrypt/src/hmac.c ****             type == WC_SHA224 || type == WC_SHA256 ||
  94              		.loc 1 129 5 view .LVU18
 131:Middlewares/Third_Party/wolfSSL_wolfSSL_wolfSSL/wolfssl/wolfcrypt/src/hmac.c ****             type == WC_SHA3_224 || type == WC_SHA3_256 ||
  95              		.loc 1 131 31 is_stmt 0 view .LVU19
  96 0000 C31E     		subs	r3, r0, #3
 129:Middlewares/Third_Party/wolfSSL_wolfSSL_wolfSSL/wolfssl/wolfcrypt/src/hmac.c ****             type == WC_SHA224 || type == WC_SHA256 ||
  97              		.loc 1 129 8 view .LVU20
  98 0002 052B     		cmp	r3, #5
  99 0004 07D9     		bls	.L8
 131:Middlewares/Third_Party/wolfSSL_wolfSSL_wolfSSL/wolfssl/wolfcrypt/src/hmac.c ****             type == WC_SHA3_224 || type == WC_SHA3_256 ||
 100              		.loc 1 131 52 view .LVU21
 101 0006 0A28     		cmp	r0, #10
 102 0008 05D0     		beq	.L8
 132:Middlewares/Third_Party/wolfSSL_wolfSSL_wolfSSL/wolfssl/wolfcrypt/src/hmac.c ****             type == WC_SHA3_384 || type == WC_SHA3_512)) {
 103              		.loc 1 132 33 view .LVU22
 104 000a 0B28     		cmp	r0, #11
 105 000c 03D0     		beq	.L8
 132:Middlewares/Third_Party/wolfSSL_wolfSSL_wolfSSL/wolfssl/wolfcrypt/src/hmac.c ****             type == WC_SHA3_384 || type == WC_SHA3_512)) {
 106              		.loc 1 132 56 discriminator 1 view .LVU23
 107 000e 0C28     		cmp	r0, #12
 108 0010 01D0     		beq	.L8
 129:Middlewares/Third_Party/wolfSSL_wolfSSL_wolfSSL/wolfssl/wolfcrypt/src/hmac.c ****             type == WC_SHA224 || type == WC_SHA256 ||
 109              		.loc 1 129 9 view .LVU24
 110 0012 0D28     		cmp	r0, #13
 111 0014 03D1     		bne	.L10
 112              	.L8:
 137:Middlewares/Third_Party/wolfSSL_wolfSSL_wolfSSL/wolfssl/wolfcrypt/src/hmac.c ****     #ifndef NO_MD5
 113              		.loc 1 137 5 is_stmt 1 view .LVU25
 114 0016 0628     		cmp	r0, #6
 115 0018 04D1     		bne	.L11
 158:Middlewares/Third_Party/wolfSSL_wolfSSL_wolfSSL/wolfssl/wolfcrypt/src/hmac.c ****             break;
 116              		.loc 1 158 17 is_stmt 0 view .LVU26
 117 001a 2020     		movs	r0, #32
 118              	.LVL6:
 158:Middlewares/Third_Party/wolfSSL_wolfSSL_wolfSSL/wolfssl/wolfcrypt/src/hmac.c ****             break;
 119              		.loc 1 158 17 view .LVU27
 120 001c 7047     		bx	lr
 121              	.LVL7:
 122              	.L10:
 134:Middlewares/Third_Party/wolfSSL_wolfSSL_wolfSSL/wolfssl/wolfcrypt/src/hmac.c ****     }
 123              		.loc 1 134 16 view .LVU28
 124 001e 6FF0AC00 		mvn	r0, #172
 125              	.LVL8:
 134:Middlewares/Third_Party/wolfSSL_wolfSSL_wolfSSL/wolfssl/wolfcrypt/src/hmac.c ****     }
 126              		.loc 1 134 16 view .LVU29
 127 0022 7047     		bx	lr
 128              	.LVL9:
 129              	.L11:
 193:Middlewares/Third_Party/wolfSSL_wolfSSL_wolfSSL/wolfssl/wolfcrypt/src/hmac.c ****             break;
ARM GAS  /tmp/ccxfTf9S.s 			page 15


 130              		.loc 1 193 17 view .LVU30
 131 0024 6FF0AC00 		mvn	r0, #172
 132              	.LVL10:
 198:Middlewares/Third_Party/wolfSSL_wolfSSL_wolfSSL/wolfssl/wolfcrypt/src/hmac.c **** 
 133              		.loc 1 198 1 view .LVU31
 134 0028 7047     		bx	lr
 135              		.cfi_endproc
 136              	.LFE175:
 138              		.section	.text._InitHmac,"ax",%progbits
 139              		.align	1
 140              		.global	_InitHmac
 141              		.syntax unified
 142              		.thumb
 143              		.thumb_func
 144              		.fpu fpv4-sp-d16
 146              	_InitHmac:
 147              	.LVL11:
 148              	.LFB176:
 201:Middlewares/Third_Party/wolfSSL_wolfSSL_wolfSSL/wolfssl/wolfcrypt/src/hmac.c ****     int ret = 0;
 149              		.loc 1 201 1 is_stmt 1 view -0
 150              		.cfi_startproc
 151              		@ args = 0, pretend = 0, frame = 0
 152              		@ frame_needed = 0, uses_anonymous_args = 0
 201:Middlewares/Third_Party/wolfSSL_wolfSSL_wolfSSL/wolfssl/wolfcrypt/src/hmac.c ****     int ret = 0;
 153              		.loc 1 201 1 is_stmt 0 view .LVU33
 154 0000 38B5     		push	{r3, r4, r5, lr}
 155              	.LCFI1:
 156              		.cfi_def_cfa_offset 16
 157              		.cfi_offset 3, -16
 158              		.cfi_offset 4, -12
 159              		.cfi_offset 5, -8
 160              		.cfi_offset 14, -4
 161 0002 0446     		mov	r4, r0
 162 0004 1546     		mov	r5, r2
 202:Middlewares/Third_Party/wolfSSL_wolfSSL_wolfSSL/wolfssl/wolfcrypt/src/hmac.c **** 
 163              		.loc 1 202 5 is_stmt 1 view .LVU34
 164              	.LVL12:
 204:Middlewares/Third_Party/wolfSSL_wolfSSL_wolfSSL/wolfssl/wolfcrypt/src/hmac.c ****     #ifndef NO_MD5
 165              		.loc 1 204 5 view .LVU35
 166 0006 0629     		cmp	r1, #6
 167 0008 04D1     		bne	.L14
 225:Middlewares/Third_Party/wolfSSL_wolfSSL_wolfSSL/wolfssl/wolfcrypt/src/hmac.c ****             break;
 168              		.loc 1 225 13 view .LVU36
 225:Middlewares/Third_Party/wolfSSL_wolfSSL_wolfSSL/wolfssl/wolfcrypt/src/hmac.c ****             break;
 169              		.loc 1 225 19 is_stmt 0 view .LVU37
 170 000a FFF7FEFF 		bl	wc_InitSha256
 171              	.LVL13:
 226:Middlewares/Third_Party/wolfSSL_wolfSSL_wolfSSL/wolfssl/wolfcrypt/src/hmac.c ****     #endif /* !NO_SHA256 */
 172              		.loc 1 226 13 is_stmt 1 view .LVU38
 173              	.L13:
 272:Middlewares/Third_Party/wolfSSL_wolfSSL_wolfSSL/wolfssl/wolfcrypt/src/hmac.c **** #endif /* WOLFSSL_HEAP_TEST */
 174              		.loc 1 272 5 view .LVU39
 272:Middlewares/Third_Party/wolfSSL_wolfSSL_wolfSSL/wolfssl/wolfcrypt/src/hmac.c **** #endif /* WOLFSSL_HEAP_TEST */
 175              		.loc 1 272 16 is_stmt 0 view .LVU40
 176 000e C4F81051 		str	r5, [r4, #272]
 275:Middlewares/Third_Party/wolfSSL_wolfSSL_wolfSSL/wolfssl/wolfcrypt/src/hmac.c **** }
 177              		.loc 1 275 5 is_stmt 1 view .LVU41
ARM GAS  /tmp/ccxfTf9S.s 			page 16


 276:Middlewares/Third_Party/wolfSSL_wolfSSL_wolfSSL/wolfssl/wolfcrypt/src/hmac.c **** 
 178              		.loc 1 276 1 is_stmt 0 view .LVU42
 179 0012 38BD     		pop	{r3, r4, r5, pc}
 180              	.LVL14:
 181              	.L14:
 264:Middlewares/Third_Party/wolfSSL_wolfSSL_wolfSSL/wolfssl/wolfcrypt/src/hmac.c ****             break;
 182              		.loc 1 264 17 view .LVU43
 183 0014 6FF0AC00 		mvn	r0, #172
 184              	.LVL15:
 264:Middlewares/Third_Party/wolfSSL_wolfSSL_wolfSSL/wolfssl/wolfcrypt/src/hmac.c ****             break;
 185              		.loc 1 264 17 view .LVU44
 186 0018 F9E7     		b	.L13
 187              		.cfi_endproc
 188              	.LFE176:
 190              		.section	.text.wc_HmacUpdate,"ax",%progbits
 191              		.align	1
 192              		.global	wc_HmacUpdate
 193              		.syntax unified
 194              		.thumb
 195              		.thumb_func
 196              		.fpu fpv4-sp-d16
 198              	wc_HmacUpdate:
 199              	.LVL16:
 200              	.LFB179:
 652:Middlewares/Third_Party/wolfSSL_wolfSSL_wolfSSL/wolfssl/wolfcrypt/src/hmac.c **** 
 653:Middlewares/Third_Party/wolfSSL_wolfSSL_wolfSSL/wolfssl/wolfcrypt/src/hmac.c **** 
 654:Middlewares/Third_Party/wolfSSL_wolfSSL_wolfSSL/wolfssl/wolfcrypt/src/hmac.c **** int wc_HmacUpdate(Hmac* hmac, const byte* msg, word32 length)
 655:Middlewares/Third_Party/wolfSSL_wolfSSL_wolfSSL/wolfssl/wolfcrypt/src/hmac.c **** {
 201              		.loc 1 655 1 is_stmt 1 view -0
 202              		.cfi_startproc
 203              		@ args = 0, pretend = 0, frame = 0
 204              		@ frame_needed = 0, uses_anonymous_args = 0
 656:Middlewares/Third_Party/wolfSSL_wolfSSL_wolfSSL/wolfssl/wolfcrypt/src/hmac.c ****     int ret = 0;
 205              		.loc 1 656 5 view .LVU46
 657:Middlewares/Third_Party/wolfSSL_wolfSSL_wolfSSL/wolfssl/wolfcrypt/src/hmac.c **** 
 658:Middlewares/Third_Party/wolfSSL_wolfSSL_wolfSSL/wolfssl/wolfcrypt/src/hmac.c ****     if (hmac == NULL || (msg == NULL && length > 0)) {
 206              		.loc 1 658 5 view .LVU47
 207              		.loc 1 658 8 is_stmt 0 view .LVU48
 208 0000 F0B1     		cbz	r0, .L20
 655:Middlewares/Third_Party/wolfSSL_wolfSSL_wolfSSL/wolfssl/wolfcrypt/src/hmac.c ****     int ret = 0;
 209              		.loc 1 655 1 discriminator 1 view .LVU49
 210 0002 70B5     		push	{r4, r5, r6, lr}
 211              	.LCFI2:
 212              		.cfi_def_cfa_offset 16
 213              		.cfi_offset 4, -16
 214              		.cfi_offset 5, -12
 215              		.cfi_offset 6, -8
 216              		.cfi_offset 14, -4
 217 0004 0C46     		mov	r4, r1
 218 0006 1546     		mov	r5, r2
 219 0008 0646     		mov	r6, r0
 220              		.loc 1 658 22 discriminator 1 view .LVU50
 221 000a 41B1     		cbz	r1, .L27
 222              	.L18:
 659:Middlewares/Third_Party/wolfSSL_wolfSSL_wolfSSL/wolfssl/wolfcrypt/src/hmac.c ****         return BAD_FUNC_ARG;
 660:Middlewares/Third_Party/wolfSSL_wolfSSL_wolfSSL/wolfssl/wolfcrypt/src/hmac.c ****     }
 661:Middlewares/Third_Party/wolfSSL_wolfSSL_wolfSSL/wolfssl/wolfcrypt/src/hmac.c **** 
ARM GAS  /tmp/ccxfTf9S.s 			page 17


 662:Middlewares/Third_Party/wolfSSL_wolfSSL_wolfSSL/wolfssl/wolfcrypt/src/hmac.c **** #ifdef WOLF_CRYPTO_CB
 663:Middlewares/Third_Party/wolfSSL_wolfSSL_wolfSSL/wolfssl/wolfcrypt/src/hmac.c ****     if (hmac->devId != INVALID_DEVID) {
 664:Middlewares/Third_Party/wolfSSL_wolfSSL_wolfSSL/wolfssl/wolfcrypt/src/hmac.c ****         ret = wc_CryptoCb_Hmac(hmac, hmac->macType, msg, length, NULL);
 665:Middlewares/Third_Party/wolfSSL_wolfSSL_wolfSSL/wolfssl/wolfcrypt/src/hmac.c ****         if (ret != CRYPTOCB_UNAVAILABLE)
 666:Middlewares/Third_Party/wolfSSL_wolfSSL_wolfSSL/wolfssl/wolfcrypt/src/hmac.c ****             return ret;
 667:Middlewares/Third_Party/wolfSSL_wolfSSL_wolfSSL/wolfssl/wolfcrypt/src/hmac.c ****         /* fall-through when unavailable */
 668:Middlewares/Third_Party/wolfSSL_wolfSSL_wolfSSL/wolfssl/wolfcrypt/src/hmac.c ****         ret = 0; /* reset error code */
 669:Middlewares/Third_Party/wolfSSL_wolfSSL_wolfSSL/wolfssl/wolfcrypt/src/hmac.c ****     }
 670:Middlewares/Third_Party/wolfSSL_wolfSSL_wolfSSL/wolfssl/wolfcrypt/src/hmac.c **** #endif
 671:Middlewares/Third_Party/wolfSSL_wolfSSL_wolfSSL/wolfssl/wolfcrypt/src/hmac.c **** #if defined(WOLFSSL_ASYNC_CRYPT) && defined(WC_ASYNC_ENABLE_HMAC)
 672:Middlewares/Third_Party/wolfSSL_wolfSSL_wolfSSL/wolfssl/wolfcrypt/src/hmac.c ****     if (hmac->asyncDev.marker == WOLFSSL_ASYNC_MARKER_HMAC) {
 673:Middlewares/Third_Party/wolfSSL_wolfSSL_wolfSSL/wolfssl/wolfcrypt/src/hmac.c ****     #if defined(HAVE_CAVIUM)
 674:Middlewares/Third_Party/wolfSSL_wolfSSL_wolfSSL/wolfssl/wolfcrypt/src/hmac.c ****         return NitroxHmacUpdate(hmac, msg, length);
 675:Middlewares/Third_Party/wolfSSL_wolfSSL_wolfSSL/wolfssl/wolfcrypt/src/hmac.c ****     #elif defined(HAVE_INTEL_QA)
 676:Middlewares/Third_Party/wolfSSL_wolfSSL_wolfSSL/wolfssl/wolfcrypt/src/hmac.c ****         if (IntelQaHmacGetType(hmac->macType, NULL) == 0) {
 677:Middlewares/Third_Party/wolfSSL_wolfSSL_wolfSSL/wolfssl/wolfcrypt/src/hmac.c ****             return IntelQaHmac(&hmac->asyncDev, hmac->macType,
 678:Middlewares/Third_Party/wolfSSL_wolfSSL_wolfSSL/wolfssl/wolfcrypt/src/hmac.c ****                 (byte*)hmac->ipad, hmac->keyLen, NULL, msg, length);
 679:Middlewares/Third_Party/wolfSSL_wolfSSL_wolfSSL/wolfssl/wolfcrypt/src/hmac.c ****         }
 680:Middlewares/Third_Party/wolfSSL_wolfSSL_wolfSSL/wolfssl/wolfcrypt/src/hmac.c ****     #endif
 681:Middlewares/Third_Party/wolfSSL_wolfSSL_wolfSSL/wolfssl/wolfcrypt/src/hmac.c ****     }
 682:Middlewares/Third_Party/wolfSSL_wolfSSL_wolfSSL/wolfssl/wolfcrypt/src/hmac.c **** #endif /* WOLFSSL_ASYNC_CRYPT */
 683:Middlewares/Third_Party/wolfSSL_wolfSSL_wolfSSL/wolfssl/wolfcrypt/src/hmac.c **** 
 684:Middlewares/Third_Party/wolfSSL_wolfSSL_wolfSSL/wolfssl/wolfcrypt/src/hmac.c ****     if (!hmac->innerHashKeyed) {
 223              		.loc 1 684 5 is_stmt 1 view .LVU51
 224              		.loc 1 684 14 is_stmt 0 view .LVU52
 225 000c 96F81531 		ldrb	r3, [r6, #277]	@ zero_extendqisi2
 226              		.loc 1 684 8 view .LVU53
 227 0010 53B1     		cbz	r3, .L28
 656:Middlewares/Third_Party/wolfSSL_wolfSSL_wolfSSL/wolfssl/wolfcrypt/src/hmac.c **** 
 228              		.loc 1 656 9 view .LVU54
 229 0012 0020     		movs	r0, #0
 230              	.LVL17:
 231              	.L19:
 685:Middlewares/Third_Party/wolfSSL_wolfSSL_wolfSSL/wolfssl/wolfcrypt/src/hmac.c ****         ret = HmacKeyInnerHash(hmac);
 686:Middlewares/Third_Party/wolfSSL_wolfSSL_wolfSSL/wolfssl/wolfcrypt/src/hmac.c ****         if (ret != 0)
 687:Middlewares/Third_Party/wolfSSL_wolfSSL_wolfSSL/wolfssl/wolfcrypt/src/hmac.c ****             return ret;
 688:Middlewares/Third_Party/wolfSSL_wolfSSL_wolfSSL/wolfssl/wolfcrypt/src/hmac.c ****     }
 689:Middlewares/Third_Party/wolfSSL_wolfSSL_wolfSSL/wolfssl/wolfcrypt/src/hmac.c **** 
 690:Middlewares/Third_Party/wolfSSL_wolfSSL_wolfSSL/wolfssl/wolfcrypt/src/hmac.c ****     switch (hmac->macType) {
 232              		.loc 1 690 5 is_stmt 1 view .LVU55
 233              		.loc 1 690 17 is_stmt 0 view .LVU56
 234 0014 96F81431 		ldrb	r3, [r6, #276]	@ zero_extendqisi2
 235              		.loc 1 690 5 view .LVU57
 236 0018 062B     		cmp	r3, #6
 237 001a 0BD0     		beq	.L29
 238              	.LVL18:
 239              	.L16:
 691:Middlewares/Third_Party/wolfSSL_wolfSSL_wolfSSL/wolfssl/wolfcrypt/src/hmac.c ****     #ifndef NO_MD5
 692:Middlewares/Third_Party/wolfSSL_wolfSSL_wolfSSL/wolfssl/wolfcrypt/src/hmac.c ****         case WC_MD5:
 693:Middlewares/Third_Party/wolfSSL_wolfSSL_wolfSSL/wolfssl/wolfcrypt/src/hmac.c ****             ret = wc_Md5Update(&hmac->hash.md5, msg, length);
 694:Middlewares/Third_Party/wolfSSL_wolfSSL_wolfSSL/wolfssl/wolfcrypt/src/hmac.c ****             break;
 695:Middlewares/Third_Party/wolfSSL_wolfSSL_wolfSSL/wolfssl/wolfcrypt/src/hmac.c ****     #endif /* !NO_MD5 */
 696:Middlewares/Third_Party/wolfSSL_wolfSSL_wolfSSL/wolfssl/wolfcrypt/src/hmac.c **** 
 697:Middlewares/Third_Party/wolfSSL_wolfSSL_wolfSSL/wolfssl/wolfcrypt/src/hmac.c ****     #ifndef NO_SHA
 698:Middlewares/Third_Party/wolfSSL_wolfSSL_wolfSSL/wolfssl/wolfcrypt/src/hmac.c ****         case WC_SHA:
 699:Middlewares/Third_Party/wolfSSL_wolfSSL_wolfSSL/wolfssl/wolfcrypt/src/hmac.c ****             ret = wc_ShaUpdate(&hmac->hash.sha, msg, length);
 700:Middlewares/Third_Party/wolfSSL_wolfSSL_wolfSSL/wolfssl/wolfcrypt/src/hmac.c ****             break;
ARM GAS  /tmp/ccxfTf9S.s 			page 18


 701:Middlewares/Third_Party/wolfSSL_wolfSSL_wolfSSL/wolfssl/wolfcrypt/src/hmac.c ****     #endif /* !NO_SHA */
 702:Middlewares/Third_Party/wolfSSL_wolfSSL_wolfSSL/wolfssl/wolfcrypt/src/hmac.c **** 
 703:Middlewares/Third_Party/wolfSSL_wolfSSL_wolfSSL/wolfssl/wolfcrypt/src/hmac.c ****     #ifdef WOLFSSL_SHA224
 704:Middlewares/Third_Party/wolfSSL_wolfSSL_wolfSSL/wolfssl/wolfcrypt/src/hmac.c ****         case WC_SHA224:
 705:Middlewares/Third_Party/wolfSSL_wolfSSL_wolfSSL/wolfssl/wolfcrypt/src/hmac.c ****             ret = wc_Sha224Update(&hmac->hash.sha224, msg, length);
 706:Middlewares/Third_Party/wolfSSL_wolfSSL_wolfSSL/wolfssl/wolfcrypt/src/hmac.c ****             break;
 707:Middlewares/Third_Party/wolfSSL_wolfSSL_wolfSSL/wolfssl/wolfcrypt/src/hmac.c ****     #endif /* WOLFSSL_SHA224 */
 708:Middlewares/Third_Party/wolfSSL_wolfSSL_wolfSSL/wolfssl/wolfcrypt/src/hmac.c **** 
 709:Middlewares/Third_Party/wolfSSL_wolfSSL_wolfSSL/wolfssl/wolfcrypt/src/hmac.c ****     #ifndef NO_SHA256
 710:Middlewares/Third_Party/wolfSSL_wolfSSL_wolfSSL/wolfssl/wolfcrypt/src/hmac.c ****         case WC_SHA256:
 711:Middlewares/Third_Party/wolfSSL_wolfSSL_wolfSSL/wolfssl/wolfcrypt/src/hmac.c ****             ret = wc_Sha256Update(&hmac->hash.sha256, msg, length);
 712:Middlewares/Third_Party/wolfSSL_wolfSSL_wolfSSL/wolfssl/wolfcrypt/src/hmac.c ****             break;
 713:Middlewares/Third_Party/wolfSSL_wolfSSL_wolfSSL/wolfssl/wolfcrypt/src/hmac.c ****     #endif /* !NO_SHA256 */
 714:Middlewares/Third_Party/wolfSSL_wolfSSL_wolfSSL/wolfssl/wolfcrypt/src/hmac.c **** 
 715:Middlewares/Third_Party/wolfSSL_wolfSSL_wolfSSL/wolfssl/wolfcrypt/src/hmac.c ****     #ifdef WOLFSSL_SHA384
 716:Middlewares/Third_Party/wolfSSL_wolfSSL_wolfSSL/wolfssl/wolfcrypt/src/hmac.c ****         case WC_SHA384:
 717:Middlewares/Third_Party/wolfSSL_wolfSSL_wolfSSL/wolfssl/wolfcrypt/src/hmac.c ****             ret = wc_Sha384Update(&hmac->hash.sha384, msg, length);
 718:Middlewares/Third_Party/wolfSSL_wolfSSL_wolfSSL/wolfssl/wolfcrypt/src/hmac.c ****             break;
 719:Middlewares/Third_Party/wolfSSL_wolfSSL_wolfSSL/wolfssl/wolfcrypt/src/hmac.c ****     #endif /* WOLFSSL_SHA384 */
 720:Middlewares/Third_Party/wolfSSL_wolfSSL_wolfSSL/wolfssl/wolfcrypt/src/hmac.c ****     #ifdef WOLFSSL_SHA512
 721:Middlewares/Third_Party/wolfSSL_wolfSSL_wolfSSL/wolfssl/wolfcrypt/src/hmac.c ****         case WC_SHA512:
 722:Middlewares/Third_Party/wolfSSL_wolfSSL_wolfSSL/wolfssl/wolfcrypt/src/hmac.c ****             ret = wc_Sha512Update(&hmac->hash.sha512, msg, length);
 723:Middlewares/Third_Party/wolfSSL_wolfSSL_wolfSSL/wolfssl/wolfcrypt/src/hmac.c ****             break;
 724:Middlewares/Third_Party/wolfSSL_wolfSSL_wolfSSL/wolfssl/wolfcrypt/src/hmac.c ****     #endif /* WOLFSSL_SHA512 */
 725:Middlewares/Third_Party/wolfSSL_wolfSSL_wolfSSL/wolfssl/wolfcrypt/src/hmac.c **** 
 726:Middlewares/Third_Party/wolfSSL_wolfSSL_wolfSSL/wolfssl/wolfcrypt/src/hmac.c ****     #ifdef WOLFSSL_SHA3
 727:Middlewares/Third_Party/wolfSSL_wolfSSL_wolfSSL/wolfssl/wolfcrypt/src/hmac.c ****     #ifndef WOLFSSL_NOSHA3_224
 728:Middlewares/Third_Party/wolfSSL_wolfSSL_wolfSSL/wolfssl/wolfcrypt/src/hmac.c ****         case WC_SHA3_224:
 729:Middlewares/Third_Party/wolfSSL_wolfSSL_wolfSSL/wolfssl/wolfcrypt/src/hmac.c ****             ret = wc_Sha3_224_Update(&hmac->hash.sha3, msg, length);
 730:Middlewares/Third_Party/wolfSSL_wolfSSL_wolfSSL/wolfssl/wolfcrypt/src/hmac.c ****             break;
 731:Middlewares/Third_Party/wolfSSL_wolfSSL_wolfSSL/wolfssl/wolfcrypt/src/hmac.c ****     #endif
 732:Middlewares/Third_Party/wolfSSL_wolfSSL_wolfSSL/wolfssl/wolfcrypt/src/hmac.c ****     #ifndef WOLFSSL_NOSHA3_256
 733:Middlewares/Third_Party/wolfSSL_wolfSSL_wolfSSL/wolfssl/wolfcrypt/src/hmac.c ****         case WC_SHA3_256:
 734:Middlewares/Third_Party/wolfSSL_wolfSSL_wolfSSL/wolfssl/wolfcrypt/src/hmac.c ****             ret = wc_Sha3_256_Update(&hmac->hash.sha3, msg, length);
 735:Middlewares/Third_Party/wolfSSL_wolfSSL_wolfSSL/wolfssl/wolfcrypt/src/hmac.c ****             break;
 736:Middlewares/Third_Party/wolfSSL_wolfSSL_wolfSSL/wolfssl/wolfcrypt/src/hmac.c ****     #endif
 737:Middlewares/Third_Party/wolfSSL_wolfSSL_wolfSSL/wolfssl/wolfcrypt/src/hmac.c ****     #ifndef WOLFSSL_NOSHA3_384
 738:Middlewares/Third_Party/wolfSSL_wolfSSL_wolfSSL/wolfssl/wolfcrypt/src/hmac.c ****         case WC_SHA3_384:
 739:Middlewares/Third_Party/wolfSSL_wolfSSL_wolfSSL/wolfssl/wolfcrypt/src/hmac.c ****             ret = wc_Sha3_384_Update(&hmac->hash.sha3, msg, length);
 740:Middlewares/Third_Party/wolfSSL_wolfSSL_wolfSSL/wolfssl/wolfcrypt/src/hmac.c ****             break;
 741:Middlewares/Third_Party/wolfSSL_wolfSSL_wolfSSL/wolfssl/wolfcrypt/src/hmac.c ****     #endif
 742:Middlewares/Third_Party/wolfSSL_wolfSSL_wolfSSL/wolfssl/wolfcrypt/src/hmac.c ****     #ifndef WOLFSSL_NOSHA3_512
 743:Middlewares/Third_Party/wolfSSL_wolfSSL_wolfSSL/wolfssl/wolfcrypt/src/hmac.c ****         case WC_SHA3_512:
 744:Middlewares/Third_Party/wolfSSL_wolfSSL_wolfSSL/wolfssl/wolfcrypt/src/hmac.c ****             ret = wc_Sha3_512_Update(&hmac->hash.sha3, msg, length);
 745:Middlewares/Third_Party/wolfSSL_wolfSSL_wolfSSL/wolfssl/wolfcrypt/src/hmac.c ****             break;
 746:Middlewares/Third_Party/wolfSSL_wolfSSL_wolfSSL/wolfssl/wolfcrypt/src/hmac.c ****     #endif
 747:Middlewares/Third_Party/wolfSSL_wolfSSL_wolfSSL/wolfssl/wolfcrypt/src/hmac.c ****     #endif /* WOLFSSL_SHA3 */
 748:Middlewares/Third_Party/wolfSSL_wolfSSL_wolfSSL/wolfssl/wolfcrypt/src/hmac.c **** 
 749:Middlewares/Third_Party/wolfSSL_wolfSSL_wolfSSL/wolfssl/wolfcrypt/src/hmac.c ****         default:
 750:Middlewares/Third_Party/wolfSSL_wolfSSL_wolfSSL/wolfssl/wolfcrypt/src/hmac.c ****             break;
 751:Middlewares/Third_Party/wolfSSL_wolfSSL_wolfSSL/wolfssl/wolfcrypt/src/hmac.c ****     }
 752:Middlewares/Third_Party/wolfSSL_wolfSSL_wolfSSL/wolfssl/wolfcrypt/src/hmac.c **** 
 753:Middlewares/Third_Party/wolfSSL_wolfSSL_wolfSSL/wolfssl/wolfcrypt/src/hmac.c ****     return ret;
 754:Middlewares/Third_Party/wolfSSL_wolfSSL_wolfSSL/wolfssl/wolfcrypt/src/hmac.c **** }
 240              		.loc 1 754 1 view .LVU58
 241 001c 70BD     		pop	{r4, r5, r6, pc}
 242              	.LVL19:
ARM GAS  /tmp/ccxfTf9S.s 			page 19


 243              	.L27:
 658:Middlewares/Third_Party/wolfSSL_wolfSSL_wolfSSL/wolfssl/wolfcrypt/src/hmac.c ****         return BAD_FUNC_ARG;
 244              		.loc 1 658 38 discriminator 2 view .LVU59
 245 001e 002A     		cmp	r2, #0
 246 0020 F4D0     		beq	.L18
 659:Middlewares/Third_Party/wolfSSL_wolfSSL_wolfSSL/wolfssl/wolfcrypt/src/hmac.c ****     }
 247              		.loc 1 659 16 view .LVU60
 248 0022 6FF0AC00 		mvn	r0, #172
 249              	.LVL20:
 659:Middlewares/Third_Party/wolfSSL_wolfSSL_wolfSSL/wolfssl/wolfcrypt/src/hmac.c ****     }
 250              		.loc 1 659 16 view .LVU61
 251 0026 F9E7     		b	.L16
 252              	.LVL21:
 253              	.L28:
 685:Middlewares/Third_Party/wolfSSL_wolfSSL_wolfSSL/wolfssl/wolfcrypt/src/hmac.c ****         if (ret != 0)
 254              		.loc 1 685 9 is_stmt 1 view .LVU62
 685:Middlewares/Third_Party/wolfSSL_wolfSSL_wolfSSL/wolfssl/wolfcrypt/src/hmac.c ****         if (ret != 0)
 255              		.loc 1 685 15 is_stmt 0 view .LVU63
 256 0028 3046     		mov	r0, r6
 257              	.LVL22:
 685:Middlewares/Third_Party/wolfSSL_wolfSSL_wolfSSL/wolfssl/wolfcrypt/src/hmac.c ****         if (ret != 0)
 258              		.loc 1 685 15 view .LVU64
 259 002a FFF7FEFF 		bl	HmacKeyInnerHash
 260              	.LVL23:
 686:Middlewares/Third_Party/wolfSSL_wolfSSL_wolfSSL/wolfssl/wolfcrypt/src/hmac.c ****             return ret;
 261              		.loc 1 686 9 is_stmt 1 view .LVU65
 686:Middlewares/Third_Party/wolfSSL_wolfSSL_wolfSSL/wolfssl/wolfcrypt/src/hmac.c ****             return ret;
 262              		.loc 1 686 12 is_stmt 0 view .LVU66
 263 002e 0028     		cmp	r0, #0
 264 0030 F0D0     		beq	.L19
 265 0032 F3E7     		b	.L16
 266              	.L29:
 711:Middlewares/Third_Party/wolfSSL_wolfSSL_wolfSSL/wolfssl/wolfcrypt/src/hmac.c ****             break;
 267              		.loc 1 711 13 is_stmt 1 view .LVU67
 711:Middlewares/Third_Party/wolfSSL_wolfSSL_wolfSSL/wolfssl/wolfcrypt/src/hmac.c ****             break;
 268              		.loc 1 711 19 is_stmt 0 view .LVU68
 269 0034 2A46     		mov	r2, r5
 270 0036 2146     		mov	r1, r4
 271 0038 3046     		mov	r0, r6
 272              	.LVL24:
 711:Middlewares/Third_Party/wolfSSL_wolfSSL_wolfSSL/wolfssl/wolfcrypt/src/hmac.c ****             break;
 273              		.loc 1 711 19 view .LVU69
 274 003a FFF7FEFF 		bl	wc_Sha256Update
 275              	.LVL25:
 712:Middlewares/Third_Party/wolfSSL_wolfSSL_wolfSSL/wolfssl/wolfcrypt/src/hmac.c ****     #endif /* !NO_SHA256 */
 276              		.loc 1 712 13 is_stmt 1 view .LVU70
 277 003e EDE7     		b	.L16
 278              	.LVL26:
 279              	.L20:
 280              	.LCFI3:
 281              		.cfi_def_cfa_offset 0
 282              		.cfi_restore 4
 283              		.cfi_restore 5
 284              		.cfi_restore 6
 285              		.cfi_restore 14
 659:Middlewares/Third_Party/wolfSSL_wolfSSL_wolfSSL/wolfssl/wolfcrypt/src/hmac.c ****     }
 286              		.loc 1 659 16 is_stmt 0 view .LVU71
ARM GAS  /tmp/ccxfTf9S.s 			page 20


 287 0040 6FF0AC00 		mvn	r0, #172
 288              	.LVL27:
 289              		.loc 1 754 1 view .LVU72
 290 0044 7047     		bx	lr
 291              		.cfi_endproc
 292              	.LFE179:
 294              		.section	.text.wc_HmacFinal,"ax",%progbits
 295              		.align	1
 296              		.global	wc_HmacFinal
 297              		.syntax unified
 298              		.thumb
 299              		.thumb_func
 300              		.fpu fpv4-sp-d16
 302              	wc_HmacFinal:
 303              	.LVL28:
 304              	.LFB180:
 755:Middlewares/Third_Party/wolfSSL_wolfSSL_wolfSSL/wolfssl/wolfcrypt/src/hmac.c **** 
 756:Middlewares/Third_Party/wolfSSL_wolfSSL_wolfSSL/wolfssl/wolfcrypt/src/hmac.c **** 
 757:Middlewares/Third_Party/wolfSSL_wolfSSL_wolfSSL/wolfssl/wolfcrypt/src/hmac.c **** int wc_HmacFinal(Hmac* hmac, byte* hash)
 758:Middlewares/Third_Party/wolfSSL_wolfSSL_wolfSSL/wolfssl/wolfcrypt/src/hmac.c **** {
 305              		.loc 1 758 1 is_stmt 1 view -0
 306              		.cfi_startproc
 307              		@ args = 0, pretend = 0, frame = 0
 308              		@ frame_needed = 0, uses_anonymous_args = 0
 759:Middlewares/Third_Party/wolfSSL_wolfSSL_wolfSSL/wolfssl/wolfcrypt/src/hmac.c ****     int ret;
 309              		.loc 1 759 5 view .LVU74
 760:Middlewares/Third_Party/wolfSSL_wolfSSL_wolfSSL/wolfssl/wolfcrypt/src/hmac.c **** 
 761:Middlewares/Third_Party/wolfSSL_wolfSSL_wolfSSL/wolfssl/wolfcrypt/src/hmac.c ****     if (hmac == NULL || hash == NULL) {
 310              		.loc 1 761 5 view .LVU75
 311              		.loc 1 761 8 is_stmt 0 view .LVU76
 312 0000 A8B3     		cbz	r0, .L34
 758:Middlewares/Third_Party/wolfSSL_wolfSSL_wolfSSL/wolfssl/wolfcrypt/src/hmac.c ****     int ret;
 313              		.loc 1 758 1 discriminator 1 view .LVU77
 314 0002 70B5     		push	{r4, r5, r6, lr}
 315              	.LCFI4:
 316              		.cfi_def_cfa_offset 16
 317              		.cfi_offset 4, -16
 318              		.cfi_offset 5, -12
 319              		.cfi_offset 6, -8
 320              		.cfi_offset 14, -4
 321 0004 0D46     		mov	r5, r1
 322 0006 0446     		mov	r4, r0
 323              		.loc 1 761 22 discriminator 1 view .LVU78
 324 0008 A9B3     		cbz	r1, .L35
 762:Middlewares/Third_Party/wolfSSL_wolfSSL_wolfSSL/wolfssl/wolfcrypt/src/hmac.c ****         return BAD_FUNC_ARG;
 763:Middlewares/Third_Party/wolfSSL_wolfSSL_wolfSSL/wolfssl/wolfcrypt/src/hmac.c ****     }
 764:Middlewares/Third_Party/wolfSSL_wolfSSL_wolfSSL/wolfssl/wolfcrypt/src/hmac.c **** 
 765:Middlewares/Third_Party/wolfSSL_wolfSSL_wolfSSL/wolfssl/wolfcrypt/src/hmac.c **** #ifdef WOLF_CRYPTO_CB
 766:Middlewares/Third_Party/wolfSSL_wolfSSL_wolfSSL/wolfssl/wolfcrypt/src/hmac.c ****     if (hmac->devId != INVALID_DEVID) {
 767:Middlewares/Third_Party/wolfSSL_wolfSSL_wolfSSL/wolfssl/wolfcrypt/src/hmac.c ****         ret = wc_CryptoCb_Hmac(hmac, hmac->macType, NULL, 0, hash);
 768:Middlewares/Third_Party/wolfSSL_wolfSSL_wolfSSL/wolfssl/wolfcrypt/src/hmac.c ****         if (ret != CRYPTOCB_UNAVAILABLE)
 769:Middlewares/Third_Party/wolfSSL_wolfSSL_wolfSSL/wolfssl/wolfcrypt/src/hmac.c ****             return ret;
 770:Middlewares/Third_Party/wolfSSL_wolfSSL_wolfSSL/wolfssl/wolfcrypt/src/hmac.c ****         /* fall-through when unavailable */
 771:Middlewares/Third_Party/wolfSSL_wolfSSL_wolfSSL/wolfssl/wolfcrypt/src/hmac.c ****     }
 772:Middlewares/Third_Party/wolfSSL_wolfSSL_wolfSSL/wolfssl/wolfcrypt/src/hmac.c **** #endif
 773:Middlewares/Third_Party/wolfSSL_wolfSSL_wolfSSL/wolfssl/wolfcrypt/src/hmac.c **** #if defined(WOLFSSL_ASYNC_CRYPT) && defined(WC_ASYNC_ENABLE_HMAC)
 774:Middlewares/Third_Party/wolfSSL_wolfSSL_wolfSSL/wolfssl/wolfcrypt/src/hmac.c ****     if (hmac->asyncDev.marker == WOLFSSL_ASYNC_MARKER_HMAC) {
ARM GAS  /tmp/ccxfTf9S.s 			page 21


 775:Middlewares/Third_Party/wolfSSL_wolfSSL_wolfSSL/wolfssl/wolfcrypt/src/hmac.c ****         int hashLen = wc_HmacSizeByType(hmac->macType);
 776:Middlewares/Third_Party/wolfSSL_wolfSSL_wolfSSL/wolfssl/wolfcrypt/src/hmac.c ****         if (hashLen <= 0)
 777:Middlewares/Third_Party/wolfSSL_wolfSSL_wolfSSL/wolfssl/wolfcrypt/src/hmac.c ****             return hashLen;
 778:Middlewares/Third_Party/wolfSSL_wolfSSL_wolfSSL/wolfssl/wolfcrypt/src/hmac.c **** 
 779:Middlewares/Third_Party/wolfSSL_wolfSSL_wolfSSL/wolfssl/wolfcrypt/src/hmac.c ****     #if defined(HAVE_CAVIUM)
 780:Middlewares/Third_Party/wolfSSL_wolfSSL_wolfSSL/wolfssl/wolfcrypt/src/hmac.c ****         return NitroxHmacFinal(hmac, hash, hashLen);
 781:Middlewares/Third_Party/wolfSSL_wolfSSL_wolfSSL/wolfssl/wolfcrypt/src/hmac.c ****     #elif defined(HAVE_INTEL_QA)
 782:Middlewares/Third_Party/wolfSSL_wolfSSL_wolfSSL/wolfssl/wolfcrypt/src/hmac.c ****         if (IntelQaHmacGetType(hmac->macType, NULL) == 0) {
 783:Middlewares/Third_Party/wolfSSL_wolfSSL_wolfSSL/wolfssl/wolfcrypt/src/hmac.c ****             return IntelQaHmac(&hmac->asyncDev, hmac->macType,
 784:Middlewares/Third_Party/wolfSSL_wolfSSL_wolfSSL/wolfssl/wolfcrypt/src/hmac.c ****                 (byte*)hmac->ipad, hmac->keyLen, hash, NULL, hashLen);
 785:Middlewares/Third_Party/wolfSSL_wolfSSL_wolfSSL/wolfssl/wolfcrypt/src/hmac.c ****         }
 786:Middlewares/Third_Party/wolfSSL_wolfSSL_wolfSSL/wolfssl/wolfcrypt/src/hmac.c ****     #endif
 787:Middlewares/Third_Party/wolfSSL_wolfSSL_wolfSSL/wolfssl/wolfcrypt/src/hmac.c ****     }
 788:Middlewares/Third_Party/wolfSSL_wolfSSL_wolfSSL/wolfssl/wolfcrypt/src/hmac.c **** #endif /* WOLFSSL_ASYNC_CRYPT */
 789:Middlewares/Third_Party/wolfSSL_wolfSSL_wolfSSL/wolfssl/wolfcrypt/src/hmac.c **** 
 790:Middlewares/Third_Party/wolfSSL_wolfSSL_wolfSSL/wolfssl/wolfcrypt/src/hmac.c ****     if (!hmac->innerHashKeyed) {
 325              		.loc 1 790 5 is_stmt 1 view .LVU79
 326              		.loc 1 790 14 is_stmt 0 view .LVU80
 327 000a 90F81531 		ldrb	r3, [r0, #277]	@ zero_extendqisi2
 328              		.loc 1 790 8 view .LVU81
 329 000e 8BB1     		cbz	r3, .L41
 330              	.LVL29:
 331              	.L32:
 791:Middlewares/Third_Party/wolfSSL_wolfSSL_wolfSSL/wolfssl/wolfcrypt/src/hmac.c ****         ret = HmacKeyInnerHash(hmac);
 792:Middlewares/Third_Party/wolfSSL_wolfSSL_wolfSSL/wolfssl/wolfcrypt/src/hmac.c ****         if (ret != 0)
 793:Middlewares/Third_Party/wolfSSL_wolfSSL_wolfSSL/wolfssl/wolfcrypt/src/hmac.c ****             return ret;
 794:Middlewares/Third_Party/wolfSSL_wolfSSL_wolfSSL/wolfssl/wolfcrypt/src/hmac.c ****     }
 795:Middlewares/Third_Party/wolfSSL_wolfSSL_wolfSSL/wolfssl/wolfcrypt/src/hmac.c **** 
 796:Middlewares/Third_Party/wolfSSL_wolfSSL_wolfSSL/wolfssl/wolfcrypt/src/hmac.c ****     switch (hmac->macType) {
 332              		.loc 1 796 5 is_stmt 1 view .LVU82
 333              		.loc 1 796 17 is_stmt 0 view .LVU83
 334 0010 94F81431 		ldrb	r3, [r4, #276]	@ zero_extendqisi2
 335              		.loc 1 796 5 view .LVU84
 336 0014 062B     		cmp	r3, #6
 337 0016 31D1     		bne	.L36
 797:Middlewares/Third_Party/wolfSSL_wolfSSL_wolfSSL/wolfssl/wolfcrypt/src/hmac.c ****     #ifndef NO_MD5
 798:Middlewares/Third_Party/wolfSSL_wolfSSL_wolfSSL/wolfssl/wolfcrypt/src/hmac.c ****         case WC_MD5:
 799:Middlewares/Third_Party/wolfSSL_wolfSSL_wolfSSL/wolfssl/wolfcrypt/src/hmac.c ****             ret = wc_Md5Final(&hmac->hash.md5, (byte*)hmac->innerHash);
 800:Middlewares/Third_Party/wolfSSL_wolfSSL_wolfSSL/wolfssl/wolfcrypt/src/hmac.c ****             if (ret != 0)
 801:Middlewares/Third_Party/wolfSSL_wolfSSL_wolfSSL/wolfssl/wolfcrypt/src/hmac.c ****                 break;
 802:Middlewares/Third_Party/wolfSSL_wolfSSL_wolfSSL/wolfssl/wolfcrypt/src/hmac.c ****             ret = wc_Md5Update(&hmac->hash.md5, (byte*)hmac->opad,
 803:Middlewares/Third_Party/wolfSSL_wolfSSL_wolfSSL/wolfssl/wolfcrypt/src/hmac.c ****                                                              WC_MD5_BLOCK_SIZE);
 804:Middlewares/Third_Party/wolfSSL_wolfSSL_wolfSSL/wolfssl/wolfcrypt/src/hmac.c ****             if (ret != 0)
 805:Middlewares/Third_Party/wolfSSL_wolfSSL_wolfSSL/wolfssl/wolfcrypt/src/hmac.c ****                 break;
 806:Middlewares/Third_Party/wolfSSL_wolfSSL_wolfSSL/wolfssl/wolfcrypt/src/hmac.c ****             ret = wc_Md5Update(&hmac->hash.md5, (byte*)hmac->innerHash,
 807:Middlewares/Third_Party/wolfSSL_wolfSSL_wolfSSL/wolfssl/wolfcrypt/src/hmac.c ****                                                             WC_MD5_DIGEST_SIZE);
 808:Middlewares/Third_Party/wolfSSL_wolfSSL_wolfSSL/wolfssl/wolfcrypt/src/hmac.c ****             if (ret != 0)
 809:Middlewares/Third_Party/wolfSSL_wolfSSL_wolfSSL/wolfssl/wolfcrypt/src/hmac.c ****                 break;
 810:Middlewares/Third_Party/wolfSSL_wolfSSL_wolfSSL/wolfssl/wolfcrypt/src/hmac.c ****             ret = wc_Md5Final(&hmac->hash.md5, hash);
 811:Middlewares/Third_Party/wolfSSL_wolfSSL_wolfSSL/wolfssl/wolfcrypt/src/hmac.c ****             break;
 812:Middlewares/Third_Party/wolfSSL_wolfSSL_wolfSSL/wolfssl/wolfcrypt/src/hmac.c ****     #endif /* !NO_MD5 */
 813:Middlewares/Third_Party/wolfSSL_wolfSSL_wolfSSL/wolfssl/wolfcrypt/src/hmac.c **** 
 814:Middlewares/Third_Party/wolfSSL_wolfSSL_wolfSSL/wolfssl/wolfcrypt/src/hmac.c ****     #ifndef NO_SHA
 815:Middlewares/Third_Party/wolfSSL_wolfSSL_wolfSSL/wolfssl/wolfcrypt/src/hmac.c ****         case WC_SHA:
 816:Middlewares/Third_Party/wolfSSL_wolfSSL_wolfSSL/wolfssl/wolfcrypt/src/hmac.c ****             ret = wc_ShaFinal(&hmac->hash.sha, (byte*)hmac->innerHash);
 817:Middlewares/Third_Party/wolfSSL_wolfSSL_wolfSSL/wolfssl/wolfcrypt/src/hmac.c ****             if (ret != 0)
 818:Middlewares/Third_Party/wolfSSL_wolfSSL_wolfSSL/wolfssl/wolfcrypt/src/hmac.c ****                 break;
ARM GAS  /tmp/ccxfTf9S.s 			page 22


 819:Middlewares/Third_Party/wolfSSL_wolfSSL_wolfSSL/wolfssl/wolfcrypt/src/hmac.c ****             ret = wc_ShaUpdate(&hmac->hash.sha, (byte*)hmac->opad,
 820:Middlewares/Third_Party/wolfSSL_wolfSSL_wolfSSL/wolfssl/wolfcrypt/src/hmac.c ****                                                              WC_SHA_BLOCK_SIZE);
 821:Middlewares/Third_Party/wolfSSL_wolfSSL_wolfSSL/wolfssl/wolfcrypt/src/hmac.c ****             if (ret != 0)
 822:Middlewares/Third_Party/wolfSSL_wolfSSL_wolfSSL/wolfssl/wolfcrypt/src/hmac.c ****                 break;
 823:Middlewares/Third_Party/wolfSSL_wolfSSL_wolfSSL/wolfssl/wolfcrypt/src/hmac.c ****             ret = wc_ShaUpdate(&hmac->hash.sha, (byte*)hmac->innerHash,
 824:Middlewares/Third_Party/wolfSSL_wolfSSL_wolfSSL/wolfssl/wolfcrypt/src/hmac.c ****                                                             WC_SHA_DIGEST_SIZE);
 825:Middlewares/Third_Party/wolfSSL_wolfSSL_wolfSSL/wolfssl/wolfcrypt/src/hmac.c ****             if (ret != 0)
 826:Middlewares/Third_Party/wolfSSL_wolfSSL_wolfSSL/wolfssl/wolfcrypt/src/hmac.c ****                 break;
 827:Middlewares/Third_Party/wolfSSL_wolfSSL_wolfSSL/wolfssl/wolfcrypt/src/hmac.c ****             ret = wc_ShaFinal(&hmac->hash.sha, hash);
 828:Middlewares/Third_Party/wolfSSL_wolfSSL_wolfSSL/wolfssl/wolfcrypt/src/hmac.c ****             break;
 829:Middlewares/Third_Party/wolfSSL_wolfSSL_wolfSSL/wolfssl/wolfcrypt/src/hmac.c ****     #endif /* !NO_SHA */
 830:Middlewares/Third_Party/wolfSSL_wolfSSL_wolfSSL/wolfssl/wolfcrypt/src/hmac.c **** 
 831:Middlewares/Third_Party/wolfSSL_wolfSSL_wolfSSL/wolfssl/wolfcrypt/src/hmac.c ****     #ifdef WOLFSSL_SHA224
 832:Middlewares/Third_Party/wolfSSL_wolfSSL_wolfSSL/wolfssl/wolfcrypt/src/hmac.c ****         case WC_SHA224:
 833:Middlewares/Third_Party/wolfSSL_wolfSSL_wolfSSL/wolfssl/wolfcrypt/src/hmac.c ****             ret = wc_Sha224Final(&hmac->hash.sha224, (byte*)hmac->innerHash);
 834:Middlewares/Third_Party/wolfSSL_wolfSSL_wolfSSL/wolfssl/wolfcrypt/src/hmac.c ****             if (ret != 0)
 835:Middlewares/Third_Party/wolfSSL_wolfSSL_wolfSSL/wolfssl/wolfcrypt/src/hmac.c ****                 break;
 836:Middlewares/Third_Party/wolfSSL_wolfSSL_wolfSSL/wolfssl/wolfcrypt/src/hmac.c ****             ret = wc_Sha224Update(&hmac->hash.sha224, (byte*)hmac->opad,
 837:Middlewares/Third_Party/wolfSSL_wolfSSL_wolfSSL/wolfssl/wolfcrypt/src/hmac.c ****                                                           WC_SHA224_BLOCK_SIZE);
 838:Middlewares/Third_Party/wolfSSL_wolfSSL_wolfSSL/wolfssl/wolfcrypt/src/hmac.c ****             if (ret != 0)
 839:Middlewares/Third_Party/wolfSSL_wolfSSL_wolfSSL/wolfssl/wolfcrypt/src/hmac.c ****                 break;
 840:Middlewares/Third_Party/wolfSSL_wolfSSL_wolfSSL/wolfssl/wolfcrypt/src/hmac.c ****             ret = wc_Sha224Update(&hmac->hash.sha224, (byte*)hmac->innerHash,
 841:Middlewares/Third_Party/wolfSSL_wolfSSL_wolfSSL/wolfssl/wolfcrypt/src/hmac.c ****                                                          WC_SHA224_DIGEST_SIZE);
 842:Middlewares/Third_Party/wolfSSL_wolfSSL_wolfSSL/wolfssl/wolfcrypt/src/hmac.c ****             if (ret != 0)
 843:Middlewares/Third_Party/wolfSSL_wolfSSL_wolfSSL/wolfssl/wolfcrypt/src/hmac.c ****                 break;
 844:Middlewares/Third_Party/wolfSSL_wolfSSL_wolfSSL/wolfssl/wolfcrypt/src/hmac.c ****             ret = wc_Sha224Final(&hmac->hash.sha224, hash);
 845:Middlewares/Third_Party/wolfSSL_wolfSSL_wolfSSL/wolfssl/wolfcrypt/src/hmac.c ****             if (ret != 0)
 846:Middlewares/Third_Party/wolfSSL_wolfSSL_wolfSSL/wolfssl/wolfcrypt/src/hmac.c ****                 break;
 847:Middlewares/Third_Party/wolfSSL_wolfSSL_wolfSSL/wolfssl/wolfcrypt/src/hmac.c ****             break;
 848:Middlewares/Third_Party/wolfSSL_wolfSSL_wolfSSL/wolfssl/wolfcrypt/src/hmac.c ****     #endif /* WOLFSSL_SHA224 */
 849:Middlewares/Third_Party/wolfSSL_wolfSSL_wolfSSL/wolfssl/wolfcrypt/src/hmac.c ****     #ifndef NO_SHA256
 850:Middlewares/Third_Party/wolfSSL_wolfSSL_wolfSSL/wolfssl/wolfcrypt/src/hmac.c ****         case WC_SHA256:
 851:Middlewares/Third_Party/wolfSSL_wolfSSL_wolfSSL/wolfssl/wolfcrypt/src/hmac.c ****             ret = wc_Sha256Final(&hmac->hash.sha256, (byte*)hmac->innerHash);
 338              		.loc 1 851 13 is_stmt 1 view .LVU85
 339              		.loc 1 851 61 is_stmt 0 view .LVU86
 340 0018 04F1F006 		add	r6, r4, #240
 341              		.loc 1 851 19 view .LVU87
 342 001c 3146     		mov	r1, r6
 343 001e 2046     		mov	r0, r4
 344 0020 FFF7FEFF 		bl	wc_Sha256Final
 345              	.LVL30:
 852:Middlewares/Third_Party/wolfSSL_wolfSSL_wolfSSL/wolfssl/wolfcrypt/src/hmac.c ****             if (ret != 0)
 346              		.loc 1 852 13 is_stmt 1 view .LVU88
 347              		.loc 1 852 16 is_stmt 0 view .LVU89
 348 0024 0346     		mov	r3, r0
 349 0026 58B1     		cbz	r0, .L42
 350              	.L33:
 853:Middlewares/Third_Party/wolfSSL_wolfSSL_wolfSSL/wolfssl/wolfcrypt/src/hmac.c ****                 break;
 854:Middlewares/Third_Party/wolfSSL_wolfSSL_wolfSSL/wolfssl/wolfcrypt/src/hmac.c ****             ret = wc_Sha256Update(&hmac->hash.sha256, (byte*)hmac->opad,
 855:Middlewares/Third_Party/wolfSSL_wolfSSL_wolfSSL/wolfssl/wolfcrypt/src/hmac.c ****                                                           WC_SHA256_BLOCK_SIZE);
 856:Middlewares/Third_Party/wolfSSL_wolfSSL_wolfSSL/wolfssl/wolfcrypt/src/hmac.c ****             if (ret != 0)
 857:Middlewares/Third_Party/wolfSSL_wolfSSL_wolfSSL/wolfssl/wolfcrypt/src/hmac.c ****                 break;
 858:Middlewares/Third_Party/wolfSSL_wolfSSL_wolfSSL/wolfssl/wolfcrypt/src/hmac.c ****             ret = wc_Sha256Update(&hmac->hash.sha256, (byte*)hmac->innerHash,
 859:Middlewares/Third_Party/wolfSSL_wolfSSL_wolfSSL/wolfssl/wolfcrypt/src/hmac.c ****                                                          WC_SHA256_DIGEST_SIZE);
 860:Middlewares/Third_Party/wolfSSL_wolfSSL_wolfSSL/wolfssl/wolfcrypt/src/hmac.c ****             if (ret != 0)
 861:Middlewares/Third_Party/wolfSSL_wolfSSL_wolfSSL/wolfssl/wolfcrypt/src/hmac.c ****                 break;
 862:Middlewares/Third_Party/wolfSSL_wolfSSL_wolfSSL/wolfssl/wolfcrypt/src/hmac.c ****             ret = wc_Sha256Final(&hmac->hash.sha256, hash);
ARM GAS  /tmp/ccxfTf9S.s 			page 23


 863:Middlewares/Third_Party/wolfSSL_wolfSSL_wolfSSL/wolfssl/wolfcrypt/src/hmac.c ****             break;
 864:Middlewares/Third_Party/wolfSSL_wolfSSL_wolfSSL/wolfssl/wolfcrypt/src/hmac.c ****     #endif /* !NO_SHA256 */
 865:Middlewares/Third_Party/wolfSSL_wolfSSL_wolfSSL/wolfssl/wolfcrypt/src/hmac.c **** 
 866:Middlewares/Third_Party/wolfSSL_wolfSSL_wolfSSL/wolfssl/wolfcrypt/src/hmac.c ****     #ifdef WOLFSSL_SHA384
 867:Middlewares/Third_Party/wolfSSL_wolfSSL_wolfSSL/wolfssl/wolfcrypt/src/hmac.c ****         case WC_SHA384:
 868:Middlewares/Third_Party/wolfSSL_wolfSSL_wolfSSL/wolfssl/wolfcrypt/src/hmac.c ****             ret = wc_Sha384Final(&hmac->hash.sha384, (byte*)hmac->innerHash);
 869:Middlewares/Third_Party/wolfSSL_wolfSSL_wolfSSL/wolfssl/wolfcrypt/src/hmac.c ****             if (ret != 0)
 870:Middlewares/Third_Party/wolfSSL_wolfSSL_wolfSSL/wolfssl/wolfcrypt/src/hmac.c ****                 break;
 871:Middlewares/Third_Party/wolfSSL_wolfSSL_wolfSSL/wolfssl/wolfcrypt/src/hmac.c ****             ret = wc_Sha384Update(&hmac->hash.sha384, (byte*)hmac->opad,
 872:Middlewares/Third_Party/wolfSSL_wolfSSL_wolfSSL/wolfssl/wolfcrypt/src/hmac.c ****                                                           WC_SHA384_BLOCK_SIZE);
 873:Middlewares/Third_Party/wolfSSL_wolfSSL_wolfSSL/wolfssl/wolfcrypt/src/hmac.c ****             if (ret != 0)
 874:Middlewares/Third_Party/wolfSSL_wolfSSL_wolfSSL/wolfssl/wolfcrypt/src/hmac.c ****                 break;
 875:Middlewares/Third_Party/wolfSSL_wolfSSL_wolfSSL/wolfssl/wolfcrypt/src/hmac.c ****             ret = wc_Sha384Update(&hmac->hash.sha384, (byte*)hmac->innerHash,
 876:Middlewares/Third_Party/wolfSSL_wolfSSL_wolfSSL/wolfssl/wolfcrypt/src/hmac.c ****                                                          WC_SHA384_DIGEST_SIZE);
 877:Middlewares/Third_Party/wolfSSL_wolfSSL_wolfSSL/wolfssl/wolfcrypt/src/hmac.c ****             if (ret != 0)
 878:Middlewares/Third_Party/wolfSSL_wolfSSL_wolfSSL/wolfssl/wolfcrypt/src/hmac.c ****                 break;
 879:Middlewares/Third_Party/wolfSSL_wolfSSL_wolfSSL/wolfssl/wolfcrypt/src/hmac.c ****             ret = wc_Sha384Final(&hmac->hash.sha384, hash);
 880:Middlewares/Third_Party/wolfSSL_wolfSSL_wolfSSL/wolfssl/wolfcrypt/src/hmac.c ****             break;
 881:Middlewares/Third_Party/wolfSSL_wolfSSL_wolfSSL/wolfssl/wolfcrypt/src/hmac.c ****     #endif /* WOLFSSL_SHA384 */
 882:Middlewares/Third_Party/wolfSSL_wolfSSL_wolfSSL/wolfssl/wolfcrypt/src/hmac.c ****     #ifdef WOLFSSL_SHA512
 883:Middlewares/Third_Party/wolfSSL_wolfSSL_wolfSSL/wolfssl/wolfcrypt/src/hmac.c ****         case WC_SHA512:
 884:Middlewares/Third_Party/wolfSSL_wolfSSL_wolfSSL/wolfssl/wolfcrypt/src/hmac.c ****             ret = wc_Sha512Final(&hmac->hash.sha512, (byte*)hmac->innerHash);
 885:Middlewares/Third_Party/wolfSSL_wolfSSL_wolfSSL/wolfssl/wolfcrypt/src/hmac.c ****             if (ret != 0)
 886:Middlewares/Third_Party/wolfSSL_wolfSSL_wolfSSL/wolfssl/wolfcrypt/src/hmac.c ****                 break;
 887:Middlewares/Third_Party/wolfSSL_wolfSSL_wolfSSL/wolfssl/wolfcrypt/src/hmac.c ****             ret = wc_Sha512Update(&hmac->hash.sha512, (byte*)hmac->opad,
 888:Middlewares/Third_Party/wolfSSL_wolfSSL_wolfSSL/wolfssl/wolfcrypt/src/hmac.c ****                                                           WC_SHA512_BLOCK_SIZE);
 889:Middlewares/Third_Party/wolfSSL_wolfSSL_wolfSSL/wolfssl/wolfcrypt/src/hmac.c ****             if (ret != 0)
 890:Middlewares/Third_Party/wolfSSL_wolfSSL_wolfSSL/wolfssl/wolfcrypt/src/hmac.c ****                 break;
 891:Middlewares/Third_Party/wolfSSL_wolfSSL_wolfSSL/wolfssl/wolfcrypt/src/hmac.c ****             ret = wc_Sha512Update(&hmac->hash.sha512, (byte*)hmac->innerHash,
 892:Middlewares/Third_Party/wolfSSL_wolfSSL_wolfSSL/wolfssl/wolfcrypt/src/hmac.c ****                                                          WC_SHA512_DIGEST_SIZE);
 893:Middlewares/Third_Party/wolfSSL_wolfSSL_wolfSSL/wolfssl/wolfcrypt/src/hmac.c ****             if (ret != 0)
 894:Middlewares/Third_Party/wolfSSL_wolfSSL_wolfSSL/wolfssl/wolfcrypt/src/hmac.c ****                 break;
 895:Middlewares/Third_Party/wolfSSL_wolfSSL_wolfSSL/wolfssl/wolfcrypt/src/hmac.c ****             ret = wc_Sha512Final(&hmac->hash.sha512, hash);
 896:Middlewares/Third_Party/wolfSSL_wolfSSL_wolfSSL/wolfssl/wolfcrypt/src/hmac.c ****             break;
 897:Middlewares/Third_Party/wolfSSL_wolfSSL_wolfSSL/wolfssl/wolfcrypt/src/hmac.c ****     #endif /* WOLFSSL_SHA512 */
 898:Middlewares/Third_Party/wolfSSL_wolfSSL_wolfSSL/wolfssl/wolfcrypt/src/hmac.c **** 
 899:Middlewares/Third_Party/wolfSSL_wolfSSL_wolfSSL/wolfssl/wolfcrypt/src/hmac.c ****     #ifdef WOLFSSL_SHA3
 900:Middlewares/Third_Party/wolfSSL_wolfSSL_wolfSSL/wolfssl/wolfcrypt/src/hmac.c ****     #ifndef WOLFSSL_NOSHA3_224
 901:Middlewares/Third_Party/wolfSSL_wolfSSL_wolfSSL/wolfssl/wolfcrypt/src/hmac.c ****         case WC_SHA3_224:
 902:Middlewares/Third_Party/wolfSSL_wolfSSL_wolfSSL/wolfssl/wolfcrypt/src/hmac.c ****             ret = wc_Sha3_224_Final(&hmac->hash.sha3, (byte*)hmac->innerHash);
 903:Middlewares/Third_Party/wolfSSL_wolfSSL_wolfSSL/wolfssl/wolfcrypt/src/hmac.c ****             if (ret != 0)
 904:Middlewares/Third_Party/wolfSSL_wolfSSL_wolfSSL/wolfssl/wolfcrypt/src/hmac.c ****                 break;
 905:Middlewares/Third_Party/wolfSSL_wolfSSL_wolfSSL/wolfssl/wolfcrypt/src/hmac.c ****             ret = wc_Sha3_224_Update(&hmac->hash.sha3, (byte*)hmac->opad,
 906:Middlewares/Third_Party/wolfSSL_wolfSSL_wolfSSL/wolfssl/wolfcrypt/src/hmac.c ****                                                         WC_SHA3_224_BLOCK_SIZE);
 907:Middlewares/Third_Party/wolfSSL_wolfSSL_wolfSSL/wolfssl/wolfcrypt/src/hmac.c ****             if (ret != 0)
 908:Middlewares/Third_Party/wolfSSL_wolfSSL_wolfSSL/wolfssl/wolfcrypt/src/hmac.c ****                 break;
 909:Middlewares/Third_Party/wolfSSL_wolfSSL_wolfSSL/wolfssl/wolfcrypt/src/hmac.c ****             ret = wc_Sha3_224_Update(&hmac->hash.sha3, (byte*)hmac->innerHash,
 910:Middlewares/Third_Party/wolfSSL_wolfSSL_wolfSSL/wolfssl/wolfcrypt/src/hmac.c ****                                                        WC_SHA3_224_DIGEST_SIZE);
 911:Middlewares/Third_Party/wolfSSL_wolfSSL_wolfSSL/wolfssl/wolfcrypt/src/hmac.c ****             if (ret != 0)
 912:Middlewares/Third_Party/wolfSSL_wolfSSL_wolfSSL/wolfssl/wolfcrypt/src/hmac.c ****                 break;
 913:Middlewares/Third_Party/wolfSSL_wolfSSL_wolfSSL/wolfssl/wolfcrypt/src/hmac.c ****             ret = wc_Sha3_224_Final(&hmac->hash.sha3, hash);
 914:Middlewares/Third_Party/wolfSSL_wolfSSL_wolfSSL/wolfssl/wolfcrypt/src/hmac.c ****             break;
 915:Middlewares/Third_Party/wolfSSL_wolfSSL_wolfSSL/wolfssl/wolfcrypt/src/hmac.c ****     #endif
 916:Middlewares/Third_Party/wolfSSL_wolfSSL_wolfSSL/wolfssl/wolfcrypt/src/hmac.c ****     #ifndef WOLFSSL_NOSHA3_256
 917:Middlewares/Third_Party/wolfSSL_wolfSSL_wolfSSL/wolfssl/wolfcrypt/src/hmac.c ****         case WC_SHA3_256:
 918:Middlewares/Third_Party/wolfSSL_wolfSSL_wolfSSL/wolfssl/wolfcrypt/src/hmac.c ****             ret = wc_Sha3_256_Final(&hmac->hash.sha3, (byte*)hmac->innerHash);
 919:Middlewares/Third_Party/wolfSSL_wolfSSL_wolfSSL/wolfssl/wolfcrypt/src/hmac.c ****             if (ret != 0)
ARM GAS  /tmp/ccxfTf9S.s 			page 24


 920:Middlewares/Third_Party/wolfSSL_wolfSSL_wolfSSL/wolfssl/wolfcrypt/src/hmac.c ****                 break;
 921:Middlewares/Third_Party/wolfSSL_wolfSSL_wolfSSL/wolfssl/wolfcrypt/src/hmac.c ****             ret = wc_Sha3_256_Update(&hmac->hash.sha3, (byte*)hmac->opad,
 922:Middlewares/Third_Party/wolfSSL_wolfSSL_wolfSSL/wolfssl/wolfcrypt/src/hmac.c ****                                                         WC_SHA3_256_BLOCK_SIZE);
 923:Middlewares/Third_Party/wolfSSL_wolfSSL_wolfSSL/wolfssl/wolfcrypt/src/hmac.c ****             if (ret != 0)
 924:Middlewares/Third_Party/wolfSSL_wolfSSL_wolfSSL/wolfssl/wolfcrypt/src/hmac.c ****                 break;
 925:Middlewares/Third_Party/wolfSSL_wolfSSL_wolfSSL/wolfssl/wolfcrypt/src/hmac.c ****             ret = wc_Sha3_256_Update(&hmac->hash.sha3, (byte*)hmac->innerHash,
 926:Middlewares/Third_Party/wolfSSL_wolfSSL_wolfSSL/wolfssl/wolfcrypt/src/hmac.c ****                                                        WC_SHA3_256_DIGEST_SIZE);
 927:Middlewares/Third_Party/wolfSSL_wolfSSL_wolfSSL/wolfssl/wolfcrypt/src/hmac.c ****             if (ret != 0)
 928:Middlewares/Third_Party/wolfSSL_wolfSSL_wolfSSL/wolfssl/wolfcrypt/src/hmac.c ****                 break;
 929:Middlewares/Third_Party/wolfSSL_wolfSSL_wolfSSL/wolfssl/wolfcrypt/src/hmac.c ****             ret = wc_Sha3_256_Final(&hmac->hash.sha3, hash);
 930:Middlewares/Third_Party/wolfSSL_wolfSSL_wolfSSL/wolfssl/wolfcrypt/src/hmac.c ****             break;
 931:Middlewares/Third_Party/wolfSSL_wolfSSL_wolfSSL/wolfssl/wolfcrypt/src/hmac.c ****     #endif
 932:Middlewares/Third_Party/wolfSSL_wolfSSL_wolfSSL/wolfssl/wolfcrypt/src/hmac.c ****     #ifndef WOLFSSL_NOSHA3_384
 933:Middlewares/Third_Party/wolfSSL_wolfSSL_wolfSSL/wolfssl/wolfcrypt/src/hmac.c ****         case WC_SHA3_384:
 934:Middlewares/Third_Party/wolfSSL_wolfSSL_wolfSSL/wolfssl/wolfcrypt/src/hmac.c ****             ret = wc_Sha3_384_Final(&hmac->hash.sha3, (byte*)hmac->innerHash);
 935:Middlewares/Third_Party/wolfSSL_wolfSSL_wolfSSL/wolfssl/wolfcrypt/src/hmac.c ****             if (ret != 0)
 936:Middlewares/Third_Party/wolfSSL_wolfSSL_wolfSSL/wolfssl/wolfcrypt/src/hmac.c ****                 break;
 937:Middlewares/Third_Party/wolfSSL_wolfSSL_wolfSSL/wolfssl/wolfcrypt/src/hmac.c ****             ret = wc_Sha3_384_Update(&hmac->hash.sha3, (byte*)hmac->opad,
 938:Middlewares/Third_Party/wolfSSL_wolfSSL_wolfSSL/wolfssl/wolfcrypt/src/hmac.c ****                                                         WC_SHA3_384_BLOCK_SIZE);
 939:Middlewares/Third_Party/wolfSSL_wolfSSL_wolfSSL/wolfssl/wolfcrypt/src/hmac.c ****             if (ret != 0)
 940:Middlewares/Third_Party/wolfSSL_wolfSSL_wolfSSL/wolfssl/wolfcrypt/src/hmac.c ****                 break;
 941:Middlewares/Third_Party/wolfSSL_wolfSSL_wolfSSL/wolfssl/wolfcrypt/src/hmac.c ****             ret = wc_Sha3_384_Update(&hmac->hash.sha3, (byte*)hmac->innerHash,
 942:Middlewares/Third_Party/wolfSSL_wolfSSL_wolfSSL/wolfssl/wolfcrypt/src/hmac.c ****                                                        WC_SHA3_384_DIGEST_SIZE);
 943:Middlewares/Third_Party/wolfSSL_wolfSSL_wolfSSL/wolfssl/wolfcrypt/src/hmac.c ****             if (ret != 0)
 944:Middlewares/Third_Party/wolfSSL_wolfSSL_wolfSSL/wolfssl/wolfcrypt/src/hmac.c ****                 break;
 945:Middlewares/Third_Party/wolfSSL_wolfSSL_wolfSSL/wolfssl/wolfcrypt/src/hmac.c ****             ret = wc_Sha3_384_Final(&hmac->hash.sha3, hash);
 946:Middlewares/Third_Party/wolfSSL_wolfSSL_wolfSSL/wolfssl/wolfcrypt/src/hmac.c ****             break;
 947:Middlewares/Third_Party/wolfSSL_wolfSSL_wolfSSL/wolfssl/wolfcrypt/src/hmac.c ****     #endif
 948:Middlewares/Third_Party/wolfSSL_wolfSSL_wolfSSL/wolfssl/wolfcrypt/src/hmac.c ****     #ifndef WOLFSSL_NOSHA3_512
 949:Middlewares/Third_Party/wolfSSL_wolfSSL_wolfSSL/wolfssl/wolfcrypt/src/hmac.c ****         case WC_SHA3_512:
 950:Middlewares/Third_Party/wolfSSL_wolfSSL_wolfSSL/wolfssl/wolfcrypt/src/hmac.c ****             ret = wc_Sha3_512_Final(&hmac->hash.sha3, (byte*)hmac->innerHash);
 951:Middlewares/Third_Party/wolfSSL_wolfSSL_wolfSSL/wolfssl/wolfcrypt/src/hmac.c ****             if (ret != 0)
 952:Middlewares/Third_Party/wolfSSL_wolfSSL_wolfSSL/wolfssl/wolfcrypt/src/hmac.c ****                 break;
 953:Middlewares/Third_Party/wolfSSL_wolfSSL_wolfSSL/wolfssl/wolfcrypt/src/hmac.c ****             ret = wc_Sha3_512_Update(&hmac->hash.sha3, (byte*)hmac->opad,
 954:Middlewares/Third_Party/wolfSSL_wolfSSL_wolfSSL/wolfssl/wolfcrypt/src/hmac.c ****                                                         WC_SHA3_512_BLOCK_SIZE);
 955:Middlewares/Third_Party/wolfSSL_wolfSSL_wolfSSL/wolfssl/wolfcrypt/src/hmac.c ****             if (ret != 0)
 956:Middlewares/Third_Party/wolfSSL_wolfSSL_wolfSSL/wolfssl/wolfcrypt/src/hmac.c ****                 break;
 957:Middlewares/Third_Party/wolfSSL_wolfSSL_wolfSSL/wolfssl/wolfcrypt/src/hmac.c ****             ret = wc_Sha3_512_Update(&hmac->hash.sha3, (byte*)hmac->innerHash,
 958:Middlewares/Third_Party/wolfSSL_wolfSSL_wolfSSL/wolfssl/wolfcrypt/src/hmac.c ****                                                        WC_SHA3_512_DIGEST_SIZE);
 959:Middlewares/Third_Party/wolfSSL_wolfSSL_wolfSSL/wolfssl/wolfcrypt/src/hmac.c ****             if (ret != 0)
 960:Middlewares/Third_Party/wolfSSL_wolfSSL_wolfSSL/wolfssl/wolfcrypt/src/hmac.c ****                 break;
 961:Middlewares/Third_Party/wolfSSL_wolfSSL_wolfSSL/wolfssl/wolfcrypt/src/hmac.c ****             ret = wc_Sha3_512_Final(&hmac->hash.sha3, hash);
 962:Middlewares/Third_Party/wolfSSL_wolfSSL_wolfSSL/wolfssl/wolfcrypt/src/hmac.c ****             break;
 963:Middlewares/Third_Party/wolfSSL_wolfSSL_wolfSSL/wolfssl/wolfcrypt/src/hmac.c ****     #endif
 964:Middlewares/Third_Party/wolfSSL_wolfSSL_wolfSSL/wolfssl/wolfcrypt/src/hmac.c ****     #endif /* WOLFSSL_SHA3 */
 965:Middlewares/Third_Party/wolfSSL_wolfSSL_wolfSSL/wolfssl/wolfcrypt/src/hmac.c **** 
 966:Middlewares/Third_Party/wolfSSL_wolfSSL_wolfSSL/wolfssl/wolfcrypt/src/hmac.c ****         default:
 967:Middlewares/Third_Party/wolfSSL_wolfSSL_wolfSSL/wolfssl/wolfcrypt/src/hmac.c ****             ret = BAD_FUNC_ARG;
 968:Middlewares/Third_Party/wolfSSL_wolfSSL_wolfSSL/wolfssl/wolfcrypt/src/hmac.c ****             break;
 969:Middlewares/Third_Party/wolfSSL_wolfSSL_wolfSSL/wolfssl/wolfcrypt/src/hmac.c ****     }
 970:Middlewares/Third_Party/wolfSSL_wolfSSL_wolfSSL/wolfssl/wolfcrypt/src/hmac.c **** 
 971:Middlewares/Third_Party/wolfSSL_wolfSSL_wolfSSL/wolfssl/wolfcrypt/src/hmac.c ****     if (ret == 0) {
 351              		.loc 1 971 5 is_stmt 1 view .LVU90
 352              		.loc 1 971 8 is_stmt 0 view .LVU91
 353 0028 13B9     		cbnz	r3, .L30
 972:Middlewares/Third_Party/wolfSSL_wolfSSL_wolfSSL/wolfssl/wolfcrypt/src/hmac.c ****         hmac->innerHashKeyed = 0;
 354              		.loc 1 972 9 is_stmt 1 view .LVU92
ARM GAS  /tmp/ccxfTf9S.s 			page 25


 355              		.loc 1 972 30 is_stmt 0 view .LVU93
 356 002a 0022     		movs	r2, #0
 357 002c 84F81521 		strb	r2, [r4, #277]
 358              	.LVL31:
 359              	.L30:
 973:Middlewares/Third_Party/wolfSSL_wolfSSL_wolfSSL/wolfssl/wolfcrypt/src/hmac.c ****     }
 974:Middlewares/Third_Party/wolfSSL_wolfSSL_wolfSSL/wolfssl/wolfcrypt/src/hmac.c **** 
 975:Middlewares/Third_Party/wolfSSL_wolfSSL_wolfSSL/wolfssl/wolfcrypt/src/hmac.c ****     return ret;
 976:Middlewares/Third_Party/wolfSSL_wolfSSL_wolfSSL/wolfssl/wolfcrypt/src/hmac.c **** }
 360              		.loc 1 976 1 view .LVU94
 361 0030 1846     		mov	r0, r3
 362 0032 70BD     		pop	{r4, r5, r6, pc}
 363              	.LVL32:
 364              	.L41:
 791:Middlewares/Third_Party/wolfSSL_wolfSSL_wolfSSL/wolfssl/wolfcrypt/src/hmac.c ****         if (ret != 0)
 365              		.loc 1 791 9 is_stmt 1 view .LVU95
 791:Middlewares/Third_Party/wolfSSL_wolfSSL_wolfSSL/wolfssl/wolfcrypt/src/hmac.c ****         if (ret != 0)
 366              		.loc 1 791 15 is_stmt 0 view .LVU96
 367 0034 FFF7FEFF 		bl	HmacKeyInnerHash
 368              	.LVL33:
 792:Middlewares/Third_Party/wolfSSL_wolfSSL_wolfSSL/wolfssl/wolfcrypt/src/hmac.c ****             return ret;
 369              		.loc 1 792 9 is_stmt 1 view .LVU97
 792:Middlewares/Third_Party/wolfSSL_wolfSSL_wolfSSL/wolfssl/wolfcrypt/src/hmac.c ****             return ret;
 370              		.loc 1 792 12 is_stmt 0 view .LVU98
 371 0038 0346     		mov	r3, r0
 372 003a 0028     		cmp	r0, #0
 373 003c E8D0     		beq	.L32
 374 003e F7E7     		b	.L30
 375              	.L42:
 854:Middlewares/Third_Party/wolfSSL_wolfSSL_wolfSSL/wolfssl/wolfcrypt/src/hmac.c ****                                                           WC_SHA256_BLOCK_SIZE);
 376              		.loc 1 854 13 is_stmt 1 view .LVU99
 854:Middlewares/Third_Party/wolfSSL_wolfSSL_wolfSSL/wolfssl/wolfcrypt/src/hmac.c ****                                                           WC_SHA256_BLOCK_SIZE);
 377              		.loc 1 854 19 is_stmt 0 view .LVU100
 378 0040 4022     		movs	r2, #64
 379 0042 04F1B001 		add	r1, r4, #176
 380 0046 2046     		mov	r0, r4
 381              	.LVL34:
 854:Middlewares/Third_Party/wolfSSL_wolfSSL_wolfSSL/wolfssl/wolfcrypt/src/hmac.c ****                                                           WC_SHA256_BLOCK_SIZE);
 382              		.loc 1 854 19 view .LVU101
 383 0048 FFF7FEFF 		bl	wc_Sha256Update
 384              	.LVL35:
 856:Middlewares/Third_Party/wolfSSL_wolfSSL_wolfSSL/wolfssl/wolfcrypt/src/hmac.c ****                 break;
 385              		.loc 1 856 13 is_stmt 1 view .LVU102
 856:Middlewares/Third_Party/wolfSSL_wolfSSL_wolfSSL/wolfssl/wolfcrypt/src/hmac.c ****                 break;
 386              		.loc 1 856 16 is_stmt 0 view .LVU103
 387 004c 0346     		mov	r3, r0
 388 004e 0028     		cmp	r0, #0
 389 0050 EAD1     		bne	.L33
 858:Middlewares/Third_Party/wolfSSL_wolfSSL_wolfSSL/wolfssl/wolfcrypt/src/hmac.c ****                                                          WC_SHA256_DIGEST_SIZE);
 390              		.loc 1 858 13 is_stmt 1 view .LVU104
 858:Middlewares/Third_Party/wolfSSL_wolfSSL_wolfSSL/wolfssl/wolfcrypt/src/hmac.c ****                                                          WC_SHA256_DIGEST_SIZE);
 391              		.loc 1 858 19 is_stmt 0 view .LVU105
 392 0052 2022     		movs	r2, #32
 393 0054 3146     		mov	r1, r6
 394 0056 2046     		mov	r0, r4
 395              	.LVL36:
 858:Middlewares/Third_Party/wolfSSL_wolfSSL_wolfSSL/wolfssl/wolfcrypt/src/hmac.c ****                                                          WC_SHA256_DIGEST_SIZE);
ARM GAS  /tmp/ccxfTf9S.s 			page 26


 396              		.loc 1 858 19 view .LVU106
 397 0058 FFF7FEFF 		bl	wc_Sha256Update
 398              	.LVL37:
 860:Middlewares/Third_Party/wolfSSL_wolfSSL_wolfSSL/wolfssl/wolfcrypt/src/hmac.c ****                 break;
 399              		.loc 1 860 13 is_stmt 1 view .LVU107
 860:Middlewares/Third_Party/wolfSSL_wolfSSL_wolfSSL/wolfssl/wolfcrypt/src/hmac.c ****                 break;
 400              		.loc 1 860 16 is_stmt 0 view .LVU108
 401 005c 0346     		mov	r3, r0
 402 005e 0028     		cmp	r0, #0
 403 0060 E2D1     		bne	.L33
 862:Middlewares/Third_Party/wolfSSL_wolfSSL_wolfSSL/wolfssl/wolfcrypt/src/hmac.c ****             break;
 404              		.loc 1 862 13 is_stmt 1 view .LVU109
 862:Middlewares/Third_Party/wolfSSL_wolfSSL_wolfSSL/wolfssl/wolfcrypt/src/hmac.c ****             break;
 405              		.loc 1 862 19 is_stmt 0 view .LVU110
 406 0062 2946     		mov	r1, r5
 407 0064 2046     		mov	r0, r4
 408              	.LVL38:
 862:Middlewares/Third_Party/wolfSSL_wolfSSL_wolfSSL/wolfssl/wolfcrypt/src/hmac.c ****             break;
 409              		.loc 1 862 19 view .LVU111
 410 0066 FFF7FEFF 		bl	wc_Sha256Final
 411              	.LVL39:
 862:Middlewares/Third_Party/wolfSSL_wolfSSL_wolfSSL/wolfssl/wolfcrypt/src/hmac.c ****             break;
 412              		.loc 1 862 19 view .LVU112
 413 006a 0346     		mov	r3, r0
 414              	.LVL40:
 863:Middlewares/Third_Party/wolfSSL_wolfSSL_wolfSSL/wolfssl/wolfcrypt/src/hmac.c ****     #endif /* !NO_SHA256 */
 415              		.loc 1 863 13 is_stmt 1 view .LVU113
 416 006c DCE7     		b	.L33
 417              	.LVL41:
 418              	.L34:
 419              	.LCFI5:
 420              		.cfi_def_cfa_offset 0
 421              		.cfi_restore 4
 422              		.cfi_restore 5
 423              		.cfi_restore 6
 424              		.cfi_restore 14
 762:Middlewares/Third_Party/wolfSSL_wolfSSL_wolfSSL/wolfssl/wolfcrypt/src/hmac.c ****     }
 425              		.loc 1 762 16 is_stmt 0 view .LVU114
 426 006e 6FF0AC03 		mvn	r3, #172
 427              		.loc 1 976 1 view .LVU115
 428 0072 1846     		mov	r0, r3
 429              	.LVL42:
 430              		.loc 1 976 1 view .LVU116
 431 0074 7047     		bx	lr
 432              	.LVL43:
 433              	.L35:
 434              	.LCFI6:
 435              		.cfi_def_cfa_offset 16
 436              		.cfi_offset 4, -16
 437              		.cfi_offset 5, -12
 438              		.cfi_offset 6, -8
 439              		.cfi_offset 14, -4
 762:Middlewares/Third_Party/wolfSSL_wolfSSL_wolfSSL/wolfssl/wolfcrypt/src/hmac.c ****     }
 440              		.loc 1 762 16 view .LVU117
 441 0076 6FF0AC03 		mvn	r3, #172
 442 007a D9E7     		b	.L30
 443              	.LVL44:
ARM GAS  /tmp/ccxfTf9S.s 			page 27


 444              	.L36:
 967:Middlewares/Third_Party/wolfSSL_wolfSSL_wolfSSL/wolfssl/wolfcrypt/src/hmac.c ****             break;
 445              		.loc 1 967 17 view .LVU118
 446 007c 6FF0AC03 		mvn	r3, #172
 447 0080 D6E7     		b	.L30
 448              		.cfi_endproc
 449              	.LFE180:
 451              		.section	.text.wc_HmacInit,"ax",%progbits
 452              		.align	1
 453              		.global	wc_HmacInit
 454              		.syntax unified
 455              		.thumb
 456              		.thumb_func
 457              		.fpu fpv4-sp-d16
 459              	wc_HmacInit:
 460              	.LVL45:
 461              	.LFB181:
 977:Middlewares/Third_Party/wolfSSL_wolfSSL_wolfSSL/wolfssl/wolfcrypt/src/hmac.c **** 
 978:Middlewares/Third_Party/wolfSSL_wolfSSL_wolfSSL/wolfssl/wolfcrypt/src/hmac.c **** 
 979:Middlewares/Third_Party/wolfSSL_wolfSSL_wolfSSL/wolfssl/wolfcrypt/src/hmac.c **** /* Initialize Hmac for use with async device */
 980:Middlewares/Third_Party/wolfSSL_wolfSSL_wolfSSL/wolfssl/wolfcrypt/src/hmac.c **** int wc_HmacInit(Hmac* hmac, void* heap, int devId)
 981:Middlewares/Third_Party/wolfSSL_wolfSSL_wolfSSL/wolfssl/wolfcrypt/src/hmac.c **** {
 462              		.loc 1 981 1 is_stmt 1 view -0
 463              		.cfi_startproc
 464              		@ args = 0, pretend = 0, frame = 0
 465              		@ frame_needed = 0, uses_anonymous_args = 0
 982:Middlewares/Third_Party/wolfSSL_wolfSSL_wolfSSL/wolfssl/wolfcrypt/src/hmac.c ****     int ret = 0;
 466              		.loc 1 982 5 view .LVU120
 983:Middlewares/Third_Party/wolfSSL_wolfSSL_wolfSSL/wolfssl/wolfcrypt/src/hmac.c **** 
 984:Middlewares/Third_Party/wolfSSL_wolfSSL_wolfSSL/wolfssl/wolfcrypt/src/hmac.c ****     if (hmac == NULL)
 467              		.loc 1 984 5 view .LVU121
 468              		.loc 1 984 8 is_stmt 0 view .LVU122
 469 0000 58B1     		cbz	r0, .L45
 981:Middlewares/Third_Party/wolfSSL_wolfSSL_wolfSSL/wolfssl/wolfcrypt/src/hmac.c ****     int ret = 0;
 470              		.loc 1 981 1 view .LVU123
 471 0002 38B5     		push	{r3, r4, r5, lr}
 472              	.LCFI7:
 473              		.cfi_def_cfa_offset 16
 474              		.cfi_offset 3, -16
 475              		.cfi_offset 4, -12
 476              		.cfi_offset 5, -8
 477              		.cfi_offset 14, -4
 478 0004 0C46     		mov	r4, r1
 479 0006 0546     		mov	r5, r0
 985:Middlewares/Third_Party/wolfSSL_wolfSSL_wolfSSL/wolfssl/wolfcrypt/src/hmac.c ****         return BAD_FUNC_ARG;
 986:Middlewares/Third_Party/wolfSSL_wolfSSL_wolfSSL/wolfssl/wolfcrypt/src/hmac.c **** 
 987:Middlewares/Third_Party/wolfSSL_wolfSSL_wolfSSL/wolfssl/wolfcrypt/src/hmac.c ****     XMEMSET(hmac, 0, sizeof(Hmac));
 480              		.loc 1 987 5 is_stmt 1 view .LVU124
 481 0008 4FF48C72 		mov	r2, #280
 482              	.LVL46:
 483              		.loc 1 987 5 is_stmt 0 view .LVU125
 484 000c 0021     		movs	r1, #0
 485              	.LVL47:
 486              		.loc 1 987 5 view .LVU126
 487 000e FFF7FEFF 		bl	memset
 488              	.LVL48:
 988:Middlewares/Third_Party/wolfSSL_wolfSSL_wolfSSL/wolfssl/wolfcrypt/src/hmac.c ****     hmac->macType = WC_HASH_TYPE_NONE;
ARM GAS  /tmp/ccxfTf9S.s 			page 28


 489              		.loc 1 988 5 is_stmt 1 view .LVU127
 989:Middlewares/Third_Party/wolfSSL_wolfSSL_wolfSSL/wolfssl/wolfcrypt/src/hmac.c ****     hmac->heap = heap;
 490              		.loc 1 989 5 view .LVU128
 491              		.loc 1 989 16 is_stmt 0 view .LVU129
 492 0012 C5F81041 		str	r4, [r5, #272]
 990:Middlewares/Third_Party/wolfSSL_wolfSSL_wolfSSL/wolfssl/wolfcrypt/src/hmac.c **** #ifdef WOLF_CRYPTO_CB
 991:Middlewares/Third_Party/wolfSSL_wolfSSL_wolfSSL/wolfssl/wolfcrypt/src/hmac.c ****     hmac->devId = devId;
 992:Middlewares/Third_Party/wolfSSL_wolfSSL_wolfSSL/wolfssl/wolfcrypt/src/hmac.c ****     hmac->devCtx = NULL;
 993:Middlewares/Third_Party/wolfSSL_wolfSSL_wolfSSL/wolfssl/wolfcrypt/src/hmac.c **** #endif
 994:Middlewares/Third_Party/wolfSSL_wolfSSL_wolfSSL/wolfssl/wolfcrypt/src/hmac.c **** 
 995:Middlewares/Third_Party/wolfSSL_wolfSSL_wolfSSL/wolfssl/wolfcrypt/src/hmac.c **** #if defined(WOLFSSL_ASYNC_CRYPT) && defined(WC_ASYNC_ENABLE_HMAC)
 996:Middlewares/Third_Party/wolfSSL_wolfSSL_wolfSSL/wolfssl/wolfcrypt/src/hmac.c ****     ret = wolfAsync_DevCtxInit(&hmac->asyncDev, WOLFSSL_ASYNC_MARKER_HMAC,
 997:Middlewares/Third_Party/wolfSSL_wolfSSL_wolfSSL/wolfssl/wolfcrypt/src/hmac.c ****                                                          hmac->heap, devId);
 998:Middlewares/Third_Party/wolfSSL_wolfSSL_wolfSSL/wolfssl/wolfcrypt/src/hmac.c **** #else
 999:Middlewares/Third_Party/wolfSSL_wolfSSL_wolfSSL/wolfssl/wolfcrypt/src/hmac.c ****     (void)devId;
 493              		.loc 1 999 5 is_stmt 1 view .LVU130
1000:Middlewares/Third_Party/wolfSSL_wolfSSL_wolfSSL/wolfssl/wolfcrypt/src/hmac.c **** #endif /* WOLFSSL_ASYNC_CRYPT */
1001:Middlewares/Third_Party/wolfSSL_wolfSSL_wolfSSL/wolfssl/wolfcrypt/src/hmac.c **** 
1002:Middlewares/Third_Party/wolfSSL_wolfSSL_wolfSSL/wolfssl/wolfcrypt/src/hmac.c ****     return ret;
 494              		.loc 1 1002 5 view .LVU131
 495              		.loc 1 1002 12 is_stmt 0 view .LVU132
 496 0016 0020     		movs	r0, #0
1003:Middlewares/Third_Party/wolfSSL_wolfSSL_wolfSSL/wolfssl/wolfcrypt/src/hmac.c **** }
 497              		.loc 1 1003 1 view .LVU133
 498 0018 38BD     		pop	{r3, r4, r5, pc}
 499              	.LVL49:
 500              	.L45:
 501              	.LCFI8:
 502              		.cfi_def_cfa_offset 0
 503              		.cfi_restore 3
 504              		.cfi_restore 4
 505              		.cfi_restore 5
 506              		.cfi_restore 14
 985:Middlewares/Third_Party/wolfSSL_wolfSSL_wolfSSL/wolfssl/wolfcrypt/src/hmac.c **** 
 507              		.loc 1 985 16 view .LVU134
 508 001a 6FF0AC00 		mvn	r0, #172
 509              	.LVL50:
 510              		.loc 1 1003 1 view .LVU135
 511 001e 7047     		bx	lr
 512              		.cfi_endproc
 513              	.LFE181:
 515              		.section	.text.wc_HmacFree,"ax",%progbits
 516              		.align	1
 517              		.global	wc_HmacFree
 518              		.syntax unified
 519              		.thumb
 520              		.thumb_func
 521              		.fpu fpv4-sp-d16
 523              	wc_HmacFree:
 524              	.LVL51:
 525              	.LFB182:
1004:Middlewares/Third_Party/wolfSSL_wolfSSL_wolfSSL/wolfssl/wolfcrypt/src/hmac.c **** 
1005:Middlewares/Third_Party/wolfSSL_wolfSSL_wolfSSL/wolfssl/wolfcrypt/src/hmac.c **** #ifdef HAVE_PKCS11
1006:Middlewares/Third_Party/wolfSSL_wolfSSL_wolfSSL/wolfssl/wolfcrypt/src/hmac.c **** int  wc_HmacInit_Id(Hmac* hmac, unsigned char* id, int len, void* heap,
1007:Middlewares/Third_Party/wolfSSL_wolfSSL_wolfSSL/wolfssl/wolfcrypt/src/hmac.c ****                     int devId)
1008:Middlewares/Third_Party/wolfSSL_wolfSSL_wolfSSL/wolfssl/wolfcrypt/src/hmac.c **** {
1009:Middlewares/Third_Party/wolfSSL_wolfSSL_wolfSSL/wolfssl/wolfcrypt/src/hmac.c ****     int ret = 0;
ARM GAS  /tmp/ccxfTf9S.s 			page 29


1010:Middlewares/Third_Party/wolfSSL_wolfSSL_wolfSSL/wolfssl/wolfcrypt/src/hmac.c **** 
1011:Middlewares/Third_Party/wolfSSL_wolfSSL_wolfSSL/wolfssl/wolfcrypt/src/hmac.c ****     if (hmac == NULL)
1012:Middlewares/Third_Party/wolfSSL_wolfSSL_wolfSSL/wolfssl/wolfcrypt/src/hmac.c ****         ret = BAD_FUNC_ARG;
1013:Middlewares/Third_Party/wolfSSL_wolfSSL_wolfSSL/wolfssl/wolfcrypt/src/hmac.c ****     if (ret == 0 && (len < 0 || len > HMAC_MAX_ID_LEN))
1014:Middlewares/Third_Party/wolfSSL_wolfSSL_wolfSSL/wolfssl/wolfcrypt/src/hmac.c ****         ret = BUFFER_E;
1015:Middlewares/Third_Party/wolfSSL_wolfSSL_wolfSSL/wolfssl/wolfcrypt/src/hmac.c **** 
1016:Middlewares/Third_Party/wolfSSL_wolfSSL_wolfSSL/wolfssl/wolfcrypt/src/hmac.c ****     if (ret == 0)
1017:Middlewares/Third_Party/wolfSSL_wolfSSL_wolfSSL/wolfssl/wolfcrypt/src/hmac.c ****         ret = wc_HmacInit(hmac, heap, devId);
1018:Middlewares/Third_Party/wolfSSL_wolfSSL_wolfSSL/wolfssl/wolfcrypt/src/hmac.c ****     if (ret == 0) {
1019:Middlewares/Third_Party/wolfSSL_wolfSSL_wolfSSL/wolfssl/wolfcrypt/src/hmac.c ****         XMEMCPY(hmac->id, id, len);
1020:Middlewares/Third_Party/wolfSSL_wolfSSL_wolfSSL/wolfssl/wolfcrypt/src/hmac.c ****         hmac->idLen = len;
1021:Middlewares/Third_Party/wolfSSL_wolfSSL_wolfSSL/wolfssl/wolfcrypt/src/hmac.c ****     }
1022:Middlewares/Third_Party/wolfSSL_wolfSSL_wolfSSL/wolfssl/wolfcrypt/src/hmac.c **** 
1023:Middlewares/Third_Party/wolfSSL_wolfSSL_wolfSSL/wolfssl/wolfcrypt/src/hmac.c ****     return ret;
1024:Middlewares/Third_Party/wolfSSL_wolfSSL_wolfSSL/wolfssl/wolfcrypt/src/hmac.c **** }
1025:Middlewares/Third_Party/wolfSSL_wolfSSL_wolfSSL/wolfssl/wolfcrypt/src/hmac.c **** 
1026:Middlewares/Third_Party/wolfSSL_wolfSSL_wolfSSL/wolfssl/wolfcrypt/src/hmac.c **** int wc_HmacInit_Label(Hmac* hmac, const char* label, void* heap, int devId)
1027:Middlewares/Third_Party/wolfSSL_wolfSSL_wolfSSL/wolfssl/wolfcrypt/src/hmac.c **** {
1028:Middlewares/Third_Party/wolfSSL_wolfSSL_wolfSSL/wolfssl/wolfcrypt/src/hmac.c ****     int ret = 0;
1029:Middlewares/Third_Party/wolfSSL_wolfSSL_wolfSSL/wolfssl/wolfcrypt/src/hmac.c ****     int labelLen = 0;
1030:Middlewares/Third_Party/wolfSSL_wolfSSL_wolfSSL/wolfssl/wolfcrypt/src/hmac.c **** 
1031:Middlewares/Third_Party/wolfSSL_wolfSSL_wolfSSL/wolfssl/wolfcrypt/src/hmac.c ****     if (hmac == NULL || label == NULL)
1032:Middlewares/Third_Party/wolfSSL_wolfSSL_wolfSSL/wolfssl/wolfcrypt/src/hmac.c ****         ret = BAD_FUNC_ARG;
1033:Middlewares/Third_Party/wolfSSL_wolfSSL_wolfSSL/wolfssl/wolfcrypt/src/hmac.c ****     if (ret == 0) {
1034:Middlewares/Third_Party/wolfSSL_wolfSSL_wolfSSL/wolfssl/wolfcrypt/src/hmac.c ****         labelLen = (int)XSTRLEN(label);
1035:Middlewares/Third_Party/wolfSSL_wolfSSL_wolfSSL/wolfssl/wolfcrypt/src/hmac.c ****         if (labelLen == 0 || labelLen > HMAC_MAX_LABEL_LEN)
1036:Middlewares/Third_Party/wolfSSL_wolfSSL_wolfSSL/wolfssl/wolfcrypt/src/hmac.c ****             ret = BUFFER_E;
1037:Middlewares/Third_Party/wolfSSL_wolfSSL_wolfSSL/wolfssl/wolfcrypt/src/hmac.c ****     }
1038:Middlewares/Third_Party/wolfSSL_wolfSSL_wolfSSL/wolfssl/wolfcrypt/src/hmac.c **** 
1039:Middlewares/Third_Party/wolfSSL_wolfSSL_wolfSSL/wolfssl/wolfcrypt/src/hmac.c ****     if (ret == 0)
1040:Middlewares/Third_Party/wolfSSL_wolfSSL_wolfSSL/wolfssl/wolfcrypt/src/hmac.c ****         ret  = wc_HmacInit(hmac, heap, devId);
1041:Middlewares/Third_Party/wolfSSL_wolfSSL_wolfSSL/wolfssl/wolfcrypt/src/hmac.c ****     if (ret == 0) {
1042:Middlewares/Third_Party/wolfSSL_wolfSSL_wolfSSL/wolfssl/wolfcrypt/src/hmac.c ****         XMEMCPY(hmac->label, label, labelLen);
1043:Middlewares/Third_Party/wolfSSL_wolfSSL_wolfSSL/wolfssl/wolfcrypt/src/hmac.c ****         hmac->labelLen = labelLen;
1044:Middlewares/Third_Party/wolfSSL_wolfSSL_wolfSSL/wolfssl/wolfcrypt/src/hmac.c ****     }
1045:Middlewares/Third_Party/wolfSSL_wolfSSL_wolfSSL/wolfssl/wolfcrypt/src/hmac.c **** 
1046:Middlewares/Third_Party/wolfSSL_wolfSSL_wolfSSL/wolfssl/wolfcrypt/src/hmac.c ****     return ret;
1047:Middlewares/Third_Party/wolfSSL_wolfSSL_wolfSSL/wolfssl/wolfcrypt/src/hmac.c **** }
1048:Middlewares/Third_Party/wolfSSL_wolfSSL_wolfSSL/wolfssl/wolfcrypt/src/hmac.c **** #endif
1049:Middlewares/Third_Party/wolfSSL_wolfSSL_wolfSSL/wolfssl/wolfcrypt/src/hmac.c **** 
1050:Middlewares/Third_Party/wolfSSL_wolfSSL_wolfSSL/wolfssl/wolfcrypt/src/hmac.c **** /* Free Hmac from use with async device */
1051:Middlewares/Third_Party/wolfSSL_wolfSSL_wolfSSL/wolfssl/wolfcrypt/src/hmac.c **** void wc_HmacFree(Hmac* hmac)
1052:Middlewares/Third_Party/wolfSSL_wolfSSL_wolfSSL/wolfssl/wolfcrypt/src/hmac.c **** {
 526              		.loc 1 1052 1 is_stmt 1 view -0
 527              		.cfi_startproc
 528              		@ args = 0, pretend = 0, frame = 0
 529              		@ frame_needed = 0, uses_anonymous_args = 0
1053:Middlewares/Third_Party/wolfSSL_wolfSSL_wolfSSL/wolfssl/wolfcrypt/src/hmac.c ****     if (hmac == NULL)
 530              		.loc 1 1053 5 view .LVU137
 531              		.loc 1 1053 8 is_stmt 0 view .LVU138
 532 0000 88B1     		cbz	r0, .L54
1052:Middlewares/Third_Party/wolfSSL_wolfSSL_wolfSSL/wolfssl/wolfcrypt/src/hmac.c ****     if (hmac == NULL)
 533              		.loc 1 1052 1 view .LVU139
 534 0002 10B5     		push	{r4, lr}
 535              	.LCFI9:
 536              		.cfi_def_cfa_offset 8
 537              		.cfi_offset 4, -8
ARM GAS  /tmp/ccxfTf9S.s 			page 30


 538              		.cfi_offset 14, -4
 539 0004 0446     		mov	r4, r0
1054:Middlewares/Third_Party/wolfSSL_wolfSSL_wolfSSL/wolfssl/wolfcrypt/src/hmac.c ****         return;
1055:Middlewares/Third_Party/wolfSSL_wolfSSL_wolfSSL/wolfssl/wolfcrypt/src/hmac.c **** 
1056:Middlewares/Third_Party/wolfSSL_wolfSSL_wolfSSL/wolfssl/wolfcrypt/src/hmac.c **** #ifdef WOLF_CRYPTO_CB
1057:Middlewares/Third_Party/wolfSSL_wolfSSL_wolfSSL/wolfssl/wolfcrypt/src/hmac.c ****     /* handle cleanup case where final is not called */
1058:Middlewares/Third_Party/wolfSSL_wolfSSL_wolfSSL/wolfssl/wolfcrypt/src/hmac.c ****     if (hmac->devId != INVALID_DEVID && hmac->devCtx != NULL) {
1059:Middlewares/Third_Party/wolfSSL_wolfSSL_wolfSSL/wolfssl/wolfcrypt/src/hmac.c ****         int  ret;
1060:Middlewares/Third_Party/wolfSSL_wolfSSL_wolfSSL/wolfssl/wolfcrypt/src/hmac.c ****         byte finalHash[WC_HMAC_BLOCK_SIZE];
1061:Middlewares/Third_Party/wolfSSL_wolfSSL_wolfSSL/wolfssl/wolfcrypt/src/hmac.c ****         ret = wc_CryptoCb_Hmac(hmac, hmac->macType, NULL, 0, finalHash);
1062:Middlewares/Third_Party/wolfSSL_wolfSSL_wolfSSL/wolfssl/wolfcrypt/src/hmac.c ****         (void)ret; /* must ignore return code here */
1063:Middlewares/Third_Party/wolfSSL_wolfSSL_wolfSSL/wolfssl/wolfcrypt/src/hmac.c ****         (void)finalHash;
1064:Middlewares/Third_Party/wolfSSL_wolfSSL_wolfSSL/wolfssl/wolfcrypt/src/hmac.c ****     }
1065:Middlewares/Third_Party/wolfSSL_wolfSSL_wolfSSL/wolfssl/wolfcrypt/src/hmac.c **** #endif
1066:Middlewares/Third_Party/wolfSSL_wolfSSL_wolfSSL/wolfssl/wolfcrypt/src/hmac.c **** 
1067:Middlewares/Third_Party/wolfSSL_wolfSSL_wolfSSL/wolfssl/wolfcrypt/src/hmac.c ****     switch (hmac->macType) {
 540              		.loc 1 1067 5 is_stmt 1 view .LVU140
 541              		.loc 1 1067 17 is_stmt 0 view .LVU141
 542 0006 90F81431 		ldrb	r3, [r0, #276]	@ zero_extendqisi2
 543              		.loc 1 1067 5 view .LVU142
 544 000a 062B     		cmp	r3, #6
 545 000c 04D0     		beq	.L57
 546              	.LVL52:
 547              	.L52:
1068:Middlewares/Third_Party/wolfSSL_wolfSSL_wolfSSL/wolfssl/wolfcrypt/src/hmac.c ****     #ifndef NO_MD5
1069:Middlewares/Third_Party/wolfSSL_wolfSSL_wolfSSL/wolfssl/wolfcrypt/src/hmac.c ****         case WC_MD5:
1070:Middlewares/Third_Party/wolfSSL_wolfSSL_wolfSSL/wolfssl/wolfcrypt/src/hmac.c ****             wc_Md5Free(&hmac->hash.md5);
1071:Middlewares/Third_Party/wolfSSL_wolfSSL_wolfSSL/wolfssl/wolfcrypt/src/hmac.c ****             break;
1072:Middlewares/Third_Party/wolfSSL_wolfSSL_wolfSSL/wolfssl/wolfcrypt/src/hmac.c ****     #endif /* !NO_MD5 */
1073:Middlewares/Third_Party/wolfSSL_wolfSSL_wolfSSL/wolfssl/wolfcrypt/src/hmac.c **** 
1074:Middlewares/Third_Party/wolfSSL_wolfSSL_wolfSSL/wolfssl/wolfcrypt/src/hmac.c ****     #ifndef NO_SHA
1075:Middlewares/Third_Party/wolfSSL_wolfSSL_wolfSSL/wolfssl/wolfcrypt/src/hmac.c ****         case WC_SHA:
1076:Middlewares/Third_Party/wolfSSL_wolfSSL_wolfSSL/wolfssl/wolfcrypt/src/hmac.c ****             wc_ShaFree(&hmac->hash.sha);
1077:Middlewares/Third_Party/wolfSSL_wolfSSL_wolfSSL/wolfssl/wolfcrypt/src/hmac.c ****             break;
1078:Middlewares/Third_Party/wolfSSL_wolfSSL_wolfSSL/wolfssl/wolfcrypt/src/hmac.c ****     #endif /* !NO_SHA */
1079:Middlewares/Third_Party/wolfSSL_wolfSSL_wolfSSL/wolfssl/wolfcrypt/src/hmac.c **** 
1080:Middlewares/Third_Party/wolfSSL_wolfSSL_wolfSSL/wolfssl/wolfcrypt/src/hmac.c ****     #ifdef WOLFSSL_SHA224
1081:Middlewares/Third_Party/wolfSSL_wolfSSL_wolfSSL/wolfssl/wolfcrypt/src/hmac.c ****         case WC_SHA224:
1082:Middlewares/Third_Party/wolfSSL_wolfSSL_wolfSSL/wolfssl/wolfcrypt/src/hmac.c ****             wc_Sha224Free(&hmac->hash.sha224);
1083:Middlewares/Third_Party/wolfSSL_wolfSSL_wolfSSL/wolfssl/wolfcrypt/src/hmac.c ****             break;
1084:Middlewares/Third_Party/wolfSSL_wolfSSL_wolfSSL/wolfssl/wolfcrypt/src/hmac.c ****     #endif /* WOLFSSL_SHA224 */
1085:Middlewares/Third_Party/wolfSSL_wolfSSL_wolfSSL/wolfssl/wolfcrypt/src/hmac.c ****     #ifndef NO_SHA256
1086:Middlewares/Third_Party/wolfSSL_wolfSSL_wolfSSL/wolfssl/wolfcrypt/src/hmac.c ****         case WC_SHA256:
1087:Middlewares/Third_Party/wolfSSL_wolfSSL_wolfSSL/wolfssl/wolfcrypt/src/hmac.c ****             wc_Sha256Free(&hmac->hash.sha256);
1088:Middlewares/Third_Party/wolfSSL_wolfSSL_wolfSSL/wolfssl/wolfcrypt/src/hmac.c ****             break;
1089:Middlewares/Third_Party/wolfSSL_wolfSSL_wolfSSL/wolfssl/wolfcrypt/src/hmac.c ****     #endif /* !NO_SHA256 */
1090:Middlewares/Third_Party/wolfSSL_wolfSSL_wolfSSL/wolfssl/wolfcrypt/src/hmac.c **** 
1091:Middlewares/Third_Party/wolfSSL_wolfSSL_wolfSSL/wolfssl/wolfcrypt/src/hmac.c ****     #ifdef WOLFSSL_SHA384
1092:Middlewares/Third_Party/wolfSSL_wolfSSL_wolfSSL/wolfssl/wolfcrypt/src/hmac.c ****         case WC_SHA384:
1093:Middlewares/Third_Party/wolfSSL_wolfSSL_wolfSSL/wolfssl/wolfcrypt/src/hmac.c ****             wc_Sha384Free(&hmac->hash.sha384);
1094:Middlewares/Third_Party/wolfSSL_wolfSSL_wolfSSL/wolfssl/wolfcrypt/src/hmac.c ****             break;
1095:Middlewares/Third_Party/wolfSSL_wolfSSL_wolfSSL/wolfssl/wolfcrypt/src/hmac.c ****     #endif /* WOLFSSL_SHA384 */
1096:Middlewares/Third_Party/wolfSSL_wolfSSL_wolfSSL/wolfssl/wolfcrypt/src/hmac.c ****     #ifdef WOLFSSL_SHA512
1097:Middlewares/Third_Party/wolfSSL_wolfSSL_wolfSSL/wolfssl/wolfcrypt/src/hmac.c ****         case WC_SHA512:
1098:Middlewares/Third_Party/wolfSSL_wolfSSL_wolfSSL/wolfssl/wolfcrypt/src/hmac.c ****             wc_Sha512Free(&hmac->hash.sha512);
1099:Middlewares/Third_Party/wolfSSL_wolfSSL_wolfSSL/wolfssl/wolfcrypt/src/hmac.c ****             break;
1100:Middlewares/Third_Party/wolfSSL_wolfSSL_wolfSSL/wolfssl/wolfcrypt/src/hmac.c ****     #endif /* WOLFSSL_SHA512 */
ARM GAS  /tmp/ccxfTf9S.s 			page 31


1101:Middlewares/Third_Party/wolfSSL_wolfSSL_wolfSSL/wolfssl/wolfcrypt/src/hmac.c **** 
1102:Middlewares/Third_Party/wolfSSL_wolfSSL_wolfSSL/wolfssl/wolfcrypt/src/hmac.c ****     #ifdef WOLFSSL_SHA3
1103:Middlewares/Third_Party/wolfSSL_wolfSSL_wolfSSL/wolfssl/wolfcrypt/src/hmac.c ****     #ifndef WOLFSSL_NOSHA3_224
1104:Middlewares/Third_Party/wolfSSL_wolfSSL_wolfSSL/wolfssl/wolfcrypt/src/hmac.c ****         case WC_SHA3_224:
1105:Middlewares/Third_Party/wolfSSL_wolfSSL_wolfSSL/wolfssl/wolfcrypt/src/hmac.c ****             wc_Sha3_224_Free(&hmac->hash.sha3);
1106:Middlewares/Third_Party/wolfSSL_wolfSSL_wolfSSL/wolfssl/wolfcrypt/src/hmac.c ****             break;
1107:Middlewares/Third_Party/wolfSSL_wolfSSL_wolfSSL/wolfssl/wolfcrypt/src/hmac.c ****     #endif
1108:Middlewares/Third_Party/wolfSSL_wolfSSL_wolfSSL/wolfssl/wolfcrypt/src/hmac.c ****     #ifndef WOLFSSL_NOSHA3_256
1109:Middlewares/Third_Party/wolfSSL_wolfSSL_wolfSSL/wolfssl/wolfcrypt/src/hmac.c ****         case WC_SHA3_256:
1110:Middlewares/Third_Party/wolfSSL_wolfSSL_wolfSSL/wolfssl/wolfcrypt/src/hmac.c ****             wc_Sha3_256_Free(&hmac->hash.sha3);
1111:Middlewares/Third_Party/wolfSSL_wolfSSL_wolfSSL/wolfssl/wolfcrypt/src/hmac.c ****             break;
1112:Middlewares/Third_Party/wolfSSL_wolfSSL_wolfSSL/wolfssl/wolfcrypt/src/hmac.c ****     #endif
1113:Middlewares/Third_Party/wolfSSL_wolfSSL_wolfSSL/wolfssl/wolfcrypt/src/hmac.c ****     #ifndef WOLFSSL_NOSHA3_384
1114:Middlewares/Third_Party/wolfSSL_wolfSSL_wolfSSL/wolfssl/wolfcrypt/src/hmac.c ****         case WC_SHA3_384:
1115:Middlewares/Third_Party/wolfSSL_wolfSSL_wolfSSL/wolfssl/wolfcrypt/src/hmac.c ****             wc_Sha3_384_Free(&hmac->hash.sha3);
1116:Middlewares/Third_Party/wolfSSL_wolfSSL_wolfSSL/wolfssl/wolfcrypt/src/hmac.c ****             break;
1117:Middlewares/Third_Party/wolfSSL_wolfSSL_wolfSSL/wolfssl/wolfcrypt/src/hmac.c ****     #endif
1118:Middlewares/Third_Party/wolfSSL_wolfSSL_wolfSSL/wolfssl/wolfcrypt/src/hmac.c ****     #ifndef WOLFSSL_NOSHA3_512
1119:Middlewares/Third_Party/wolfSSL_wolfSSL_wolfSSL/wolfssl/wolfcrypt/src/hmac.c ****         case WC_SHA3_512:
1120:Middlewares/Third_Party/wolfSSL_wolfSSL_wolfSSL/wolfssl/wolfcrypt/src/hmac.c ****             wc_Sha3_512_Free(&hmac->hash.sha3);
1121:Middlewares/Third_Party/wolfSSL_wolfSSL_wolfSSL/wolfssl/wolfcrypt/src/hmac.c ****             break;
1122:Middlewares/Third_Party/wolfSSL_wolfSSL_wolfSSL/wolfssl/wolfcrypt/src/hmac.c ****     #endif
1123:Middlewares/Third_Party/wolfSSL_wolfSSL_wolfSSL/wolfssl/wolfcrypt/src/hmac.c ****     #endif /* WOLFSSL_SHA3 */
1124:Middlewares/Third_Party/wolfSSL_wolfSSL_wolfSSL/wolfssl/wolfcrypt/src/hmac.c **** 
1125:Middlewares/Third_Party/wolfSSL_wolfSSL_wolfSSL/wolfssl/wolfcrypt/src/hmac.c ****         default:
1126:Middlewares/Third_Party/wolfSSL_wolfSSL_wolfSSL/wolfssl/wolfcrypt/src/hmac.c ****             break;
1127:Middlewares/Third_Party/wolfSSL_wolfSSL_wolfSSL/wolfssl/wolfcrypt/src/hmac.c ****     }
1128:Middlewares/Third_Party/wolfSSL_wolfSSL_wolfSSL/wolfssl/wolfcrypt/src/hmac.c **** 
1129:Middlewares/Third_Party/wolfSSL_wolfSSL_wolfSSL/wolfssl/wolfcrypt/src/hmac.c **** #if defined(WOLFSSL_ASYNC_CRYPT) && defined(WC_ASYNC_ENABLE_HMAC)
1130:Middlewares/Third_Party/wolfSSL_wolfSSL_wolfSSL/wolfssl/wolfcrypt/src/hmac.c ****     wolfAsync_DevCtxFree(&hmac->asyncDev, WOLFSSL_ASYNC_MARKER_HMAC);
1131:Middlewares/Third_Party/wolfSSL_wolfSSL_wolfSSL/wolfssl/wolfcrypt/src/hmac.c **** #endif /* WOLFSSL_ASYNC_CRYPT */
1132:Middlewares/Third_Party/wolfSSL_wolfSSL_wolfSSL/wolfssl/wolfcrypt/src/hmac.c **** 
1133:Middlewares/Third_Party/wolfSSL_wolfSSL_wolfSSL/wolfssl/wolfcrypt/src/hmac.c ****     switch (hmac->macType) {
 548              		.loc 1 1133 5 is_stmt 1 view .LVU143
 549              		.loc 1 1133 17 is_stmt 0 view .LVU144
 550 000e 94F81431 		ldrb	r3, [r4, #276]	@ zero_extendqisi2
 551              		.loc 1 1133 5 view .LVU145
 552 0012 062B     		cmp	r3, #6
 553 0014 03D0     		beq	.L58
 554              	.L50:
1134:Middlewares/Third_Party/wolfSSL_wolfSSL_wolfSSL/wolfssl/wolfcrypt/src/hmac.c ****     #ifndef NO_MD5
1135:Middlewares/Third_Party/wolfSSL_wolfSSL_wolfSSL/wolfssl/wolfcrypt/src/hmac.c ****         case WC_MD5:
1136:Middlewares/Third_Party/wolfSSL_wolfSSL_wolfSSL/wolfssl/wolfcrypt/src/hmac.c ****             wc_Md5Free(&hmac->hash.md5);
1137:Middlewares/Third_Party/wolfSSL_wolfSSL_wolfSSL/wolfssl/wolfcrypt/src/hmac.c ****             break;
1138:Middlewares/Third_Party/wolfSSL_wolfSSL_wolfSSL/wolfssl/wolfcrypt/src/hmac.c ****     #endif /* !NO_MD5 */
1139:Middlewares/Third_Party/wolfSSL_wolfSSL_wolfSSL/wolfssl/wolfcrypt/src/hmac.c **** 
1140:Middlewares/Third_Party/wolfSSL_wolfSSL_wolfSSL/wolfssl/wolfcrypt/src/hmac.c ****     #ifndef NO_SHA
1141:Middlewares/Third_Party/wolfSSL_wolfSSL_wolfSSL/wolfssl/wolfcrypt/src/hmac.c ****         case WC_SHA:
1142:Middlewares/Third_Party/wolfSSL_wolfSSL_wolfSSL/wolfssl/wolfcrypt/src/hmac.c ****             wc_ShaFree(&hmac->hash.sha);
1143:Middlewares/Third_Party/wolfSSL_wolfSSL_wolfSSL/wolfssl/wolfcrypt/src/hmac.c ****             break;
1144:Middlewares/Third_Party/wolfSSL_wolfSSL_wolfSSL/wolfssl/wolfcrypt/src/hmac.c ****     #endif /* !NO_SHA */
1145:Middlewares/Third_Party/wolfSSL_wolfSSL_wolfSSL/wolfssl/wolfcrypt/src/hmac.c **** 
1146:Middlewares/Third_Party/wolfSSL_wolfSSL_wolfSSL/wolfssl/wolfcrypt/src/hmac.c ****     #ifdef WOLFSSL_SHA224
1147:Middlewares/Third_Party/wolfSSL_wolfSSL_wolfSSL/wolfssl/wolfcrypt/src/hmac.c ****         case WC_SHA224:
1148:Middlewares/Third_Party/wolfSSL_wolfSSL_wolfSSL/wolfssl/wolfcrypt/src/hmac.c ****             wc_Sha224Free(&hmac->hash.sha224);
1149:Middlewares/Third_Party/wolfSSL_wolfSSL_wolfSSL/wolfssl/wolfcrypt/src/hmac.c ****             break;
1150:Middlewares/Third_Party/wolfSSL_wolfSSL_wolfSSL/wolfssl/wolfcrypt/src/hmac.c ****     #endif /* WOLFSSL_SHA224 */
ARM GAS  /tmp/ccxfTf9S.s 			page 32


1151:Middlewares/Third_Party/wolfSSL_wolfSSL_wolfSSL/wolfssl/wolfcrypt/src/hmac.c ****     #ifndef NO_SHA256
1152:Middlewares/Third_Party/wolfSSL_wolfSSL_wolfSSL/wolfssl/wolfcrypt/src/hmac.c ****         case WC_SHA256:
1153:Middlewares/Third_Party/wolfSSL_wolfSSL_wolfSSL/wolfssl/wolfcrypt/src/hmac.c ****             wc_Sha256Free(&hmac->hash.sha256);
1154:Middlewares/Third_Party/wolfSSL_wolfSSL_wolfSSL/wolfssl/wolfcrypt/src/hmac.c ****             break;
1155:Middlewares/Third_Party/wolfSSL_wolfSSL_wolfSSL/wolfssl/wolfcrypt/src/hmac.c ****     #endif /* !NO_SHA256 */
1156:Middlewares/Third_Party/wolfSSL_wolfSSL_wolfSSL/wolfssl/wolfcrypt/src/hmac.c **** 
1157:Middlewares/Third_Party/wolfSSL_wolfSSL_wolfSSL/wolfssl/wolfcrypt/src/hmac.c ****     #ifdef WOLFSSL_SHA512
1158:Middlewares/Third_Party/wolfSSL_wolfSSL_wolfSSL/wolfssl/wolfcrypt/src/hmac.c ****     #ifdef WOLFSSL_SHA384
1159:Middlewares/Third_Party/wolfSSL_wolfSSL_wolfSSL/wolfssl/wolfcrypt/src/hmac.c ****         case WC_SHA384:
1160:Middlewares/Third_Party/wolfSSL_wolfSSL_wolfSSL/wolfssl/wolfcrypt/src/hmac.c ****             wc_Sha384Free(&hmac->hash.sha384);
1161:Middlewares/Third_Party/wolfSSL_wolfSSL_wolfSSL/wolfssl/wolfcrypt/src/hmac.c ****             break;
1162:Middlewares/Third_Party/wolfSSL_wolfSSL_wolfSSL/wolfssl/wolfcrypt/src/hmac.c ****     #endif /* WOLFSSL_SHA384 */
1163:Middlewares/Third_Party/wolfSSL_wolfSSL_wolfSSL/wolfssl/wolfcrypt/src/hmac.c ****         case WC_SHA512:
1164:Middlewares/Third_Party/wolfSSL_wolfSSL_wolfSSL/wolfssl/wolfcrypt/src/hmac.c ****             wc_Sha512Free(&hmac->hash.sha512);
1165:Middlewares/Third_Party/wolfSSL_wolfSSL_wolfSSL/wolfssl/wolfcrypt/src/hmac.c ****             break;
1166:Middlewares/Third_Party/wolfSSL_wolfSSL_wolfSSL/wolfssl/wolfcrypt/src/hmac.c ****     #endif /* WOLFSSL_SHA512 */
1167:Middlewares/Third_Party/wolfSSL_wolfSSL_wolfSSL/wolfssl/wolfcrypt/src/hmac.c ****     }
1168:Middlewares/Third_Party/wolfSSL_wolfSSL_wolfSSL/wolfssl/wolfcrypt/src/hmac.c **** }
 555              		.loc 1 1168 1 view .LVU146
 556 0016 10BD     		pop	{r4, pc}
 557              	.LVL53:
 558              	.L57:
1087:Middlewares/Third_Party/wolfSSL_wolfSSL_wolfSSL/wolfssl/wolfcrypt/src/hmac.c ****             break;
 559              		.loc 1 1087 13 is_stmt 1 view .LVU147
 560 0018 FFF7FEFF 		bl	wc_Sha256Free
 561              	.LVL54:
1088:Middlewares/Third_Party/wolfSSL_wolfSSL_wolfSSL/wolfssl/wolfcrypt/src/hmac.c ****     #endif /* !NO_SHA256 */
 562              		.loc 1 1088 13 view .LVU148
 563 001c F7E7     		b	.L52
 564              	.L58:
1153:Middlewares/Third_Party/wolfSSL_wolfSSL_wolfSSL/wolfssl/wolfcrypt/src/hmac.c ****             break;
 565              		.loc 1 1153 13 view .LVU149
 566 001e 2046     		mov	r0, r4
 567 0020 FFF7FEFF 		bl	wc_Sha256Free
 568              	.LVL55:
1154:Middlewares/Third_Party/wolfSSL_wolfSSL_wolfSSL/wolfssl/wolfcrypt/src/hmac.c ****     #endif /* !NO_SHA256 */
 569              		.loc 1 1154 13 view .LVU150
 570 0024 F7E7     		b	.L50
 571              	.LVL56:
 572              	.L54:
 573              	.LCFI10:
 574              		.cfi_def_cfa_offset 0
 575              		.cfi_restore 4
 576              		.cfi_restore 14
1154:Middlewares/Third_Party/wolfSSL_wolfSSL_wolfSSL/wolfssl/wolfcrypt/src/hmac.c ****     #endif /* !NO_SHA256 */
 577              		.loc 1 1154 13 is_stmt 0 view .LVU151
 578 0026 7047     		bx	lr
 579              		.cfi_endproc
 580              	.LFE182:
 582              		.section	.text.wc_HmacSetKey,"ax",%progbits
 583              		.align	1
 584              		.global	wc_HmacSetKey
 585              		.syntax unified
 586              		.thumb
 587              		.thumb_func
 588              		.fpu fpv4-sp-d16
 590              	wc_HmacSetKey:
ARM GAS  /tmp/ccxfTf9S.s 			page 33


 591              	.LVL57:
 592              	.LFB177:
 280:Middlewares/Third_Party/wolfSSL_wolfSSL_wolfSSL/wolfssl/wolfcrypt/src/hmac.c ****     byte*  ip;
 593              		.loc 1 280 1 is_stmt 1 view -0
 594              		.cfi_startproc
 595              		@ args = 0, pretend = 0, frame = 0
 596              		@ frame_needed = 0, uses_anonymous_args = 0
 280:Middlewares/Third_Party/wolfSSL_wolfSSL_wolfSSL/wolfssl/wolfcrypt/src/hmac.c ****     byte*  ip;
 597              		.loc 1 280 1 is_stmt 0 view .LVU153
 598 0000 2DE9F843 		push	{r3, r4, r5, r6, r7, r8, r9, lr}
 599              	.LCFI11:
 600              		.cfi_def_cfa_offset 32
 601              		.cfi_offset 3, -32
 602              		.cfi_offset 4, -28
 603              		.cfi_offset 5, -24
 604              		.cfi_offset 6, -20
 605              		.cfi_offset 7, -16
 606              		.cfi_offset 8, -12
 607              		.cfi_offset 9, -8
 608              		.cfi_offset 14, -4
 281:Middlewares/Third_Party/wolfSSL_wolfSSL_wolfSSL/wolfssl/wolfcrypt/src/hmac.c ****     byte*  op;
 609              		.loc 1 281 5 is_stmt 1 view .LVU154
 282:Middlewares/Third_Party/wolfSSL_wolfSSL_wolfSSL/wolfssl/wolfcrypt/src/hmac.c ****     word32 i, hmac_block_size = 0;
 610              		.loc 1 282 5 view .LVU155
 283:Middlewares/Third_Party/wolfSSL_wolfSSL_wolfSSL/wolfssl/wolfcrypt/src/hmac.c ****     int    ret = 0;
 611              		.loc 1 283 5 view .LVU156
 612              	.LVL58:
 284:Middlewares/Third_Party/wolfSSL_wolfSSL_wolfSSL/wolfssl/wolfcrypt/src/hmac.c ****     void*  heap = NULL;
 613              		.loc 1 284 5 view .LVU157
 285:Middlewares/Third_Party/wolfSSL_wolfSSL_wolfSSL/wolfssl/wolfcrypt/src/hmac.c **** 
 614              		.loc 1 285 5 view .LVU158
 287:Middlewares/Third_Party/wolfSSL_wolfSSL_wolfSSL/wolfssl/wolfcrypt/src/hmac.c ****        !(type == WC_MD5 || type == WC_SHA ||
 615              		.loc 1 287 5 view .LVU159
 287:Middlewares/Third_Party/wolfSSL_wolfSSL_wolfSSL/wolfssl/wolfcrypt/src/hmac.c ****        !(type == WC_MD5 || type == WC_SHA ||
 616              		.loc 1 287 8 is_stmt 0 view .LVU160
 617 0004 0028     		cmp	r0, #0
 618 0006 68D0     		beq	.L69
 619 0008 0C46     		mov	r4, r1
 620 000a 9146     		mov	r9, r2
 621 000c 9846     		mov	r8, r3
 622 000e 0746     		mov	r7, r0
 287:Middlewares/Third_Party/wolfSSL_wolfSSL_wolfSSL/wolfssl/wolfcrypt/src/hmac.c ****        !(type == WC_MD5 || type == WC_SHA ||
 623              		.loc 1 287 22 discriminator 1 view .LVU161
 624 0010 92B3     		cbz	r2, .L75
 625              	.L61:
 290:Middlewares/Third_Party/wolfSSL_wolfSSL_wolfSSL/wolfssl/wolfcrypt/src/hmac.c ****             type == WC_SHA3_224 || type == WC_SHA3_256 ||
 626              		.loc 1 290 31 discriminator 4 view .LVU162
 627 0012 E31E     		subs	r3, r4, #3
 628              	.LVL59:
 287:Middlewares/Third_Party/wolfSSL_wolfSSL_wolfSSL/wolfssl/wolfcrypt/src/hmac.c ****        !(type == WC_MD5 || type == WC_SHA ||
 629              		.loc 1 287 54 discriminator 4 view .LVU163
 630 0014 052B     		cmp	r3, #5
 631 0016 07D9     		bls	.L62
 290:Middlewares/Third_Party/wolfSSL_wolfSSL_wolfSSL/wolfssl/wolfcrypt/src/hmac.c ****             type == WC_SHA3_224 || type == WC_SHA3_256 ||
 632              		.loc 1 290 52 view .LVU164
 633 0018 0A2C     		cmp	r4, #10
 634 001a 05D0     		beq	.L62
ARM GAS  /tmp/ccxfTf9S.s 			page 34


 291:Middlewares/Third_Party/wolfSSL_wolfSSL_wolfSSL/wolfssl/wolfcrypt/src/hmac.c ****             type == WC_SHA3_384 || type == WC_SHA3_512)) {
 635              		.loc 1 291 33 view .LVU165
 636 001c 0B2C     		cmp	r4, #11
 637 001e 03D0     		beq	.L62
 291:Middlewares/Third_Party/wolfSSL_wolfSSL_wolfSSL/wolfssl/wolfcrypt/src/hmac.c ****             type == WC_SHA3_384 || type == WC_SHA3_512)) {
 638              		.loc 1 291 56 discriminator 1 view .LVU166
 639 0020 0C2C     		cmp	r4, #12
 640 0022 01D0     		beq	.L62
 288:Middlewares/Third_Party/wolfSSL_wolfSSL_wolfSSL/wolfssl/wolfcrypt/src/hmac.c ****             type == WC_SHA224 || type == WC_SHA256 ||
 641              		.loc 1 288 8 view .LVU167
 642 0024 0D2C     		cmp	r4, #13
 643 0026 5BD1     		bne	.L71
 644              	.L62:
 302:Middlewares/Third_Party/wolfSSL_wolfSSL_wolfSSL/wolfssl/wolfcrypt/src/hmac.c ****         wc_HmacFree(hmac);
 645              		.loc 1 302 5 is_stmt 1 view .LVU168
 302:Middlewares/Third_Party/wolfSSL_wolfSSL_wolfSSL/wolfssl/wolfcrypt/src/hmac.c ****         wc_HmacFree(hmac);
 646              		.loc 1 302 13 is_stmt 0 view .LVU169
 647 0028 97F81431 		ldrb	r3, [r7, #276]	@ zero_extendqisi2
 302:Middlewares/Third_Party/wolfSSL_wolfSSL_wolfSSL/wolfssl/wolfcrypt/src/hmac.c ****         wc_HmacFree(hmac);
 648              		.loc 1 302 8 view .LVU170
 649 002c 4BBB     		cbnz	r3, .L76
 650              	.LVL60:
 651              	.L63:
 307:Middlewares/Third_Party/wolfSSL_wolfSSL_wolfSSL/wolfssl/wolfcrypt/src/hmac.c ****     hmac->macType = (byte)type;
 652              		.loc 1 307 5 is_stmt 1 view .LVU171
 307:Middlewares/Third_Party/wolfSSL_wolfSSL_wolfSSL/wolfssl/wolfcrypt/src/hmac.c ****     hmac->macType = (byte)type;
 653              		.loc 1 307 26 is_stmt 0 view .LVU172
 654 002e 0022     		movs	r2, #0
 655 0030 87F81521 		strb	r2, [r7, #277]
 308:Middlewares/Third_Party/wolfSSL_wolfSSL_wolfSSL/wolfssl/wolfcrypt/src/hmac.c **** 
 656              		.loc 1 308 5 is_stmt 1 view .LVU173
 308:Middlewares/Third_Party/wolfSSL_wolfSSL_wolfSSL/wolfssl/wolfcrypt/src/hmac.c **** 
 657              		.loc 1 308 19 is_stmt 0 view .LVU174
 658 0034 87F81441 		strb	r4, [r7, #276]
 310:Middlewares/Third_Party/wolfSSL_wolfSSL_wolfSSL/wolfssl/wolfcrypt/src/hmac.c ****     if (ret != 0)
 659              		.loc 1 310 5 is_stmt 1 view .LVU175
 310:Middlewares/Third_Party/wolfSSL_wolfSSL_wolfSSL/wolfssl/wolfcrypt/src/hmac.c ****     if (ret != 0)
 660              		.loc 1 310 11 is_stmt 0 view .LVU176
 661 0038 2146     		mov	r1, r4
 662 003a 3846     		mov	r0, r7
 663 003c FFF7FEFF 		bl	_InitHmac
 664              	.LVL61:
 311:Middlewares/Third_Party/wolfSSL_wolfSSL_wolfSSL/wolfssl/wolfcrypt/src/hmac.c ****         return ret;
 665              		.loc 1 311 5 is_stmt 1 view .LVU177
 311:Middlewares/Third_Party/wolfSSL_wolfSSL_wolfSSL/wolfssl/wolfcrypt/src/hmac.c ****         return ret;
 666              		.loc 1 311 8 is_stmt 0 view .LVU178
 667 0040 0646     		mov	r6, r0
 668 0042 0028     		cmp	r0, #0
 669 0044 46D1     		bne	.L59
 324:Middlewares/Third_Party/wolfSSL_wolfSSL_wolfSSL/wolfssl/wolfcrypt/src/hmac.c ****     op = (byte*)hmac->opad;
 670              		.loc 1 324 5 is_stmt 1 view .LVU179
 324:Middlewares/Third_Party/wolfSSL_wolfSSL_wolfSSL/wolfssl/wolfcrypt/src/hmac.c ****     op = (byte*)hmac->opad;
 671              		.loc 1 324 8 is_stmt 0 view .LVU180
 672 0046 07F17004 		add	r4, r7, #112
 673              	.LVL62:
 325:Middlewares/Third_Party/wolfSSL_wolfSSL_wolfSSL/wolfssl/wolfcrypt/src/hmac.c **** 
 674              		.loc 1 325 5 is_stmt 1 view .LVU181
ARM GAS  /tmp/ccxfTf9S.s 			page 35


 325:Middlewares/Third_Party/wolfSSL_wolfSSL_wolfSSL/wolfssl/wolfcrypt/src/hmac.c **** 
 675              		.loc 1 325 8 is_stmt 0 view .LVU182
 676 004a 07F1B005 		add	r5, r7, #176
 677              	.LVL63:
 327:Middlewares/Third_Party/wolfSSL_wolfSSL_wolfSSL/wolfssl/wolfcrypt/src/hmac.c ****     #ifndef NO_MD5
 678              		.loc 1 327 5 is_stmt 1 view .LVU183
 327:Middlewares/Third_Party/wolfSSL_wolfSSL_wolfSSL/wolfssl/wolfcrypt/src/hmac.c ****     #ifndef NO_MD5
 679              		.loc 1 327 17 is_stmt 0 view .LVU184
 680 004e 97F81431 		ldrb	r3, [r7, #276]	@ zero_extendqisi2
 327:Middlewares/Third_Party/wolfSSL_wolfSSL_wolfSSL/wolfssl/wolfcrypt/src/hmac.c ****     #ifndef NO_MD5
 681              		.loc 1 327 5 view .LVU185
 682 0052 062B     		cmp	r3, #6
 683 0054 47D1     		bne	.L72
 391:Middlewares/Third_Party/wolfSSL_wolfSSL_wolfSSL/wolfssl/wolfcrypt/src/hmac.c ****             if (length <= WC_SHA256_BLOCK_SIZE) {
 684              		.loc 1 391 13 is_stmt 1 view .LVU186
 685              	.LVL64:
 392:Middlewares/Third_Party/wolfSSL_wolfSSL_wolfSSL/wolfssl/wolfcrypt/src/hmac.c ****                 if (key != NULL) {
 686              		.loc 1 392 13 view .LVU187
 392:Middlewares/Third_Party/wolfSSL_wolfSSL_wolfSSL/wolfssl/wolfcrypt/src/hmac.c ****                 if (key != NULL) {
 687              		.loc 1 392 16 is_stmt 0 view .LVU188
 688 0056 B8F1400F 		cmp	r8, #64
 689 005a 16D8     		bhi	.L64
 393:Middlewares/Third_Party/wolfSSL_wolfSSL_wolfSSL/wolfssl/wolfcrypt/src/hmac.c ****                     XMEMCPY(ip, key, length);
 690              		.loc 1 393 17 is_stmt 1 view .LVU189
 393:Middlewares/Third_Party/wolfSSL_wolfSSL_wolfSSL/wolfssl/wolfcrypt/src/hmac.c ****                     XMEMCPY(ip, key, length);
 691              		.loc 1 393 20 is_stmt 0 view .LVU190
 692 005c B9F1000F 		cmp	r9, #0
 693 0060 04D0     		beq	.L65
 394:Middlewares/Third_Party/wolfSSL_wolfSSL_wolfSSL/wolfssl/wolfcrypt/src/hmac.c ****                 }
 694              		.loc 1 394 21 is_stmt 1 view .LVU191
 695 0062 4246     		mov	r2, r8
 696 0064 4946     		mov	r1, r9
 697 0066 2046     		mov	r0, r4
 698              	.LVL65:
 394:Middlewares/Third_Party/wolfSSL_wolfSSL_wolfSSL/wolfssl/wolfcrypt/src/hmac.c ****                 }
 699              		.loc 1 394 21 is_stmt 0 view .LVU192
 700 0068 FFF7FEFF 		bl	memcpy
 701              	.LVL66:
 702              	.L65:
 557:Middlewares/Third_Party/wolfSSL_wolfSSL_wolfSSL/wolfssl/wolfcrypt/src/hmac.c ****         if (length < hmac_block_size)
 703              		.loc 1 557 5 is_stmt 1 view .LVU193
 557:Middlewares/Third_Party/wolfSSL_wolfSSL_wolfSSL/wolfssl/wolfcrypt/src/hmac.c ****         if (length < hmac_block_size)
 704              		.loc 1 557 8 is_stmt 0 view .LVU194
 705 006c 96BB     		cbnz	r6, .L59
 558:Middlewares/Third_Party/wolfSSL_wolfSSL_wolfSSL/wolfssl/wolfcrypt/src/hmac.c ****             XMEMSET(ip + length, 0, hmac_block_size - length);
 706              		.loc 1 558 9 is_stmt 1 view .LVU195
 558:Middlewares/Third_Party/wolfSSL_wolfSSL_wolfSSL/wolfssl/wolfcrypt/src/hmac.c ****             XMEMSET(ip + length, 0, hmac_block_size - length);
 707              		.loc 1 558 12 is_stmt 0 view .LVU196
 708 006e B8F13F0F 		cmp	r8, #63
 709 0072 1CD9     		bls	.L77
 710              	.L66:
 405:Middlewares/Third_Party/wolfSSL_wolfSSL_wolfSSL/wolfssl/wolfcrypt/src/hmac.c ****             }
 711              		.loc 1 405 24 discriminator 1 view .LVU197
 712 0074 0023     		movs	r3, #0
 713 0076 2BE0     		b	.L67
 714              	.LVL67:
 715              	.L75:
ARM GAS  /tmp/ccxfTf9S.s 			page 36


 287:Middlewares/Third_Party/wolfSSL_wolfSSL_wolfSSL/wolfssl/wolfcrypt/src/hmac.c ****        !(type == WC_MD5 || type == WC_SHA ||
 716              		.loc 1 287 38 discriminator 2 view .LVU198
 717 0078 002B     		cmp	r3, #0
 718 007a CAD0     		beq	.L61
 293:Middlewares/Third_Party/wolfSSL_wolfSSL_wolfSSL/wolfssl/wolfcrypt/src/hmac.c ****     }
 719              		.loc 1 293 16 view .LVU199
 720 007c 6FF0AC06 		mvn	r6, #172
 721 0080 28E0     		b	.L59
 722              	.LVL68:
 723              	.L76:
 303:Middlewares/Third_Party/wolfSSL_wolfSSL_wolfSSL/wolfssl/wolfcrypt/src/hmac.c ****     }
 724              		.loc 1 303 9 is_stmt 1 view .LVU200
 725 0082 3846     		mov	r0, r7
 726              	.LVL69:
 303:Middlewares/Third_Party/wolfSSL_wolfSSL_wolfSSL/wolfssl/wolfcrypt/src/hmac.c ****     }
 727              		.loc 1 303 9 is_stmt 0 view .LVU201
 728 0084 FFF7FEFF 		bl	wc_HmacFree
 729              	.LVL70:
 303:Middlewares/Third_Party/wolfSSL_wolfSSL_wolfSSL/wolfssl/wolfcrypt/src/hmac.c ****     }
 730              		.loc 1 303 9 view .LVU202
 731 0088 D1E7     		b	.L63
 732              	.LVL71:
 733              	.L64:
 398:Middlewares/Third_Party/wolfSSL_wolfSSL_wolfSSL/wolfssl/wolfcrypt/src/hmac.c ****                 if (ret != 0)
 734              		.loc 1 398 17 is_stmt 1 view .LVU203
 398:Middlewares/Third_Party/wolfSSL_wolfSSL_wolfSSL/wolfssl/wolfcrypt/src/hmac.c ****                 if (ret != 0)
 735              		.loc 1 398 23 is_stmt 0 view .LVU204
 736 008a 4246     		mov	r2, r8
 737 008c 4946     		mov	r1, r9
 738 008e 3846     		mov	r0, r7
 739              	.LVL72:
 398:Middlewares/Third_Party/wolfSSL_wolfSSL_wolfSSL/wolfssl/wolfcrypt/src/hmac.c ****                 if (ret != 0)
 740              		.loc 1 398 23 view .LVU205
 741 0090 FFF7FEFF 		bl	wc_Sha256Update
 742              	.LVL73:
 399:Middlewares/Third_Party/wolfSSL_wolfSSL_wolfSSL/wolfssl/wolfcrypt/src/hmac.c ****                     break;
 743              		.loc 1 399 17 is_stmt 1 view .LVU206
 399:Middlewares/Third_Party/wolfSSL_wolfSSL_wolfSSL/wolfssl/wolfcrypt/src/hmac.c ****                     break;
 744              		.loc 1 399 20 is_stmt 0 view .LVU207
 745 0094 0646     		mov	r6, r0
 746 0096 0028     		cmp	r0, #0
 747 0098 E8D1     		bne	.L65
 401:Middlewares/Third_Party/wolfSSL_wolfSSL_wolfSSL/wolfssl/wolfcrypt/src/hmac.c ****                 if (ret != 0)
 748              		.loc 1 401 17 is_stmt 1 view .LVU208
 401:Middlewares/Third_Party/wolfSSL_wolfSSL_wolfSSL/wolfssl/wolfcrypt/src/hmac.c ****                 if (ret != 0)
 749              		.loc 1 401 23 is_stmt 0 view .LVU209
 750 009a 2146     		mov	r1, r4
 751 009c 3846     		mov	r0, r7
 752              	.LVL74:
 401:Middlewares/Third_Party/wolfSSL_wolfSSL_wolfSSL/wolfssl/wolfcrypt/src/hmac.c ****                 if (ret != 0)
 753              		.loc 1 401 23 view .LVU210
 754 009e FFF7FEFF 		bl	wc_Sha256Final
 755              	.LVL75:
 402:Middlewares/Third_Party/wolfSSL_wolfSSL_wolfSSL/wolfssl/wolfcrypt/src/hmac.c ****                     break;
 756              		.loc 1 402 17 is_stmt 1 view .LVU211
 402:Middlewares/Third_Party/wolfSSL_wolfSSL_wolfSSL/wolfssl/wolfcrypt/src/hmac.c ****                     break;
 757              		.loc 1 402 20 is_stmt 0 view .LVU212
ARM GAS  /tmp/ccxfTf9S.s 			page 37


 758 00a2 0646     		mov	r6, r0
 759 00a4 0028     		cmp	r0, #0
 760 00a6 E1D1     		bne	.L65
 405:Middlewares/Third_Party/wolfSSL_wolfSSL_wolfSSL/wolfssl/wolfcrypt/src/hmac.c ****             }
 761              		.loc 1 405 24 view .LVU213
 762 00a8 4FF02008 		mov	r8, #32
 763              	.LVL76:
 405:Middlewares/Third_Party/wolfSSL_wolfSSL_wolfSSL/wolfssl/wolfcrypt/src/hmac.c ****             }
 764              		.loc 1 405 24 view .LVU214
 765 00ac DEE7     		b	.L65
 766              	.LVL77:
 767              	.L77:
 559:Middlewares/Third_Party/wolfSSL_wolfSSL_wolfSSL/wolfssl/wolfcrypt/src/hmac.c **** 
 768              		.loc 1 559 13 is_stmt 1 view .LVU215
 769 00ae C8F14002 		rsb	r2, r8, #64
 770 00b2 0021     		movs	r1, #0
 771 00b4 04EB0800 		add	r0, r4, r8
 772 00b8 FFF7FEFF 		bl	memset
 773              	.LVL78:
 774 00bc DAE7     		b	.L66
 775              	.LVL79:
 776              	.L68:
 562:Middlewares/Third_Party/wolfSSL_wolfSSL_wolfSSL/wolfssl/wolfcrypt/src/hmac.c ****             ip[i] ^= IPAD;
 777              		.loc 1 562 13 discriminator 3 view .LVU216
 562:Middlewares/Third_Party/wolfSSL_wolfSSL_wolfSSL/wolfssl/wolfcrypt/src/hmac.c ****             ip[i] ^= IPAD;
 778              		.loc 1 562 23 is_stmt 0 discriminator 3 view .LVU217
 779 00be E25C     		ldrb	r2, [r4, r3]	@ zero_extendqisi2
 562:Middlewares/Third_Party/wolfSSL_wolfSSL_wolfSSL/wolfssl/wolfcrypt/src/hmac.c ****             ip[i] ^= IPAD;
 780              		.loc 1 562 19 discriminator 3 view .LVU218
 781 00c0 82F05C02 		eor	r2, r2, #92
 782 00c4 EA54     		strb	r2, [r5, r3]
 563:Middlewares/Third_Party/wolfSSL_wolfSSL_wolfSSL/wolfssl/wolfcrypt/src/hmac.c ****         }
 783              		.loc 1 563 13 is_stmt 1 discriminator 3 view .LVU219
 563:Middlewares/Third_Party/wolfSSL_wolfSSL_wolfSSL/wolfssl/wolfcrypt/src/hmac.c ****         }
 784              		.loc 1 563 19 is_stmt 0 discriminator 3 view .LVU220
 785 00c6 E25C     		ldrb	r2, [r4, r3]	@ zero_extendqisi2
 786 00c8 82F03602 		eor	r2, r2, #54
 787 00cc E254     		strb	r2, [r4, r3]
 561:Middlewares/Third_Party/wolfSSL_wolfSSL_wolfSSL/wolfssl/wolfcrypt/src/hmac.c ****             op[i] = ip[i] ^ OPAD;
 788              		.loc 1 561 41 is_stmt 1 discriminator 3 view .LVU221
 561:Middlewares/Third_Party/wolfSSL_wolfSSL_wolfSSL/wolfssl/wolfcrypt/src/hmac.c ****             op[i] = ip[i] ^ OPAD;
 789              		.loc 1 561 42 is_stmt 0 discriminator 3 view .LVU222
 790 00ce 0133     		adds	r3, r3, #1
 791              	.LVL80:
 792              	.L67:
 561:Middlewares/Third_Party/wolfSSL_wolfSSL_wolfSSL/wolfssl/wolfcrypt/src/hmac.c ****             op[i] = ip[i] ^ OPAD;
 793              		.loc 1 561 20 is_stmt 1 discriminator 1 view .LVU223
 561:Middlewares/Third_Party/wolfSSL_wolfSSL_wolfSSL/wolfssl/wolfcrypt/src/hmac.c ****             op[i] = ip[i] ^ OPAD;
 794              		.loc 1 561 9 is_stmt 0 discriminator 1 view .LVU224
 795 00d0 3F2B     		cmp	r3, #63
 796 00d2 F4D9     		bls	.L68
 797              	.LVL81:
 798              	.L59:
 568:Middlewares/Third_Party/wolfSSL_wolfSSL_wolfSSL/wolfssl/wolfcrypt/src/hmac.c **** 
 799              		.loc 1 568 1 view .LVU225
 800 00d4 3046     		mov	r0, r6
 801 00d6 BDE8F883 		pop	{r3, r4, r5, r6, r7, r8, r9, pc}
ARM GAS  /tmp/ccxfTf9S.s 			page 38


 802              	.LVL82:
 803              	.L69:
 293:Middlewares/Third_Party/wolfSSL_wolfSSL_wolfSSL/wolfssl/wolfcrypt/src/hmac.c ****     }
 804              		.loc 1 293 16 view .LVU226
 805 00da 6FF0AC06 		mvn	r6, #172
 806 00de F9E7     		b	.L59
 807              	.LVL83:
 808              	.L71:
 293:Middlewares/Third_Party/wolfSSL_wolfSSL_wolfSSL/wolfssl/wolfcrypt/src/hmac.c ****     }
 809              		.loc 1 293 16 view .LVU227
 810 00e0 6FF0AC06 		mvn	r6, #172
 811 00e4 F6E7     		b	.L59
 812              	.LVL84:
 813              	.L72:
 535:Middlewares/Third_Party/wolfSSL_wolfSSL_wolfSSL/wolfssl/wolfcrypt/src/hmac.c ****     }
 814              		.loc 1 535 20 view .LVU228
 815 00e6 6FF0AC06 		mvn	r6, #172
 816 00ea F3E7     		b	.L59
 817              		.cfi_endproc
 818              	.LFE177:
 820              		.section	.text.wolfSSL_GetHmacMaxSize,"ax",%progbits
 821              		.align	1
 822              		.global	wolfSSL_GetHmacMaxSize
 823              		.syntax unified
 824              		.thumb
 825              		.thumb_func
 826              		.fpu fpv4-sp-d16
 828              	wolfSSL_GetHmacMaxSize:
 829              	.LFB183:
1169:Middlewares/Third_Party/wolfSSL_wolfSSL_wolfSSL/wolfssl/wolfcrypt/src/hmac.c **** 
1170:Middlewares/Third_Party/wolfSSL_wolfSSL_wolfSSL/wolfssl/wolfcrypt/src/hmac.c **** int wolfSSL_GetHmacMaxSize(void)
1171:Middlewares/Third_Party/wolfSSL_wolfSSL_wolfSSL/wolfssl/wolfcrypt/src/hmac.c **** {
 830              		.loc 1 1171 1 is_stmt 1 view -0
 831              		.cfi_startproc
 832              		@ args = 0, pretend = 0, frame = 0
 833              		@ frame_needed = 0, uses_anonymous_args = 0
 834              		@ link register save eliminated.
1172:Middlewares/Third_Party/wolfSSL_wolfSSL_wolfSSL/wolfssl/wolfcrypt/src/hmac.c ****     return WC_MAX_DIGEST_SIZE;
 835              		.loc 1 1172 5 view .LVU230
1173:Middlewares/Third_Party/wolfSSL_wolfSSL_wolfSSL/wolfssl/wolfcrypt/src/hmac.c **** }
 836              		.loc 1 1173 1 is_stmt 0 view .LVU231
 837 0000 2020     		movs	r0, #32
 838 0002 7047     		bx	lr
 839              		.cfi_endproc
 840              	.LFE183:
 842              		.section	.text.wc_HKDF_Extract,"ax",%progbits
 843              		.align	1
 844              		.global	wc_HKDF_Extract
 845              		.syntax unified
 846              		.thumb
 847              		.thumb_func
 848              		.fpu fpv4-sp-d16
 850              	wc_HKDF_Extract:
 851              	.LVL85:
 852              	.LFB184:
1174:Middlewares/Third_Party/wolfSSL_wolfSSL_wolfSSL/wolfssl/wolfcrypt/src/hmac.c **** 
1175:Middlewares/Third_Party/wolfSSL_wolfSSL_wolfSSL/wolfssl/wolfcrypt/src/hmac.c **** #ifdef HAVE_HKDF
ARM GAS  /tmp/ccxfTf9S.s 			page 39


1176:Middlewares/Third_Party/wolfSSL_wolfSSL_wolfSSL/wolfssl/wolfcrypt/src/hmac.c ****     /* HMAC-KDF-Extract.
1177:Middlewares/Third_Party/wolfSSL_wolfSSL_wolfSSL/wolfssl/wolfcrypt/src/hmac.c ****      * RFC 5869 - HMAC-based Extract-and-Expand Key Derivation Function (HKDF).
1178:Middlewares/Third_Party/wolfSSL_wolfSSL_wolfSSL/wolfssl/wolfcrypt/src/hmac.c ****      *
1179:Middlewares/Third_Party/wolfSSL_wolfSSL_wolfSSL/wolfssl/wolfcrypt/src/hmac.c ****      * type     The hash algorithm type.
1180:Middlewares/Third_Party/wolfSSL_wolfSSL_wolfSSL/wolfssl/wolfcrypt/src/hmac.c ****      * salt     The optional salt value.
1181:Middlewares/Third_Party/wolfSSL_wolfSSL_wolfSSL/wolfssl/wolfcrypt/src/hmac.c ****      * saltSz   The size of the salt.
1182:Middlewares/Third_Party/wolfSSL_wolfSSL_wolfSSL/wolfssl/wolfcrypt/src/hmac.c ****      * inKey    The input keying material.
1183:Middlewares/Third_Party/wolfSSL_wolfSSL_wolfSSL/wolfssl/wolfcrypt/src/hmac.c ****      * inKeySz  The size of the input keying material.
1184:Middlewares/Third_Party/wolfSSL_wolfSSL_wolfSSL/wolfssl/wolfcrypt/src/hmac.c ****      * out      The pseudorandom key with the length that of the hash.
1185:Middlewares/Third_Party/wolfSSL_wolfSSL_wolfSSL/wolfssl/wolfcrypt/src/hmac.c ****      * returns 0 on success, otherwise failure.
1186:Middlewares/Third_Party/wolfSSL_wolfSSL_wolfSSL/wolfssl/wolfcrypt/src/hmac.c ****      */
1187:Middlewares/Third_Party/wolfSSL_wolfSSL_wolfSSL/wolfssl/wolfcrypt/src/hmac.c ****     int wc_HKDF_Extract(int type, const byte* salt, word32 saltSz,
1188:Middlewares/Third_Party/wolfSSL_wolfSSL_wolfSSL/wolfssl/wolfcrypt/src/hmac.c ****                         const byte* inKey, word32 inKeySz, byte* out)
1189:Middlewares/Third_Party/wolfSSL_wolfSSL_wolfSSL/wolfssl/wolfcrypt/src/hmac.c ****     {
 853              		.loc 1 1189 5 is_stmt 1 view -0
 854              		.cfi_startproc
 855              		@ args = 8, pretend = 0, frame = 312
 856              		@ frame_needed = 0, uses_anonymous_args = 0
 857              		.loc 1 1189 5 is_stmt 0 view .LVU233
 858 0000 2DE9F041 		push	{r4, r5, r6, r7, r8, lr}
 859              	.LCFI12:
 860              		.cfi_def_cfa_offset 24
 861              		.cfi_offset 4, -24
 862              		.cfi_offset 5, -20
 863              		.cfi_offset 6, -16
 864              		.cfi_offset 7, -12
 865              		.cfi_offset 8, -8
 866              		.cfi_offset 14, -4
 867 0004 CEB0     		sub	sp, sp, #312
 868              	.LCFI13:
 869              		.cfi_def_cfa_offset 336
 870 0006 0746     		mov	r7, r0
 871 0008 0D46     		mov	r5, r1
 872 000a 1646     		mov	r6, r2
 873 000c 9846     		mov	r8, r3
1190:Middlewares/Third_Party/wolfSSL_wolfSSL_wolfSSL/wolfssl/wolfcrypt/src/hmac.c ****         byte   tmp[WC_MAX_DIGEST_SIZE]; /* localSalt helper */
 874              		.loc 1 1190 9 is_stmt 1 view .LVU234
1191:Middlewares/Third_Party/wolfSSL_wolfSSL_wolfSSL/wolfssl/wolfcrypt/src/hmac.c ****         Hmac   myHmac;
 875              		.loc 1 1191 9 view .LVU235
1192:Middlewares/Third_Party/wolfSSL_wolfSSL_wolfSSL/wolfssl/wolfcrypt/src/hmac.c ****         int    ret;
 876              		.loc 1 1192 9 view .LVU236
1193:Middlewares/Third_Party/wolfSSL_wolfSSL_wolfSSL/wolfssl/wolfcrypt/src/hmac.c ****         const  byte* localSalt;  /* either points to user input or tmp */
 877              		.loc 1 1193 9 view .LVU237
1194:Middlewares/Third_Party/wolfSSL_wolfSSL_wolfSSL/wolfssl/wolfcrypt/src/hmac.c ****         int    hashSz;
 878              		.loc 1 1194 9 view .LVU238
1195:Middlewares/Third_Party/wolfSSL_wolfSSL_wolfSSL/wolfssl/wolfcrypt/src/hmac.c **** 
1196:Middlewares/Third_Party/wolfSSL_wolfSSL_wolfSSL/wolfssl/wolfcrypt/src/hmac.c ****         ret = wc_HmacSizeByType(type);
 879              		.loc 1 1196 9 view .LVU239
 880              		.loc 1 1196 15 is_stmt 0 view .LVU240
 881 000e FFF7FEFF 		bl	wc_HmacSizeByType
 882              	.LVL86:
1197:Middlewares/Third_Party/wolfSSL_wolfSSL_wolfSSL/wolfssl/wolfcrypt/src/hmac.c ****         if (ret < 0)
 883              		.loc 1 1197 9 is_stmt 1 view .LVU241
 884              		.loc 1 1197 12 is_stmt 0 view .LVU242
 885 0012 041E     		subs	r4, r0, #0
 886 0014 08DB     		blt	.L79
1198:Middlewares/Third_Party/wolfSSL_wolfSSL_wolfSSL/wolfssl/wolfcrypt/src/hmac.c ****             return ret;
ARM GAS  /tmp/ccxfTf9S.s 			page 40


1199:Middlewares/Third_Party/wolfSSL_wolfSSL_wolfSSL/wolfssl/wolfcrypt/src/hmac.c **** 
1200:Middlewares/Third_Party/wolfSSL_wolfSSL_wolfSSL/wolfssl/wolfcrypt/src/hmac.c ****         hashSz = ret;
 887              		.loc 1 1200 9 is_stmt 1 view .LVU243
 888              	.LVL87:
1201:Middlewares/Third_Party/wolfSSL_wolfSSL_wolfSSL/wolfssl/wolfcrypt/src/hmac.c ****         localSalt = salt;
 889              		.loc 1 1201 9 view .LVU244
1202:Middlewares/Third_Party/wolfSSL_wolfSSL_wolfSSL/wolfssl/wolfcrypt/src/hmac.c ****         if (localSalt == NULL) {
 890              		.loc 1 1202 9 view .LVU245
 891              		.loc 1 1202 12 is_stmt 0 view .LVU246
 892 0016 5DB1     		cbz	r5, .L85
 893              	.LVL88:
 894              	.L81:
1203:Middlewares/Third_Party/wolfSSL_wolfSSL_wolfSSL/wolfssl/wolfcrypt/src/hmac.c ****             XMEMSET(tmp, 0, hashSz);
1204:Middlewares/Third_Party/wolfSSL_wolfSSL_wolfSSL/wolfssl/wolfcrypt/src/hmac.c ****             localSalt = tmp;
1205:Middlewares/Third_Party/wolfSSL_wolfSSL_wolfSSL/wolfssl/wolfcrypt/src/hmac.c ****             saltSz    = hashSz;
1206:Middlewares/Third_Party/wolfSSL_wolfSSL_wolfSSL/wolfssl/wolfcrypt/src/hmac.c ****         }
1207:Middlewares/Third_Party/wolfSSL_wolfSSL_wolfSSL/wolfssl/wolfcrypt/src/hmac.c **** 
1208:Middlewares/Third_Party/wolfSSL_wolfSSL_wolfSSL/wolfssl/wolfcrypt/src/hmac.c ****         ret = wc_HmacInit(&myHmac, NULL, INVALID_DEVID);
 895              		.loc 1 1208 9 is_stmt 1 view .LVU247
 896              		.loc 1 1208 15 is_stmt 0 view .LVU248
 897 0018 6FF00102 		mvn	r2, #1
 898 001c 0021     		movs	r1, #0
 899 001e 6846     		mov	r0, sp
 900 0020 FFF7FEFF 		bl	wc_HmacInit
 901              	.LVL89:
1209:Middlewares/Third_Party/wolfSSL_wolfSSL_wolfSSL/wolfssl/wolfcrypt/src/hmac.c ****         if (ret == 0) {
 902              		.loc 1 1209 9 is_stmt 1 view .LVU249
 903              		.loc 1 1209 12 is_stmt 0 view .LVU250
 904 0024 0446     		mov	r4, r0
 905              	.LVL90:
 906              		.loc 1 1209 12 view .LVU251
 907 0026 58B1     		cbz	r0, .L86
 908              	.LVL91:
 909              	.L79:
1210:Middlewares/Third_Party/wolfSSL_wolfSSL_wolfSSL/wolfssl/wolfcrypt/src/hmac.c ****             ret = wc_HmacSetKey(&myHmac, type, localSalt, saltSz);
1211:Middlewares/Third_Party/wolfSSL_wolfSSL_wolfSSL/wolfssl/wolfcrypt/src/hmac.c ****             if (ret == 0)
1212:Middlewares/Third_Party/wolfSSL_wolfSSL_wolfSSL/wolfssl/wolfcrypt/src/hmac.c ****                 ret = wc_HmacUpdate(&myHmac, inKey, inKeySz);
1213:Middlewares/Third_Party/wolfSSL_wolfSSL_wolfSSL/wolfssl/wolfcrypt/src/hmac.c ****             if (ret == 0)
1214:Middlewares/Third_Party/wolfSSL_wolfSSL_wolfSSL/wolfssl/wolfcrypt/src/hmac.c ****                 ret = wc_HmacFinal(&myHmac,  out);
1215:Middlewares/Third_Party/wolfSSL_wolfSSL_wolfSSL/wolfssl/wolfcrypt/src/hmac.c ****             wc_HmacFree(&myHmac);
1216:Middlewares/Third_Party/wolfSSL_wolfSSL_wolfSSL/wolfssl/wolfcrypt/src/hmac.c ****         }
1217:Middlewares/Third_Party/wolfSSL_wolfSSL_wolfSSL/wolfssl/wolfcrypt/src/hmac.c **** 
1218:Middlewares/Third_Party/wolfSSL_wolfSSL_wolfSSL/wolfssl/wolfcrypt/src/hmac.c ****         return ret;
1219:Middlewares/Third_Party/wolfSSL_wolfSSL_wolfSSL/wolfssl/wolfcrypt/src/hmac.c ****     }
 910              		.loc 1 1219 5 view .LVU252
 911 0028 2046     		mov	r0, r4
 912 002a 4EB0     		add	sp, sp, #312
 913              	.LCFI14:
 914              		.cfi_remember_state
 915              		.cfi_def_cfa_offset 24
 916              		@ sp needed
 917 002c BDE8F081 		pop	{r4, r5, r6, r7, r8, pc}
 918              	.LVL92:
 919              	.L85:
 920              	.LCFI15:
 921              		.cfi_restore_state
1203:Middlewares/Third_Party/wolfSSL_wolfSSL_wolfSSL/wolfssl/wolfcrypt/src/hmac.c ****             localSalt = tmp;
ARM GAS  /tmp/ccxfTf9S.s 			page 41


 922              		.loc 1 1203 13 is_stmt 1 view .LVU253
 923 0030 2646     		mov	r6, r4
 924              	.LVL93:
1203:Middlewares/Third_Party/wolfSSL_wolfSSL_wolfSSL/wolfssl/wolfcrypt/src/hmac.c ****             localSalt = tmp;
 925              		.loc 1 1203 13 is_stmt 0 view .LVU254
 926 0032 2246     		mov	r2, r4
 927 0034 0021     		movs	r1, #0
 928 0036 46A8     		add	r0, sp, #280
 929              	.LVL94:
1203:Middlewares/Third_Party/wolfSSL_wolfSSL_wolfSSL/wolfssl/wolfcrypt/src/hmac.c ****             localSalt = tmp;
 930              		.loc 1 1203 13 view .LVU255
 931 0038 FFF7FEFF 		bl	memset
 932              	.LVL95:
1204:Middlewares/Third_Party/wolfSSL_wolfSSL_wolfSSL/wolfssl/wolfcrypt/src/hmac.c ****             saltSz    = hashSz;
 933              		.loc 1 1204 13 is_stmt 1 view .LVU256
1205:Middlewares/Third_Party/wolfSSL_wolfSSL_wolfSSL/wolfssl/wolfcrypt/src/hmac.c ****         }
 934              		.loc 1 1205 13 view .LVU257
1204:Middlewares/Third_Party/wolfSSL_wolfSSL_wolfSSL/wolfssl/wolfcrypt/src/hmac.c ****             saltSz    = hashSz;
 935              		.loc 1 1204 23 is_stmt 0 view .LVU258
 936 003c 46AD     		add	r5, sp, #280
 937              	.LVL96:
1204:Middlewares/Third_Party/wolfSSL_wolfSSL_wolfSSL/wolfssl/wolfcrypt/src/hmac.c ****             saltSz    = hashSz;
 938              		.loc 1 1204 23 view .LVU259
 939 003e EBE7     		b	.L81
 940              	.LVL97:
 941              	.L86:
1210:Middlewares/Third_Party/wolfSSL_wolfSSL_wolfSSL/wolfssl/wolfcrypt/src/hmac.c ****             if (ret == 0)
 942              		.loc 1 1210 13 is_stmt 1 view .LVU260
1210:Middlewares/Third_Party/wolfSSL_wolfSSL_wolfSSL/wolfssl/wolfcrypt/src/hmac.c ****             if (ret == 0)
 943              		.loc 1 1210 19 is_stmt 0 view .LVU261
 944 0040 3346     		mov	r3, r6
 945 0042 2A46     		mov	r2, r5
 946 0044 3946     		mov	r1, r7
 947 0046 6846     		mov	r0, sp
 948              	.LVL98:
1210:Middlewares/Third_Party/wolfSSL_wolfSSL_wolfSSL/wolfssl/wolfcrypt/src/hmac.c ****             if (ret == 0)
 949              		.loc 1 1210 19 view .LVU262
 950 0048 FFF7FEFF 		bl	wc_HmacSetKey
 951              	.LVL99:
1211:Middlewares/Third_Party/wolfSSL_wolfSSL_wolfSSL/wolfssl/wolfcrypt/src/hmac.c ****                 ret = wc_HmacUpdate(&myHmac, inKey, inKeySz);
 952              		.loc 1 1211 13 is_stmt 1 view .LVU263
1211:Middlewares/Third_Party/wolfSSL_wolfSSL_wolfSSL/wolfssl/wolfcrypt/src/hmac.c ****                 ret = wc_HmacUpdate(&myHmac, inKey, inKeySz);
 953              		.loc 1 1211 16 is_stmt 0 view .LVU264
 954 004c 0446     		mov	r4, r0
 955 004e 20B1     		cbz	r0, .L87
 956              	.L82:
1213:Middlewares/Third_Party/wolfSSL_wolfSSL_wolfSSL/wolfssl/wolfcrypt/src/hmac.c ****                 ret = wc_HmacFinal(&myHmac,  out);
 957              		.loc 1 1213 13 is_stmt 1 view .LVU265
1213:Middlewares/Third_Party/wolfSSL_wolfSSL_wolfSSL/wolfssl/wolfcrypt/src/hmac.c ****                 ret = wc_HmacFinal(&myHmac,  out);
 958              		.loc 1 1213 16 is_stmt 0 view .LVU266
 959 0050 54B1     		cbz	r4, .L88
 960              	.L83:
1215:Middlewares/Third_Party/wolfSSL_wolfSSL_wolfSSL/wolfssl/wolfcrypt/src/hmac.c ****         }
 961              		.loc 1 1215 13 is_stmt 1 view .LVU267
 962 0052 6846     		mov	r0, sp
 963              	.LVL100:
1215:Middlewares/Third_Party/wolfSSL_wolfSSL_wolfSSL/wolfssl/wolfcrypt/src/hmac.c ****         }
ARM GAS  /tmp/ccxfTf9S.s 			page 42


 964              		.loc 1 1215 13 is_stmt 0 view .LVU268
 965 0054 FFF7FEFF 		bl	wc_HmacFree
 966              	.LVL101:
1215:Middlewares/Third_Party/wolfSSL_wolfSSL_wolfSSL/wolfssl/wolfcrypt/src/hmac.c ****         }
 967              		.loc 1 1215 13 view .LVU269
 968 0058 E6E7     		b	.L79
 969              	.LVL102:
 970              	.L87:
1212:Middlewares/Third_Party/wolfSSL_wolfSSL_wolfSSL/wolfssl/wolfcrypt/src/hmac.c ****             if (ret == 0)
 971              		.loc 1 1212 17 is_stmt 1 view .LVU270
1212:Middlewares/Third_Party/wolfSSL_wolfSSL_wolfSSL/wolfssl/wolfcrypt/src/hmac.c ****             if (ret == 0)
 972              		.loc 1 1212 23 is_stmt 0 view .LVU271
 973 005a 549A     		ldr	r2, [sp, #336]
 974 005c 4146     		mov	r1, r8
 975 005e 6846     		mov	r0, sp
 976              	.LVL103:
1212:Middlewares/Third_Party/wolfSSL_wolfSSL_wolfSSL/wolfssl/wolfcrypt/src/hmac.c ****             if (ret == 0)
 977              		.loc 1 1212 23 view .LVU272
 978 0060 FFF7FEFF 		bl	wc_HmacUpdate
 979              	.LVL104:
 980 0064 0446     		mov	r4, r0
 981              	.LVL105:
1212:Middlewares/Third_Party/wolfSSL_wolfSSL_wolfSSL/wolfssl/wolfcrypt/src/hmac.c ****             if (ret == 0)
 982              		.loc 1 1212 23 view .LVU273
 983 0066 F3E7     		b	.L82
 984              	.L88:
1214:Middlewares/Third_Party/wolfSSL_wolfSSL_wolfSSL/wolfssl/wolfcrypt/src/hmac.c ****             wc_HmacFree(&myHmac);
 985              		.loc 1 1214 17 is_stmt 1 view .LVU274
1214:Middlewares/Third_Party/wolfSSL_wolfSSL_wolfSSL/wolfssl/wolfcrypt/src/hmac.c ****             wc_HmacFree(&myHmac);
 986              		.loc 1 1214 23 is_stmt 0 view .LVU275
 987 0068 5599     		ldr	r1, [sp, #340]
 988 006a 6846     		mov	r0, sp
 989              	.LVL106:
1214:Middlewares/Third_Party/wolfSSL_wolfSSL_wolfSSL/wolfssl/wolfcrypt/src/hmac.c ****             wc_HmacFree(&myHmac);
 990              		.loc 1 1214 23 view .LVU276
 991 006c FFF7FEFF 		bl	wc_HmacFinal
 992              	.LVL107:
 993 0070 0446     		mov	r4, r0
 994              	.LVL108:
1214:Middlewares/Third_Party/wolfSSL_wolfSSL_wolfSSL/wolfssl/wolfcrypt/src/hmac.c ****             wc_HmacFree(&myHmac);
 995              		.loc 1 1214 23 view .LVU277
 996 0072 EEE7     		b	.L83
 997              		.cfi_endproc
 998              	.LFE184:
 1000              		.section	.text.wc_HKDF_Expand,"ax",%progbits
 1001              		.align	1
 1002              		.global	wc_HKDF_Expand
 1003              		.syntax unified
 1004              		.thumb
 1005              		.thumb_func
 1006              		.fpu fpv4-sp-d16
 1008              	wc_HKDF_Expand:
 1009              	.LVL109:
 1010              	.LFB185:
1220:Middlewares/Third_Party/wolfSSL_wolfSSL_wolfSSL/wolfssl/wolfcrypt/src/hmac.c **** 
1221:Middlewares/Third_Party/wolfSSL_wolfSSL_wolfSSL/wolfssl/wolfcrypt/src/hmac.c ****     /* HMAC-KDF-Expand.
1222:Middlewares/Third_Party/wolfSSL_wolfSSL_wolfSSL/wolfssl/wolfcrypt/src/hmac.c ****      * RFC 5869 - HMAC-based Extract-and-Expand Key Derivation Function (HKDF).
ARM GAS  /tmp/ccxfTf9S.s 			page 43


1223:Middlewares/Third_Party/wolfSSL_wolfSSL_wolfSSL/wolfssl/wolfcrypt/src/hmac.c ****      *
1224:Middlewares/Third_Party/wolfSSL_wolfSSL_wolfSSL/wolfssl/wolfcrypt/src/hmac.c ****      * type     The hash algorithm type.
1225:Middlewares/Third_Party/wolfSSL_wolfSSL_wolfSSL/wolfssl/wolfcrypt/src/hmac.c ****      * inKey    The input key.
1226:Middlewares/Third_Party/wolfSSL_wolfSSL_wolfSSL/wolfssl/wolfcrypt/src/hmac.c ****      * inKeySz  The size of the input key.
1227:Middlewares/Third_Party/wolfSSL_wolfSSL_wolfSSL/wolfssl/wolfcrypt/src/hmac.c ****      * info     The application specific information.
1228:Middlewares/Third_Party/wolfSSL_wolfSSL_wolfSSL/wolfssl/wolfcrypt/src/hmac.c ****      * infoSz   The size of the application specific information.
1229:Middlewares/Third_Party/wolfSSL_wolfSSL_wolfSSL/wolfssl/wolfcrypt/src/hmac.c ****      * out      The output keying material.
1230:Middlewares/Third_Party/wolfSSL_wolfSSL_wolfSSL/wolfssl/wolfcrypt/src/hmac.c ****      * returns 0 on success, otherwise failure.
1231:Middlewares/Third_Party/wolfSSL_wolfSSL_wolfSSL/wolfssl/wolfcrypt/src/hmac.c ****      */
1232:Middlewares/Third_Party/wolfSSL_wolfSSL_wolfSSL/wolfssl/wolfcrypt/src/hmac.c ****     int wc_HKDF_Expand(int type, const byte* inKey, word32 inKeySz,
1233:Middlewares/Third_Party/wolfSSL_wolfSSL_wolfSSL/wolfssl/wolfcrypt/src/hmac.c ****                        const byte* info, word32 infoSz, byte* out, word32 outSz)
1234:Middlewares/Third_Party/wolfSSL_wolfSSL_wolfSSL/wolfssl/wolfcrypt/src/hmac.c ****     {
 1011              		.loc 1 1234 5 is_stmt 1 view -0
 1012              		.cfi_startproc
 1013              		@ args = 12, pretend = 0, frame = 336
 1014              		@ frame_needed = 0, uses_anonymous_args = 0
 1015              		.loc 1 1234 5 is_stmt 0 view .LVU279
 1016 0000 2DE9F04F 		push	{r4, r5, r6, r7, r8, r9, r10, fp, lr}
 1017              	.LCFI16:
 1018              		.cfi_def_cfa_offset 36
 1019              		.cfi_offset 4, -36
 1020              		.cfi_offset 5, -32
 1021              		.cfi_offset 6, -28
 1022              		.cfi_offset 7, -24
 1023              		.cfi_offset 8, -20
 1024              		.cfi_offset 9, -16
 1025              		.cfi_offset 10, -12
 1026              		.cfi_offset 11, -8
 1027              		.cfi_offset 14, -4
 1028 0004 D5B0     		sub	sp, sp, #340
 1029              	.LCFI17:
 1030              		.cfi_def_cfa_offset 376
 1031 0006 0190     		str	r0, [sp, #4]
 1032 0008 8946     		mov	r9, r1
 1033 000a 9246     		mov	r10, r2
 1034 000c 0293     		str	r3, [sp, #8]
 1035 000e DDF87CB1 		ldr	fp, [sp, #380]
 1036 0012 609E     		ldr	r6, [sp, #384]
1235:Middlewares/Third_Party/wolfSSL_wolfSSL_wolfSSL/wolfssl/wolfcrypt/src/hmac.c ****         byte   tmp[WC_MAX_DIGEST_SIZE];
 1037              		.loc 1 1235 9 is_stmt 1 view .LVU280
1236:Middlewares/Third_Party/wolfSSL_wolfSSL_wolfSSL/wolfssl/wolfcrypt/src/hmac.c ****         Hmac   myHmac;
 1038              		.loc 1 1236 9 view .LVU281
1237:Middlewares/Third_Party/wolfSSL_wolfSSL_wolfSSL/wolfssl/wolfcrypt/src/hmac.c ****         int    ret = 0;
 1039              		.loc 1 1237 9 view .LVU282
 1040              	.LVL110:
1238:Middlewares/Third_Party/wolfSSL_wolfSSL_wolfSSL/wolfssl/wolfcrypt/src/hmac.c ****         word32 outIdx = 0;
 1041              		.loc 1 1238 9 view .LVU283
1239:Middlewares/Third_Party/wolfSSL_wolfSSL_wolfSSL/wolfssl/wolfcrypt/src/hmac.c ****         word32 hashSz = wc_HmacSizeByType(type);
 1042              		.loc 1 1239 9 view .LVU284
 1043              		.loc 1 1239 25 is_stmt 0 view .LVU285
 1044 0014 FFF7FEFF 		bl	wc_HmacSizeByType
 1045              	.LVL111:
1240:Middlewares/Third_Party/wolfSSL_wolfSSL_wolfSSL/wolfssl/wolfcrypt/src/hmac.c ****         byte   n = 0x1;
 1046              		.loc 1 1240 9 is_stmt 1 view .LVU286
 1047              		.loc 1 1240 16 is_stmt 0 view .LVU287
 1048 0018 0123     		movs	r3, #1
 1049 001a 8DF81730 		strb	r3, [sp, #23]
ARM GAS  /tmp/ccxfTf9S.s 			page 44


1241:Middlewares/Third_Party/wolfSSL_wolfSSL_wolfSSL/wolfssl/wolfcrypt/src/hmac.c **** 
1242:Middlewares/Third_Party/wolfSSL_wolfSSL_wolfSSL/wolfssl/wolfcrypt/src/hmac.c ****         /* RFC 5869 states that the length of output keying material in
1243:Middlewares/Third_Party/wolfSSL_wolfSSL_wolfSSL/wolfssl/wolfcrypt/src/hmac.c ****            octets must be L <= 255*HashLen or N = ceil(L/HashLen) */
1244:Middlewares/Third_Party/wolfSSL_wolfSSL_wolfSSL/wolfssl/wolfcrypt/src/hmac.c **** 
1245:Middlewares/Third_Party/wolfSSL_wolfSSL_wolfSSL/wolfssl/wolfcrypt/src/hmac.c ****         if (out == NULL || ((outSz/hashSz) + ((outSz % hashSz) != 0)) > 255)
 1050              		.loc 1 1245 9 is_stmt 1 view .LVU288
 1051              		.loc 1 1245 12 is_stmt 0 view .LVU289
 1052 001e BBF1000F 		cmp	fp, #0
 1053 0022 62D0     		beq	.L95
 1054 0024 0546     		mov	r5, r0
 1055              		.loc 1 1245 35 discriminator 1 view .LVU290
 1056 0026 B6FBF0F3 		udiv	r3, r6, r0
 1057              		.loc 1 1245 54 discriminator 1 view .LVU291
 1058 002a 00FB1362 		mls	r2, r0, r3, r6
 1059              		.loc 1 1245 44 discriminator 1 view .LVU292
 1060 002e 002A     		cmp	r2, #0
 1061 0030 18BF     		it	ne
 1062 0032 0133     		addne	r3, r3, #1
 1063              		.loc 1 1245 25 discriminator 1 view .LVU293
 1064 0034 FF2B     		cmp	r3, #255
 1065 0036 5CD8     		bhi	.L96
1246:Middlewares/Third_Party/wolfSSL_wolfSSL_wolfSSL/wolfssl/wolfcrypt/src/hmac.c ****             return BAD_FUNC_ARG;
1247:Middlewares/Third_Party/wolfSSL_wolfSSL_wolfSSL/wolfssl/wolfcrypt/src/hmac.c **** 
1248:Middlewares/Third_Party/wolfSSL_wolfSSL_wolfSSL/wolfssl/wolfcrypt/src/hmac.c ****         ret = wc_HmacInit(&myHmac, NULL, INVALID_DEVID);
 1066              		.loc 1 1248 9 is_stmt 1 view .LVU294
 1067              		.loc 1 1248 15 is_stmt 0 view .LVU295
 1068 0038 6FF00102 		mvn	r2, #1
 1069 003c 0021     		movs	r1, #0
 1070 003e 06A8     		add	r0, sp, #24
 1071              	.LVL112:
 1072              		.loc 1 1248 15 view .LVU296
 1073 0040 FFF7FEFF 		bl	wc_HmacInit
 1074              	.LVL113:
1249:Middlewares/Third_Party/wolfSSL_wolfSSL_wolfSSL/wolfssl/wolfcrypt/src/hmac.c ****         if (ret != 0)
 1075              		.loc 1 1249 9 is_stmt 1 view .LVU297
 1076              		.loc 1 1249 12 is_stmt 0 view .LVU298
 1077 0044 0746     		mov	r7, r0
 1078 0046 0390     		str	r0, [sp, #12]
 1079 0048 0028     		cmp	r0, #0
 1080 004a 40D1     		bne	.L89
1238:Middlewares/Third_Party/wolfSSL_wolfSSL_wolfSSL/wolfssl/wolfcrypt/src/hmac.c ****         word32 hashSz = wc_HmacSizeByType(type);
 1081              		.loc 1 1238 16 view .LVU299
 1082 004c 0024     		movs	r4, #0
 1083 004e 32E0     		b	.L91
 1084              	.LVL114:
 1085              	.L97:
 1086              	.LBB5:
1250:Middlewares/Third_Party/wolfSSL_wolfSSL_wolfSSL/wolfssl/wolfcrypt/src/hmac.c ****             return ret;
1251:Middlewares/Third_Party/wolfSSL_wolfSSL_wolfSSL/wolfssl/wolfcrypt/src/hmac.c **** 
1252:Middlewares/Third_Party/wolfSSL_wolfSSL_wolfSSL/wolfssl/wolfcrypt/src/hmac.c **** 
1253:Middlewares/Third_Party/wolfSSL_wolfSSL_wolfSSL/wolfssl/wolfcrypt/src/hmac.c ****         while (outIdx < outSz) {
1254:Middlewares/Third_Party/wolfSSL_wolfSSL_wolfSSL/wolfssl/wolfcrypt/src/hmac.c ****             int    tmpSz = (n == 1) ? 0 : hashSz;
 1087              		.loc 1 1254 41 view .LVU300
 1088 0050 039F     		ldr	r7, [sp, #12]
 1089              	.LVL115:
 1090              	.L92:
1255:Middlewares/Third_Party/wolfSSL_wolfSSL_wolfSSL/wolfssl/wolfcrypt/src/hmac.c ****             word32 left = outSz - outIdx;
ARM GAS  /tmp/ccxfTf9S.s 			page 45


 1091              		.loc 1 1255 13 is_stmt 1 discriminator 4 view .LVU301
 1092              		.loc 1 1255 20 is_stmt 0 discriminator 4 view .LVU302
 1093 0052 A6EB0408 		sub	r8, r6, r4
 1094              	.LVL116:
1256:Middlewares/Third_Party/wolfSSL_wolfSSL_wolfSSL/wolfssl/wolfcrypt/src/hmac.c **** 
1257:Middlewares/Third_Party/wolfSSL_wolfSSL_wolfSSL/wolfssl/wolfcrypt/src/hmac.c ****             ret = wc_HmacSetKey(&myHmac, type, inKey, inKeySz);
 1095              		.loc 1 1257 13 is_stmt 1 discriminator 4 view .LVU303
 1096              		.loc 1 1257 19 is_stmt 0 discriminator 4 view .LVU304
 1097 0056 5346     		mov	r3, r10
 1098 0058 4A46     		mov	r2, r9
 1099 005a 0199     		ldr	r1, [sp, #4]
 1100 005c 06A8     		add	r0, sp, #24
 1101 005e FFF7FEFF 		bl	wc_HmacSetKey
 1102              	.LVL117:
1258:Middlewares/Third_Party/wolfSSL_wolfSSL_wolfSSL/wolfssl/wolfcrypt/src/hmac.c ****             if (ret != 0)
 1103              		.loc 1 1258 13 is_stmt 1 discriminator 4 view .LVU305
 1104              		.loc 1 1258 16 is_stmt 0 discriminator 4 view .LVU306
 1105 0062 0028     		cmp	r0, #0
 1106 0064 37D1     		bne	.L98
1259:Middlewares/Third_Party/wolfSSL_wolfSSL_wolfSSL/wolfssl/wolfcrypt/src/hmac.c ****                 break;
1260:Middlewares/Third_Party/wolfSSL_wolfSSL_wolfSSL/wolfssl/wolfcrypt/src/hmac.c ****             ret = wc_HmacUpdate(&myHmac, tmp, tmpSz);
 1107              		.loc 1 1260 13 is_stmt 1 view .LVU307
 1108              		.loc 1 1260 19 is_stmt 0 view .LVU308
 1109 0066 3A46     		mov	r2, r7
 1110 0068 4CA9     		add	r1, sp, #304
 1111 006a 06A8     		add	r0, sp, #24
 1112              	.LVL118:
 1113              		.loc 1 1260 19 view .LVU309
 1114 006c FFF7FEFF 		bl	wc_HmacUpdate
 1115              	.LVL119:
1261:Middlewares/Third_Party/wolfSSL_wolfSSL_wolfSSL/wolfssl/wolfcrypt/src/hmac.c ****             if (ret != 0)
 1116              		.loc 1 1261 13 is_stmt 1 view .LVU310
 1117              		.loc 1 1261 16 is_stmt 0 view .LVU311
 1118 0070 98BB     		cbnz	r0, .L99
1262:Middlewares/Third_Party/wolfSSL_wolfSSL_wolfSSL/wolfssl/wolfcrypt/src/hmac.c ****                 break;
1263:Middlewares/Third_Party/wolfSSL_wolfSSL_wolfSSL/wolfssl/wolfcrypt/src/hmac.c ****             ret = wc_HmacUpdate(&myHmac, info, infoSz);
 1119              		.loc 1 1263 13 is_stmt 1 view .LVU312
 1120              		.loc 1 1263 19 is_stmt 0 view .LVU313
 1121 0072 5E9A     		ldr	r2, [sp, #376]
 1122 0074 0299     		ldr	r1, [sp, #8]
 1123 0076 06A8     		add	r0, sp, #24
 1124              	.LVL120:
 1125              		.loc 1 1263 19 view .LVU314
 1126 0078 FFF7FEFF 		bl	wc_HmacUpdate
 1127              	.LVL121:
1264:Middlewares/Third_Party/wolfSSL_wolfSSL_wolfSSL/wolfssl/wolfcrypt/src/hmac.c ****             if (ret != 0)
 1128              		.loc 1 1264 13 is_stmt 1 view .LVU315
 1129              		.loc 1 1264 16 is_stmt 0 view .LVU316
 1130 007c 78BB     		cbnz	r0, .L100
1265:Middlewares/Third_Party/wolfSSL_wolfSSL_wolfSSL/wolfssl/wolfcrypt/src/hmac.c ****                 break;
1266:Middlewares/Third_Party/wolfSSL_wolfSSL_wolfSSL/wolfssl/wolfcrypt/src/hmac.c ****             ret = wc_HmacUpdate(&myHmac, &n, 1);
 1131              		.loc 1 1266 13 is_stmt 1 view .LVU317
 1132              		.loc 1 1266 19 is_stmt 0 view .LVU318
 1133 007e 0122     		movs	r2, #1
 1134 0080 0DF11701 		add	r1, sp, #23
 1135 0084 06A8     		add	r0, sp, #24
 1136              	.LVL122:
ARM GAS  /tmp/ccxfTf9S.s 			page 46


 1137              		.loc 1 1266 19 view .LVU319
 1138 0086 FFF7FEFF 		bl	wc_HmacUpdate
 1139              	.LVL123:
1267:Middlewares/Third_Party/wolfSSL_wolfSSL_wolfSSL/wolfssl/wolfcrypt/src/hmac.c ****             if (ret != 0)
 1140              		.loc 1 1267 13 is_stmt 1 view .LVU320
 1141              		.loc 1 1267 16 is_stmt 0 view .LVU321
 1142 008a 50BB     		cbnz	r0, .L101
1268:Middlewares/Third_Party/wolfSSL_wolfSSL_wolfSSL/wolfssl/wolfcrypt/src/hmac.c ****                 break;
1269:Middlewares/Third_Party/wolfSSL_wolfSSL_wolfSSL/wolfssl/wolfcrypt/src/hmac.c ****             ret = wc_HmacFinal(&myHmac, tmp);
 1143              		.loc 1 1269 13 is_stmt 1 view .LVU322
 1144              		.loc 1 1269 19 is_stmt 0 view .LVU323
 1145 008c 4CA9     		add	r1, sp, #304
 1146 008e 06A8     		add	r0, sp, #24
 1147              	.LVL124:
 1148              		.loc 1 1269 19 view .LVU324
 1149 0090 FFF7FEFF 		bl	wc_HmacFinal
 1150              	.LVL125:
1270:Middlewares/Third_Party/wolfSSL_wolfSSL_wolfSSL/wolfssl/wolfcrypt/src/hmac.c ****             if (ret != 0)
 1151              		.loc 1 1270 13 is_stmt 1 view .LVU325
 1152              		.loc 1 1270 16 is_stmt 0 view .LVU326
 1153 0094 0746     		mov	r7, r0
 1154              	.LVL126:
 1155              		.loc 1 1270 16 view .LVU327
 1156 0096 30BB     		cbnz	r0, .L102
1271:Middlewares/Third_Party/wolfSSL_wolfSSL_wolfSSL/wolfssl/wolfcrypt/src/hmac.c ****                 break;
1272:Middlewares/Third_Party/wolfSSL_wolfSSL_wolfSSL/wolfssl/wolfcrypt/src/hmac.c **** 
1273:Middlewares/Third_Party/wolfSSL_wolfSSL_wolfSSL/wolfssl/wolfcrypt/src/hmac.c ****             left = min(left, hashSz);
 1157              		.loc 1 1273 13 is_stmt 1 view .LVU328
 1158              	.LVL127:
 1159              	.LBB6:
 1160              	.LBI6:
 1161              		.file 2 "Middlewares/Third_Party/wolfSSL_wolfSSL_wolfSSL/wolfssl/wolfcrypt/src/misc.c"
   1:Middlewares/Third_Party/wolfSSL_wolfSSL_wolfSSL/wolfssl/wolfcrypt/src/misc.c **** /* misc.c
   2:Middlewares/Third_Party/wolfSSL_wolfSSL_wolfSSL/wolfssl/wolfcrypt/src/misc.c ****  *
   3:Middlewares/Third_Party/wolfSSL_wolfSSL_wolfSSL/wolfssl/wolfcrypt/src/misc.c ****  * Copyright (C) 2006-2020 wolfSSL Inc.
   4:Middlewares/Third_Party/wolfSSL_wolfSSL_wolfSSL/wolfssl/wolfcrypt/src/misc.c ****  *
   5:Middlewares/Third_Party/wolfSSL_wolfSSL_wolfSSL/wolfssl/wolfcrypt/src/misc.c ****  * This file is part of wolfSSL.
   6:Middlewares/Third_Party/wolfSSL_wolfSSL_wolfSSL/wolfssl/wolfcrypt/src/misc.c ****  *
   7:Middlewares/Third_Party/wolfSSL_wolfSSL_wolfSSL/wolfssl/wolfcrypt/src/misc.c ****  * wolfSSL is free software; you can redistribute it and/or modify
   8:Middlewares/Third_Party/wolfSSL_wolfSSL_wolfSSL/wolfssl/wolfcrypt/src/misc.c ****  * it under the terms of the GNU General Public License as published by
   9:Middlewares/Third_Party/wolfSSL_wolfSSL_wolfSSL/wolfssl/wolfcrypt/src/misc.c ****  * the Free Software Foundation; either version 2 of the License, or
  10:Middlewares/Third_Party/wolfSSL_wolfSSL_wolfSSL/wolfssl/wolfcrypt/src/misc.c ****  * (at your option) any later version.
  11:Middlewares/Third_Party/wolfSSL_wolfSSL_wolfSSL/wolfssl/wolfcrypt/src/misc.c ****  *
  12:Middlewares/Third_Party/wolfSSL_wolfSSL_wolfSSL/wolfssl/wolfcrypt/src/misc.c ****  * wolfSSL is distributed in the hope that it will be useful,
  13:Middlewares/Third_Party/wolfSSL_wolfSSL_wolfSSL/wolfssl/wolfcrypt/src/misc.c ****  * but WITHOUT ANY WARRANTY; without even the implied warranty of
  14:Middlewares/Third_Party/wolfSSL_wolfSSL_wolfSSL/wolfssl/wolfcrypt/src/misc.c ****  * MERCHANTABILITY or FITNESS FOR A PARTICULAR PURPOSE.  See the
  15:Middlewares/Third_Party/wolfSSL_wolfSSL_wolfSSL/wolfssl/wolfcrypt/src/misc.c ****  * GNU General Public License for more details.
  16:Middlewares/Third_Party/wolfSSL_wolfSSL_wolfSSL/wolfssl/wolfcrypt/src/misc.c ****  *
  17:Middlewares/Third_Party/wolfSSL_wolfSSL_wolfSSL/wolfssl/wolfcrypt/src/misc.c ****  * You should have received a copy of the GNU General Public License
  18:Middlewares/Third_Party/wolfSSL_wolfSSL_wolfSSL/wolfssl/wolfcrypt/src/misc.c ****  * along with this program; if not, write to the Free Software
  19:Middlewares/Third_Party/wolfSSL_wolfSSL_wolfSSL/wolfssl/wolfcrypt/src/misc.c ****  * Foundation, Inc., 51 Franklin Street, Fifth Floor, Boston, MA 02110-1335, USA
  20:Middlewares/Third_Party/wolfSSL_wolfSSL_wolfSSL/wolfssl/wolfcrypt/src/misc.c ****  */
  21:Middlewares/Third_Party/wolfSSL_wolfSSL_wolfSSL/wolfssl/wolfcrypt/src/misc.c **** /*
  22:Middlewares/Third_Party/wolfSSL_wolfSSL_wolfSSL/wolfssl/wolfcrypt/src/misc.c **** 
  23:Middlewares/Third_Party/wolfSSL_wolfSSL_wolfSSL/wolfssl/wolfcrypt/src/misc.c **** DESCRIPTION
  24:Middlewares/Third_Party/wolfSSL_wolfSSL_wolfSSL/wolfssl/wolfcrypt/src/misc.c **** This module implements the arithmetic-shift right, left, byte swapping, XOR,
  25:Middlewares/Third_Party/wolfSSL_wolfSSL_wolfSSL/wolfssl/wolfcrypt/src/misc.c **** masking and clearing memory logic.
ARM GAS  /tmp/ccxfTf9S.s 			page 47


  26:Middlewares/Third_Party/wolfSSL_wolfSSL_wolfSSL/wolfssl/wolfcrypt/src/misc.c **** 
  27:Middlewares/Third_Party/wolfSSL_wolfSSL_wolfSSL/wolfssl/wolfcrypt/src/misc.c **** */
  28:Middlewares/Third_Party/wolfSSL_wolfSSL_wolfSSL/wolfssl/wolfcrypt/src/misc.c **** #ifdef HAVE_CONFIG_H
  29:Middlewares/Third_Party/wolfSSL_wolfSSL_wolfSSL/wolfssl/wolfcrypt/src/misc.c ****     #include <config.h>
  30:Middlewares/Third_Party/wolfSSL_wolfSSL_wolfSSL/wolfssl/wolfcrypt/src/misc.c **** #endif
  31:Middlewares/Third_Party/wolfSSL_wolfSSL_wolfSSL/wolfssl/wolfcrypt/src/misc.c **** 
  32:Middlewares/Third_Party/wolfSSL_wolfSSL_wolfSSL/wolfssl/wolfcrypt/src/misc.c **** #include <wolfssl/wolfcrypt/settings.h>
  33:Middlewares/Third_Party/wolfSSL_wolfSSL_wolfSSL/wolfssl/wolfcrypt/src/misc.c **** 
  34:Middlewares/Third_Party/wolfSSL_wolfSSL_wolfSSL/wolfssl/wolfcrypt/src/misc.c **** #ifndef WOLF_CRYPT_MISC_C
  35:Middlewares/Third_Party/wolfSSL_wolfSSL_wolfSSL/wolfssl/wolfcrypt/src/misc.c **** #define WOLF_CRYPT_MISC_C
  36:Middlewares/Third_Party/wolfSSL_wolfSSL_wolfSSL/wolfssl/wolfcrypt/src/misc.c **** 
  37:Middlewares/Third_Party/wolfSSL_wolfSSL_wolfSSL/wolfssl/wolfcrypt/src/misc.c **** #include <wolfssl/wolfcrypt/misc.h>
  38:Middlewares/Third_Party/wolfSSL_wolfSSL_wolfSSL/wolfssl/wolfcrypt/src/misc.c **** 
  39:Middlewares/Third_Party/wolfSSL_wolfSSL_wolfSSL/wolfssl/wolfcrypt/src/misc.c **** /* inlining these functions is a huge speed increase and a small size decrease,
  40:Middlewares/Third_Party/wolfSSL_wolfSSL_wolfSSL/wolfssl/wolfcrypt/src/misc.c ****    because the functions are smaller than function call setup/cleanup, e.g.,
  41:Middlewares/Third_Party/wolfSSL_wolfSSL_wolfSSL/wolfssl/wolfcrypt/src/misc.c ****    md5 benchmark is twice as fast with inline.  If you don't want it, then
  42:Middlewares/Third_Party/wolfSSL_wolfSSL_wolfSSL/wolfssl/wolfcrypt/src/misc.c ****    define NO_INLINE and compile this file into wolfssl, otherwise it's used as
  43:Middlewares/Third_Party/wolfSSL_wolfSSL_wolfSSL/wolfssl/wolfcrypt/src/misc.c ****    a source header
  44:Middlewares/Third_Party/wolfSSL_wolfSSL_wolfSSL/wolfssl/wolfcrypt/src/misc.c ****  */
  45:Middlewares/Third_Party/wolfSSL_wolfSSL_wolfSSL/wolfssl/wolfcrypt/src/misc.c **** 
  46:Middlewares/Third_Party/wolfSSL_wolfSSL_wolfSSL/wolfssl/wolfcrypt/src/misc.c **** #ifdef NO_INLINE
  47:Middlewares/Third_Party/wolfSSL_wolfSSL_wolfSSL/wolfssl/wolfcrypt/src/misc.c ****     #define WC_STATIC
  48:Middlewares/Third_Party/wolfSSL_wolfSSL_wolfSSL/wolfssl/wolfcrypt/src/misc.c **** #else
  49:Middlewares/Third_Party/wolfSSL_wolfSSL_wolfSSL/wolfssl/wolfcrypt/src/misc.c ****     #define WC_STATIC static
  50:Middlewares/Third_Party/wolfSSL_wolfSSL_wolfSSL/wolfssl/wolfcrypt/src/misc.c **** #endif
  51:Middlewares/Third_Party/wolfSSL_wolfSSL_wolfSSL/wolfssl/wolfcrypt/src/misc.c **** 
  52:Middlewares/Third_Party/wolfSSL_wolfSSL_wolfSSL/wolfssl/wolfcrypt/src/misc.c **** /* Check for if compiling misc.c when not needed. */
  53:Middlewares/Third_Party/wolfSSL_wolfSSL_wolfSSL/wolfssl/wolfcrypt/src/misc.c **** #if !defined(WOLFSSL_MISC_INCLUDED) && !defined(NO_INLINE)
  54:Middlewares/Third_Party/wolfSSL_wolfSSL_wolfSSL/wolfssl/wolfcrypt/src/misc.c ****     #ifndef WOLFSSL_IGNORE_FILE_WARN
  55:Middlewares/Third_Party/wolfSSL_wolfSSL_wolfSSL/wolfssl/wolfcrypt/src/misc.c ****         #warning misc.c does not need to be compiled when using inline (NO_INLINE not defined)
  56:Middlewares/Third_Party/wolfSSL_wolfSSL_wolfSSL/wolfssl/wolfcrypt/src/misc.c ****     #endif
  57:Middlewares/Third_Party/wolfSSL_wolfSSL_wolfSSL/wolfssl/wolfcrypt/src/misc.c **** 
  58:Middlewares/Third_Party/wolfSSL_wolfSSL_wolfSSL/wolfssl/wolfcrypt/src/misc.c **** #else
  59:Middlewares/Third_Party/wolfSSL_wolfSSL_wolfSSL/wolfssl/wolfcrypt/src/misc.c **** 
  60:Middlewares/Third_Party/wolfSSL_wolfSSL_wolfSSL/wolfssl/wolfcrypt/src/misc.c **** 
  61:Middlewares/Third_Party/wolfSSL_wolfSSL_wolfSSL/wolfssl/wolfcrypt/src/misc.c **** #if defined(__ICCARM__)
  62:Middlewares/Third_Party/wolfSSL_wolfSSL_wolfSSL/wolfssl/wolfcrypt/src/misc.c ****     #include <intrinsics.h>
  63:Middlewares/Third_Party/wolfSSL_wolfSSL_wolfSSL/wolfssl/wolfcrypt/src/misc.c **** #endif
  64:Middlewares/Third_Party/wolfSSL_wolfSSL_wolfSSL/wolfssl/wolfcrypt/src/misc.c **** 
  65:Middlewares/Third_Party/wolfSSL_wolfSSL_wolfSSL/wolfssl/wolfcrypt/src/misc.c **** 
  66:Middlewares/Third_Party/wolfSSL_wolfSSL_wolfSSL/wolfssl/wolfcrypt/src/misc.c **** #ifdef INTEL_INTRINSICS
  67:Middlewares/Third_Party/wolfSSL_wolfSSL_wolfSSL/wolfssl/wolfcrypt/src/misc.c **** 
  68:Middlewares/Third_Party/wolfSSL_wolfSSL_wolfSSL/wolfssl/wolfcrypt/src/misc.c ****     #include <stdlib.h>      /* get intrinsic definitions */
  69:Middlewares/Third_Party/wolfSSL_wolfSSL_wolfSSL/wolfssl/wolfcrypt/src/misc.c **** 
  70:Middlewares/Third_Party/wolfSSL_wolfSSL_wolfSSL/wolfssl/wolfcrypt/src/misc.c ****     /* for non visual studio probably need no long version, 32 bit only
  71:Middlewares/Third_Party/wolfSSL_wolfSSL_wolfSSL/wolfssl/wolfcrypt/src/misc.c ****      * i.e., _rotl and _rotr */
  72:Middlewares/Third_Party/wolfSSL_wolfSSL_wolfSSL/wolfssl/wolfcrypt/src/misc.c ****     #pragma intrinsic(_lrotl, _lrotr)
  73:Middlewares/Third_Party/wolfSSL_wolfSSL_wolfSSL/wolfssl/wolfcrypt/src/misc.c **** 
  74:Middlewares/Third_Party/wolfSSL_wolfSSL_wolfSSL/wolfssl/wolfcrypt/src/misc.c ****     WC_STATIC WC_INLINE word32 rotlFixed(word32 x, word32 y)
  75:Middlewares/Third_Party/wolfSSL_wolfSSL_wolfSSL/wolfssl/wolfcrypt/src/misc.c ****     {
  76:Middlewares/Third_Party/wolfSSL_wolfSSL_wolfSSL/wolfssl/wolfcrypt/src/misc.c ****         return y ? _lrotl(x, y) : x;
  77:Middlewares/Third_Party/wolfSSL_wolfSSL_wolfSSL/wolfssl/wolfcrypt/src/misc.c ****     }
  78:Middlewares/Third_Party/wolfSSL_wolfSSL_wolfSSL/wolfssl/wolfcrypt/src/misc.c **** 
  79:Middlewares/Third_Party/wolfSSL_wolfSSL_wolfSSL/wolfssl/wolfcrypt/src/misc.c ****     WC_STATIC WC_INLINE word32 rotrFixed(word32 x, word32 y)
  80:Middlewares/Third_Party/wolfSSL_wolfSSL_wolfSSL/wolfssl/wolfcrypt/src/misc.c ****     {
  81:Middlewares/Third_Party/wolfSSL_wolfSSL_wolfSSL/wolfssl/wolfcrypt/src/misc.c ****         return y ? _lrotr(x, y) : x;
  82:Middlewares/Third_Party/wolfSSL_wolfSSL_wolfSSL/wolfssl/wolfcrypt/src/misc.c ****     }
ARM GAS  /tmp/ccxfTf9S.s 			page 48


  83:Middlewares/Third_Party/wolfSSL_wolfSSL_wolfSSL/wolfssl/wolfcrypt/src/misc.c **** 
  84:Middlewares/Third_Party/wolfSSL_wolfSSL_wolfSSL/wolfssl/wolfcrypt/src/misc.c **** #else /* generic */
  85:Middlewares/Third_Party/wolfSSL_wolfSSL_wolfSSL/wolfssl/wolfcrypt/src/misc.c **** /* This routine performs a left circular arithmetic shift of <x> by <y> value. */
  86:Middlewares/Third_Party/wolfSSL_wolfSSL_wolfSSL/wolfssl/wolfcrypt/src/misc.c **** 
  87:Middlewares/Third_Party/wolfSSL_wolfSSL_wolfSSL/wolfssl/wolfcrypt/src/misc.c ****     WC_STATIC WC_INLINE word32 rotlFixed(word32 x, word32 y)
  88:Middlewares/Third_Party/wolfSSL_wolfSSL_wolfSSL/wolfssl/wolfcrypt/src/misc.c ****     {
  89:Middlewares/Third_Party/wolfSSL_wolfSSL_wolfSSL/wolfssl/wolfcrypt/src/misc.c ****         return (x << y) | (x >> (sizeof(y) * 8 - y));
  90:Middlewares/Third_Party/wolfSSL_wolfSSL_wolfSSL/wolfssl/wolfcrypt/src/misc.c ****     }
  91:Middlewares/Third_Party/wolfSSL_wolfSSL_wolfSSL/wolfssl/wolfcrypt/src/misc.c **** 
  92:Middlewares/Third_Party/wolfSSL_wolfSSL_wolfSSL/wolfssl/wolfcrypt/src/misc.c **** /* This routine performs a right circular arithmetic shift of <x> by <y> value. */
  93:Middlewares/Third_Party/wolfSSL_wolfSSL_wolfSSL/wolfssl/wolfcrypt/src/misc.c ****     WC_STATIC WC_INLINE word32 rotrFixed(word32 x, word32 y)
  94:Middlewares/Third_Party/wolfSSL_wolfSSL_wolfSSL/wolfssl/wolfcrypt/src/misc.c ****     {
  95:Middlewares/Third_Party/wolfSSL_wolfSSL_wolfSSL/wolfssl/wolfcrypt/src/misc.c ****         return (x >> y) | (x << (sizeof(y) * 8 - y));
  96:Middlewares/Third_Party/wolfSSL_wolfSSL_wolfSSL/wolfssl/wolfcrypt/src/misc.c ****     }
  97:Middlewares/Third_Party/wolfSSL_wolfSSL_wolfSSL/wolfssl/wolfcrypt/src/misc.c **** 
  98:Middlewares/Third_Party/wolfSSL_wolfSSL_wolfSSL/wolfssl/wolfcrypt/src/misc.c **** #endif
  99:Middlewares/Third_Party/wolfSSL_wolfSSL_wolfSSL/wolfssl/wolfcrypt/src/misc.c **** 
 100:Middlewares/Third_Party/wolfSSL_wolfSSL_wolfSSL/wolfssl/wolfcrypt/src/misc.c **** #ifdef WC_RC2
 101:Middlewares/Third_Party/wolfSSL_wolfSSL_wolfSSL/wolfssl/wolfcrypt/src/misc.c **** 
 102:Middlewares/Third_Party/wolfSSL_wolfSSL_wolfSSL/wolfssl/wolfcrypt/src/misc.c **** /* This routine performs a left circular arithmetic shift of <x> by <y> value */
 103:Middlewares/Third_Party/wolfSSL_wolfSSL_wolfSSL/wolfssl/wolfcrypt/src/misc.c **** WC_STATIC WC_INLINE word16 rotlFixed16(word16 x, word16 y)
 104:Middlewares/Third_Party/wolfSSL_wolfSSL_wolfSSL/wolfssl/wolfcrypt/src/misc.c **** {
 105:Middlewares/Third_Party/wolfSSL_wolfSSL_wolfSSL/wolfssl/wolfcrypt/src/misc.c ****     return (x << y) | (x >> (sizeof(y) * 8 - y));
 106:Middlewares/Third_Party/wolfSSL_wolfSSL_wolfSSL/wolfssl/wolfcrypt/src/misc.c **** }
 107:Middlewares/Third_Party/wolfSSL_wolfSSL_wolfSSL/wolfssl/wolfcrypt/src/misc.c **** 
 108:Middlewares/Third_Party/wolfSSL_wolfSSL_wolfSSL/wolfssl/wolfcrypt/src/misc.c **** 
 109:Middlewares/Third_Party/wolfSSL_wolfSSL_wolfSSL/wolfssl/wolfcrypt/src/misc.c **** /* This routine performs a right circular arithmetic shift of <x> by <y> value */
 110:Middlewares/Third_Party/wolfSSL_wolfSSL_wolfSSL/wolfssl/wolfcrypt/src/misc.c **** WC_STATIC WC_INLINE word16 rotrFixed16(word16 x, word16 y)
 111:Middlewares/Third_Party/wolfSSL_wolfSSL_wolfSSL/wolfssl/wolfcrypt/src/misc.c **** {
 112:Middlewares/Third_Party/wolfSSL_wolfSSL_wolfSSL/wolfssl/wolfcrypt/src/misc.c ****     return (x >> y) | (x << (sizeof(y) * 8 - y));
 113:Middlewares/Third_Party/wolfSSL_wolfSSL_wolfSSL/wolfssl/wolfcrypt/src/misc.c **** }
 114:Middlewares/Third_Party/wolfSSL_wolfSSL_wolfSSL/wolfssl/wolfcrypt/src/misc.c **** 
 115:Middlewares/Third_Party/wolfSSL_wolfSSL_wolfSSL/wolfssl/wolfcrypt/src/misc.c **** #endif /* WC_RC2 */
 116:Middlewares/Third_Party/wolfSSL_wolfSSL_wolfSSL/wolfssl/wolfcrypt/src/misc.c **** 
 117:Middlewares/Third_Party/wolfSSL_wolfSSL_wolfSSL/wolfssl/wolfcrypt/src/misc.c **** /* This routine performs a byte swap of 32-bit word value. */
 118:Middlewares/Third_Party/wolfSSL_wolfSSL_wolfSSL/wolfssl/wolfcrypt/src/misc.c **** WC_STATIC WC_INLINE word32 ByteReverseWord32(word32 value)
 119:Middlewares/Third_Party/wolfSSL_wolfSSL_wolfSSL/wolfssl/wolfcrypt/src/misc.c **** {
 120:Middlewares/Third_Party/wolfSSL_wolfSSL_wolfSSL/wolfssl/wolfcrypt/src/misc.c **** #ifdef PPC_INTRINSICS
 121:Middlewares/Third_Party/wolfSSL_wolfSSL_wolfSSL/wolfssl/wolfcrypt/src/misc.c ****     /* PPC: load reverse indexed instruction */
 122:Middlewares/Third_Party/wolfSSL_wolfSSL_wolfSSL/wolfssl/wolfcrypt/src/misc.c ****     return (word32)__lwbrx(&value,0);
 123:Middlewares/Third_Party/wolfSSL_wolfSSL_wolfSSL/wolfssl/wolfcrypt/src/misc.c **** #elif defined(__ICCARM__)
 124:Middlewares/Third_Party/wolfSSL_wolfSSL_wolfSSL/wolfssl/wolfcrypt/src/misc.c ****     return (word32)__REV(value);
 125:Middlewares/Third_Party/wolfSSL_wolfSSL_wolfSSL/wolfssl/wolfcrypt/src/misc.c **** #elif defined(KEIL_INTRINSICS)
 126:Middlewares/Third_Party/wolfSSL_wolfSSL_wolfSSL/wolfssl/wolfcrypt/src/misc.c ****     return (word32)__rev(value);
 127:Middlewares/Third_Party/wolfSSL_wolfSSL_wolfSSL/wolfssl/wolfcrypt/src/misc.c **** #elif defined(WOLF_ALLOW_BUILTIN) && \
 128:Middlewares/Third_Party/wolfSSL_wolfSSL_wolfSSL/wolfssl/wolfcrypt/src/misc.c ****         defined(__GNUC_PREREQ) && __GNUC_PREREQ(4, 3)
 129:Middlewares/Third_Party/wolfSSL_wolfSSL_wolfSSL/wolfssl/wolfcrypt/src/misc.c ****     return (word32)__builtin_bswap32(value);
 130:Middlewares/Third_Party/wolfSSL_wolfSSL_wolfSSL/wolfssl/wolfcrypt/src/misc.c **** #elif defined(WOLFSSL_BYTESWAP32_ASM) && defined(__GNUC__) && \
 131:Middlewares/Third_Party/wolfSSL_wolfSSL_wolfSSL/wolfssl/wolfcrypt/src/misc.c ****       defined(__aarch64__)
 132:Middlewares/Third_Party/wolfSSL_wolfSSL_wolfSSL/wolfssl/wolfcrypt/src/misc.c ****     __asm__ volatile (
 133:Middlewares/Third_Party/wolfSSL_wolfSSL_wolfSSL/wolfssl/wolfcrypt/src/misc.c ****         "REV32 %0, %0  \n"
 134:Middlewares/Third_Party/wolfSSL_wolfSSL_wolfSSL/wolfssl/wolfcrypt/src/misc.c ****         : "+r" (value)
 135:Middlewares/Third_Party/wolfSSL_wolfSSL_wolfSSL/wolfssl/wolfcrypt/src/misc.c ****         :
 136:Middlewares/Third_Party/wolfSSL_wolfSSL_wolfSSL/wolfssl/wolfcrypt/src/misc.c ****     );
 137:Middlewares/Third_Party/wolfSSL_wolfSSL_wolfSSL/wolfssl/wolfcrypt/src/misc.c ****     return value;
 138:Middlewares/Third_Party/wolfSSL_wolfSSL_wolfSSL/wolfssl/wolfcrypt/src/misc.c **** #elif defined(WOLFSSL_BYTESWAP32_ASM) && defined(__GNUC__) && \
 139:Middlewares/Third_Party/wolfSSL_wolfSSL_wolfSSL/wolfssl/wolfcrypt/src/misc.c ****       (defined(__thumb__) || defined(__arm__))
ARM GAS  /tmp/ccxfTf9S.s 			page 49


 140:Middlewares/Third_Party/wolfSSL_wolfSSL_wolfSSL/wolfssl/wolfcrypt/src/misc.c ****     __asm__ volatile (
 141:Middlewares/Third_Party/wolfSSL_wolfSSL_wolfSSL/wolfssl/wolfcrypt/src/misc.c ****         "REV %0, %0  \n"
 142:Middlewares/Third_Party/wolfSSL_wolfSSL_wolfSSL/wolfssl/wolfcrypt/src/misc.c ****         : "+r" (value)
 143:Middlewares/Third_Party/wolfSSL_wolfSSL_wolfSSL/wolfssl/wolfcrypt/src/misc.c ****         :
 144:Middlewares/Third_Party/wolfSSL_wolfSSL_wolfSSL/wolfssl/wolfcrypt/src/misc.c ****     );
 145:Middlewares/Third_Party/wolfSSL_wolfSSL_wolfSSL/wolfssl/wolfcrypt/src/misc.c ****     return value;
 146:Middlewares/Third_Party/wolfSSL_wolfSSL_wolfSSL/wolfssl/wolfcrypt/src/misc.c **** #elif defined(FAST_ROTATE)
 147:Middlewares/Third_Party/wolfSSL_wolfSSL_wolfSSL/wolfssl/wolfcrypt/src/misc.c ****     /* 5 instructions with rotate instruction, 9 without */
 148:Middlewares/Third_Party/wolfSSL_wolfSSL_wolfSSL/wolfssl/wolfcrypt/src/misc.c ****     return (rotrFixed(value, 8U) & 0xff00ff00) |
 149:Middlewares/Third_Party/wolfSSL_wolfSSL_wolfSSL/wolfssl/wolfcrypt/src/misc.c ****            (rotlFixed(value, 8U) & 0x00ff00ff);
 150:Middlewares/Third_Party/wolfSSL_wolfSSL_wolfSSL/wolfssl/wolfcrypt/src/misc.c **** #else
 151:Middlewares/Third_Party/wolfSSL_wolfSSL_wolfSSL/wolfssl/wolfcrypt/src/misc.c ****     /* 6 instructions with rotate instruction, 8 without */
 152:Middlewares/Third_Party/wolfSSL_wolfSSL_wolfSSL/wolfssl/wolfcrypt/src/misc.c ****     value = ((value & 0xFF00FF00) >> 8) | ((value & 0x00FF00FF) << 8);
 153:Middlewares/Third_Party/wolfSSL_wolfSSL_wolfSSL/wolfssl/wolfcrypt/src/misc.c ****     return rotlFixed(value, 16U);
 154:Middlewares/Third_Party/wolfSSL_wolfSSL_wolfSSL/wolfssl/wolfcrypt/src/misc.c **** #endif
 155:Middlewares/Third_Party/wolfSSL_wolfSSL_wolfSSL/wolfssl/wolfcrypt/src/misc.c **** }
 156:Middlewares/Third_Party/wolfSSL_wolfSSL_wolfSSL/wolfssl/wolfcrypt/src/misc.c **** /* This routine performs a byte swap of words array of a given count. */
 157:Middlewares/Third_Party/wolfSSL_wolfSSL_wolfSSL/wolfssl/wolfcrypt/src/misc.c **** WC_STATIC WC_INLINE void ByteReverseWords(word32* out, const word32* in,
 158:Middlewares/Third_Party/wolfSSL_wolfSSL_wolfSSL/wolfssl/wolfcrypt/src/misc.c ****                                     word32 byteCount)
 159:Middlewares/Third_Party/wolfSSL_wolfSSL_wolfSSL/wolfssl/wolfcrypt/src/misc.c **** {
 160:Middlewares/Third_Party/wolfSSL_wolfSSL_wolfSSL/wolfssl/wolfcrypt/src/misc.c ****     word32 count = byteCount/(word32)sizeof(word32), i;
 161:Middlewares/Third_Party/wolfSSL_wolfSSL_wolfSSL/wolfssl/wolfcrypt/src/misc.c **** 
 162:Middlewares/Third_Party/wolfSSL_wolfSSL_wolfSSL/wolfssl/wolfcrypt/src/misc.c ****     for (i = 0; i < count; i++)
 163:Middlewares/Third_Party/wolfSSL_wolfSSL_wolfSSL/wolfssl/wolfcrypt/src/misc.c ****         out[i] = ByteReverseWord32(in[i]);
 164:Middlewares/Third_Party/wolfSSL_wolfSSL_wolfSSL/wolfssl/wolfcrypt/src/misc.c **** 
 165:Middlewares/Third_Party/wolfSSL_wolfSSL_wolfSSL/wolfssl/wolfcrypt/src/misc.c **** }
 166:Middlewares/Third_Party/wolfSSL_wolfSSL_wolfSSL/wolfssl/wolfcrypt/src/misc.c **** 
 167:Middlewares/Third_Party/wolfSSL_wolfSSL_wolfSSL/wolfssl/wolfcrypt/src/misc.c **** #if defined(WORD64_AVAILABLE) && !defined(WOLFSSL_NO_WORD64_OPS)
 168:Middlewares/Third_Party/wolfSSL_wolfSSL_wolfSSL/wolfssl/wolfcrypt/src/misc.c **** 
 169:Middlewares/Third_Party/wolfSSL_wolfSSL_wolfSSL/wolfssl/wolfcrypt/src/misc.c **** 
 170:Middlewares/Third_Party/wolfSSL_wolfSSL_wolfSSL/wolfssl/wolfcrypt/src/misc.c **** WC_STATIC WC_INLINE word64 rotlFixed64(word64 x, word64 y)
 171:Middlewares/Third_Party/wolfSSL_wolfSSL_wolfSSL/wolfssl/wolfcrypt/src/misc.c **** {
 172:Middlewares/Third_Party/wolfSSL_wolfSSL_wolfSSL/wolfssl/wolfcrypt/src/misc.c ****     return (x << y) | (x >> (sizeof(y) * 8 - y));
 173:Middlewares/Third_Party/wolfSSL_wolfSSL_wolfSSL/wolfssl/wolfcrypt/src/misc.c **** }
 174:Middlewares/Third_Party/wolfSSL_wolfSSL_wolfSSL/wolfssl/wolfcrypt/src/misc.c **** 
 175:Middlewares/Third_Party/wolfSSL_wolfSSL_wolfSSL/wolfssl/wolfcrypt/src/misc.c **** 
 176:Middlewares/Third_Party/wolfSSL_wolfSSL_wolfSSL/wolfssl/wolfcrypt/src/misc.c **** WC_STATIC WC_INLINE word64 rotrFixed64(word64 x, word64 y)
 177:Middlewares/Third_Party/wolfSSL_wolfSSL_wolfSSL/wolfssl/wolfcrypt/src/misc.c **** {
 178:Middlewares/Third_Party/wolfSSL_wolfSSL_wolfSSL/wolfssl/wolfcrypt/src/misc.c ****     return (x >> y) | (x << (sizeof(y) * 8 - y));
 179:Middlewares/Third_Party/wolfSSL_wolfSSL_wolfSSL/wolfssl/wolfcrypt/src/misc.c **** }
 180:Middlewares/Third_Party/wolfSSL_wolfSSL_wolfSSL/wolfssl/wolfcrypt/src/misc.c **** 
 181:Middlewares/Third_Party/wolfSSL_wolfSSL_wolfSSL/wolfssl/wolfcrypt/src/misc.c **** 
 182:Middlewares/Third_Party/wolfSSL_wolfSSL_wolfSSL/wolfssl/wolfcrypt/src/misc.c **** WC_STATIC WC_INLINE word64 ByteReverseWord64(word64 value)
 183:Middlewares/Third_Party/wolfSSL_wolfSSL_wolfSSL/wolfssl/wolfcrypt/src/misc.c **** {
 184:Middlewares/Third_Party/wolfSSL_wolfSSL_wolfSSL/wolfssl/wolfcrypt/src/misc.c **** #if defined(WOLF_ALLOW_BUILTIN) && defined(__GNUC_PREREQ) && __GNUC_PREREQ(4, 3)
 185:Middlewares/Third_Party/wolfSSL_wolfSSL_wolfSSL/wolfssl/wolfcrypt/src/misc.c ****     return (word64)__builtin_bswap64(value);
 186:Middlewares/Third_Party/wolfSSL_wolfSSL_wolfSSL/wolfssl/wolfcrypt/src/misc.c **** #elif defined(WOLFCRYPT_SLOW_WORD64)
 187:Middlewares/Third_Party/wolfSSL_wolfSSL_wolfSSL/wolfssl/wolfcrypt/src/misc.c **** 	return (word64)((word64)ByteReverseWord32((word32) value)) << 32 |
 188:Middlewares/Third_Party/wolfSSL_wolfSSL_wolfSSL/wolfssl/wolfcrypt/src/misc.c ****                     (word64)ByteReverseWord32((word32)(value   >> 32));
 189:Middlewares/Third_Party/wolfSSL_wolfSSL_wolfSSL/wolfssl/wolfcrypt/src/misc.c **** #else
 190:Middlewares/Third_Party/wolfSSL_wolfSSL_wolfSSL/wolfssl/wolfcrypt/src/misc.c **** 	value = ((value & W64LIT(0xFF00FF00FF00FF00)) >> 8) |
 191:Middlewares/Third_Party/wolfSSL_wolfSSL_wolfSSL/wolfssl/wolfcrypt/src/misc.c ****             ((value & W64LIT(0x00FF00FF00FF00FF)) << 8);
 192:Middlewares/Third_Party/wolfSSL_wolfSSL_wolfSSL/wolfssl/wolfcrypt/src/misc.c **** 	value = ((value & W64LIT(0xFFFF0000FFFF0000)) >> 16) |
 193:Middlewares/Third_Party/wolfSSL_wolfSSL_wolfSSL/wolfssl/wolfcrypt/src/misc.c ****             ((value & W64LIT(0x0000FFFF0000FFFF)) << 16);
 194:Middlewares/Third_Party/wolfSSL_wolfSSL_wolfSSL/wolfssl/wolfcrypt/src/misc.c **** 	return rotlFixed64(value, 32U);
 195:Middlewares/Third_Party/wolfSSL_wolfSSL_wolfSSL/wolfssl/wolfcrypt/src/misc.c **** #endif
 196:Middlewares/Third_Party/wolfSSL_wolfSSL_wolfSSL/wolfssl/wolfcrypt/src/misc.c **** }
ARM GAS  /tmp/ccxfTf9S.s 			page 50


 197:Middlewares/Third_Party/wolfSSL_wolfSSL_wolfSSL/wolfssl/wolfcrypt/src/misc.c **** 
 198:Middlewares/Third_Party/wolfSSL_wolfSSL_wolfSSL/wolfssl/wolfcrypt/src/misc.c **** 
 199:Middlewares/Third_Party/wolfSSL_wolfSSL_wolfSSL/wolfssl/wolfcrypt/src/misc.c **** WC_STATIC WC_INLINE void ByteReverseWords64(word64* out, const word64* in,
 200:Middlewares/Third_Party/wolfSSL_wolfSSL_wolfSSL/wolfssl/wolfcrypt/src/misc.c ****                                       word32 byteCount)
 201:Middlewares/Third_Party/wolfSSL_wolfSSL_wolfSSL/wolfssl/wolfcrypt/src/misc.c **** {
 202:Middlewares/Third_Party/wolfSSL_wolfSSL_wolfSSL/wolfssl/wolfcrypt/src/misc.c ****     word32 count = byteCount/(word32)sizeof(word64), i;
 203:Middlewares/Third_Party/wolfSSL_wolfSSL_wolfSSL/wolfssl/wolfcrypt/src/misc.c **** 
 204:Middlewares/Third_Party/wolfSSL_wolfSSL_wolfSSL/wolfssl/wolfcrypt/src/misc.c ****     for (i = 0; i < count; i++)
 205:Middlewares/Third_Party/wolfSSL_wolfSSL_wolfSSL/wolfssl/wolfcrypt/src/misc.c ****         out[i] = ByteReverseWord64(in[i]);
 206:Middlewares/Third_Party/wolfSSL_wolfSSL_wolfSSL/wolfssl/wolfcrypt/src/misc.c **** 
 207:Middlewares/Third_Party/wolfSSL_wolfSSL_wolfSSL/wolfssl/wolfcrypt/src/misc.c **** }
 208:Middlewares/Third_Party/wolfSSL_wolfSSL_wolfSSL/wolfssl/wolfcrypt/src/misc.c **** 
 209:Middlewares/Third_Party/wolfSSL_wolfSSL_wolfSSL/wolfssl/wolfcrypt/src/misc.c **** #endif /* WORD64_AVAILABLE && !WOLFSSL_NO_WORD64_OPS */
 210:Middlewares/Third_Party/wolfSSL_wolfSSL_wolfSSL/wolfssl/wolfcrypt/src/misc.c **** 
 211:Middlewares/Third_Party/wolfSSL_wolfSSL_wolfSSL/wolfssl/wolfcrypt/src/misc.c **** #ifndef WOLFSSL_NO_XOR_OPS
 212:Middlewares/Third_Party/wolfSSL_wolfSSL_wolfSSL/wolfssl/wolfcrypt/src/misc.c **** /* This routine performs a bitwise XOR operation of <*r> and <*a> for <n> number
 213:Middlewares/Third_Party/wolfSSL_wolfSSL_wolfSSL/wolfssl/wolfcrypt/src/misc.c **** of wolfssl_words, placing the result in <*r>. */
 214:Middlewares/Third_Party/wolfSSL_wolfSSL_wolfSSL/wolfssl/wolfcrypt/src/misc.c **** WC_STATIC WC_INLINE void XorWordsOut(wolfssl_word* r, const wolfssl_word* a,
 215:Middlewares/Third_Party/wolfSSL_wolfSSL_wolfSSL/wolfssl/wolfcrypt/src/misc.c ****                                      const wolfssl_word* b, word32 n)
 216:Middlewares/Third_Party/wolfSSL_wolfSSL_wolfSSL/wolfssl/wolfcrypt/src/misc.c **** {
 217:Middlewares/Third_Party/wolfSSL_wolfSSL_wolfSSL/wolfssl/wolfcrypt/src/misc.c ****     word32 i;
 218:Middlewares/Third_Party/wolfSSL_wolfSSL_wolfSSL/wolfssl/wolfcrypt/src/misc.c **** 
 219:Middlewares/Third_Party/wolfSSL_wolfSSL_wolfSSL/wolfssl/wolfcrypt/src/misc.c ****     for (i = 0; i < n; i++) r[i] = a[i] ^ b[i];
 220:Middlewares/Third_Party/wolfSSL_wolfSSL_wolfSSL/wolfssl/wolfcrypt/src/misc.c **** }
 221:Middlewares/Third_Party/wolfSSL_wolfSSL_wolfSSL/wolfssl/wolfcrypt/src/misc.c **** 
 222:Middlewares/Third_Party/wolfSSL_wolfSSL_wolfSSL/wolfssl/wolfcrypt/src/misc.c **** /* This routine performs a bitwise XOR operation of <*buf> and <*mask> of n
 223:Middlewares/Third_Party/wolfSSL_wolfSSL_wolfSSL/wolfssl/wolfcrypt/src/misc.c **** counts, placing the result in <*buf>. */
 224:Middlewares/Third_Party/wolfSSL_wolfSSL_wolfSSL/wolfssl/wolfcrypt/src/misc.c **** 
 225:Middlewares/Third_Party/wolfSSL_wolfSSL_wolfSSL/wolfssl/wolfcrypt/src/misc.c **** WC_STATIC WC_INLINE void xorbufout(void*out, const void* buf, const void* mask,
 226:Middlewares/Third_Party/wolfSSL_wolfSSL_wolfSSL/wolfssl/wolfcrypt/src/misc.c ****                                    word32 count)
 227:Middlewares/Third_Party/wolfSSL_wolfSSL_wolfSSL/wolfssl/wolfcrypt/src/misc.c **** {
 228:Middlewares/Third_Party/wolfSSL_wolfSSL_wolfSSL/wolfssl/wolfcrypt/src/misc.c ****     if (((wolfssl_word)out | (wolfssl_word)buf | (wolfssl_word)mask | count) % \
 229:Middlewares/Third_Party/wolfSSL_wolfSSL_wolfSSL/wolfssl/wolfcrypt/src/misc.c ****                                                          WOLFSSL_WORD_SIZE == 0)
 230:Middlewares/Third_Party/wolfSSL_wolfSSL_wolfSSL/wolfssl/wolfcrypt/src/misc.c ****         XorWordsOut( (wolfssl_word*)out, (wolfssl_word*)buf,
 231:Middlewares/Third_Party/wolfSSL_wolfSSL_wolfSSL/wolfssl/wolfcrypt/src/misc.c ****                      (const wolfssl_word*)mask, count / WOLFSSL_WORD_SIZE);
 232:Middlewares/Third_Party/wolfSSL_wolfSSL_wolfSSL/wolfssl/wolfcrypt/src/misc.c ****     else {
 233:Middlewares/Third_Party/wolfSSL_wolfSSL_wolfSSL/wolfssl/wolfcrypt/src/misc.c ****         word32 i;
 234:Middlewares/Third_Party/wolfSSL_wolfSSL_wolfSSL/wolfssl/wolfcrypt/src/misc.c ****         byte*       o = (byte*)out;
 235:Middlewares/Third_Party/wolfSSL_wolfSSL_wolfSSL/wolfssl/wolfcrypt/src/misc.c ****         byte*       b = (byte*)buf;
 236:Middlewares/Third_Party/wolfSSL_wolfSSL_wolfSSL/wolfssl/wolfcrypt/src/misc.c ****         const byte* m = (const byte*)mask;
 237:Middlewares/Third_Party/wolfSSL_wolfSSL_wolfSSL/wolfssl/wolfcrypt/src/misc.c **** 
 238:Middlewares/Third_Party/wolfSSL_wolfSSL_wolfSSL/wolfssl/wolfcrypt/src/misc.c ****         for (i = 0; i < count; i++) o[i] = b[i] ^ m[i];
 239:Middlewares/Third_Party/wolfSSL_wolfSSL_wolfSSL/wolfssl/wolfcrypt/src/misc.c ****     }
 240:Middlewares/Third_Party/wolfSSL_wolfSSL_wolfSSL/wolfssl/wolfcrypt/src/misc.c **** }
 241:Middlewares/Third_Party/wolfSSL_wolfSSL_wolfSSL/wolfssl/wolfcrypt/src/misc.c **** 
 242:Middlewares/Third_Party/wolfSSL_wolfSSL_wolfSSL/wolfssl/wolfcrypt/src/misc.c **** /* This routine performs a bitwise XOR operation of <*r> and <*a> for <n> number
 243:Middlewares/Third_Party/wolfSSL_wolfSSL_wolfSSL/wolfssl/wolfcrypt/src/misc.c **** of wolfssl_words, placing the result in <*r>. */
 244:Middlewares/Third_Party/wolfSSL_wolfSSL_wolfSSL/wolfssl/wolfcrypt/src/misc.c **** WC_STATIC WC_INLINE void XorWords(wolfssl_word* r, const wolfssl_word* a, word32 n)
 245:Middlewares/Third_Party/wolfSSL_wolfSSL_wolfSSL/wolfssl/wolfcrypt/src/misc.c **** {
 246:Middlewares/Third_Party/wolfSSL_wolfSSL_wolfSSL/wolfssl/wolfcrypt/src/misc.c ****     word32 i;
 247:Middlewares/Third_Party/wolfSSL_wolfSSL_wolfSSL/wolfssl/wolfcrypt/src/misc.c **** 
 248:Middlewares/Third_Party/wolfSSL_wolfSSL_wolfSSL/wolfssl/wolfcrypt/src/misc.c ****     for (i = 0; i < n; i++) r[i] ^= a[i];
 249:Middlewares/Third_Party/wolfSSL_wolfSSL_wolfSSL/wolfssl/wolfcrypt/src/misc.c **** }
 250:Middlewares/Third_Party/wolfSSL_wolfSSL_wolfSSL/wolfssl/wolfcrypt/src/misc.c **** 
 251:Middlewares/Third_Party/wolfSSL_wolfSSL_wolfSSL/wolfssl/wolfcrypt/src/misc.c **** /* This routine performs a bitwise XOR operation of <*buf> and <*mask> of n
 252:Middlewares/Third_Party/wolfSSL_wolfSSL_wolfSSL/wolfssl/wolfcrypt/src/misc.c **** counts, placing the result in <*buf>. */
 253:Middlewares/Third_Party/wolfSSL_wolfSSL_wolfSSL/wolfssl/wolfcrypt/src/misc.c **** 
ARM GAS  /tmp/ccxfTf9S.s 			page 51


 254:Middlewares/Third_Party/wolfSSL_wolfSSL_wolfSSL/wolfssl/wolfcrypt/src/misc.c **** WC_STATIC WC_INLINE void xorbuf(void* buf, const void* mask, word32 count)
 255:Middlewares/Third_Party/wolfSSL_wolfSSL_wolfSSL/wolfssl/wolfcrypt/src/misc.c **** {
 256:Middlewares/Third_Party/wolfSSL_wolfSSL_wolfSSL/wolfssl/wolfcrypt/src/misc.c ****     if (((wolfssl_word)buf | (wolfssl_word)mask | count) % WOLFSSL_WORD_SIZE == 0)
 257:Middlewares/Third_Party/wolfSSL_wolfSSL_wolfSSL/wolfssl/wolfcrypt/src/misc.c ****         XorWords( (wolfssl_word*)buf,
 258:Middlewares/Third_Party/wolfSSL_wolfSSL_wolfSSL/wolfssl/wolfcrypt/src/misc.c ****                   (const wolfssl_word*)mask, count / WOLFSSL_WORD_SIZE);
 259:Middlewares/Third_Party/wolfSSL_wolfSSL_wolfSSL/wolfssl/wolfcrypt/src/misc.c ****     else {
 260:Middlewares/Third_Party/wolfSSL_wolfSSL_wolfSSL/wolfssl/wolfcrypt/src/misc.c ****         word32 i;
 261:Middlewares/Third_Party/wolfSSL_wolfSSL_wolfSSL/wolfssl/wolfcrypt/src/misc.c ****         byte*       b = (byte*)buf;
 262:Middlewares/Third_Party/wolfSSL_wolfSSL_wolfSSL/wolfssl/wolfcrypt/src/misc.c ****         const byte* m = (const byte*)mask;
 263:Middlewares/Third_Party/wolfSSL_wolfSSL_wolfSSL/wolfssl/wolfcrypt/src/misc.c **** 
 264:Middlewares/Third_Party/wolfSSL_wolfSSL_wolfSSL/wolfssl/wolfcrypt/src/misc.c ****         for (i = 0; i < count; i++) b[i] ^= m[i];
 265:Middlewares/Third_Party/wolfSSL_wolfSSL_wolfSSL/wolfssl/wolfcrypt/src/misc.c ****     }
 266:Middlewares/Third_Party/wolfSSL_wolfSSL_wolfSSL/wolfssl/wolfcrypt/src/misc.c **** }
 267:Middlewares/Third_Party/wolfSSL_wolfSSL_wolfSSL/wolfssl/wolfcrypt/src/misc.c **** #endif
 268:Middlewares/Third_Party/wolfSSL_wolfSSL_wolfSSL/wolfssl/wolfcrypt/src/misc.c **** 
 269:Middlewares/Third_Party/wolfSSL_wolfSSL_wolfSSL/wolfssl/wolfcrypt/src/misc.c **** #ifndef WOLFSSL_NO_FORCE_ZERO
 270:Middlewares/Third_Party/wolfSSL_wolfSSL_wolfSSL/wolfssl/wolfcrypt/src/misc.c **** /* This routine fills the first len bytes of the memory area pointed by mem
 271:Middlewares/Third_Party/wolfSSL_wolfSSL_wolfSSL/wolfssl/wolfcrypt/src/misc.c ****    with zeros. It ensures compiler optimizations doesn't skip it  */
 272:Middlewares/Third_Party/wolfSSL_wolfSSL_wolfSSL/wolfssl/wolfcrypt/src/misc.c **** WC_STATIC WC_INLINE void ForceZero(const void* mem, word32 len)
 273:Middlewares/Third_Party/wolfSSL_wolfSSL_wolfSSL/wolfssl/wolfcrypt/src/misc.c **** {
 274:Middlewares/Third_Party/wolfSSL_wolfSSL_wolfSSL/wolfssl/wolfcrypt/src/misc.c ****     volatile byte* z = (volatile byte*)mem;
 275:Middlewares/Third_Party/wolfSSL_wolfSSL_wolfSSL/wolfssl/wolfcrypt/src/misc.c **** 
 276:Middlewares/Third_Party/wolfSSL_wolfSSL_wolfSSL/wolfssl/wolfcrypt/src/misc.c **** #if (defined(WOLFSSL_X86_64_BUILD) || defined(WOLFSSL_AARCH64_BUILD)) \
 277:Middlewares/Third_Party/wolfSSL_wolfSSL_wolfSSL/wolfssl/wolfcrypt/src/misc.c ****             && defined(WORD64_AVAILABLE)
 278:Middlewares/Third_Party/wolfSSL_wolfSSL_wolfSSL/wolfssl/wolfcrypt/src/misc.c ****     volatile word64* w;
 279:Middlewares/Third_Party/wolfSSL_wolfSSL_wolfSSL/wolfssl/wolfcrypt/src/misc.c ****     #ifndef WOLFSSL_UNALIGNED_64BIT_ACCESS
 280:Middlewares/Third_Party/wolfSSL_wolfSSL_wolfSSL/wolfssl/wolfcrypt/src/misc.c ****         word32 l = (sizeof(word64) - ((size_t)z & (sizeof(word64)-1))) &
