ARM GAS  /tmp/ccGcaF1m.s 			page 1


   1              		.cpu cortex-m4
   2              		.eabi_attribute 27, 1
   3              		.eabi_attribute 28, 1
   4              		.eabi_attribute 20, 1
   5              		.eabi_attribute 21, 1
   6              		.eabi_attribute 23, 3
   7              		.eabi_attribute 24, 1
   8              		.eabi_attribute 25, 1
   9              		.eabi_attribute 26, 1
  10              		.eabi_attribute 30, 1
  11              		.eabi_attribute 34, 1
  12              		.eabi_attribute 18, 4
  13              		.file	"poly1305.c"
  14              		.text
  15              	.Ltext0:
  16              		.cfi_sections	.debug_frame
  17              		.section	.text.U8TO32,"ax",%progbits
  18              		.align	1
  19              		.arch armv7e-m
  20              		.syntax unified
  21              		.thumb
  22              		.thumb_func
  23              		.fpu fpv4-sp-d16
  25              	U8TO32:
  26              	.LVL0:
  27              	.LFB175:
  28              		.file 1 "Middlewares/Third_Party/wolfSSL_wolfSSL_wolfSSL/wolfssl/wolfcrypt/src/poly1305.c"
   1:Middlewares/Third_Party/wolfSSL_wolfSSL_wolfSSL/wolfssl/wolfcrypt/src/poly1305.c **** /* poly1305.c
   2:Middlewares/Third_Party/wolfSSL_wolfSSL_wolfSSL/wolfssl/wolfcrypt/src/poly1305.c ****  *
   3:Middlewares/Third_Party/wolfSSL_wolfSSL_wolfSSL/wolfssl/wolfcrypt/src/poly1305.c ****  * Copyright (C) 2006-2020 wolfSSL Inc.
   4:Middlewares/Third_Party/wolfSSL_wolfSSL_wolfSSL/wolfssl/wolfcrypt/src/poly1305.c ****  *
   5:Middlewares/Third_Party/wolfSSL_wolfSSL_wolfSSL/wolfssl/wolfcrypt/src/poly1305.c ****  * This file is part of wolfSSL.
   6:Middlewares/Third_Party/wolfSSL_wolfSSL_wolfSSL/wolfssl/wolfcrypt/src/poly1305.c ****  *
   7:Middlewares/Third_Party/wolfSSL_wolfSSL_wolfSSL/wolfssl/wolfcrypt/src/poly1305.c ****  * wolfSSL is free software; you can redistribute it and/or modify
   8:Middlewares/Third_Party/wolfSSL_wolfSSL_wolfSSL/wolfssl/wolfcrypt/src/poly1305.c ****  * it under the terms of the GNU General Public License as published by
   9:Middlewares/Third_Party/wolfSSL_wolfSSL_wolfSSL/wolfssl/wolfcrypt/src/poly1305.c ****  * the Free Software Foundation; either version 2 of the License, or
  10:Middlewares/Third_Party/wolfSSL_wolfSSL_wolfSSL/wolfssl/wolfcrypt/src/poly1305.c ****  * (at your option) any later version.
  11:Middlewares/Third_Party/wolfSSL_wolfSSL_wolfSSL/wolfssl/wolfcrypt/src/poly1305.c ****  *
  12:Middlewares/Third_Party/wolfSSL_wolfSSL_wolfSSL/wolfssl/wolfcrypt/src/poly1305.c ****  * wolfSSL is distributed in the hope that it will be useful,
  13:Middlewares/Third_Party/wolfSSL_wolfSSL_wolfSSL/wolfssl/wolfcrypt/src/poly1305.c ****  * but WITHOUT ANY WARRANTY; without even the implied warranty of
  14:Middlewares/Third_Party/wolfSSL_wolfSSL_wolfSSL/wolfssl/wolfcrypt/src/poly1305.c ****  * MERCHANTABILITY or FITNESS FOR A PARTICULAR PURPOSE.  See the
  15:Middlewares/Third_Party/wolfSSL_wolfSSL_wolfSSL/wolfssl/wolfcrypt/src/poly1305.c ****  * GNU General Public License for more details.
  16:Middlewares/Third_Party/wolfSSL_wolfSSL_wolfSSL/wolfssl/wolfcrypt/src/poly1305.c ****  *
  17:Middlewares/Third_Party/wolfSSL_wolfSSL_wolfSSL/wolfssl/wolfcrypt/src/poly1305.c ****  * You should have received a copy of the GNU General Public License
  18:Middlewares/Third_Party/wolfSSL_wolfSSL_wolfSSL/wolfssl/wolfcrypt/src/poly1305.c ****  * along with this program; if not, write to the Free Software
  19:Middlewares/Third_Party/wolfSSL_wolfSSL_wolfSSL/wolfssl/wolfcrypt/src/poly1305.c ****  * Foundation, Inc., 51 Franklin Street, Fifth Floor, Boston, MA 02110-1335, USA
  20:Middlewares/Third_Party/wolfSSL_wolfSSL_wolfSSL/wolfssl/wolfcrypt/src/poly1305.c ****  */
  21:Middlewares/Third_Party/wolfSSL_wolfSSL_wolfSSL/wolfssl/wolfcrypt/src/poly1305.c **** /*
  22:Middlewares/Third_Party/wolfSSL_wolfSSL_wolfSSL/wolfssl/wolfcrypt/src/poly1305.c **** 
  23:Middlewares/Third_Party/wolfSSL_wolfSSL_wolfSSL/wolfssl/wolfcrypt/src/poly1305.c **** DESCRIPTION
  24:Middlewares/Third_Party/wolfSSL_wolfSSL_wolfSSL/wolfssl/wolfcrypt/src/poly1305.c **** This library contains implementation for the Poly1305 authenticator.
  25:Middlewares/Third_Party/wolfSSL_wolfSSL_wolfSSL/wolfssl/wolfcrypt/src/poly1305.c **** 
  26:Middlewares/Third_Party/wolfSSL_wolfSSL_wolfSSL/wolfssl/wolfcrypt/src/poly1305.c **** Based off the public domain implementations by Andrew Moon
  27:Middlewares/Third_Party/wolfSSL_wolfSSL_wolfSSL/wolfssl/wolfcrypt/src/poly1305.c **** and Daniel J. Bernstein
  28:Middlewares/Third_Party/wolfSSL_wolfSSL_wolfSSL/wolfssl/wolfcrypt/src/poly1305.c **** 
  29:Middlewares/Third_Party/wolfSSL_wolfSSL_wolfSSL/wolfssl/wolfcrypt/src/poly1305.c **** */
  30:Middlewares/Third_Party/wolfSSL_wolfSSL_wolfSSL/wolfssl/wolfcrypt/src/poly1305.c **** 
ARM GAS  /tmp/ccGcaF1m.s 			page 2


  31:Middlewares/Third_Party/wolfSSL_wolfSSL_wolfSSL/wolfssl/wolfcrypt/src/poly1305.c **** 
  32:Middlewares/Third_Party/wolfSSL_wolfSSL_wolfSSL/wolfssl/wolfcrypt/src/poly1305.c **** #ifdef HAVE_CONFIG_H
  33:Middlewares/Third_Party/wolfSSL_wolfSSL_wolfSSL/wolfssl/wolfcrypt/src/poly1305.c ****     #include <config.h>
  34:Middlewares/Third_Party/wolfSSL_wolfSSL_wolfSSL/wolfssl/wolfcrypt/src/poly1305.c **** #endif
  35:Middlewares/Third_Party/wolfSSL_wolfSSL_wolfSSL/wolfssl/wolfcrypt/src/poly1305.c **** 
  36:Middlewares/Third_Party/wolfSSL_wolfSSL_wolfSSL/wolfssl/wolfcrypt/src/poly1305.c **** #include <wolfssl/wolfcrypt/settings.h>
  37:Middlewares/Third_Party/wolfSSL_wolfSSL_wolfSSL/wolfssl/wolfcrypt/src/poly1305.c **** 
  38:Middlewares/Third_Party/wolfSSL_wolfSSL_wolfSSL/wolfssl/wolfcrypt/src/poly1305.c **** #ifdef HAVE_POLY1305
  39:Middlewares/Third_Party/wolfSSL_wolfSSL_wolfSSL/wolfssl/wolfcrypt/src/poly1305.c **** #include <wolfssl/wolfcrypt/poly1305.h>
  40:Middlewares/Third_Party/wolfSSL_wolfSSL_wolfSSL/wolfssl/wolfcrypt/src/poly1305.c **** #include <wolfssl/wolfcrypt/error-crypt.h>
  41:Middlewares/Third_Party/wolfSSL_wolfSSL_wolfSSL/wolfssl/wolfcrypt/src/poly1305.c **** #include <wolfssl/wolfcrypt/logging.h>
  42:Middlewares/Third_Party/wolfSSL_wolfSSL_wolfSSL/wolfssl/wolfcrypt/src/poly1305.c **** #include <wolfssl/wolfcrypt/cpuid.h>
  43:Middlewares/Third_Party/wolfSSL_wolfSSL_wolfSSL/wolfssl/wolfcrypt/src/poly1305.c **** #ifdef NO_INLINE
  44:Middlewares/Third_Party/wolfSSL_wolfSSL_wolfSSL/wolfssl/wolfcrypt/src/poly1305.c ****     #include <wolfssl/wolfcrypt/misc.h>
  45:Middlewares/Third_Party/wolfSSL_wolfSSL_wolfSSL/wolfssl/wolfcrypt/src/poly1305.c **** #else
  46:Middlewares/Third_Party/wolfSSL_wolfSSL_wolfSSL/wolfssl/wolfcrypt/src/poly1305.c ****     #define WOLFSSL_MISC_INCLUDED
  47:Middlewares/Third_Party/wolfSSL_wolfSSL_wolfSSL/wolfssl/wolfcrypt/src/poly1305.c ****     #include <wolfcrypt/src/misc.c>
  48:Middlewares/Third_Party/wolfSSL_wolfSSL_wolfSSL/wolfssl/wolfcrypt/src/poly1305.c **** #endif
  49:Middlewares/Third_Party/wolfSSL_wolfSSL_wolfSSL/wolfssl/wolfcrypt/src/poly1305.c **** #ifdef CHACHA_AEAD_TEST
  50:Middlewares/Third_Party/wolfSSL_wolfSSL_wolfSSL/wolfssl/wolfcrypt/src/poly1305.c ****     #include <stdio.h>
  51:Middlewares/Third_Party/wolfSSL_wolfSSL_wolfSSL/wolfssl/wolfcrypt/src/poly1305.c **** #endif
  52:Middlewares/Third_Party/wolfSSL_wolfSSL_wolfSSL/wolfssl/wolfcrypt/src/poly1305.c **** 
  53:Middlewares/Third_Party/wolfSSL_wolfSSL_wolfSSL/wolfssl/wolfcrypt/src/poly1305.c **** #ifdef _MSC_VER
  54:Middlewares/Third_Party/wolfSSL_wolfSSL_wolfSSL/wolfssl/wolfcrypt/src/poly1305.c ****     /* 4127 warning constant while(1)  */
  55:Middlewares/Third_Party/wolfSSL_wolfSSL_wolfSSL/wolfssl/wolfcrypt/src/poly1305.c ****     #pragma warning(disable: 4127)
  56:Middlewares/Third_Party/wolfSSL_wolfSSL_wolfSSL/wolfssl/wolfcrypt/src/poly1305.c **** #endif
  57:Middlewares/Third_Party/wolfSSL_wolfSSL_wolfSSL/wolfssl/wolfcrypt/src/poly1305.c **** 
  58:Middlewares/Third_Party/wolfSSL_wolfSSL_wolfSSL/wolfssl/wolfcrypt/src/poly1305.c **** #ifdef USE_INTEL_SPEEDUP
  59:Middlewares/Third_Party/wolfSSL_wolfSSL_wolfSSL/wolfssl/wolfcrypt/src/poly1305.c ****     #include <emmintrin.h>
  60:Middlewares/Third_Party/wolfSSL_wolfSSL_wolfSSL/wolfssl/wolfcrypt/src/poly1305.c ****     #include <immintrin.h>
  61:Middlewares/Third_Party/wolfSSL_wolfSSL_wolfSSL/wolfssl/wolfcrypt/src/poly1305.c **** 
  62:Middlewares/Third_Party/wolfSSL_wolfSSL_wolfSSL/wolfssl/wolfcrypt/src/poly1305.c ****     #if defined(__GNUC__) && ((__GNUC__ < 4) || \
  63:Middlewares/Third_Party/wolfSSL_wolfSSL_wolfSSL/wolfssl/wolfcrypt/src/poly1305.c ****                               (__GNUC__ == 4 && __GNUC_MINOR__ <= 8))
  64:Middlewares/Third_Party/wolfSSL_wolfSSL_wolfSSL/wolfssl/wolfcrypt/src/poly1305.c ****         #undef  NO_AVX2_SUPPORT
  65:Middlewares/Third_Party/wolfSSL_wolfSSL_wolfSSL/wolfssl/wolfcrypt/src/poly1305.c ****         #define NO_AVX2_SUPPORT
  66:Middlewares/Third_Party/wolfSSL_wolfSSL_wolfSSL/wolfssl/wolfcrypt/src/poly1305.c ****     #endif
  67:Middlewares/Third_Party/wolfSSL_wolfSSL_wolfSSL/wolfssl/wolfcrypt/src/poly1305.c ****     #if defined(__clang__) && ((__clang_major__ < 3) || \
  68:Middlewares/Third_Party/wolfSSL_wolfSSL_wolfSSL/wolfssl/wolfcrypt/src/poly1305.c ****                                (__clang_major__ == 3 && __clang_minor__ <= 5))
  69:Middlewares/Third_Party/wolfSSL_wolfSSL_wolfSSL/wolfssl/wolfcrypt/src/poly1305.c ****         #define NO_AVX2_SUPPORT
  70:Middlewares/Third_Party/wolfSSL_wolfSSL_wolfSSL/wolfssl/wolfcrypt/src/poly1305.c ****     #elif defined(__clang__) && defined(NO_AVX2_SUPPORT)
  71:Middlewares/Third_Party/wolfSSL_wolfSSL_wolfSSL/wolfssl/wolfcrypt/src/poly1305.c ****         #undef NO_AVX2_SUPPORT
  72:Middlewares/Third_Party/wolfSSL_wolfSSL_wolfSSL/wolfssl/wolfcrypt/src/poly1305.c ****     #endif
  73:Middlewares/Third_Party/wolfSSL_wolfSSL_wolfSSL/wolfssl/wolfcrypt/src/poly1305.c **** 
  74:Middlewares/Third_Party/wolfSSL_wolfSSL_wolfSSL/wolfssl/wolfcrypt/src/poly1305.c ****     #define HAVE_INTEL_AVX1
  75:Middlewares/Third_Party/wolfSSL_wolfSSL_wolfSSL/wolfssl/wolfcrypt/src/poly1305.c ****     #ifndef NO_AVX2_SUPPORT
  76:Middlewares/Third_Party/wolfSSL_wolfSSL_wolfSSL/wolfssl/wolfcrypt/src/poly1305.c ****         #define HAVE_INTEL_AVX2
  77:Middlewares/Third_Party/wolfSSL_wolfSSL_wolfSSL/wolfssl/wolfcrypt/src/poly1305.c ****     #endif
  78:Middlewares/Third_Party/wolfSSL_wolfSSL_wolfSSL/wolfssl/wolfcrypt/src/poly1305.c **** #endif
  79:Middlewares/Third_Party/wolfSSL_wolfSSL_wolfSSL/wolfssl/wolfcrypt/src/poly1305.c **** 
  80:Middlewares/Third_Party/wolfSSL_wolfSSL_wolfSSL/wolfssl/wolfcrypt/src/poly1305.c **** #ifdef USE_INTEL_SPEEDUP
  81:Middlewares/Third_Party/wolfSSL_wolfSSL_wolfSSL/wolfssl/wolfcrypt/src/poly1305.c **** static word32 intel_flags = 0;
  82:Middlewares/Third_Party/wolfSSL_wolfSSL_wolfSSL/wolfssl/wolfcrypt/src/poly1305.c **** static word32 cpu_flags_set = 0;
  83:Middlewares/Third_Party/wolfSSL_wolfSSL_wolfSSL/wolfssl/wolfcrypt/src/poly1305.c **** #endif
  84:Middlewares/Third_Party/wolfSSL_wolfSSL_wolfSSL/wolfssl/wolfcrypt/src/poly1305.c **** 
  85:Middlewares/Third_Party/wolfSSL_wolfSSL_wolfSSL/wolfssl/wolfcrypt/src/poly1305.c **** #if defined(USE_INTEL_SPEEDUP) || defined(POLY130564)
  86:Middlewares/Third_Party/wolfSSL_wolfSSL_wolfSSL/wolfssl/wolfcrypt/src/poly1305.c ****     #if defined(_MSC_VER)
  87:Middlewares/Third_Party/wolfSSL_wolfSSL_wolfSSL/wolfssl/wolfcrypt/src/poly1305.c ****         #define POLY1305_NOINLINE __declspec(noinline)
ARM GAS  /tmp/ccGcaF1m.s 			page 3


  88:Middlewares/Third_Party/wolfSSL_wolfSSL_wolfSSL/wolfssl/wolfcrypt/src/poly1305.c ****     #elif defined(__GNUC__)
  89:Middlewares/Third_Party/wolfSSL_wolfSSL_wolfSSL/wolfssl/wolfcrypt/src/poly1305.c ****         #define POLY1305_NOINLINE __attribute__((noinline))
  90:Middlewares/Third_Party/wolfSSL_wolfSSL_wolfSSL/wolfssl/wolfcrypt/src/poly1305.c ****     #else
  91:Middlewares/Third_Party/wolfSSL_wolfSSL_wolfSSL/wolfssl/wolfcrypt/src/poly1305.c ****         #define POLY1305_NOINLINE
  92:Middlewares/Third_Party/wolfSSL_wolfSSL_wolfSSL/wolfssl/wolfcrypt/src/poly1305.c ****     #endif
  93:Middlewares/Third_Party/wolfSSL_wolfSSL_wolfSSL/wolfssl/wolfcrypt/src/poly1305.c **** 
  94:Middlewares/Third_Party/wolfSSL_wolfSSL_wolfSSL/wolfssl/wolfcrypt/src/poly1305.c ****     #if defined(_MSC_VER)
  95:Middlewares/Third_Party/wolfSSL_wolfSSL_wolfSSL/wolfssl/wolfcrypt/src/poly1305.c ****         #include <intrin.h>
  96:Middlewares/Third_Party/wolfSSL_wolfSSL_wolfSSL/wolfssl/wolfcrypt/src/poly1305.c **** 
  97:Middlewares/Third_Party/wolfSSL_wolfSSL_wolfSSL/wolfssl/wolfcrypt/src/poly1305.c ****         typedef struct word128 {
  98:Middlewares/Third_Party/wolfSSL_wolfSSL_wolfSSL/wolfssl/wolfcrypt/src/poly1305.c ****             word64 lo;
  99:Middlewares/Third_Party/wolfSSL_wolfSSL_wolfSSL/wolfssl/wolfcrypt/src/poly1305.c ****             word64 hi;
 100:Middlewares/Third_Party/wolfSSL_wolfSSL_wolfSSL/wolfssl/wolfcrypt/src/poly1305.c ****         } word128;
 101:Middlewares/Third_Party/wolfSSL_wolfSSL_wolfSSL/wolfssl/wolfcrypt/src/poly1305.c **** 
 102:Middlewares/Third_Party/wolfSSL_wolfSSL_wolfSSL/wolfssl/wolfcrypt/src/poly1305.c ****         #define MUL(out, x, y) out.lo = _umul128((x), (y), &out.hi)
 103:Middlewares/Third_Party/wolfSSL_wolfSSL_wolfSSL/wolfssl/wolfcrypt/src/poly1305.c ****         #define ADD(out, in) { word64 t = out.lo; out.lo += in.lo; \
 104:Middlewares/Third_Party/wolfSSL_wolfSSL_wolfSSL/wolfssl/wolfcrypt/src/poly1305.c ****                                out.hi += (out.lo < t) + in.hi; }
 105:Middlewares/Third_Party/wolfSSL_wolfSSL_wolfSSL/wolfssl/wolfcrypt/src/poly1305.c ****         #define ADDLO(out, in) { word64 t = out.lo; out.lo += in; \
 106:Middlewares/Third_Party/wolfSSL_wolfSSL_wolfSSL/wolfssl/wolfcrypt/src/poly1305.c ****                                  out.hi += (out.lo < t); }
 107:Middlewares/Third_Party/wolfSSL_wolfSSL_wolfSSL/wolfssl/wolfcrypt/src/poly1305.c ****         #define SHR(in, shift) (__shiftright128(in.lo, in.hi, (shift)))
 108:Middlewares/Third_Party/wolfSSL_wolfSSL_wolfSSL/wolfssl/wolfcrypt/src/poly1305.c ****         #define LO(in) (in.lo)
 109:Middlewares/Third_Party/wolfSSL_wolfSSL_wolfSSL/wolfssl/wolfcrypt/src/poly1305.c **** 
 110:Middlewares/Third_Party/wolfSSL_wolfSSL_wolfSSL/wolfssl/wolfcrypt/src/poly1305.c ****     #elif defined(__GNUC__)
 111:Middlewares/Third_Party/wolfSSL_wolfSSL_wolfSSL/wolfssl/wolfcrypt/src/poly1305.c ****         #if defined(__SIZEOF_INT128__)
 112:Middlewares/Third_Party/wolfSSL_wolfSSL_wolfSSL/wolfssl/wolfcrypt/src/poly1305.c ****             typedef unsigned __int128 word128;
 113:Middlewares/Third_Party/wolfSSL_wolfSSL_wolfSSL/wolfssl/wolfcrypt/src/poly1305.c ****         #else
 114:Middlewares/Third_Party/wolfSSL_wolfSSL_wolfSSL/wolfssl/wolfcrypt/src/poly1305.c ****             typedef unsigned word128 __attribute__((mode(TI)));
 115:Middlewares/Third_Party/wolfSSL_wolfSSL_wolfSSL/wolfssl/wolfcrypt/src/poly1305.c ****         #endif
 116:Middlewares/Third_Party/wolfSSL_wolfSSL_wolfSSL/wolfssl/wolfcrypt/src/poly1305.c **** 
 117:Middlewares/Third_Party/wolfSSL_wolfSSL_wolfSSL/wolfssl/wolfcrypt/src/poly1305.c ****         #define MUL(out, x, y) out = ((word128)x * y)
 118:Middlewares/Third_Party/wolfSSL_wolfSSL_wolfSSL/wolfssl/wolfcrypt/src/poly1305.c ****         #define ADD(out, in) out += in
 119:Middlewares/Third_Party/wolfSSL_wolfSSL_wolfSSL/wolfssl/wolfcrypt/src/poly1305.c ****         #define ADDLO(out, in) out += in
 120:Middlewares/Third_Party/wolfSSL_wolfSSL_wolfSSL/wolfssl/wolfcrypt/src/poly1305.c ****         #define SHR(in, shift) (word64)(in >> (shift))
 121:Middlewares/Third_Party/wolfSSL_wolfSSL_wolfSSL/wolfssl/wolfcrypt/src/poly1305.c ****         #define LO(in) (word64)(in)
 122:Middlewares/Third_Party/wolfSSL_wolfSSL_wolfSSL/wolfssl/wolfcrypt/src/poly1305.c ****     #endif
 123:Middlewares/Third_Party/wolfSSL_wolfSSL_wolfSSL/wolfssl/wolfcrypt/src/poly1305.c **** #endif
 124:Middlewares/Third_Party/wolfSSL_wolfSSL_wolfSSL/wolfssl/wolfcrypt/src/poly1305.c **** 
 125:Middlewares/Third_Party/wolfSSL_wolfSSL_wolfSSL/wolfssl/wolfcrypt/src/poly1305.c **** #ifdef USE_INTEL_SPEEDUP
 126:Middlewares/Third_Party/wolfSSL_wolfSSL_wolfSSL/wolfssl/wolfcrypt/src/poly1305.c **** #ifdef __cplusplus
 127:Middlewares/Third_Party/wolfSSL_wolfSSL_wolfSSL/wolfssl/wolfcrypt/src/poly1305.c ****     extern "C" {
 128:Middlewares/Third_Party/wolfSSL_wolfSSL_wolfSSL/wolfssl/wolfcrypt/src/poly1305.c **** #endif
 129:Middlewares/Third_Party/wolfSSL_wolfSSL_wolfSSL/wolfssl/wolfcrypt/src/poly1305.c **** 
 130:Middlewares/Third_Party/wolfSSL_wolfSSL_wolfSSL/wolfssl/wolfcrypt/src/poly1305.c **** #ifdef HAVE_INTEL_AVX1
 131:Middlewares/Third_Party/wolfSSL_wolfSSL_wolfSSL/wolfssl/wolfcrypt/src/poly1305.c **** /* Process one block (16 bytes) of data.
 132:Middlewares/Third_Party/wolfSSL_wolfSSL_wolfSSL/wolfssl/wolfcrypt/src/poly1305.c ****  *
 133:Middlewares/Third_Party/wolfSSL_wolfSSL_wolfSSL/wolfssl/wolfcrypt/src/poly1305.c ****  * ctx  Poly1305 context.
 134:Middlewares/Third_Party/wolfSSL_wolfSSL_wolfSSL/wolfssl/wolfcrypt/src/poly1305.c ****  * m    One block of message data.
 135:Middlewares/Third_Party/wolfSSL_wolfSSL_wolfSSL/wolfssl/wolfcrypt/src/poly1305.c ****  */
 136:Middlewares/Third_Party/wolfSSL_wolfSSL_wolfSSL/wolfssl/wolfcrypt/src/poly1305.c **** extern void poly1305_block_avx(Poly1305* ctx, const unsigned char *m);
 137:Middlewares/Third_Party/wolfSSL_wolfSSL_wolfSSL/wolfssl/wolfcrypt/src/poly1305.c **** /* Process multiple blocks (n * 16 bytes) of data.
 138:Middlewares/Third_Party/wolfSSL_wolfSSL_wolfSSL/wolfssl/wolfcrypt/src/poly1305.c ****  *
 139:Middlewares/Third_Party/wolfSSL_wolfSSL_wolfSSL/wolfssl/wolfcrypt/src/poly1305.c ****  * ctx    Poly1305 context.
 140:Middlewares/Third_Party/wolfSSL_wolfSSL_wolfSSL/wolfssl/wolfcrypt/src/poly1305.c ****  * m      Blocks of message data.
 141:Middlewares/Third_Party/wolfSSL_wolfSSL_wolfSSL/wolfssl/wolfcrypt/src/poly1305.c ****  * bytes  The number of bytes to process.
 142:Middlewares/Third_Party/wolfSSL_wolfSSL_wolfSSL/wolfssl/wolfcrypt/src/poly1305.c ****  */
 143:Middlewares/Third_Party/wolfSSL_wolfSSL_wolfSSL/wolfssl/wolfcrypt/src/poly1305.c **** extern void poly1305_blocks_avx(Poly1305* ctx, const unsigned char* m,
 144:Middlewares/Third_Party/wolfSSL_wolfSSL_wolfSSL/wolfssl/wolfcrypt/src/poly1305.c ****                                 size_t bytes);
ARM GAS  /tmp/ccGcaF1m.s 			page 4


 145:Middlewares/Third_Party/wolfSSL_wolfSSL_wolfSSL/wolfssl/wolfcrypt/src/poly1305.c **** /* Set the key to use when processing data.
 146:Middlewares/Third_Party/wolfSSL_wolfSSL_wolfSSL/wolfssl/wolfcrypt/src/poly1305.c ****  * Initialize the context.
 147:Middlewares/Third_Party/wolfSSL_wolfSSL_wolfSSL/wolfssl/wolfcrypt/src/poly1305.c ****  *
 148:Middlewares/Third_Party/wolfSSL_wolfSSL_wolfSSL/wolfssl/wolfcrypt/src/poly1305.c ****  * ctx  Poly1305 context.
 149:Middlewares/Third_Party/wolfSSL_wolfSSL_wolfSSL/wolfssl/wolfcrypt/src/poly1305.c ****  * key  The key data (16 bytes).
 150:Middlewares/Third_Party/wolfSSL_wolfSSL_wolfSSL/wolfssl/wolfcrypt/src/poly1305.c ****  */
 151:Middlewares/Third_Party/wolfSSL_wolfSSL_wolfSSL/wolfssl/wolfcrypt/src/poly1305.c **** extern void poly1305_setkey_avx(Poly1305* ctx, const byte* key);
 152:Middlewares/Third_Party/wolfSSL_wolfSSL_wolfSSL/wolfssl/wolfcrypt/src/poly1305.c **** /* Calculate the final result - authentication data.
 153:Middlewares/Third_Party/wolfSSL_wolfSSL_wolfSSL/wolfssl/wolfcrypt/src/poly1305.c ****  * Zeros out the private data in the context.
 154:Middlewares/Third_Party/wolfSSL_wolfSSL_wolfSSL/wolfssl/wolfcrypt/src/poly1305.c ****  *
 155:Middlewares/Third_Party/wolfSSL_wolfSSL_wolfSSL/wolfssl/wolfcrypt/src/poly1305.c ****  * ctx  Poly1305 context.
 156:Middlewares/Third_Party/wolfSSL_wolfSSL_wolfSSL/wolfssl/wolfcrypt/src/poly1305.c ****  * mac  Buffer to hold 16 bytes.
 157:Middlewares/Third_Party/wolfSSL_wolfSSL_wolfSSL/wolfssl/wolfcrypt/src/poly1305.c ****  */
 158:Middlewares/Third_Party/wolfSSL_wolfSSL_wolfSSL/wolfssl/wolfcrypt/src/poly1305.c **** extern void poly1305_final_avx(Poly1305* ctx, byte* mac);
 159:Middlewares/Third_Party/wolfSSL_wolfSSL_wolfSSL/wolfssl/wolfcrypt/src/poly1305.c **** #endif
 160:Middlewares/Third_Party/wolfSSL_wolfSSL_wolfSSL/wolfssl/wolfcrypt/src/poly1305.c **** 
 161:Middlewares/Third_Party/wolfSSL_wolfSSL_wolfSSL/wolfssl/wolfcrypt/src/poly1305.c **** #ifdef HAVE_INTEL_AVX2
 162:Middlewares/Third_Party/wolfSSL_wolfSSL_wolfSSL/wolfssl/wolfcrypt/src/poly1305.c **** /* Process multiple blocks (n * 16 bytes) of data.
 163:Middlewares/Third_Party/wolfSSL_wolfSSL_wolfSSL/wolfssl/wolfcrypt/src/poly1305.c ****  *
 164:Middlewares/Third_Party/wolfSSL_wolfSSL_wolfSSL/wolfssl/wolfcrypt/src/poly1305.c ****  * ctx    Poly1305 context.
 165:Middlewares/Third_Party/wolfSSL_wolfSSL_wolfSSL/wolfssl/wolfcrypt/src/poly1305.c ****  * m      Blocks of message data.
 166:Middlewares/Third_Party/wolfSSL_wolfSSL_wolfSSL/wolfssl/wolfcrypt/src/poly1305.c ****  * bytes  The number of bytes to process.
 167:Middlewares/Third_Party/wolfSSL_wolfSSL_wolfSSL/wolfssl/wolfcrypt/src/poly1305.c ****  */
 168:Middlewares/Third_Party/wolfSSL_wolfSSL_wolfSSL/wolfssl/wolfcrypt/src/poly1305.c **** extern void poly1305_blocks_avx2(Poly1305* ctx, const unsigned char* m,
 169:Middlewares/Third_Party/wolfSSL_wolfSSL_wolfSSL/wolfssl/wolfcrypt/src/poly1305.c ****                                  size_t bytes);
 170:Middlewares/Third_Party/wolfSSL_wolfSSL_wolfSSL/wolfssl/wolfcrypt/src/poly1305.c **** /* Calculate R^1, R^2, R^3 and R^4 and store them in the context.
 171:Middlewares/Third_Party/wolfSSL_wolfSSL_wolfSSL/wolfssl/wolfcrypt/src/poly1305.c ****  *
 172:Middlewares/Third_Party/wolfSSL_wolfSSL_wolfSSL/wolfssl/wolfcrypt/src/poly1305.c ****  * ctx    Poly1305 context.
 173:Middlewares/Third_Party/wolfSSL_wolfSSL_wolfSSL/wolfssl/wolfcrypt/src/poly1305.c ****  */
 174:Middlewares/Third_Party/wolfSSL_wolfSSL_wolfSSL/wolfssl/wolfcrypt/src/poly1305.c **** extern void poly1305_calc_powers_avx2(Poly1305* ctx);
 175:Middlewares/Third_Party/wolfSSL_wolfSSL_wolfSSL/wolfssl/wolfcrypt/src/poly1305.c **** /* Set the key to use when processing data.
 176:Middlewares/Third_Party/wolfSSL_wolfSSL_wolfSSL/wolfssl/wolfcrypt/src/poly1305.c ****  * Initialize the context.
 177:Middlewares/Third_Party/wolfSSL_wolfSSL_wolfSSL/wolfssl/wolfcrypt/src/poly1305.c ****  * Calls AVX set key function as final function calls AVX code.
 178:Middlewares/Third_Party/wolfSSL_wolfSSL_wolfSSL/wolfssl/wolfcrypt/src/poly1305.c ****  *
 179:Middlewares/Third_Party/wolfSSL_wolfSSL_wolfSSL/wolfssl/wolfcrypt/src/poly1305.c ****  * ctx  Poly1305 context.
 180:Middlewares/Third_Party/wolfSSL_wolfSSL_wolfSSL/wolfssl/wolfcrypt/src/poly1305.c ****  * key  The key data (16 bytes).
 181:Middlewares/Third_Party/wolfSSL_wolfSSL_wolfSSL/wolfssl/wolfcrypt/src/poly1305.c ****  */
 182:Middlewares/Third_Party/wolfSSL_wolfSSL_wolfSSL/wolfssl/wolfcrypt/src/poly1305.c **** extern void poly1305_setkey_avx2(Poly1305* ctx, const byte* key);
 183:Middlewares/Third_Party/wolfSSL_wolfSSL_wolfSSL/wolfssl/wolfcrypt/src/poly1305.c **** /* Calculate the final result - authentication data.
 184:Middlewares/Third_Party/wolfSSL_wolfSSL_wolfSSL/wolfssl/wolfcrypt/src/poly1305.c ****  * Zeros out the private data in the context.
 185:Middlewares/Third_Party/wolfSSL_wolfSSL_wolfSSL/wolfssl/wolfcrypt/src/poly1305.c ****  * Calls AVX final function to quickly process last blocks.
 186:Middlewares/Third_Party/wolfSSL_wolfSSL_wolfSSL/wolfssl/wolfcrypt/src/poly1305.c ****  *
 187:Middlewares/Third_Party/wolfSSL_wolfSSL_wolfSSL/wolfssl/wolfcrypt/src/poly1305.c ****  * ctx  Poly1305 context.
 188:Middlewares/Third_Party/wolfSSL_wolfSSL_wolfSSL/wolfssl/wolfcrypt/src/poly1305.c ****  * mac  Buffer to hold 16 bytes - authentication data.
 189:Middlewares/Third_Party/wolfSSL_wolfSSL_wolfSSL/wolfssl/wolfcrypt/src/poly1305.c ****  */
 190:Middlewares/Third_Party/wolfSSL_wolfSSL_wolfSSL/wolfssl/wolfcrypt/src/poly1305.c **** extern void poly1305_final_avx2(Poly1305* ctx, byte* mac);
 191:Middlewares/Third_Party/wolfSSL_wolfSSL_wolfSSL/wolfssl/wolfcrypt/src/poly1305.c **** #endif
 192:Middlewares/Third_Party/wolfSSL_wolfSSL_wolfSSL/wolfssl/wolfcrypt/src/poly1305.c **** 
 193:Middlewares/Third_Party/wolfSSL_wolfSSL_wolfSSL/wolfssl/wolfcrypt/src/poly1305.c **** #ifdef __cplusplus
 194:Middlewares/Third_Party/wolfSSL_wolfSSL_wolfSSL/wolfssl/wolfcrypt/src/poly1305.c ****     }  /* extern "C" */
 195:Middlewares/Third_Party/wolfSSL_wolfSSL_wolfSSL/wolfssl/wolfcrypt/src/poly1305.c **** #endif
 196:Middlewares/Third_Party/wolfSSL_wolfSSL_wolfSSL/wolfssl/wolfcrypt/src/poly1305.c **** 
 197:Middlewares/Third_Party/wolfSSL_wolfSSL_wolfSSL/wolfssl/wolfcrypt/src/poly1305.c **** #elif defined(POLY130564)
 198:Middlewares/Third_Party/wolfSSL_wolfSSL_wolfSSL/wolfssl/wolfcrypt/src/poly1305.c **** #ifndef WOLFSSL_ARMASM
 199:Middlewares/Third_Party/wolfSSL_wolfSSL_wolfSSL/wolfssl/wolfcrypt/src/poly1305.c ****     static word64 U8TO64(const byte* p)
 200:Middlewares/Third_Party/wolfSSL_wolfSSL_wolfSSL/wolfssl/wolfcrypt/src/poly1305.c ****     {
 201:Middlewares/Third_Party/wolfSSL_wolfSSL_wolfSSL/wolfssl/wolfcrypt/src/poly1305.c ****         return
ARM GAS  /tmp/ccGcaF1m.s 			page 5


 202:Middlewares/Third_Party/wolfSSL_wolfSSL_wolfSSL/wolfssl/wolfcrypt/src/poly1305.c ****             (((word64)(p[0] & 0xff)      ) |
 203:Middlewares/Third_Party/wolfSSL_wolfSSL_wolfSSL/wolfssl/wolfcrypt/src/poly1305.c ****              ((word64)(p[1] & 0xff) <<  8) |
 204:Middlewares/Third_Party/wolfSSL_wolfSSL_wolfSSL/wolfssl/wolfcrypt/src/poly1305.c ****              ((word64)(p[2] & 0xff) << 16) |
 205:Middlewares/Third_Party/wolfSSL_wolfSSL_wolfSSL/wolfssl/wolfcrypt/src/poly1305.c ****              ((word64)(p[3] & 0xff) << 24) |
 206:Middlewares/Third_Party/wolfSSL_wolfSSL_wolfSSL/wolfssl/wolfcrypt/src/poly1305.c ****              ((word64)(p[4] & 0xff) << 32) |
 207:Middlewares/Third_Party/wolfSSL_wolfSSL_wolfSSL/wolfssl/wolfcrypt/src/poly1305.c ****              ((word64)(p[5] & 0xff) << 40) |
 208:Middlewares/Third_Party/wolfSSL_wolfSSL_wolfSSL/wolfssl/wolfcrypt/src/poly1305.c ****              ((word64)(p[6] & 0xff) << 48) |
 209:Middlewares/Third_Party/wolfSSL_wolfSSL_wolfSSL/wolfssl/wolfcrypt/src/poly1305.c ****              ((word64)(p[7] & 0xff) << 56));
 210:Middlewares/Third_Party/wolfSSL_wolfSSL_wolfSSL/wolfssl/wolfcrypt/src/poly1305.c ****     }
 211:Middlewares/Third_Party/wolfSSL_wolfSSL_wolfSSL/wolfssl/wolfcrypt/src/poly1305.c **** 
 212:Middlewares/Third_Party/wolfSSL_wolfSSL_wolfSSL/wolfssl/wolfcrypt/src/poly1305.c ****     static void U64TO8(byte* p, word64 v) {
 213:Middlewares/Third_Party/wolfSSL_wolfSSL_wolfSSL/wolfssl/wolfcrypt/src/poly1305.c ****         p[0] = (v      ) & 0xff;
 214:Middlewares/Third_Party/wolfSSL_wolfSSL_wolfSSL/wolfssl/wolfcrypt/src/poly1305.c ****         p[1] = (v >>  8) & 0xff;
 215:Middlewares/Third_Party/wolfSSL_wolfSSL_wolfSSL/wolfssl/wolfcrypt/src/poly1305.c ****         p[2] = (v >> 16) & 0xff;
 216:Middlewares/Third_Party/wolfSSL_wolfSSL_wolfSSL/wolfssl/wolfcrypt/src/poly1305.c ****         p[3] = (v >> 24) & 0xff;
 217:Middlewares/Third_Party/wolfSSL_wolfSSL_wolfSSL/wolfssl/wolfcrypt/src/poly1305.c ****         p[4] = (v >> 32) & 0xff;
 218:Middlewares/Third_Party/wolfSSL_wolfSSL_wolfSSL/wolfssl/wolfcrypt/src/poly1305.c ****         p[5] = (v >> 40) & 0xff;
 219:Middlewares/Third_Party/wolfSSL_wolfSSL_wolfSSL/wolfssl/wolfcrypt/src/poly1305.c ****         p[6] = (v >> 48) & 0xff;
 220:Middlewares/Third_Party/wolfSSL_wolfSSL_wolfSSL/wolfssl/wolfcrypt/src/poly1305.c ****         p[7] = (v >> 56) & 0xff;
 221:Middlewares/Third_Party/wolfSSL_wolfSSL_wolfSSL/wolfssl/wolfcrypt/src/poly1305.c ****     }
 222:Middlewares/Third_Party/wolfSSL_wolfSSL_wolfSSL/wolfssl/wolfcrypt/src/poly1305.c **** #endif/* WOLFSSL_ARMASM */
 223:Middlewares/Third_Party/wolfSSL_wolfSSL_wolfSSL/wolfssl/wolfcrypt/src/poly1305.c **** #else /* if not 64 bit then use 32 bit */
 224:Middlewares/Third_Party/wolfSSL_wolfSSL_wolfSSL/wolfssl/wolfcrypt/src/poly1305.c **** 
 225:Middlewares/Third_Party/wolfSSL_wolfSSL_wolfSSL/wolfssl/wolfcrypt/src/poly1305.c ****     static word32 U8TO32(const byte *p)
 226:Middlewares/Third_Party/wolfSSL_wolfSSL_wolfSSL/wolfssl/wolfcrypt/src/poly1305.c ****     {
  29              		.loc 1 226 5 view -0
  30              		.cfi_startproc
  31              		@ args = 0, pretend = 0, frame = 0
  32              		@ frame_needed = 0, uses_anonymous_args = 0
  33              		@ link register save eliminated.
 227:Middlewares/Third_Party/wolfSSL_wolfSSL_wolfSSL/wolfssl/wolfcrypt/src/poly1305.c ****         return
  34              		.loc 1 227 9 view .LVU1
 228:Middlewares/Third_Party/wolfSSL_wolfSSL_wolfSSL/wolfssl/wolfcrypt/src/poly1305.c ****             (((word32)(p[0] & 0xff)      ) |
  35              		.loc 1 228 25 is_stmt 0 view .LVU2
  36 0000 0378     		ldrb	r3, [r0]	@ zero_extendqisi2
 229:Middlewares/Third_Party/wolfSSL_wolfSSL_wolfSSL/wolfssl/wolfcrypt/src/poly1305.c ****              ((word32)(p[1] & 0xff) <<  8) |
  37              		.loc 1 229 25 view .LVU3
  38 0002 4278     		ldrb	r2, [r0, #1]	@ zero_extendqisi2
 228:Middlewares/Third_Party/wolfSSL_wolfSSL_wolfSSL/wolfssl/wolfcrypt/src/poly1305.c ****             (((word32)(p[0] & 0xff)      ) |
  39              		.loc 1 228 44 view .LVU4
  40 0004 43EA0223 		orr	r3, r3, r2, lsl #8
 230:Middlewares/Third_Party/wolfSSL_wolfSSL_wolfSSL/wolfssl/wolfcrypt/src/poly1305.c ****              ((word32)(p[2] & 0xff) << 16) |
  41              		.loc 1 230 25 view .LVU5
  42 0008 8278     		ldrb	r2, [r0, #2]	@ zero_extendqisi2
 229:Middlewares/Third_Party/wolfSSL_wolfSSL_wolfSSL/wolfssl/wolfcrypt/src/poly1305.c ****              ((word32)(p[1] & 0xff) <<  8) |
  43              		.loc 1 229 44 view .LVU6
  44 000a 43EA0243 		orr	r3, r3, r2, lsl #16
 231:Middlewares/Third_Party/wolfSSL_wolfSSL_wolfSSL/wolfssl/wolfcrypt/src/poly1305.c ****              ((word32)(p[3] & 0xff) << 24));
  45              		.loc 1 231 25 view .LVU7
  46 000e C078     		ldrb	r0, [r0, #3]	@ zero_extendqisi2
  47              	.LVL1:
 232:Middlewares/Third_Party/wolfSSL_wolfSSL_wolfSSL/wolfssl/wolfcrypt/src/poly1305.c ****     }
  48              		.loc 1 232 5 view .LVU8
  49 0010 43EA0060 		orr	r0, r3, r0, lsl #24
  50 0014 7047     		bx	lr
  51              		.cfi_endproc
  52              	.LFE175:
ARM GAS  /tmp/ccGcaF1m.s 			page 6


  54              		.section	.text.U32TO8,"ax",%progbits
  55              		.align	1
  56              		.syntax unified
  57              		.thumb
  58              		.thumb_func
  59              		.fpu fpv4-sp-d16
  61              	U32TO8:
  62              	.LVL2:
  63              	.LFB176:
 233:Middlewares/Third_Party/wolfSSL_wolfSSL_wolfSSL/wolfssl/wolfcrypt/src/poly1305.c **** 
 234:Middlewares/Third_Party/wolfSSL_wolfSSL_wolfSSL/wolfssl/wolfcrypt/src/poly1305.c ****     static void U32TO8(byte *p, word32 v) {
  64              		.loc 1 234 43 is_stmt 1 view -0
  65              		.cfi_startproc
  66              		@ args = 0, pretend = 0, frame = 0
  67              		@ frame_needed = 0, uses_anonymous_args = 0
  68              		@ link register save eliminated.
 235:Middlewares/Third_Party/wolfSSL_wolfSSL_wolfSSL/wolfssl/wolfcrypt/src/poly1305.c ****         p[0] = (byte)((v      ) & 0xff);
  69              		.loc 1 235 9 view .LVU10
  70              		.loc 1 235 14 is_stmt 0 view .LVU11
  71 0000 0170     		strb	r1, [r0]
 236:Middlewares/Third_Party/wolfSSL_wolfSSL_wolfSSL/wolfssl/wolfcrypt/src/poly1305.c ****         p[1] = (byte)((v >>  8) & 0xff);
  72              		.loc 1 236 9 is_stmt 1 view .LVU12
  73              		.loc 1 236 16 is_stmt 0 view .LVU13
  74 0002 C1F30723 		ubfx	r3, r1, #8, #8
  75              		.loc 1 236 14 view .LVU14
  76 0006 4370     		strb	r3, [r0, #1]
 237:Middlewares/Third_Party/wolfSSL_wolfSSL_wolfSSL/wolfssl/wolfcrypt/src/poly1305.c ****         p[2] = (byte)((v >> 16) & 0xff);
  77              		.loc 1 237 9 is_stmt 1 view .LVU15
  78              		.loc 1 237 16 is_stmt 0 view .LVU16
  79 0008 C1F30743 		ubfx	r3, r1, #16, #8
  80              		.loc 1 237 14 view .LVU17
  81 000c 8370     		strb	r3, [r0, #2]
 238:Middlewares/Third_Party/wolfSSL_wolfSSL_wolfSSL/wolfssl/wolfcrypt/src/poly1305.c ****         p[3] = (byte)((v >> 24) & 0xff);
  82              		.loc 1 238 9 is_stmt 1 view .LVU18
  83              		.loc 1 238 16 is_stmt 0 view .LVU19
  84 000e 090E     		lsrs	r1, r1, #24
  85              	.LVL3:
  86              		.loc 1 238 14 view .LVU20
  87 0010 C170     		strb	r1, [r0, #3]
 239:Middlewares/Third_Party/wolfSSL_wolfSSL_wolfSSL/wolfssl/wolfcrypt/src/poly1305.c ****     }
  88              		.loc 1 239 5 view .LVU21
  89 0012 7047     		bx	lr
  90              		.cfi_endproc
  91              	.LFE176:
  93              		.section	.text.poly1305_blocks,"ax",%progbits
  94              		.align	1
  95              		.syntax unified
  96              		.thumb
  97              		.thumb_func
  98              		.fpu fpv4-sp-d16
 100              	poly1305_blocks:
 101              	.LVL4:
 102              	.LFB178:
 240:Middlewares/Third_Party/wolfSSL_wolfSSL_wolfSSL/wolfssl/wolfcrypt/src/poly1305.c **** #endif
 241:Middlewares/Third_Party/wolfSSL_wolfSSL_wolfSSL/wolfssl/wolfcrypt/src/poly1305.c **** 
 242:Middlewares/Third_Party/wolfSSL_wolfSSL_wolfSSL/wolfssl/wolfcrypt/src/poly1305.c **** /* convert 32-bit unsigned to little endian 64 bit type as byte array */
 243:Middlewares/Third_Party/wolfSSL_wolfSSL_wolfSSL/wolfssl/wolfcrypt/src/poly1305.c **** static WC_INLINE void u32tole64(const word32 inLe32, byte outLe64[8])
ARM GAS  /tmp/ccGcaF1m.s 			page 7


 244:Middlewares/Third_Party/wolfSSL_wolfSSL_wolfSSL/wolfssl/wolfcrypt/src/poly1305.c **** {
 245:Middlewares/Third_Party/wolfSSL_wolfSSL_wolfSSL/wolfssl/wolfcrypt/src/poly1305.c **** #ifndef WOLFSSL_X86_64_BUILD
 246:Middlewares/Third_Party/wolfSSL_wolfSSL_wolfSSL/wolfssl/wolfcrypt/src/poly1305.c ****     outLe64[0] = (byte)(inLe32  & 0x000000FF);
 247:Middlewares/Third_Party/wolfSSL_wolfSSL_wolfSSL/wolfssl/wolfcrypt/src/poly1305.c ****     outLe64[1] = (byte)((inLe32 & 0x0000FF00) >> 8);
 248:Middlewares/Third_Party/wolfSSL_wolfSSL_wolfSSL/wolfssl/wolfcrypt/src/poly1305.c ****     outLe64[2] = (byte)((inLe32 & 0x00FF0000) >> 16);
 249:Middlewares/Third_Party/wolfSSL_wolfSSL_wolfSSL/wolfssl/wolfcrypt/src/poly1305.c ****     outLe64[3] = (byte)((inLe32 & 0xFF000000) >> 24);
 250:Middlewares/Third_Party/wolfSSL_wolfSSL_wolfSSL/wolfssl/wolfcrypt/src/poly1305.c ****     outLe64[4] = 0;
 251:Middlewares/Third_Party/wolfSSL_wolfSSL_wolfSSL/wolfssl/wolfcrypt/src/poly1305.c ****     outLe64[5] = 0;
 252:Middlewares/Third_Party/wolfSSL_wolfSSL_wolfSSL/wolfssl/wolfcrypt/src/poly1305.c ****     outLe64[6] = 0;
 253:Middlewares/Third_Party/wolfSSL_wolfSSL_wolfSSL/wolfssl/wolfcrypt/src/poly1305.c ****     outLe64[7] = 0;
 254:Middlewares/Third_Party/wolfSSL_wolfSSL_wolfSSL/wolfssl/wolfcrypt/src/poly1305.c **** #else
 255:Middlewares/Third_Party/wolfSSL_wolfSSL_wolfSSL/wolfssl/wolfcrypt/src/poly1305.c ****     *(word64*)outLe64 = inLe32;
 256:Middlewares/Third_Party/wolfSSL_wolfSSL_wolfSSL/wolfssl/wolfcrypt/src/poly1305.c **** #endif
 257:Middlewares/Third_Party/wolfSSL_wolfSSL_wolfSSL/wolfssl/wolfcrypt/src/poly1305.c **** }
 258:Middlewares/Third_Party/wolfSSL_wolfSSL_wolfSSL/wolfssl/wolfcrypt/src/poly1305.c **** 
 259:Middlewares/Third_Party/wolfSSL_wolfSSL_wolfSSL/wolfssl/wolfcrypt/src/poly1305.c **** 
 260:Middlewares/Third_Party/wolfSSL_wolfSSL_wolfSSL/wolfssl/wolfcrypt/src/poly1305.c **** #if !defined(WOLFSSL_ARMASM) || !defined(__aarch64__)
 261:Middlewares/Third_Party/wolfSSL_wolfSSL_wolfSSL/wolfssl/wolfcrypt/src/poly1305.c **** /*
 262:Middlewares/Third_Party/wolfSSL_wolfSSL_wolfSSL/wolfssl/wolfcrypt/src/poly1305.c **** This local function operates on a message with a given number of bytes
 263:Middlewares/Third_Party/wolfSSL_wolfSSL_wolfSSL/wolfssl/wolfcrypt/src/poly1305.c **** with a given ctx pointer to a Poly1305 structure.
 264:Middlewares/Third_Party/wolfSSL_wolfSSL_wolfSSL/wolfssl/wolfcrypt/src/poly1305.c **** */
 265:Middlewares/Third_Party/wolfSSL_wolfSSL_wolfSSL/wolfssl/wolfcrypt/src/poly1305.c **** static void poly1305_blocks(Poly1305* ctx, const unsigned char *m,
 266:Middlewares/Third_Party/wolfSSL_wolfSSL_wolfSSL/wolfssl/wolfcrypt/src/poly1305.c ****                      size_t bytes)
 267:Middlewares/Third_Party/wolfSSL_wolfSSL_wolfSSL/wolfssl/wolfcrypt/src/poly1305.c **** {
 103              		.loc 1 267 1 is_stmt 1 view -0
 104              		.cfi_startproc
 105              		@ args = 0, pretend = 0, frame = 72
 106              		@ frame_needed = 0, uses_anonymous_args = 0
 107              		.loc 1 267 1 is_stmt 0 view .LVU23
 108 0000 2DE9F04F 		push	{r4, r5, r6, r7, r8, r9, r10, fp, lr}
 109              	.LCFI0:
 110              		.cfi_def_cfa_offset 36
 111              		.cfi_offset 4, -36
 112              		.cfi_offset 5, -32
 113              		.cfi_offset 6, -28
 114              		.cfi_offset 7, -24
 115              		.cfi_offset 8, -20
 116              		.cfi_offset 9, -16
 117              		.cfi_offset 10, -12
 118              		.cfi_offset 11, -8
 119              		.cfi_offset 14, -4
 120 0004 93B0     		sub	sp, sp, #76
 121              	.LCFI1:
 122              		.cfi_def_cfa_offset 112
 123 0006 1190     		str	r0, [sp, #68]
 124 0008 8C46     		mov	ip, r1
 125 000a 0592     		str	r2, [sp, #20]
 268:Middlewares/Third_Party/wolfSSL_wolfSSL_wolfSSL/wolfssl/wolfcrypt/src/poly1305.c **** #ifdef USE_INTEL_SPEEDUP
 269:Middlewares/Third_Party/wolfSSL_wolfSSL_wolfSSL/wolfssl/wolfcrypt/src/poly1305.c ****     /* AVX2 is handled in wc_Poly1305Update. */
 270:Middlewares/Third_Party/wolfSSL_wolfSSL_wolfSSL/wolfssl/wolfcrypt/src/poly1305.c ****     SAVE_VECTOR_REGISTERS();
 271:Middlewares/Third_Party/wolfSSL_wolfSSL_wolfSSL/wolfssl/wolfcrypt/src/poly1305.c ****     poly1305_blocks_avx(ctx, m, bytes);
 272:Middlewares/Third_Party/wolfSSL_wolfSSL_wolfSSL/wolfssl/wolfcrypt/src/poly1305.c ****     RESTORE_VECTOR_REGISTERS();
 273:Middlewares/Third_Party/wolfSSL_wolfSSL_wolfSSL/wolfssl/wolfcrypt/src/poly1305.c **** #elif defined(POLY130564)
 274:Middlewares/Third_Party/wolfSSL_wolfSSL_wolfSSL/wolfssl/wolfcrypt/src/poly1305.c ****     const word64 hibit = (ctx->finished) ? 0 : ((word64)1 << 40); /* 1 << 128 */
 275:Middlewares/Third_Party/wolfSSL_wolfSSL_wolfSSL/wolfssl/wolfcrypt/src/poly1305.c ****     word64 r0,r1,r2;
 276:Middlewares/Third_Party/wolfSSL_wolfSSL_wolfSSL/wolfssl/wolfcrypt/src/poly1305.c ****     word64 s1,s2;
 277:Middlewares/Third_Party/wolfSSL_wolfSSL_wolfSSL/wolfssl/wolfcrypt/src/poly1305.c ****     word64 h0,h1,h2;
ARM GAS  /tmp/ccGcaF1m.s 			page 8


 278:Middlewares/Third_Party/wolfSSL_wolfSSL_wolfSSL/wolfssl/wolfcrypt/src/poly1305.c ****     word64 c;
 279:Middlewares/Third_Party/wolfSSL_wolfSSL_wolfSSL/wolfssl/wolfcrypt/src/poly1305.c ****     word128 d0,d1,d2,d;
 280:Middlewares/Third_Party/wolfSSL_wolfSSL_wolfSSL/wolfssl/wolfcrypt/src/poly1305.c **** 
 281:Middlewares/Third_Party/wolfSSL_wolfSSL_wolfSSL/wolfssl/wolfcrypt/src/poly1305.c ****     r0 = ctx->r[0];
 282:Middlewares/Third_Party/wolfSSL_wolfSSL_wolfSSL/wolfssl/wolfcrypt/src/poly1305.c ****     r1 = ctx->r[1];
 283:Middlewares/Third_Party/wolfSSL_wolfSSL_wolfSSL/wolfssl/wolfcrypt/src/poly1305.c ****     r2 = ctx->r[2];
 284:Middlewares/Third_Party/wolfSSL_wolfSSL_wolfSSL/wolfssl/wolfcrypt/src/poly1305.c **** 
 285:Middlewares/Third_Party/wolfSSL_wolfSSL_wolfSSL/wolfssl/wolfcrypt/src/poly1305.c ****     h0 = ctx->h[0];
 286:Middlewares/Third_Party/wolfSSL_wolfSSL_wolfSSL/wolfssl/wolfcrypt/src/poly1305.c ****     h1 = ctx->h[1];
 287:Middlewares/Third_Party/wolfSSL_wolfSSL_wolfSSL/wolfssl/wolfcrypt/src/poly1305.c ****     h2 = ctx->h[2];
 288:Middlewares/Third_Party/wolfSSL_wolfSSL_wolfSSL/wolfssl/wolfcrypt/src/poly1305.c **** 
 289:Middlewares/Third_Party/wolfSSL_wolfSSL_wolfSSL/wolfssl/wolfcrypt/src/poly1305.c ****     s1 = r1 * (5 << 2);
 290:Middlewares/Third_Party/wolfSSL_wolfSSL_wolfSSL/wolfssl/wolfcrypt/src/poly1305.c ****     s2 = r2 * (5 << 2);
 291:Middlewares/Third_Party/wolfSSL_wolfSSL_wolfSSL/wolfssl/wolfcrypt/src/poly1305.c **** 
 292:Middlewares/Third_Party/wolfSSL_wolfSSL_wolfSSL/wolfssl/wolfcrypt/src/poly1305.c ****     while (bytes >= POLY1305_BLOCK_SIZE) {
 293:Middlewares/Third_Party/wolfSSL_wolfSSL_wolfSSL/wolfssl/wolfcrypt/src/poly1305.c ****         word64 t0,t1;
 294:Middlewares/Third_Party/wolfSSL_wolfSSL_wolfSSL/wolfssl/wolfcrypt/src/poly1305.c **** 
 295:Middlewares/Third_Party/wolfSSL_wolfSSL_wolfSSL/wolfssl/wolfcrypt/src/poly1305.c ****         /* h += m[i] */
 296:Middlewares/Third_Party/wolfSSL_wolfSSL_wolfSSL/wolfssl/wolfcrypt/src/poly1305.c ****         t0 = U8TO64(&m[0]);
 297:Middlewares/Third_Party/wolfSSL_wolfSSL_wolfSSL/wolfssl/wolfcrypt/src/poly1305.c ****         t1 = U8TO64(&m[8]);
 298:Middlewares/Third_Party/wolfSSL_wolfSSL_wolfSSL/wolfssl/wolfcrypt/src/poly1305.c **** 
 299:Middlewares/Third_Party/wolfSSL_wolfSSL_wolfSSL/wolfssl/wolfcrypt/src/poly1305.c ****         h0 += (( t0                    ) & 0xfffffffffff);
 300:Middlewares/Third_Party/wolfSSL_wolfSSL_wolfSSL/wolfssl/wolfcrypt/src/poly1305.c ****         h1 += (((t0 >> 44) | (t1 << 20)) & 0xfffffffffff);
 301:Middlewares/Third_Party/wolfSSL_wolfSSL_wolfSSL/wolfssl/wolfcrypt/src/poly1305.c ****         h2 += (((t1 >> 24)             ) & 0x3ffffffffff) | hibit;
 302:Middlewares/Third_Party/wolfSSL_wolfSSL_wolfSSL/wolfssl/wolfcrypt/src/poly1305.c **** 
 303:Middlewares/Third_Party/wolfSSL_wolfSSL_wolfSSL/wolfssl/wolfcrypt/src/poly1305.c ****         /* h *= r */
 304:Middlewares/Third_Party/wolfSSL_wolfSSL_wolfSSL/wolfssl/wolfcrypt/src/poly1305.c ****         MUL(d0, h0, r0); MUL(d, h1, s2); ADD(d0, d); MUL(d, h2, s1); ADD(d0, d);
 305:Middlewares/Third_Party/wolfSSL_wolfSSL_wolfSSL/wolfssl/wolfcrypt/src/poly1305.c ****         MUL(d1, h0, r1); MUL(d, h1, r0); ADD(d1, d); MUL(d, h2, s2); ADD(d1, d);
 306:Middlewares/Third_Party/wolfSSL_wolfSSL_wolfSSL/wolfssl/wolfcrypt/src/poly1305.c ****         MUL(d2, h0, r2); MUL(d, h1, r1); ADD(d2, d); MUL(d, h2, r0); ADD(d2, d);
 307:Middlewares/Third_Party/wolfSSL_wolfSSL_wolfSSL/wolfssl/wolfcrypt/src/poly1305.c **** 
 308:Middlewares/Third_Party/wolfSSL_wolfSSL_wolfSSL/wolfssl/wolfcrypt/src/poly1305.c ****         /* (partial) h %= p */
 309:Middlewares/Third_Party/wolfSSL_wolfSSL_wolfSSL/wolfssl/wolfcrypt/src/poly1305.c ****                       c = SHR(d0, 44); h0 = LO(d0) & 0xfffffffffff;
 310:Middlewares/Third_Party/wolfSSL_wolfSSL_wolfSSL/wolfssl/wolfcrypt/src/poly1305.c ****         ADDLO(d1, c); c = SHR(d1, 44); h1 = LO(d1) & 0xfffffffffff;
 311:Middlewares/Third_Party/wolfSSL_wolfSSL_wolfSSL/wolfssl/wolfcrypt/src/poly1305.c ****         ADDLO(d2, c); c = SHR(d2, 42); h2 = LO(d2) & 0x3ffffffffff;
 312:Middlewares/Third_Party/wolfSSL_wolfSSL_wolfSSL/wolfssl/wolfcrypt/src/poly1305.c ****         h0  += c * 5; c = (h0 >> 44);  h0 =    h0  & 0xfffffffffff;
 313:Middlewares/Third_Party/wolfSSL_wolfSSL_wolfSSL/wolfssl/wolfcrypt/src/poly1305.c ****         h1  += c;
 314:Middlewares/Third_Party/wolfSSL_wolfSSL_wolfSSL/wolfssl/wolfcrypt/src/poly1305.c **** 
 315:Middlewares/Third_Party/wolfSSL_wolfSSL_wolfSSL/wolfssl/wolfcrypt/src/poly1305.c ****         m += POLY1305_BLOCK_SIZE;
 316:Middlewares/Third_Party/wolfSSL_wolfSSL_wolfSSL/wolfssl/wolfcrypt/src/poly1305.c ****         bytes -= POLY1305_BLOCK_SIZE;
 317:Middlewares/Third_Party/wolfSSL_wolfSSL_wolfSSL/wolfssl/wolfcrypt/src/poly1305.c ****     }
 318:Middlewares/Third_Party/wolfSSL_wolfSSL_wolfSSL/wolfssl/wolfcrypt/src/poly1305.c **** 
 319:Middlewares/Third_Party/wolfSSL_wolfSSL_wolfSSL/wolfssl/wolfcrypt/src/poly1305.c ****     ctx->h[0] = h0;
 320:Middlewares/Third_Party/wolfSSL_wolfSSL_wolfSSL/wolfssl/wolfcrypt/src/poly1305.c ****     ctx->h[1] = h1;
 321:Middlewares/Third_Party/wolfSSL_wolfSSL_wolfSSL/wolfssl/wolfcrypt/src/poly1305.c ****     ctx->h[2] = h2;
 322:Middlewares/Third_Party/wolfSSL_wolfSSL_wolfSSL/wolfssl/wolfcrypt/src/poly1305.c **** 
 323:Middlewares/Third_Party/wolfSSL_wolfSSL_wolfSSL/wolfssl/wolfcrypt/src/poly1305.c **** #else /* if not 64 bit then use 32 bit */
 324:Middlewares/Third_Party/wolfSSL_wolfSSL_wolfSSL/wolfssl/wolfcrypt/src/poly1305.c ****     const word32 hibit = (ctx->finished) ? 0 : ((word32)1 << 24); /* 1 << 128 */
 126              		.loc 1 324 5 is_stmt 1 view .LVU24
 127              		.loc 1 324 30 is_stmt 0 view .LVU25
 128 000c 90F84C30 		ldrb	r3, [r0, #76]	@ zero_extendqisi2
 129              		.loc 1 324 46 view .LVU26
 130 0010 03B3     		cbz	r3, .L7
 131 0012 0023     		movs	r3, #0
 132 0014 0D93     		str	r3, [sp, #52]
 133              	.L4:
 134              	.LVL5:
 325:Middlewares/Third_Party/wolfSSL_wolfSSL_wolfSSL/wolfssl/wolfcrypt/src/poly1305.c ****     word32 r0,r1,r2,r3,r4;
ARM GAS  /tmp/ccGcaF1m.s 			page 9


 135              		.loc 1 325 5 is_stmt 1 discriminator 4 view .LVU27
 326:Middlewares/Third_Party/wolfSSL_wolfSSL_wolfSSL/wolfssl/wolfcrypt/src/poly1305.c ****     word32 s1,s2,s3,s4;
 136              		.loc 1 326 5 discriminator 4 view .LVU28
 327:Middlewares/Third_Party/wolfSSL_wolfSSL_wolfSSL/wolfssl/wolfcrypt/src/poly1305.c ****     word32 h0,h1,h2,h3,h4;
 137              		.loc 1 327 5 discriminator 4 view .LVU29
 328:Middlewares/Third_Party/wolfSSL_wolfSSL_wolfSSL/wolfssl/wolfcrypt/src/poly1305.c ****     word64 d0,d1,d2,d3,d4;
 138              		.loc 1 328 5 discriminator 4 view .LVU30
 329:Middlewares/Third_Party/wolfSSL_wolfSSL_wolfSSL/wolfssl/wolfcrypt/src/poly1305.c ****     word32 c;
 139              		.loc 1 329 5 discriminator 4 view .LVU31
 330:Middlewares/Third_Party/wolfSSL_wolfSSL_wolfSSL/wolfssl/wolfcrypt/src/poly1305.c **** 
 331:Middlewares/Third_Party/wolfSSL_wolfSSL_wolfSSL/wolfssl/wolfcrypt/src/poly1305.c **** 
 332:Middlewares/Third_Party/wolfSSL_wolfSSL_wolfSSL/wolfssl/wolfcrypt/src/poly1305.c ****     r0 = ctx->r[0];
 140              		.loc 1 332 5 discriminator 4 view .LVU32
 141              		.loc 1 332 8 is_stmt 0 discriminator 4 view .LVU33
 142 0016 119B     		ldr	r3, [sp, #68]
 143 0018 1A68     		ldr	r2, [r3]
 144              	.LVL6:
 145              		.loc 1 332 8 discriminator 4 view .LVU34
 146 001a 0192     		str	r2, [sp, #4]
 147              	.LVL7:
 333:Middlewares/Third_Party/wolfSSL_wolfSSL_wolfSSL/wolfssl/wolfcrypt/src/poly1305.c ****     r1 = ctx->r[1];
 148              		.loc 1 333 5 is_stmt 1 discriminator 4 view .LVU35
 149              		.loc 1 333 8 is_stmt 0 discriminator 4 view .LVU36
 150 001c 5968     		ldr	r1, [r3, #4]
 151              	.LVL8:
 152              		.loc 1 333 8 discriminator 4 view .LVU37
 153 001e 0391     		str	r1, [sp, #12]
 154              	.LVL9:
 334:Middlewares/Third_Party/wolfSSL_wolfSSL_wolfSSL/wolfssl/wolfcrypt/src/poly1305.c ****     r2 = ctx->r[2];
 155              		.loc 1 334 5 is_stmt 1 discriminator 4 view .LVU38
 156              		.loc 1 334 8 is_stmt 0 discriminator 4 view .LVU39
 157 0020 9868     		ldr	r0, [r3, #8]
 158              	.LVL10:
 159              		.loc 1 334 8 discriminator 4 view .LVU40
 160 0022 0690     		str	r0, [sp, #24]
 161              	.LVL11:
 335:Middlewares/Third_Party/wolfSSL_wolfSSL_wolfSSL/wolfssl/wolfcrypt/src/poly1305.c ****     r3 = ctx->r[3];
 162              		.loc 1 335 5 is_stmt 1 discriminator 4 view .LVU41
 163              		.loc 1 335 8 is_stmt 0 discriminator 4 view .LVU42
 164 0024 DC68     		ldr	r4, [r3, #12]
 165 0026 0E94     		str	r4, [sp, #56]
 166              	.LVL12:
 336:Middlewares/Third_Party/wolfSSL_wolfSSL_wolfSSL/wolfssl/wolfcrypt/src/poly1305.c ****     r4 = ctx->r[4];
 167              		.loc 1 336 5 is_stmt 1 discriminator 4 view .LVU43
 168              		.loc 1 336 8 is_stmt 0 discriminator 4 view .LVU44
 169 0028 1A69     		ldr	r2, [r3, #16]
 170              	.LVL13:
 171              		.loc 1 336 8 discriminator 4 view .LVU45
 172 002a 0F92     		str	r2, [sp, #60]
 173              	.LVL14:
 337:Middlewares/Third_Party/wolfSSL_wolfSSL_wolfSSL/wolfssl/wolfcrypt/src/poly1305.c **** 
 338:Middlewares/Third_Party/wolfSSL_wolfSSL_wolfSSL/wolfssl/wolfcrypt/src/poly1305.c ****     s1 = r1 * 5;
 174              		.loc 1 338 5 is_stmt 1 discriminator 4 view .LVU46
 175              		.loc 1 338 8 is_stmt 0 discriminator 4 view .LVU47
 176 002c 01EB8101 		add	r1, r1, r1, lsl #2
 177              	.LVL15:
 178              		.loc 1 338 8 discriminator 4 view .LVU48
ARM GAS  /tmp/ccGcaF1m.s 			page 10


 179 0030 1091     		str	r1, [sp, #64]
 180              	.LVL16:
 339:Middlewares/Third_Party/wolfSSL_wolfSSL_wolfSSL/wolfssl/wolfcrypt/src/poly1305.c ****     s2 = r2 * 5;
 181              		.loc 1 339 5 is_stmt 1 discriminator 4 view .LVU49
 182              		.loc 1 339 8 is_stmt 0 discriminator 4 view .LVU50
 183 0032 00EB8001 		add	r1, r0, r0, lsl #2
 184              	.LVL17:
 185              		.loc 1 339 8 discriminator 4 view .LVU51
 186 0036 0891     		str	r1, [sp, #32]
 187              	.LVL18:
 340:Middlewares/Third_Party/wolfSSL_wolfSSL_wolfSSL/wolfssl/wolfcrypt/src/poly1305.c ****     s3 = r3 * 5;
 188              		.loc 1 340 5 is_stmt 1 discriminator 4 view .LVU52
 189              		.loc 1 340 8 is_stmt 0 discriminator 4 view .LVU53
 190 0038 04EB8401 		add	r1, r4, r4, lsl #2
 191              	.LVL19:
 192              		.loc 1 340 8 discriminator 4 view .LVU54
 193 003c 0791     		str	r1, [sp, #28]
 194              	.LVL20:
 341:Middlewares/Third_Party/wolfSSL_wolfSSL_wolfSSL/wolfssl/wolfcrypt/src/poly1305.c ****     s4 = r4 * 5;
 195              		.loc 1 341 5 is_stmt 1 discriminator 4 view .LVU55
 196              		.loc 1 341 8 is_stmt 0 discriminator 4 view .LVU56
 197 003e 02EB8202 		add	r2, r2, r2, lsl #2
 198              	.LVL21:
 199              		.loc 1 341 8 discriminator 4 view .LVU57
 200 0042 0492     		str	r2, [sp, #16]
 201              	.LVL22:
 342:Middlewares/Third_Party/wolfSSL_wolfSSL_wolfSSL/wolfssl/wolfcrypt/src/poly1305.c **** 
 343:Middlewares/Third_Party/wolfSSL_wolfSSL_wolfSSL/wolfssl/wolfcrypt/src/poly1305.c ****     h0 = ctx->h[0];
 202              		.loc 1 343 5 is_stmt 1 discriminator 4 view .LVU58
 203              		.loc 1 343 8 is_stmt 0 discriminator 4 view .LVU59
 204 0044 5F69     		ldr	r7, [r3, #20]
 205              	.LVL23:
 344:Middlewares/Third_Party/wolfSSL_wolfSSL_wolfSSL/wolfssl/wolfcrypt/src/poly1305.c ****     h1 = ctx->h[1];
 206              		.loc 1 344 5 is_stmt 1 discriminator 4 view .LVU60
 207              		.loc 1 344 8 is_stmt 0 discriminator 4 view .LVU61
 208 0046 9D69     		ldr	r5, [r3, #24]
 209              	.LVL24:
 345:Middlewares/Third_Party/wolfSSL_wolfSSL_wolfSSL/wolfssl/wolfcrypt/src/poly1305.c ****     h2 = ctx->h[2];
 210              		.loc 1 345 5 is_stmt 1 discriminator 4 view .LVU62
 211              		.loc 1 345 8 is_stmt 0 discriminator 4 view .LVU63
 212 0048 DE69     		ldr	r6, [r3, #28]
 213              	.LVL25:
 346:Middlewares/Third_Party/wolfSSL_wolfSSL_wolfSSL/wolfssl/wolfcrypt/src/poly1305.c ****     h3 = ctx->h[3];
 214              		.loc 1 346 5 is_stmt 1 discriminator 4 view .LVU64
 215              		.loc 1 346 8 is_stmt 0 discriminator 4 view .LVU65
 216 004a 1C6A     		ldr	r4, [r3, #32]
 217              	.LVL26:
 347:Middlewares/Third_Party/wolfSSL_wolfSSL_wolfSSL/wolfssl/wolfcrypt/src/poly1305.c ****     h4 = ctx->h[4];
 218              		.loc 1 347 5 is_stmt 1 discriminator 4 view .LVU66
 219              		.loc 1 347 8 is_stmt 0 discriminator 4 view .LVU67
 220 004c D3F82480 		ldr	r8, [r3, #36]
 221              	.LVL27:
 348:Middlewares/Third_Party/wolfSSL_wolfSSL_wolfSSL/wolfssl/wolfcrypt/src/poly1305.c **** 
 349:Middlewares/Third_Party/wolfSSL_wolfSSL_wolfSSL/wolfssl/wolfcrypt/src/poly1305.c ****     while (bytes >= POLY1305_BLOCK_SIZE) {
 222              		.loc 1 349 5 is_stmt 1 discriminator 4 view .LVU68
 223 0050 E146     		mov	r9, ip
 224              		.loc 1 349 11 is_stmt 0 discriminator 4 view .LVU69
ARM GAS  /tmp/ccGcaF1m.s 			page 11


 225 0052 EFE0     		b	.L5
 226              	.LVL28:
 227              	.L7:
 324:Middlewares/Third_Party/wolfSSL_wolfSSL_wolfSSL/wolfssl/wolfcrypt/src/poly1305.c ****     word32 r0,r1,r2,r3,r4;
 228              		.loc 1 324 46 view .LVU70
 229 0054 4FF08073 		mov	r3, #16777216
 230 0058 0D93     		str	r3, [sp, #52]
 231 005a DCE7     		b	.L4
 232              	.LVL29:
 233              	.L6:
 350:Middlewares/Third_Party/wolfSSL_wolfSSL_wolfSSL/wolfssl/wolfcrypt/src/poly1305.c ****         /* h += m[i] */
 351:Middlewares/Third_Party/wolfSSL_wolfSSL_wolfSSL/wolfssl/wolfcrypt/src/poly1305.c ****         h0 += (U8TO32(m+ 0)     ) & 0x3ffffff;
 234              		.loc 1 351 9 is_stmt 1 view .LVU71
 235              		.loc 1 351 16 is_stmt 0 view .LVU72
 236 005c 4846     		mov	r0, r9
 237 005e FFF7FEFF 		bl	U8TO32
 238              	.LVL30:
 239              		.loc 1 351 35 view .LVU73
 240 0062 20F07C40 		bic	r0, r0, #-67108864
 241              		.loc 1 351 12 view .LVU74
 242 0066 0744     		add	r7, r7, r0
 243              	.LVL31:
 352:Middlewares/Third_Party/wolfSSL_wolfSSL_wolfSSL/wolfssl/wolfcrypt/src/poly1305.c ****         h1 += (U8TO32(m+ 3) >> 2) & 0x3ffffff;
 244              		.loc 1 352 9 is_stmt 1 view .LVU75
 245              		.loc 1 352 16 is_stmt 0 view .LVU76
 246 0068 09F10300 		add	r0, r9, #3
 247 006c FFF7FEFF 		bl	U8TO32
 248              	.LVL32:
 249              		.loc 1 352 35 view .LVU77
 250 0070 C0F39900 		ubfx	r0, r0, #2, #26
 251              		.loc 1 352 12 view .LVU78
 252 0074 0544     		add	r5, r5, r0
 253              	.LVL33:
 353:Middlewares/Third_Party/wolfSSL_wolfSSL_wolfSSL/wolfssl/wolfcrypt/src/poly1305.c ****         h2 += (U8TO32(m+ 6) >> 4) & 0x3ffffff;
 254              		.loc 1 353 9 is_stmt 1 view .LVU79
 255              		.loc 1 353 16 is_stmt 0 view .LVU80
 256 0076 09F10600 		add	r0, r9, #6
 257 007a FFF7FEFF 		bl	U8TO32
 258              	.LVL34:
 259              		.loc 1 353 35 view .LVU81
 260 007e C0F31910 		ubfx	r0, r0, #4, #26
 261              		.loc 1 353 12 view .LVU82
 262 0082 0644     		add	r6, r6, r0
 263              	.LVL35:
 354:Middlewares/Third_Party/wolfSSL_wolfSSL_wolfSSL/wolfssl/wolfcrypt/src/poly1305.c ****         h3 += (U8TO32(m+ 9) >> 6) & 0x3ffffff;
 264              		.loc 1 354 9 is_stmt 1 view .LVU83
 265              		.loc 1 354 16 is_stmt 0 view .LVU84
 266 0084 09F10900 		add	r0, r9, #9
 267 0088 FFF7FEFF 		bl	U8TO32
 268              	.LVL36:
 269              		.loc 1 354 12 view .LVU85
 270 008c 04EB9014 		add	r4, r4, r0, lsr #6
 271              	.LVL37:
 355:Middlewares/Third_Party/wolfSSL_wolfSSL_wolfSSL/wolfssl/wolfcrypt/src/poly1305.c ****         h4 += (U8TO32(m+12) >> 8) | hibit;
 272              		.loc 1 355 9 is_stmt 1 view .LVU86
 273              		.loc 1 355 16 is_stmt 0 view .LVU87
 274 0090 09F10C00 		add	r0, r9, #12
ARM GAS  /tmp/ccGcaF1m.s 			page 12


 275 0094 FFF7FEFF 		bl	U8TO32
 276              	.LVL38:
 277              		.loc 1 355 35 view .LVU88
 278 0098 0D9B     		ldr	r3, [sp, #52]
 279 009a 43EA1020 		orr	r0, r3, r0, lsr #8
 280              		.loc 1 355 12 view .LVU89
 281 009e 8044     		add	r8, r8, r0
 282              	.LVL39:
 356:Middlewares/Third_Party/wolfSSL_wolfSSL_wolfSSL/wolfssl/wolfcrypt/src/poly1305.c **** 
 357:Middlewares/Third_Party/wolfSSL_wolfSSL_wolfSSL/wolfssl/wolfcrypt/src/poly1305.c ****         /* h *= r */
 358:Middlewares/Third_Party/wolfSSL_wolfSSL_wolfSSL/wolfssl/wolfcrypt/src/poly1305.c ****         d0 = ((word64)h0 * r0) + ((word64)h1 * s4) + ((word64)h2 * s3) +
 283              		.loc 1 358 9 is_stmt 1 view .LVU90
 284              		.loc 1 358 26 is_stmt 0 view .LVU91
 285 00a0 019B     		ldr	r3, [sp, #4]
 286 00a2 A7FB0320 		umull	r2, r0, r7, r3
 287              		.loc 1 358 46 view .LVU92
 288 00a6 0499     		ldr	r1, [sp, #16]
 289 00a8 A5FB0131 		umull	r3, r1, r5, r1
 290              		.loc 1 358 32 view .LVU93
 291 00ac D218     		adds	r2, r2, r3
 292 00ae 40EB0101 		adc	r1, r0, r1
 359:Middlewares/Third_Party/wolfSSL_wolfSSL_wolfSSL/wolfssl/wolfcrypt/src/poly1305.c ****              ((word64)h3 * s2) + ((word64)h4 * s1);
 293              		.loc 1 359 26 view .LVU94
 294 00b2 0898     		ldr	r0, [sp, #32]
 295 00b4 0294     		str	r4, [sp, #8]
 296 00b6 A4FB0030 		umull	r3, r0, r4, r0
 358:Middlewares/Third_Party/wolfSSL_wolfSSL_wolfSSL/wolfssl/wolfcrypt/src/poly1305.c ****              ((word64)h3 * s2) + ((word64)h4 * s1);
 297              		.loc 1 358 66 view .LVU95
 298 00ba 079C     		ldr	r4, [sp, #28]
 299              	.LVL40:
 358:Middlewares/Third_Party/wolfSSL_wolfSSL_wolfSSL/wolfssl/wolfcrypt/src/poly1305.c ****              ((word64)h3 * s2) + ((word64)h4 * s1);
 300              		.loc 1 358 66 view .LVU96
 301 00bc A6FB04CE 		umull	ip, lr, r6, r4
 358:Middlewares/Third_Party/wolfSSL_wolfSSL_wolfSSL/wolfssl/wolfcrypt/src/poly1305.c ****              ((word64)h3 * s2) + ((word64)h4 * s1);
 302              		.loc 1 358 72 view .LVU97
 303 00c0 13EB0C03 		adds	r3, r3, ip
 304 00c4 40EB0E00 		adc	r0, r0, lr
 305 00c8 9A18     		adds	r2, r3, r2
 306 00ca 41EB0001 		adc	r1, r1, r0
 307              		.loc 1 359 46 view .LVU98
 308 00ce 1098     		ldr	r0, [sp, #64]
 309 00d0 A0FB0830 		umull	r3, r0, r0, r8
 358:Middlewares/Third_Party/wolfSSL_wolfSSL_wolfSSL/wolfssl/wolfcrypt/src/poly1305.c ****              ((word64)h3 * s2) + ((word64)h4 * s1);
 310              		.loc 1 358 12 view .LVU99
 311 00d4 D318     		adds	r3, r2, r3
 312 00d6 0993     		str	r3, [sp, #36]
 313 00d8 41EB0000 		adc	r0, r1, r0
 314 00dc 0A90     		str	r0, [sp, #40]
 315              	.LVL41:
 360:Middlewares/Third_Party/wolfSSL_wolfSSL_wolfSSL/wolfssl/wolfcrypt/src/poly1305.c ****         d1 = ((word64)h0 * r1) + ((word64)h1 * r0) + ((word64)h2 * s4) +
 316              		.loc 1 360 9 is_stmt 1 view .LVU100
 317              		.loc 1 360 26 is_stmt 0 view .LVU101
 318 00de 0398     		ldr	r0, [sp, #12]
 319              	.LVL42:
 320              		.loc 1 360 26 view .LVU102
 321 00e0 A7FB0020 		umull	r2, r0, r7, r0
 322              		.loc 1 360 46 view .LVU103
ARM GAS  /tmp/ccGcaF1m.s 			page 13


 323 00e4 0199     		ldr	r1, [sp, #4]
 324 00e6 A1FB0513 		umull	r1, r3, r1, r5
 325              	.LVL43:
 326              		.loc 1 360 32 view .LVU104
 327 00ea 5218     		adds	r2, r2, r1
 328 00ec 40EB0300 		adc	r0, r0, r3
 361:Middlewares/Third_Party/wolfSSL_wolfSSL_wolfSSL/wolfssl/wolfcrypt/src/poly1305.c ****              ((word64)h3 * s3) + ((word64)h4 * s2);
 329              		.loc 1 361 26 view .LVU105
 330 00f0 029B     		ldr	r3, [sp, #8]
 331 00f2 A3FB043E 		umull	r3, lr, r3, r4
 360:Middlewares/Third_Party/wolfSSL_wolfSSL_wolfSSL/wolfssl/wolfcrypt/src/poly1305.c ****         d1 = ((word64)h0 * r1) + ((word64)h1 * r0) + ((word64)h2 * s4) +
 332              		.loc 1 360 66 view .LVU106
 333 00f6 049C     		ldr	r4, [sp, #16]
 334 00f8 A4FB06C1 		umull	ip, r1, r4, r6
 360:Middlewares/Third_Party/wolfSSL_wolfSSL_wolfSSL/wolfssl/wolfcrypt/src/poly1305.c ****         d1 = ((word64)h0 * r1) + ((word64)h1 * r0) + ((word64)h2 * s4) +
 335              		.loc 1 360 72 view .LVU107
 336 00fc 13EB0C03 		adds	r3, r3, ip
 337 0100 4EEB0101 		adc	r1, lr, r1
 338 0104 9B18     		adds	r3, r3, r2
 339 0106 40EB0101 		adc	r1, r0, r1
 340              		.loc 1 361 46 view .LVU108
 341 010a 089A     		ldr	r2, [sp, #32]
 342 010c A2FB0802 		umull	r0, r2, r2, r8
 360:Middlewares/Third_Party/wolfSSL_wolfSSL_wolfSSL/wolfssl/wolfcrypt/src/poly1305.c ****         d1 = ((word64)h0 * r1) + ((word64)h1 * r0) + ((word64)h2 * s4) +
 343              		.loc 1 360 12 view .LVU109
 344 0110 1B18     		adds	r3, r3, r0
 345 0112 0B93     		str	r3, [sp, #44]
 346 0114 41EB0202 		adc	r2, r1, r2
 347 0118 0C92     		str	r2, [sp, #48]
 348              	.LVL44:
 362:Middlewares/Third_Party/wolfSSL_wolfSSL_wolfSSL/wolfssl/wolfcrypt/src/poly1305.c ****         d2 = ((word64)h0 * r2) + ((word64)h1 * r1) + ((word64)h2 * r0) +
 349              		.loc 1 362 9 is_stmt 1 view .LVU110
 350              		.loc 1 362 26 is_stmt 0 view .LVU111
 351 011a 069A     		ldr	r2, [sp, #24]
 352              	.LVL45:
 353              		.loc 1 362 26 view .LVU112
 354 011c A7FB021E 		umull	r1, lr, r7, r2
 355              		.loc 1 362 46 view .LVU113
 356 0120 0398     		ldr	r0, [sp, #12]
 357 0122 A5FB0023 		umull	r2, r3, r5, r0
 358              	.LVL46:
 359              		.loc 1 362 32 view .LVU114
 360 0126 8918     		adds	r1, r1, r2
 361 0128 4EEB030E 		adc	lr, lr, r3
 363:Middlewares/Third_Party/wolfSSL_wolfSSL_wolfSSL/wolfssl/wolfcrypt/src/poly1305.c ****              ((word64)h3 * s4) + ((word64)h4 * s3);
 362              		.loc 1 363 26 view .LVU115
 363 012c 029A     		ldr	r2, [sp, #8]
 364 012e A4FB023C 		umull	r3, ip, r4, r2
 362:Middlewares/Third_Party/wolfSSL_wolfSSL_wolfSSL/wolfssl/wolfcrypt/src/poly1305.c ****         d2 = ((word64)h0 * r2) + ((word64)h1 * r1) + ((word64)h2 * r0) +
 365              		.loc 1 362 66 view .LVU116
 366 0132 019A     		ldr	r2, [sp, #4]
 367 0134 A2FB0620 		umull	r2, r0, r2, r6
 362:Middlewares/Third_Party/wolfSSL_wolfSSL_wolfSSL/wolfssl/wolfcrypt/src/poly1305.c ****         d2 = ((word64)h0 * r2) + ((word64)h1 * r1) + ((word64)h2 * r0) +
 368              		.loc 1 362 72 view .LVU117
 369 0138 9A18     		adds	r2, r3, r2
 370 013a 4CEB000C 		adc	ip, ip, r0
 371 013e 5218     		adds	r2, r2, r1
ARM GAS  /tmp/ccGcaF1m.s 			page 14


 372 0140 4EEB0C0C 		adc	ip, lr, ip
 373              		.loc 1 363 46 view .LVU118
 374 0144 079C     		ldr	r4, [sp, #28]
 375 0146 A4FB0813 		umull	r1, r3, r4, r8
 362:Middlewares/Third_Party/wolfSSL_wolfSSL_wolfSSL/wolfssl/wolfcrypt/src/poly1305.c ****         d2 = ((word64)h0 * r2) + ((word64)h1 * r1) + ((word64)h2 * r0) +
 376              		.loc 1 362 12 view .LVU119
 377 014a 5218     		adds	r2, r2, r1
 378 014c 4CEB030C 		adc	ip, ip, r3
 379              	.LVL47:
 364:Middlewares/Third_Party/wolfSSL_wolfSSL_wolfSSL/wolfssl/wolfcrypt/src/poly1305.c ****         d3 = ((word64)h0 * r3) + ((word64)h1 * r2) + ((word64)h2 * r1) +
 380              		.loc 1 364 9 is_stmt 1 view .LVU120
 381              		.loc 1 364 26 is_stmt 0 view .LVU121
 382 0150 0E9C     		ldr	r4, [sp, #56]
 383 0152 A7FB040E 		umull	r0, lr, r7, r4
 384              		.loc 1 364 46 view .LVU122
 385 0156 069B     		ldr	r3, [sp, #24]
 386 0158 A5FB0313 		umull	r1, r3, r5, r3
 387              		.loc 1 364 32 view .LVU123
 388 015c 4018     		adds	r0, r0, r1
 389 015e 4EEB030E 		adc	lr, lr, r3
 365:Middlewares/Third_Party/wolfSSL_wolfSSL_wolfSSL/wolfssl/wolfcrypt/src/poly1305.c ****              ((word64)h3 * r0) + ((word64)h4 * s4);
 390              		.loc 1 365 26 view .LVU124
 391 0162 019B     		ldr	r3, [sp, #4]
 392 0164 9A46     		mov	r10, r3
 393 0166 029B     		ldr	r3, [sp, #8]
 394 0168 AAFB033B 		umull	r3, fp, r10, r3
 364:Middlewares/Third_Party/wolfSSL_wolfSSL_wolfSSL/wolfssl/wolfcrypt/src/poly1305.c ****         d3 = ((word64)h0 * r3) + ((word64)h1 * r2) + ((word64)h2 * r1) +
 395              		.loc 1 364 66 view .LVU125
 396 016c 0399     		ldr	r1, [sp, #12]
 397 016e A6FB01A1 		umull	r10, r1, r6, r1
 364:Middlewares/Third_Party/wolfSSL_wolfSSL_wolfSSL/wolfssl/wolfcrypt/src/poly1305.c ****         d3 = ((word64)h0 * r3) + ((word64)h1 * r2) + ((word64)h2 * r1) +
 398              		.loc 1 364 72 view .LVU126
 399 0172 13EB0A03 		adds	r3, r3, r10
 400 0176 4BEB010B 		adc	fp, fp, r1
 401 017a 1B18     		adds	r3, r3, r0
 402 017c 4EEB0B0E 		adc	lr, lr, fp
 403              		.loc 1 365 46 view .LVU127
 404 0180 0498     		ldr	r0, [sp, #16]
 405 0182 A0FB080A 		umull	r0, r10, r0, r8
 364:Middlewares/Third_Party/wolfSSL_wolfSSL_wolfSSL/wolfssl/wolfcrypt/src/poly1305.c ****         d3 = ((word64)h0 * r3) + ((word64)h1 * r2) + ((word64)h2 * r1) +
 406              		.loc 1 364 12 view .LVU128
 407 0186 1B18     		adds	r3, r3, r0
 408 0188 4EEB0A0E 		adc	lr, lr, r10
 409              	.LVL48:
 366:Middlewares/Third_Party/wolfSSL_wolfSSL_wolfSSL/wolfssl/wolfcrypt/src/poly1305.c ****         d4 = ((word64)h0 * r4) + ((word64)h1 * r3) + ((word64)h2 * r2) +
 410              		.loc 1 366 9 is_stmt 1 view .LVU129
 411              		.loc 1 366 26 is_stmt 0 view .LVU130
 412 018c 0F99     		ldr	r1, [sp, #60]
 413 018e A1FB077B 		umull	r7, fp, r1, r7
 414              	.LVL49:
 415              		.loc 1 366 46 view .LVU131
 416 0192 A5FB045A 		umull	r5, r10, r5, r4
 417              	.LVL50:
 418              		.loc 1 366 32 view .LVU132
 419 0196 7919     		adds	r1, r7, r5
 420 0198 4BEB0A05 		adc	r5, fp, r10
 367:Middlewares/Third_Party/wolfSSL_wolfSSL_wolfSSL/wolfssl/wolfcrypt/src/poly1305.c ****              ((word64)h3 * r1) + ((word64)h4 * r0);
ARM GAS  /tmp/ccGcaF1m.s 			page 15


 421              		.loc 1 367 26 view .LVU133
 422 019c 0398     		ldr	r0, [sp, #12]
 423 019e 029C     		ldr	r4, [sp, #8]
 424 01a0 A4FB0040 		umull	r4, r0, r4, r0
 366:Middlewares/Third_Party/wolfSSL_wolfSSL_wolfSSL/wolfssl/wolfcrypt/src/poly1305.c ****         d4 = ((word64)h0 * r4) + ((word64)h1 * r3) + ((word64)h2 * r2) +
 425              		.loc 1 366 66 view .LVU134
 426 01a4 069F     		ldr	r7, [sp, #24]
 427 01a6 A6FB076A 		umull	r6, r10, r6, r7
 428              	.LVL51:
 366:Middlewares/Third_Party/wolfSSL_wolfSSL_wolfSSL/wolfssl/wolfcrypt/src/poly1305.c ****         d4 = ((word64)h0 * r4) + ((word64)h1 * r3) + ((word64)h2 * r2) +
 429              		.loc 1 366 72 view .LVU135
 430 01aa A619     		adds	r6, r4, r6
 431 01ac 40EB0A00 		adc	r0, r0, r10
 432 01b0 7618     		adds	r6, r6, r1
 433 01b2 45EB000A 		adc	r10, r5, r0
 434              		.loc 1 367 46 view .LVU136
 435 01b6 0199     		ldr	r1, [sp, #4]
 436 01b8 A1FB0880 		umull	r8, r0, r1, r8
 437              	.LVL52:
 366:Middlewares/Third_Party/wolfSSL_wolfSSL_wolfSSL/wolfssl/wolfcrypt/src/poly1305.c ****         d4 = ((word64)h0 * r4) + ((word64)h1 * r3) + ((word64)h2 * r2) +
 438              		.loc 1 366 12 view .LVU137
 439 01bc 16EB0801 		adds	r1, r6, r8
 440 01c0 4AEB0000 		adc	r0, r10, r0
 441              	.LVL53:
 368:Middlewares/Third_Party/wolfSSL_wolfSSL_wolfSSL/wolfssl/wolfcrypt/src/poly1305.c **** 
 369:Middlewares/Third_Party/wolfSSL_wolfSSL_wolfSSL/wolfssl/wolfcrypt/src/poly1305.c ****         /* (partial) h %= p */
 370:Middlewares/Third_Party/wolfSSL_wolfSSL_wolfSSL/wolfssl/wolfcrypt/src/poly1305.c ****                       c = (word32)(d0 >> 26); h0 = (word32)d0 & 0x3ffffff;
 442              		.loc 1 370 23 is_stmt 1 view .LVU138
 443              		.loc 1 370 39 is_stmt 0 view .LVU139
 444 01c4 099C     		ldr	r4, [sp, #36]
 445 01c6 A50E     		lsrs	r5, r4, #26
 446 01c8 0A9E     		ldr	r6, [sp, #40]
 447 01ca 45EA8615 		orr	r5, r5, r6, lsl #6
 448              	.LVL54:
 449              		.loc 1 370 47 is_stmt 1 view .LVU140
 450              		.loc 1 370 50 is_stmt 0 view .LVU141
 451 01ce 24F07C47 		bic	r7, r4, #-67108864
 452              	.LVL55:
 371:Middlewares/Third_Party/wolfSSL_wolfSSL_wolfSSL/wolfssl/wolfcrypt/src/poly1305.c ****         d1 += c;      c = (word32)(d1 >> 26); h1 = (word32)d1 & 0x3ffffff;
 453              		.loc 1 371 9 is_stmt 1 view .LVU142
 454              		.loc 1 371 12 is_stmt 0 view .LVU143
 455 01d2 0B9C     		ldr	r4, [sp, #44]
 456 01d4 2D19     		adds	r5, r5, r4
 457              	.LVL56:
 458              		.loc 1 371 12 view .LVU144
 459 01d6 0C9C     		ldr	r4, [sp, #48]
 460 01d8 44F10004 		adc	r4, r4, #0
 461              	.LVL57:
 462              		.loc 1 371 23 is_stmt 1 view .LVU145
 463              		.loc 1 371 39 is_stmt 0 view .LVU146
 464 01dc AE0E     		lsrs	r6, r5, #26
 465 01de 46EA8416 		orr	r6, r6, r4, lsl #6
 466              	.LVL58:
 467              		.loc 1 371 47 is_stmt 1 view .LVU147
 468              		.loc 1 371 50 is_stmt 0 view .LVU148
 469 01e2 25F07C4B 		bic	fp, r5, #-67108864
 470              	.LVL59:
ARM GAS  /tmp/ccGcaF1m.s 			page 16


 372:Middlewares/Third_Party/wolfSSL_wolfSSL_wolfSSL/wolfssl/wolfcrypt/src/poly1305.c ****         d2 += c;      c = (word32)(d2 >> 26); h2 = (word32)d2 & 0x3ffffff;
 471              		.loc 1 372 9 is_stmt 1 view .LVU149
 472              		.loc 1 372 12 is_stmt 0 view .LVU150
 473 01e6 B618     		adds	r6, r6, r2
 474              	.LVL60:
 475              		.loc 1 372 12 view .LVU151
 476 01e8 4CF1000C 		adc	ip, ip, #0
 477              	.LVL61:
 478              		.loc 1 372 23 is_stmt 1 view .LVU152
 479              		.loc 1 372 39 is_stmt 0 view .LVU153
 480 01ec B40E     		lsrs	r4, r6, #26
 481              	.LVL62:
 482              		.loc 1 372 39 view .LVU154
 483 01ee 44EA8C14 		orr	r4, r4, ip, lsl #6
 484              	.LVL63:
 485              		.loc 1 372 47 is_stmt 1 view .LVU155
 486              		.loc 1 372 50 is_stmt 0 view .LVU156
 487 01f2 26F07C46 		bic	r6, r6, #-67108864
 488              	.LVL64:
 373:Middlewares/Third_Party/wolfSSL_wolfSSL_wolfSSL/wolfssl/wolfcrypt/src/poly1305.c ****         d3 += c;      c = (word32)(d3 >> 26); h3 = (word32)d3 & 0x3ffffff;
 489              		.loc 1 373 9 is_stmt 1 view .LVU157
 490              		.loc 1 373 12 is_stmt 0 view .LVU158
 491 01f6 E418     		adds	r4, r4, r3
 492              	.LVL65:
 493              		.loc 1 373 12 view .LVU159
 494 01f8 4EF1000E 		adc	lr, lr, #0
 495              	.LVL66:
 496              		.loc 1 373 23 is_stmt 1 view .LVU160
 497              		.loc 1 373 39 is_stmt 0 view .LVU161
 498 01fc 4FEA9468 		lsr	r8, r4, #26
 499 0200 48EA8E18 		orr	r8, r8, lr, lsl #6
 500              	.LVL67:
 501              		.loc 1 373 47 is_stmt 1 view .LVU162
 502              		.loc 1 373 50 is_stmt 0 view .LVU163
 503 0204 24F07C44 		bic	r4, r4, #-67108864
 504              	.LVL68:
 374:Middlewares/Third_Party/wolfSSL_wolfSSL_wolfSSL/wolfssl/wolfcrypt/src/poly1305.c ****         d4 += c;      c = (word32)(d4 >> 26); h4 = (word32)d4 & 0x3ffffff;
 505              		.loc 1 374 9 is_stmt 1 view .LVU164
 506              		.loc 1 374 12 is_stmt 0 view .LVU165
 507 0208 18EB0108 		adds	r8, r8, r1
 508              	.LVL69:
 509              		.loc 1 374 12 view .LVU166
 510 020c 40F10000 		adc	r0, r0, #0
 511              	.LVL70:
 512              		.loc 1 374 23 is_stmt 1 view .LVU167
 513              		.loc 1 374 39 is_stmt 0 view .LVU168
 514 0210 4FEA9863 		lsr	r3, r8, #26
 515              	.LVL71:
 516              		.loc 1 374 39 view .LVU169
 517 0214 43EA8013 		orr	r3, r3, r0, lsl #6
 518              	.LVL72:
 519              		.loc 1 374 47 is_stmt 1 view .LVU170
 520              		.loc 1 374 50 is_stmt 0 view .LVU171
 521 0218 28F07C48 		bic	r8, r8, #-67108864
 522              	.LVL73:
 375:Middlewares/Third_Party/wolfSSL_wolfSSL_wolfSSL/wolfssl/wolfcrypt/src/poly1305.c ****         h0 += c * 5;  c =  (h0 >> 26); h0 =                h0 & 0x3ffffff;
 523              		.loc 1 375 9 is_stmt 1 view .LVU172
ARM GAS  /tmp/ccGcaF1m.s 			page 17


 524              		.loc 1 375 17 is_stmt 0 view .LVU173
 525 021c 03EB8305 		add	r5, r3, r3, lsl #2
 526              	.LVL74:
 527              		.loc 1 375 12 view .LVU174
 528 0220 3D44     		add	r5, r5, r7
 529              	.LVL75:
 530              		.loc 1 375 23 is_stmt 1 view .LVU175
 531              		.loc 1 375 40 view .LVU176
 532              		.loc 1 375 43 is_stmt 0 view .LVU177
 533 0222 25F07C47 		bic	r7, r5, #-67108864
 534              	.LVL76:
 376:Middlewares/Third_Party/wolfSSL_wolfSSL_wolfSSL/wolfssl/wolfcrypt/src/poly1305.c ****         h1 += c;
 535              		.loc 1 376 9 is_stmt 1 view .LVU178
 536              		.loc 1 376 12 is_stmt 0 view .LVU179
 537 0226 0BEB9565 		add	r5, fp, r5, lsr #26
 538              	.LVL77:
 377:Middlewares/Third_Party/wolfSSL_wolfSSL_wolfSSL/wolfssl/wolfcrypt/src/poly1305.c **** 
 378:Middlewares/Third_Party/wolfSSL_wolfSSL_wolfSSL/wolfssl/wolfcrypt/src/poly1305.c ****         m += POLY1305_BLOCK_SIZE;
 539              		.loc 1 378 9 is_stmt 1 view .LVU180
 540              		.loc 1 378 11 is_stmt 0 view .LVU181
 541 022a 09F11009 		add	r9, r9, #16
 542              	.LVL78:
 379:Middlewares/Third_Party/wolfSSL_wolfSSL_wolfSSL/wolfssl/wolfcrypt/src/poly1305.c ****         bytes -= POLY1305_BLOCK_SIZE;
 543              		.loc 1 379 9 is_stmt 1 view .LVU182
 544              		.loc 1 379 15 is_stmt 0 view .LVU183
 545 022e 059B     		ldr	r3, [sp, #20]
 546              	.LVL79:
 547              		.loc 1 379 15 view .LVU184
 548 0230 103B     		subs	r3, r3, #16
 549 0232 0593     		str	r3, [sp, #20]
 550              	.LVL80:
 551              	.L5:
 349:Middlewares/Third_Party/wolfSSL_wolfSSL_wolfSSL/wolfssl/wolfcrypt/src/poly1305.c ****         /* h += m[i] */
 552              		.loc 1 349 11 is_stmt 1 view .LVU185
 553 0234 059B     		ldr	r3, [sp, #20]
 554 0236 0F2B     		cmp	r3, #15
 555 0238 3FF610AF 		bhi	.L6
 380:Middlewares/Third_Party/wolfSSL_wolfSSL_wolfSSL/wolfssl/wolfcrypt/src/poly1305.c ****     }
 381:Middlewares/Third_Party/wolfSSL_wolfSSL_wolfSSL/wolfssl/wolfcrypt/src/poly1305.c **** 
 382:Middlewares/Third_Party/wolfSSL_wolfSSL_wolfSSL/wolfssl/wolfcrypt/src/poly1305.c ****     ctx->h[0] = h0;
 556              		.loc 1 382 5 view .LVU186
 557              		.loc 1 382 15 is_stmt 0 view .LVU187
 558 023c 119B     		ldr	r3, [sp, #68]
 559 023e 5F61     		str	r7, [r3, #20]
 383:Middlewares/Third_Party/wolfSSL_wolfSSL_wolfSSL/wolfssl/wolfcrypt/src/poly1305.c ****     ctx->h[1] = h1;
 560              		.loc 1 383 5 is_stmt 1 view .LVU188
 561              		.loc 1 383 15 is_stmt 0 view .LVU189
 562 0240 9D61     		str	r5, [r3, #24]
 384:Middlewares/Third_Party/wolfSSL_wolfSSL_wolfSSL/wolfssl/wolfcrypt/src/poly1305.c ****     ctx->h[2] = h2;
 563              		.loc 1 384 5 is_stmt 1 view .LVU190
 564              		.loc 1 384 15 is_stmt 0 view .LVU191
 565 0242 DE61     		str	r6, [r3, #28]
 385:Middlewares/Third_Party/wolfSSL_wolfSSL_wolfSSL/wolfssl/wolfcrypt/src/poly1305.c ****     ctx->h[3] = h3;
 566              		.loc 1 385 5 is_stmt 1 view .LVU192
 567              		.loc 1 385 15 is_stmt 0 view .LVU193
 568 0244 1C62     		str	r4, [r3, #32]
 386:Middlewares/Third_Party/wolfSSL_wolfSSL_wolfSSL/wolfssl/wolfcrypt/src/poly1305.c ****     ctx->h[4] = h4;
ARM GAS  /tmp/ccGcaF1m.s 			page 18


 569              		.loc 1 386 5 is_stmt 1 view .LVU194
 570              		.loc 1 386 15 is_stmt 0 view .LVU195
 571 0246 C3F82480 		str	r8, [r3, #36]
 387:Middlewares/Third_Party/wolfSSL_wolfSSL_wolfSSL/wolfssl/wolfcrypt/src/poly1305.c **** 
 388:Middlewares/Third_Party/wolfSSL_wolfSSL_wolfSSL/wolfssl/wolfcrypt/src/poly1305.c **** #endif /* end of 64 bit cpu blocks or 32 bit cpu */
 389:Middlewares/Third_Party/wolfSSL_wolfSSL_wolfSSL/wolfssl/wolfcrypt/src/poly1305.c **** }
 572              		.loc 1 389 1 view .LVU196
 573 024a 13B0     		add	sp, sp, #76
 574              	.LCFI2:
 575              		.cfi_def_cfa_offset 36
 576              		@ sp needed
 577 024c BDE8F08F 		pop	{r4, r5, r6, r7, r8, r9, r10, fp, pc}
 578              		.loc 1 389 1 view .LVU197
 579              		.cfi_endproc
 580              	.LFE178:
 582              		.section	.text.poly1305_block,"ax",%progbits
 583              		.align	1
 584              		.syntax unified
 585              		.thumb
 586              		.thumb_func
 587              		.fpu fpv4-sp-d16
 589              	poly1305_block:
 590              	.LVL81:
 591              	.LFB179:
 390:Middlewares/Third_Party/wolfSSL_wolfSSL_wolfSSL/wolfssl/wolfcrypt/src/poly1305.c **** 
 391:Middlewares/Third_Party/wolfSSL_wolfSSL_wolfSSL/wolfssl/wolfcrypt/src/poly1305.c **** /*
 392:Middlewares/Third_Party/wolfSSL_wolfSSL_wolfSSL/wolfssl/wolfcrypt/src/poly1305.c **** This local function is used for the last call when a message with a given
 393:Middlewares/Third_Party/wolfSSL_wolfSSL_wolfSSL/wolfssl/wolfcrypt/src/poly1305.c **** number of bytes is less than the block size.
 394:Middlewares/Third_Party/wolfSSL_wolfSSL_wolfSSL/wolfssl/wolfcrypt/src/poly1305.c **** */
 395:Middlewares/Third_Party/wolfSSL_wolfSSL_wolfSSL/wolfssl/wolfcrypt/src/poly1305.c **** static void poly1305_block(Poly1305* ctx, const unsigned char *m)
 396:Middlewares/Third_Party/wolfSSL_wolfSSL_wolfSSL/wolfssl/wolfcrypt/src/poly1305.c **** {
 592              		.loc 1 396 1 is_stmt 1 view -0
 593              		.cfi_startproc
 594              		@ args = 0, pretend = 0, frame = 0
 595              		@ frame_needed = 0, uses_anonymous_args = 0
 596              		.loc 1 396 1 is_stmt 0 view .LVU199
 597 0000 08B5     		push	{r3, lr}
 598              	.LCFI3:
 599              		.cfi_def_cfa_offset 8
 600              		.cfi_offset 3, -8
 601              		.cfi_offset 14, -4
 397:Middlewares/Third_Party/wolfSSL_wolfSSL_wolfSSL/wolfssl/wolfcrypt/src/poly1305.c **** #ifdef USE_INTEL_SPEEDUP
 398:Middlewares/Third_Party/wolfSSL_wolfSSL_wolfSSL/wolfssl/wolfcrypt/src/poly1305.c ****     /* No call to poly1305_block when AVX2, AVX2 does 4 blocks at a time. */
 399:Middlewares/Third_Party/wolfSSL_wolfSSL_wolfSSL/wolfssl/wolfcrypt/src/poly1305.c ****     SAVE_VECTOR_REGISTERS();
 400:Middlewares/Third_Party/wolfSSL_wolfSSL_wolfSSL/wolfssl/wolfcrypt/src/poly1305.c ****     poly1305_block_avx(ctx, m);
 401:Middlewares/Third_Party/wolfSSL_wolfSSL_wolfSSL/wolfssl/wolfcrypt/src/poly1305.c ****     RESTORE_VECTOR_REGISTERS();
 402:Middlewares/Third_Party/wolfSSL_wolfSSL_wolfSSL/wolfssl/wolfcrypt/src/poly1305.c **** #else
 403:Middlewares/Third_Party/wolfSSL_wolfSSL_wolfSSL/wolfssl/wolfcrypt/src/poly1305.c ****     poly1305_blocks(ctx, m, POLY1305_BLOCK_SIZE);
 602              		.loc 1 403 5 is_stmt 1 view .LVU200
 603 0002 1022     		movs	r2, #16
 604 0004 FFF7FEFF 		bl	poly1305_blocks
 605              	.LVL82:
 404:Middlewares/Third_Party/wolfSSL_wolfSSL_wolfSSL/wolfssl/wolfcrypt/src/poly1305.c **** #endif
 405:Middlewares/Third_Party/wolfSSL_wolfSSL_wolfSSL/wolfssl/wolfcrypt/src/poly1305.c **** }
 606              		.loc 1 405 1 is_stmt 0 view .LVU201
 607 0008 08BD     		pop	{r3, pc}
 608              		.cfi_endproc
ARM GAS  /tmp/ccGcaF1m.s 			page 19


 609              	.LFE179:
 611              		.section	.text.wc_Poly1305SetKey,"ax",%progbits
 612              		.align	1
 613              		.global	wc_Poly1305SetKey
 614              		.syntax unified
 615              		.thumb
 616              		.thumb_func
 617              		.fpu fpv4-sp-d16
 619              	wc_Poly1305SetKey:
 620              	.LVL83:
 621              	.LFB180:
 406:Middlewares/Third_Party/wolfSSL_wolfSSL_wolfSSL/wolfssl/wolfcrypt/src/poly1305.c **** #endif /* !defined(WOLFSSL_ARMASM) || !defined(__aarch64__) */
 407:Middlewares/Third_Party/wolfSSL_wolfSSL_wolfSSL/wolfssl/wolfcrypt/src/poly1305.c **** 
 408:Middlewares/Third_Party/wolfSSL_wolfSSL_wolfSSL/wolfssl/wolfcrypt/src/poly1305.c **** #if !defined(WOLFSSL_ARMASM) || !defined(__aarch64__)
 409:Middlewares/Third_Party/wolfSSL_wolfSSL_wolfSSL/wolfssl/wolfcrypt/src/poly1305.c **** int wc_Poly1305SetKey(Poly1305* ctx, const byte* key, word32 keySz)
 410:Middlewares/Third_Party/wolfSSL_wolfSSL_wolfSSL/wolfssl/wolfcrypt/src/poly1305.c **** {
 622              		.loc 1 410 1 is_stmt 1 view -0
 623              		.cfi_startproc
 624              		@ args = 0, pretend = 0, frame = 0
 625              		@ frame_needed = 0, uses_anonymous_args = 0
 411:Middlewares/Third_Party/wolfSSL_wolfSSL_wolfSSL/wolfssl/wolfcrypt/src/poly1305.c **** #if defined(POLY130564) && !defined(USE_INTEL_SPEEDUP)
 412:Middlewares/Third_Party/wolfSSL_wolfSSL_wolfSSL/wolfssl/wolfcrypt/src/poly1305.c ****     word64 t0,t1;
 413:Middlewares/Third_Party/wolfSSL_wolfSSL_wolfSSL/wolfssl/wolfcrypt/src/poly1305.c **** #endif
 414:Middlewares/Third_Party/wolfSSL_wolfSSL_wolfSSL/wolfssl/wolfcrypt/src/poly1305.c **** 
 415:Middlewares/Third_Party/wolfSSL_wolfSSL_wolfSSL/wolfssl/wolfcrypt/src/poly1305.c ****     if (key == NULL)
 626              		.loc 1 415 5 view .LVU203
 627              		.loc 1 415 8 is_stmt 0 view .LVU204
 628 0000 0029     		cmp	r1, #0
 629 0002 4AD0     		beq	.L13
 410:Middlewares/Third_Party/wolfSSL_wolfSSL_wolfSSL/wolfssl/wolfcrypt/src/poly1305.c **** #if defined(POLY130564) && !defined(USE_INTEL_SPEEDUP)
 630              		.loc 1 410 1 view .LVU205
 631 0004 70B5     		push	{r4, r5, r6, lr}
 632              	.LCFI4:
 633              		.cfi_def_cfa_offset 16
 634              		.cfi_offset 4, -16
 635              		.cfi_offset 5, -12
 636              		.cfi_offset 6, -8
 637              		.cfi_offset 14, -4
 638 0006 0446     		mov	r4, r0
 639 0008 0E46     		mov	r6, r1
 416:Middlewares/Third_Party/wolfSSL_wolfSSL_wolfSSL/wolfssl/wolfcrypt/src/poly1305.c ****         return BAD_FUNC_ARG;
 417:Middlewares/Third_Party/wolfSSL_wolfSSL_wolfSSL/wolfssl/wolfcrypt/src/poly1305.c **** 
 418:Middlewares/Third_Party/wolfSSL_wolfSSL_wolfSSL/wolfssl/wolfcrypt/src/poly1305.c **** #ifdef CHACHA_AEAD_TEST
 419:Middlewares/Third_Party/wolfSSL_wolfSSL_wolfSSL/wolfssl/wolfcrypt/src/poly1305.c ****     word32 k;
 420:Middlewares/Third_Party/wolfSSL_wolfSSL_wolfSSL/wolfssl/wolfcrypt/src/poly1305.c ****     printf("Poly key used:\n");
 421:Middlewares/Third_Party/wolfSSL_wolfSSL_wolfSSL/wolfssl/wolfcrypt/src/poly1305.c ****     for (k = 0; k < keySz; k++) {
 422:Middlewares/Third_Party/wolfSSL_wolfSSL_wolfSSL/wolfssl/wolfcrypt/src/poly1305.c ****         printf("%02x", key[k]);
 423:Middlewares/Third_Party/wolfSSL_wolfSSL_wolfSSL/wolfssl/wolfcrypt/src/poly1305.c ****         if ((k+1) % 8 == 0)
 424:Middlewares/Third_Party/wolfSSL_wolfSSL_wolfSSL/wolfssl/wolfcrypt/src/poly1305.c ****             printf("\n");
 425:Middlewares/Third_Party/wolfSSL_wolfSSL_wolfSSL/wolfssl/wolfcrypt/src/poly1305.c ****     }
 426:Middlewares/Third_Party/wolfSSL_wolfSSL_wolfSSL/wolfssl/wolfcrypt/src/poly1305.c ****     printf("\n");
 427:Middlewares/Third_Party/wolfSSL_wolfSSL_wolfSSL/wolfssl/wolfcrypt/src/poly1305.c **** #endif
 428:Middlewares/Third_Party/wolfSSL_wolfSSL_wolfSSL/wolfssl/wolfcrypt/src/poly1305.c **** 
 429:Middlewares/Third_Party/wolfSSL_wolfSSL_wolfSSL/wolfssl/wolfcrypt/src/poly1305.c ****     if (keySz != 32 || ctx == NULL)
 640              		.loc 1 429 5 is_stmt 1 view .LVU206
 641              		.loc 1 429 8 is_stmt 0 view .LVU207
 642 000a 202A     		cmp	r2, #32
ARM GAS  /tmp/ccGcaF1m.s 			page 20


 643 000c 48D1     		bne	.L14
 644              		.loc 1 429 21 discriminator 1 view .LVU208
 645 000e 0028     		cmp	r0, #0
 646 0010 49D0     		beq	.L15
 430:Middlewares/Third_Party/wolfSSL_wolfSSL_wolfSSL/wolfssl/wolfcrypt/src/poly1305.c ****         return BAD_FUNC_ARG;
 431:Middlewares/Third_Party/wolfSSL_wolfSSL_wolfSSL/wolfssl/wolfcrypt/src/poly1305.c **** 
 432:Middlewares/Third_Party/wolfSSL_wolfSSL_wolfSSL/wolfssl/wolfcrypt/src/poly1305.c **** #ifdef USE_INTEL_SPEEDUP
 433:Middlewares/Third_Party/wolfSSL_wolfSSL_wolfSSL/wolfssl/wolfcrypt/src/poly1305.c ****     if (!cpu_flags_set) {
 434:Middlewares/Third_Party/wolfSSL_wolfSSL_wolfSSL/wolfssl/wolfcrypt/src/poly1305.c ****         intel_flags = cpuid_get_flags();
 435:Middlewares/Third_Party/wolfSSL_wolfSSL_wolfSSL/wolfssl/wolfcrypt/src/poly1305.c ****         cpu_flags_set = 1;
 436:Middlewares/Third_Party/wolfSSL_wolfSSL_wolfSSL/wolfssl/wolfcrypt/src/poly1305.c ****     }
 437:Middlewares/Third_Party/wolfSSL_wolfSSL_wolfSSL/wolfssl/wolfcrypt/src/poly1305.c ****     SAVE_VECTOR_REGISTERS();
 438:Middlewares/Third_Party/wolfSSL_wolfSSL_wolfSSL/wolfssl/wolfcrypt/src/poly1305.c ****     #ifdef HAVE_INTEL_AVX2
 439:Middlewares/Third_Party/wolfSSL_wolfSSL_wolfSSL/wolfssl/wolfcrypt/src/poly1305.c ****     if (IS_INTEL_AVX2(intel_flags))
 440:Middlewares/Third_Party/wolfSSL_wolfSSL_wolfSSL/wolfssl/wolfcrypt/src/poly1305.c ****         poly1305_setkey_avx2(ctx, key);
 441:Middlewares/Third_Party/wolfSSL_wolfSSL_wolfSSL/wolfssl/wolfcrypt/src/poly1305.c ****     else
 442:Middlewares/Third_Party/wolfSSL_wolfSSL_wolfSSL/wolfssl/wolfcrypt/src/poly1305.c ****     #endif
 443:Middlewares/Third_Party/wolfSSL_wolfSSL_wolfSSL/wolfssl/wolfcrypt/src/poly1305.c ****         poly1305_setkey_avx(ctx, key);
 444:Middlewares/Third_Party/wolfSSL_wolfSSL_wolfSSL/wolfssl/wolfcrypt/src/poly1305.c ****     RESTORE_VECTOR_REGISTERS();
 445:Middlewares/Third_Party/wolfSSL_wolfSSL_wolfSSL/wolfssl/wolfcrypt/src/poly1305.c **** #elif defined(POLY130564)
 446:Middlewares/Third_Party/wolfSSL_wolfSSL_wolfSSL/wolfssl/wolfcrypt/src/poly1305.c **** 
 447:Middlewares/Third_Party/wolfSSL_wolfSSL_wolfSSL/wolfssl/wolfcrypt/src/poly1305.c ****     /* r &= 0xffffffc0ffffffc0ffffffc0fffffff */
 448:Middlewares/Third_Party/wolfSSL_wolfSSL_wolfSSL/wolfssl/wolfcrypt/src/poly1305.c ****     t0 = U8TO64(key + 0);
 449:Middlewares/Third_Party/wolfSSL_wolfSSL_wolfSSL/wolfssl/wolfcrypt/src/poly1305.c ****     t1 = U8TO64(key + 8);
 450:Middlewares/Third_Party/wolfSSL_wolfSSL_wolfSSL/wolfssl/wolfcrypt/src/poly1305.c **** 
 451:Middlewares/Third_Party/wolfSSL_wolfSSL_wolfSSL/wolfssl/wolfcrypt/src/poly1305.c ****     ctx->r[0] = ( t0                    ) & 0xffc0fffffff;
 452:Middlewares/Third_Party/wolfSSL_wolfSSL_wolfSSL/wolfssl/wolfcrypt/src/poly1305.c ****     ctx->r[1] = ((t0 >> 44) | (t1 << 20)) & 0xfffffc0ffff;
 453:Middlewares/Third_Party/wolfSSL_wolfSSL_wolfSSL/wolfssl/wolfcrypt/src/poly1305.c ****     ctx->r[2] = ((t1 >> 24)             ) & 0x00ffffffc0f;
 454:Middlewares/Third_Party/wolfSSL_wolfSSL_wolfSSL/wolfssl/wolfcrypt/src/poly1305.c **** 
 455:Middlewares/Third_Party/wolfSSL_wolfSSL_wolfSSL/wolfssl/wolfcrypt/src/poly1305.c ****     /* h (accumulator) = 0 */
 456:Middlewares/Third_Party/wolfSSL_wolfSSL_wolfSSL/wolfssl/wolfcrypt/src/poly1305.c ****     ctx->h[0] = 0;
 457:Middlewares/Third_Party/wolfSSL_wolfSSL_wolfSSL/wolfssl/wolfcrypt/src/poly1305.c ****     ctx->h[1] = 0;
 458:Middlewares/Third_Party/wolfSSL_wolfSSL_wolfSSL/wolfssl/wolfcrypt/src/poly1305.c ****     ctx->h[2] = 0;
 459:Middlewares/Third_Party/wolfSSL_wolfSSL_wolfSSL/wolfssl/wolfcrypt/src/poly1305.c **** 
 460:Middlewares/Third_Party/wolfSSL_wolfSSL_wolfSSL/wolfssl/wolfcrypt/src/poly1305.c ****     /* save pad for later */
 461:Middlewares/Third_Party/wolfSSL_wolfSSL_wolfSSL/wolfssl/wolfcrypt/src/poly1305.c ****     ctx->pad[0] = U8TO64(key + 16);
 462:Middlewares/Third_Party/wolfSSL_wolfSSL_wolfSSL/wolfssl/wolfcrypt/src/poly1305.c ****     ctx->pad[1] = U8TO64(key + 24);
 463:Middlewares/Third_Party/wolfSSL_wolfSSL_wolfSSL/wolfssl/wolfcrypt/src/poly1305.c **** 
 464:Middlewares/Third_Party/wolfSSL_wolfSSL_wolfSSL/wolfssl/wolfcrypt/src/poly1305.c ****     ctx->leftover = 0;
 465:Middlewares/Third_Party/wolfSSL_wolfSSL_wolfSSL/wolfssl/wolfcrypt/src/poly1305.c ****     ctx->finished = 0;
 466:Middlewares/Third_Party/wolfSSL_wolfSSL_wolfSSL/wolfssl/wolfcrypt/src/poly1305.c **** 
 467:Middlewares/Third_Party/wolfSSL_wolfSSL_wolfSSL/wolfssl/wolfcrypt/src/poly1305.c **** #else /* if not 64 bit then use 32 bit */
 468:Middlewares/Third_Party/wolfSSL_wolfSSL_wolfSSL/wolfssl/wolfcrypt/src/poly1305.c **** 
 469:Middlewares/Third_Party/wolfSSL_wolfSSL_wolfSSL/wolfssl/wolfcrypt/src/poly1305.c ****     /* r &= 0xffffffc0ffffffc0ffffffc0fffffff */
 470:Middlewares/Third_Party/wolfSSL_wolfSSL_wolfSSL/wolfssl/wolfcrypt/src/poly1305.c ****     ctx->r[0] = (U8TO32(key +  0)     ) & 0x3ffffff;
 647              		.loc 1 470 5 is_stmt 1 view .LVU209
 648              		.loc 1 470 18 is_stmt 0 view .LVU210
 649 0012 0846     		mov	r0, r1
 650              	.LVL84:
 651              		.loc 1 470 18 view .LVU211
 652 0014 FFF7FEFF 		bl	U8TO32
 653              	.LVL85:
 654              		.loc 1 470 41 view .LVU212
 655 0018 20F07C40 		bic	r0, r0, #-67108864
 656              		.loc 1 470 15 view .LVU213
 657 001c 2060     		str	r0, [r4]
 471:Middlewares/Third_Party/wolfSSL_wolfSSL_wolfSSL/wolfssl/wolfcrypt/src/poly1305.c ****     ctx->r[1] = (U8TO32(key +  3) >> 2) & 0x3ffff03;
ARM GAS  /tmp/ccGcaF1m.s 			page 21


 658              		.loc 1 471 5 is_stmt 1 view .LVU214
 659              		.loc 1 471 18 is_stmt 0 view .LVU215
 660 001e F01C     		adds	r0, r6, #3
 661 0020 FFF7FEFF 		bl	U8TO32
 662              	.LVL86:
 663              		.loc 1 471 41 view .LVU216
 664 0024 C0F39900 		ubfx	r0, r0, #2, #26
 665 0028 20F0FC00 		bic	r0, r0, #252
 666              		.loc 1 471 15 view .LVU217
 667 002c 6060     		str	r0, [r4, #4]
 472:Middlewares/Third_Party/wolfSSL_wolfSSL_wolfSSL/wolfssl/wolfcrypt/src/poly1305.c ****     ctx->r[2] = (U8TO32(key +  6) >> 4) & 0x3ffc0ff;
 668              		.loc 1 472 5 is_stmt 1 view .LVU218
 669              		.loc 1 472 18 is_stmt 0 view .LVU219
 670 002e B01D     		adds	r0, r6, #6
 671 0030 FFF7FEFF 		bl	U8TO32
 672              	.LVL87:
 673              		.loc 1 472 41 view .LVU220
 674 0034 C0F31910 		ubfx	r0, r0, #4, #26
 675 0038 20F47C50 		bic	r0, r0, #16128
 676              		.loc 1 472 15 view .LVU221
 677 003c A060     		str	r0, [r4, #8]
 473:Middlewares/Third_Party/wolfSSL_wolfSSL_wolfSSL/wolfssl/wolfcrypt/src/poly1305.c ****     ctx->r[3] = (U8TO32(key +  9) >> 6) & 0x3f03fff;
 678              		.loc 1 473 5 is_stmt 1 view .LVU222
 679              		.loc 1 473 18 is_stmt 0 view .LVU223
 680 003e 06F10900 		add	r0, r6, #9
 681 0042 FFF7FEFF 		bl	U8TO32
 682              	.LVL88:
 683              		.loc 1 473 41 view .LVU224
 684 0046 8009     		lsrs	r0, r0, #6
 685 0048 20F47C20 		bic	r0, r0, #1032192
 686              		.loc 1 473 15 view .LVU225
 687 004c E060     		str	r0, [r4, #12]
 474:Middlewares/Third_Party/wolfSSL_wolfSSL_wolfSSL/wolfssl/wolfcrypt/src/poly1305.c ****     ctx->r[4] = (U8TO32(key + 12) >> 8) & 0x00fffff;
 688              		.loc 1 474 5 is_stmt 1 view .LVU226
 689              		.loc 1 474 18 is_stmt 0 view .LVU227
 690 004e 06F10C00 		add	r0, r6, #12
 691 0052 FFF7FEFF 		bl	U8TO32
 692              	.LVL89:
 693              		.loc 1 474 41 view .LVU228
 694 0056 C0F31320 		ubfx	r0, r0, #8, #20
 695              		.loc 1 474 15 view .LVU229
 696 005a 2061     		str	r0, [r4, #16]
 475:Middlewares/Third_Party/wolfSSL_wolfSSL_wolfSSL/wolfssl/wolfcrypt/src/poly1305.c **** 
 476:Middlewares/Third_Party/wolfSSL_wolfSSL_wolfSSL/wolfssl/wolfcrypt/src/poly1305.c ****     /* h = 0 */
 477:Middlewares/Third_Party/wolfSSL_wolfSSL_wolfSSL/wolfssl/wolfcrypt/src/poly1305.c ****     ctx->h[0] = 0;
 697              		.loc 1 477 5 is_stmt 1 view .LVU230
 698              		.loc 1 477 15 is_stmt 0 view .LVU231
 699 005c 0025     		movs	r5, #0
 700 005e 6561     		str	r5, [r4, #20]
 478:Middlewares/Third_Party/wolfSSL_wolfSSL_wolfSSL/wolfssl/wolfcrypt/src/poly1305.c ****     ctx->h[1] = 0;
 701              		.loc 1 478 5 is_stmt 1 view .LVU232
 702              		.loc 1 478 15 is_stmt 0 view .LVU233
 703 0060 A561     		str	r5, [r4, #24]
 479:Middlewares/Third_Party/wolfSSL_wolfSSL_wolfSSL/wolfssl/wolfcrypt/src/poly1305.c ****     ctx->h[2] = 0;
 704              		.loc 1 479 5 is_stmt 1 view .LVU234
 705              		.loc 1 479 15 is_stmt 0 view .LVU235
 706 0062 E561     		str	r5, [r4, #28]
ARM GAS  /tmp/ccGcaF1m.s 			page 22


 480:Middlewares/Third_Party/wolfSSL_wolfSSL_wolfSSL/wolfssl/wolfcrypt/src/poly1305.c ****     ctx->h[3] = 0;
 707              		.loc 1 480 5 is_stmt 1 view .LVU236
 708              		.loc 1 480 15 is_stmt 0 view .LVU237
 709 0064 2562     		str	r5, [r4, #32]
 481:Middlewares/Third_Party/wolfSSL_wolfSSL_wolfSSL/wolfssl/wolfcrypt/src/poly1305.c ****     ctx->h[4] = 0;
 710              		.loc 1 481 5 is_stmt 1 view .LVU238
 711              		.loc 1 481 15 is_stmt 0 view .LVU239
 712 0066 6562     		str	r5, [r4, #36]
 482:Middlewares/Third_Party/wolfSSL_wolfSSL_wolfSSL/wolfssl/wolfcrypt/src/poly1305.c **** 
 483:Middlewares/Third_Party/wolfSSL_wolfSSL_wolfSSL/wolfssl/wolfcrypt/src/poly1305.c ****     /* save pad for later */
 484:Middlewares/Third_Party/wolfSSL_wolfSSL_wolfSSL/wolfssl/wolfcrypt/src/poly1305.c ****     ctx->pad[0] = U8TO32(key + 16);
 713              		.loc 1 484 5 is_stmt 1 view .LVU240
 714              		.loc 1 484 19 is_stmt 0 view .LVU241
 715 0068 06F11000 		add	r0, r6, #16
 716 006c FFF7FEFF 		bl	U8TO32
 717              	.LVL90:
 718              		.loc 1 484 17 view .LVU242
 719 0070 A062     		str	r0, [r4, #40]
 485:Middlewares/Third_Party/wolfSSL_wolfSSL_wolfSSL/wolfssl/wolfcrypt/src/poly1305.c ****     ctx->pad[1] = U8TO32(key + 20);
 720              		.loc 1 485 5 is_stmt 1 view .LVU243
 721              		.loc 1 485 19 is_stmt 0 view .LVU244
 722 0072 06F11400 		add	r0, r6, #20
 723 0076 FFF7FEFF 		bl	U8TO32
 724              	.LVL91:
 725              		.loc 1 485 17 view .LVU245
 726 007a E062     		str	r0, [r4, #44]
 486:Middlewares/Third_Party/wolfSSL_wolfSSL_wolfSSL/wolfssl/wolfcrypt/src/poly1305.c ****     ctx->pad[2] = U8TO32(key + 24);
 727              		.loc 1 486 5 is_stmt 1 view .LVU246
 728              		.loc 1 486 19 is_stmt 0 view .LVU247
 729 007c 06F11800 		add	r0, r6, #24
 730 0080 FFF7FEFF 		bl	U8TO32
 731              	.LVL92:
 732              		.loc 1 486 17 view .LVU248
 733 0084 2063     		str	r0, [r4, #48]
 487:Middlewares/Third_Party/wolfSSL_wolfSSL_wolfSSL/wolfssl/wolfcrypt/src/poly1305.c ****     ctx->pad[3] = U8TO32(key + 28);
 734              		.loc 1 487 5 is_stmt 1 view .LVU249
 735              		.loc 1 487 19 is_stmt 0 view .LVU250
 736 0086 06F11C00 		add	r0, r6, #28
 737 008a FFF7FEFF 		bl	U8TO32
 738              	.LVL93:
 739              		.loc 1 487 17 view .LVU251
 740 008e 6063     		str	r0, [r4, #52]
 488:Middlewares/Third_Party/wolfSSL_wolfSSL_wolfSSL/wolfssl/wolfcrypt/src/poly1305.c **** 
 489:Middlewares/Third_Party/wolfSSL_wolfSSL_wolfSSL/wolfssl/wolfcrypt/src/poly1305.c ****     ctx->leftover = 0;
 741              		.loc 1 489 5 is_stmt 1 view .LVU252
 742              		.loc 1 489 19 is_stmt 0 view .LVU253
 743 0090 A563     		str	r5, [r4, #56]
 490:Middlewares/Third_Party/wolfSSL_wolfSSL_wolfSSL/wolfssl/wolfcrypt/src/poly1305.c ****     ctx->finished = 0;
 744              		.loc 1 490 5 is_stmt 1 view .LVU254
 745              		.loc 1 490 19 is_stmt 0 view .LVU255
 746 0092 84F84C50 		strb	r5, [r4, #76]
 491:Middlewares/Third_Party/wolfSSL_wolfSSL_wolfSSL/wolfssl/wolfcrypt/src/poly1305.c **** 
 492:Middlewares/Third_Party/wolfSSL_wolfSSL_wolfSSL/wolfssl/wolfcrypt/src/poly1305.c **** #endif
 493:Middlewares/Third_Party/wolfSSL_wolfSSL_wolfSSL/wolfssl/wolfcrypt/src/poly1305.c **** 
 494:Middlewares/Third_Party/wolfSSL_wolfSSL_wolfSSL/wolfssl/wolfcrypt/src/poly1305.c ****     return 0;
 747              		.loc 1 494 5 is_stmt 1 view .LVU256
 748              		.loc 1 494 12 is_stmt 0 view .LVU257
ARM GAS  /tmp/ccGcaF1m.s 			page 23


 749 0096 2846     		mov	r0, r5
 750              	.L11:
 495:Middlewares/Third_Party/wolfSSL_wolfSSL_wolfSSL/wolfssl/wolfcrypt/src/poly1305.c **** }
 751              		.loc 1 495 1 view .LVU258
 752 0098 70BD     		pop	{r4, r5, r6, pc}
 753              	.LVL94:
 754              	.L13:
 755              	.LCFI5:
 756              		.cfi_def_cfa_offset 0
 757              		.cfi_restore 4
 758              		.cfi_restore 5
 759              		.cfi_restore 6
 760              		.cfi_restore 14
 416:Middlewares/Third_Party/wolfSSL_wolfSSL_wolfSSL/wolfssl/wolfcrypt/src/poly1305.c **** 
 761              		.loc 1 416 16 view .LVU259
 762 009a 6FF0AC00 		mvn	r0, #172
 763              	.LVL95:
 764              		.loc 1 495 1 view .LVU260
 765 009e 7047     		bx	lr
 766              	.LVL96:
 767              	.L14:
 768              	.LCFI6:
 769              		.cfi_def_cfa_offset 16
 770              		.cfi_offset 4, -16
 771              		.cfi_offset 5, -12
 772              		.cfi_offset 6, -8
 773              		.cfi_offset 14, -4
 430:Middlewares/Third_Party/wolfSSL_wolfSSL_wolfSSL/wolfssl/wolfcrypt/src/poly1305.c **** 
 774              		.loc 1 430 16 view .LVU261
 775 00a0 6FF0AC00 		mvn	r0, #172
 776              	.LVL97:
 430:Middlewares/Third_Party/wolfSSL_wolfSSL_wolfSSL/wolfssl/wolfcrypt/src/poly1305.c **** 
 777              		.loc 1 430 16 view .LVU262
 778 00a4 F8E7     		b	.L11
 779              	.LVL98:
 780              	.L15:
 430:Middlewares/Third_Party/wolfSSL_wolfSSL_wolfSSL/wolfssl/wolfcrypt/src/poly1305.c **** 
 781              		.loc 1 430 16 view .LVU263
 782 00a6 6FF0AC00 		mvn	r0, #172
 783              	.LVL99:
 430:Middlewares/Third_Party/wolfSSL_wolfSSL_wolfSSL/wolfssl/wolfcrypt/src/poly1305.c **** 
 784              		.loc 1 430 16 view .LVU264
 785 00aa F5E7     		b	.L11
 786              		.cfi_endproc
 787              	.LFE180:
 789              		.section	.text.wc_Poly1305Final,"ax",%progbits
 790              		.align	1
 791              		.global	wc_Poly1305Final
 792              		.syntax unified
 793              		.thumb
 794              		.thumb_func
 795              		.fpu fpv4-sp-d16
 797              	wc_Poly1305Final:
 798              	.LVL100:
 799              	.LFB181:
 496:Middlewares/Third_Party/wolfSSL_wolfSSL_wolfSSL/wolfssl/wolfcrypt/src/poly1305.c **** 
 497:Middlewares/Third_Party/wolfSSL_wolfSSL_wolfSSL/wolfssl/wolfcrypt/src/poly1305.c **** int wc_Poly1305Final(Poly1305* ctx, byte* mac)
ARM GAS  /tmp/ccGcaF1m.s 			page 24


 498:Middlewares/Third_Party/wolfSSL_wolfSSL_wolfSSL/wolfssl/wolfcrypt/src/poly1305.c **** {
 800              		.loc 1 498 1 is_stmt 1 view -0
 801              		.cfi_startproc
 802              		@ args = 0, pretend = 0, frame = 0
 803              		@ frame_needed = 0, uses_anonymous_args = 0
 499:Middlewares/Third_Party/wolfSSL_wolfSSL_wolfSSL/wolfssl/wolfcrypt/src/poly1305.c **** #ifdef USE_INTEL_SPEEDUP
 500:Middlewares/Third_Party/wolfSSL_wolfSSL_wolfSSL/wolfssl/wolfcrypt/src/poly1305.c **** #elif defined(POLY130564)
 501:Middlewares/Third_Party/wolfSSL_wolfSSL_wolfSSL/wolfssl/wolfcrypt/src/poly1305.c **** 
 502:Middlewares/Third_Party/wolfSSL_wolfSSL_wolfSSL/wolfssl/wolfcrypt/src/poly1305.c ****     word64 h0,h1,h2,c;
 503:Middlewares/Third_Party/wolfSSL_wolfSSL_wolfSSL/wolfssl/wolfcrypt/src/poly1305.c ****     word64 g0,g1,g2;
 504:Middlewares/Third_Party/wolfSSL_wolfSSL_wolfSSL/wolfssl/wolfcrypt/src/poly1305.c ****     word64 t0,t1;
 505:Middlewares/Third_Party/wolfSSL_wolfSSL_wolfSSL/wolfssl/wolfcrypt/src/poly1305.c **** 
 506:Middlewares/Third_Party/wolfSSL_wolfSSL_wolfSSL/wolfssl/wolfcrypt/src/poly1305.c **** #else
 507:Middlewares/Third_Party/wolfSSL_wolfSSL_wolfSSL/wolfssl/wolfcrypt/src/poly1305.c **** 
 508:Middlewares/Third_Party/wolfSSL_wolfSSL_wolfSSL/wolfssl/wolfcrypt/src/poly1305.c ****     word32 h0,h1,h2,h3,h4,c;
 804              		.loc 1 508 5 view .LVU266
 509:Middlewares/Third_Party/wolfSSL_wolfSSL_wolfSSL/wolfssl/wolfcrypt/src/poly1305.c ****     word32 g0,g1,g2,g3,g4;
 805              		.loc 1 509 5 view .LVU267
 510:Middlewares/Third_Party/wolfSSL_wolfSSL_wolfSSL/wolfssl/wolfcrypt/src/poly1305.c ****     word64 f;
 806              		.loc 1 510 5 view .LVU268
 511:Middlewares/Third_Party/wolfSSL_wolfSSL_wolfSSL/wolfssl/wolfcrypt/src/poly1305.c ****     word32 mask;
 807              		.loc 1 511 5 view .LVU269
 512:Middlewares/Third_Party/wolfSSL_wolfSSL_wolfSSL/wolfssl/wolfcrypt/src/poly1305.c **** 
 513:Middlewares/Third_Party/wolfSSL_wolfSSL_wolfSSL/wolfssl/wolfcrypt/src/poly1305.c **** #endif
 514:Middlewares/Third_Party/wolfSSL_wolfSSL_wolfSSL/wolfssl/wolfcrypt/src/poly1305.c **** 
 515:Middlewares/Third_Party/wolfSSL_wolfSSL_wolfSSL/wolfssl/wolfcrypt/src/poly1305.c ****     if (ctx == NULL || mac == NULL)
 808              		.loc 1 515 5 view .LVU270
 809              		.loc 1 515 8 is_stmt 0 view .LVU271
 810 0000 0028     		cmp	r0, #0
 811 0002 00F0B480 		beq	.L25
 498:Middlewares/Third_Party/wolfSSL_wolfSSL_wolfSSL/wolfssl/wolfcrypt/src/poly1305.c **** #ifdef USE_INTEL_SPEEDUP
 812              		.loc 1 498 1 discriminator 1 view .LVU272
 813 0006 2DE9F84F 		push	{r3, r4, r5, r6, r7, r8, r9, r10, fp, lr}
 814              	.LCFI7:
 815              		.cfi_def_cfa_offset 40
 816              		.cfi_offset 3, -40
 817              		.cfi_offset 4, -36
 818              		.cfi_offset 5, -32
 819              		.cfi_offset 6, -28
 820              		.cfi_offset 7, -24
 821              		.cfi_offset 8, -20
 822              		.cfi_offset 9, -16
 823              		.cfi_offset 10, -12
 824              		.cfi_offset 11, -8
 825              		.cfi_offset 14, -4
 826 000a 0E46     		mov	r6, r1
 827 000c 0446     		mov	r4, r0
 828              		.loc 1 515 21 discriminator 1 view .LVU273
 829 000e 0029     		cmp	r1, #0
 830 0010 00F0B080 		beq	.L26
 516:Middlewares/Third_Party/wolfSSL_wolfSSL_wolfSSL/wolfssl/wolfcrypt/src/poly1305.c ****         return BAD_FUNC_ARG;
 517:Middlewares/Third_Party/wolfSSL_wolfSSL_wolfSSL/wolfssl/wolfcrypt/src/poly1305.c **** 
 518:Middlewares/Third_Party/wolfSSL_wolfSSL_wolfSSL/wolfssl/wolfcrypt/src/poly1305.c **** #ifdef USE_INTEL_SPEEDUP
 519:Middlewares/Third_Party/wolfSSL_wolfSSL_wolfSSL/wolfssl/wolfcrypt/src/poly1305.c ****     SAVE_VECTOR_REGISTERS();
 520:Middlewares/Third_Party/wolfSSL_wolfSSL_wolfSSL/wolfssl/wolfcrypt/src/poly1305.c ****     #ifdef HAVE_INTEL_AVX2
 521:Middlewares/Third_Party/wolfSSL_wolfSSL_wolfSSL/wolfssl/wolfcrypt/src/poly1305.c ****     if (IS_INTEL_AVX2(intel_flags))
 522:Middlewares/Third_Party/wolfSSL_wolfSSL_wolfSSL/wolfssl/wolfcrypt/src/poly1305.c ****         poly1305_final_avx2(ctx, mac);
ARM GAS  /tmp/ccGcaF1m.s 			page 25


 523:Middlewares/Third_Party/wolfSSL_wolfSSL_wolfSSL/wolfssl/wolfcrypt/src/poly1305.c ****     else
 524:Middlewares/Third_Party/wolfSSL_wolfSSL_wolfSSL/wolfssl/wolfcrypt/src/poly1305.c ****     #endif
 525:Middlewares/Third_Party/wolfSSL_wolfSSL_wolfSSL/wolfssl/wolfcrypt/src/poly1305.c ****         poly1305_final_avx(ctx, mac);
 526:Middlewares/Third_Party/wolfSSL_wolfSSL_wolfSSL/wolfssl/wolfcrypt/src/poly1305.c ****     RESTORE_VECTOR_REGISTERS();
 527:Middlewares/Third_Party/wolfSSL_wolfSSL_wolfSSL/wolfssl/wolfcrypt/src/poly1305.c **** #elif defined(POLY130564)
 528:Middlewares/Third_Party/wolfSSL_wolfSSL_wolfSSL/wolfssl/wolfcrypt/src/poly1305.c **** 
 529:Middlewares/Third_Party/wolfSSL_wolfSSL_wolfSSL/wolfssl/wolfcrypt/src/poly1305.c ****     /* process the remaining block */
 530:Middlewares/Third_Party/wolfSSL_wolfSSL_wolfSSL/wolfssl/wolfcrypt/src/poly1305.c ****     if (ctx->leftover) {
 531:Middlewares/Third_Party/wolfSSL_wolfSSL_wolfSSL/wolfssl/wolfcrypt/src/poly1305.c ****         size_t i = ctx->leftover;
 532:Middlewares/Third_Party/wolfSSL_wolfSSL_wolfSSL/wolfssl/wolfcrypt/src/poly1305.c ****         ctx->buffer[i] = 1;
 533:Middlewares/Third_Party/wolfSSL_wolfSSL_wolfSSL/wolfssl/wolfcrypt/src/poly1305.c ****         for (i = i + 1; i < POLY1305_BLOCK_SIZE; i++)
 534:Middlewares/Third_Party/wolfSSL_wolfSSL_wolfSSL/wolfssl/wolfcrypt/src/poly1305.c ****             ctx->buffer[i] = 0;
 535:Middlewares/Third_Party/wolfSSL_wolfSSL_wolfSSL/wolfssl/wolfcrypt/src/poly1305.c ****         ctx->finished = 1;
 536:Middlewares/Third_Party/wolfSSL_wolfSSL_wolfSSL/wolfssl/wolfcrypt/src/poly1305.c ****         poly1305_block(ctx, ctx->buffer);
 537:Middlewares/Third_Party/wolfSSL_wolfSSL_wolfSSL/wolfssl/wolfcrypt/src/poly1305.c ****     }
 538:Middlewares/Third_Party/wolfSSL_wolfSSL_wolfSSL/wolfssl/wolfcrypt/src/poly1305.c **** 
 539:Middlewares/Third_Party/wolfSSL_wolfSSL_wolfSSL/wolfssl/wolfcrypt/src/poly1305.c ****     /* fully carry h */
 540:Middlewares/Third_Party/wolfSSL_wolfSSL_wolfSSL/wolfssl/wolfcrypt/src/poly1305.c ****     h0 = ctx->h[0];
 541:Middlewares/Third_Party/wolfSSL_wolfSSL_wolfSSL/wolfssl/wolfcrypt/src/poly1305.c ****     h1 = ctx->h[1];
 542:Middlewares/Third_Party/wolfSSL_wolfSSL_wolfSSL/wolfssl/wolfcrypt/src/poly1305.c ****     h2 = ctx->h[2];
 543:Middlewares/Third_Party/wolfSSL_wolfSSL_wolfSSL/wolfssl/wolfcrypt/src/poly1305.c **** 
 544:Middlewares/Third_Party/wolfSSL_wolfSSL_wolfSSL/wolfssl/wolfcrypt/src/poly1305.c ****                  c = (h1 >> 44); h1 &= 0xfffffffffff;
 545:Middlewares/Third_Party/wolfSSL_wolfSSL_wolfSSL/wolfssl/wolfcrypt/src/poly1305.c ****     h2 += c;     c = (h2 >> 42); h2 &= 0x3ffffffffff;
 546:Middlewares/Third_Party/wolfSSL_wolfSSL_wolfSSL/wolfssl/wolfcrypt/src/poly1305.c ****     h0 += c * 5; c = (h0 >> 44); h0 &= 0xfffffffffff;
 547:Middlewares/Third_Party/wolfSSL_wolfSSL_wolfSSL/wolfssl/wolfcrypt/src/poly1305.c ****     h1 += c;     c = (h1 >> 44); h1 &= 0xfffffffffff;
 548:Middlewares/Third_Party/wolfSSL_wolfSSL_wolfSSL/wolfssl/wolfcrypt/src/poly1305.c ****     h2 += c;     c = (h2 >> 42); h2 &= 0x3ffffffffff;
 549:Middlewares/Third_Party/wolfSSL_wolfSSL_wolfSSL/wolfssl/wolfcrypt/src/poly1305.c ****     h0 += c * 5; c = (h0 >> 44); h0 &= 0xfffffffffff;
 550:Middlewares/Third_Party/wolfSSL_wolfSSL_wolfSSL/wolfssl/wolfcrypt/src/poly1305.c ****     h1 += c;
 551:Middlewares/Third_Party/wolfSSL_wolfSSL_wolfSSL/wolfssl/wolfcrypt/src/poly1305.c **** 
 552:Middlewares/Third_Party/wolfSSL_wolfSSL_wolfSSL/wolfssl/wolfcrypt/src/poly1305.c ****     /* compute h + -p */
 553:Middlewares/Third_Party/wolfSSL_wolfSSL_wolfSSL/wolfssl/wolfcrypt/src/poly1305.c ****     g0 = h0 + 5; c = (g0 >> 44); g0 &= 0xfffffffffff;
 554:Middlewares/Third_Party/wolfSSL_wolfSSL_wolfSSL/wolfssl/wolfcrypt/src/poly1305.c ****     g1 = h1 + c; c = (g1 >> 44); g1 &= 0xfffffffffff;
 555:Middlewares/Third_Party/wolfSSL_wolfSSL_wolfSSL/wolfssl/wolfcrypt/src/poly1305.c ****     g2 = h2 + c - ((word64)1 << 42);
 556:Middlewares/Third_Party/wolfSSL_wolfSSL_wolfSSL/wolfssl/wolfcrypt/src/poly1305.c **** 
 557:Middlewares/Third_Party/wolfSSL_wolfSSL_wolfSSL/wolfssl/wolfcrypt/src/poly1305.c ****     /* select h if h < p, or h + -p if h >= p */
 558:Middlewares/Third_Party/wolfSSL_wolfSSL_wolfSSL/wolfssl/wolfcrypt/src/poly1305.c ****     c = (g2 >> ((sizeof(word64) * 8) - 1)) - 1;
 559:Middlewares/Third_Party/wolfSSL_wolfSSL_wolfSSL/wolfssl/wolfcrypt/src/poly1305.c ****     g0 &= c;
 560:Middlewares/Third_Party/wolfSSL_wolfSSL_wolfSSL/wolfssl/wolfcrypt/src/poly1305.c ****     g1 &= c;
 561:Middlewares/Third_Party/wolfSSL_wolfSSL_wolfSSL/wolfssl/wolfcrypt/src/poly1305.c ****     g2 &= c;
 562:Middlewares/Third_Party/wolfSSL_wolfSSL_wolfSSL/wolfssl/wolfcrypt/src/poly1305.c ****     c = ~c;
 563:Middlewares/Third_Party/wolfSSL_wolfSSL_wolfSSL/wolfssl/wolfcrypt/src/poly1305.c ****     h0 = (h0 & c) | g0;
 564:Middlewares/Third_Party/wolfSSL_wolfSSL_wolfSSL/wolfssl/wolfcrypt/src/poly1305.c ****     h1 = (h1 & c) | g1;
 565:Middlewares/Third_Party/wolfSSL_wolfSSL_wolfSSL/wolfssl/wolfcrypt/src/poly1305.c ****     h2 = (h2 & c) | g2;
 566:Middlewares/Third_Party/wolfSSL_wolfSSL_wolfSSL/wolfssl/wolfcrypt/src/poly1305.c **** 
 567:Middlewares/Third_Party/wolfSSL_wolfSSL_wolfSSL/wolfssl/wolfcrypt/src/poly1305.c ****     /* h = (h + pad) */
 568:Middlewares/Third_Party/wolfSSL_wolfSSL_wolfSSL/wolfssl/wolfcrypt/src/poly1305.c ****     t0 = ctx->pad[0];
 569:Middlewares/Third_Party/wolfSSL_wolfSSL_wolfSSL/wolfssl/wolfcrypt/src/poly1305.c ****     t1 = ctx->pad[1];
 570:Middlewares/Third_Party/wolfSSL_wolfSSL_wolfSSL/wolfssl/wolfcrypt/src/poly1305.c **** 
 571:Middlewares/Third_Party/wolfSSL_wolfSSL_wolfSSL/wolfssl/wolfcrypt/src/poly1305.c ****     h0 += (( t0                    ) & 0xfffffffffff)    ;
 572:Middlewares/Third_Party/wolfSSL_wolfSSL_wolfSSL/wolfssl/wolfcrypt/src/poly1305.c ****     c = (h0 >> 44); h0 &= 0xfffffffffff;
 573:Middlewares/Third_Party/wolfSSL_wolfSSL_wolfSSL/wolfssl/wolfcrypt/src/poly1305.c ****     h1 += (((t0 >> 44) | (t1 << 20)) & 0xfffffffffff) + c;
 574:Middlewares/Third_Party/wolfSSL_wolfSSL_wolfSSL/wolfssl/wolfcrypt/src/poly1305.c ****     c = (h1 >> 44); h1 &= 0xfffffffffff;
 575:Middlewares/Third_Party/wolfSSL_wolfSSL_wolfSSL/wolfssl/wolfcrypt/src/poly1305.c ****     h2 += (((t1 >> 24)             ) & 0x3ffffffffff) + c;
 576:Middlewares/Third_Party/wolfSSL_wolfSSL_wolfSSL/wolfssl/wolfcrypt/src/poly1305.c ****     h2 &= 0x3ffffffffff;
 577:Middlewares/Third_Party/wolfSSL_wolfSSL_wolfSSL/wolfssl/wolfcrypt/src/poly1305.c **** 
 578:Middlewares/Third_Party/wolfSSL_wolfSSL_wolfSSL/wolfssl/wolfcrypt/src/poly1305.c ****     /* mac = h % (2^128) */
 579:Middlewares/Third_Party/wolfSSL_wolfSSL_wolfSSL/wolfssl/wolfcrypt/src/poly1305.c ****     h0 = ((h0      ) | (h1 << 44));
ARM GAS  /tmp/ccGcaF1m.s 			page 26


 580:Middlewares/Third_Party/wolfSSL_wolfSSL_wolfSSL/wolfssl/wolfcrypt/src/poly1305.c ****     h1 = ((h1 >> 20) | (h2 << 24));
 581:Middlewares/Third_Party/wolfSSL_wolfSSL_wolfSSL/wolfssl/wolfcrypt/src/poly1305.c **** 
 582:Middlewares/Third_Party/wolfSSL_wolfSSL_wolfSSL/wolfssl/wolfcrypt/src/poly1305.c ****     U64TO8(mac + 0, h0);
 583:Middlewares/Third_Party/wolfSSL_wolfSSL_wolfSSL/wolfssl/wolfcrypt/src/poly1305.c ****     U64TO8(mac + 8, h1);
 584:Middlewares/Third_Party/wolfSSL_wolfSSL_wolfSSL/wolfssl/wolfcrypt/src/poly1305.c **** 
 585:Middlewares/Third_Party/wolfSSL_wolfSSL_wolfSSL/wolfssl/wolfcrypt/src/poly1305.c ****     /* zero out the state */
 586:Middlewares/Third_Party/wolfSSL_wolfSSL_wolfSSL/wolfssl/wolfcrypt/src/poly1305.c ****     ctx->h[0] = 0;
 587:Middlewares/Third_Party/wolfSSL_wolfSSL_wolfSSL/wolfssl/wolfcrypt/src/poly1305.c ****     ctx->h[1] = 0;
 588:Middlewares/Third_Party/wolfSSL_wolfSSL_wolfSSL/wolfssl/wolfcrypt/src/poly1305.c ****     ctx->h[2] = 0;
 589:Middlewares/Third_Party/wolfSSL_wolfSSL_wolfSSL/wolfssl/wolfcrypt/src/poly1305.c ****     ctx->r[0] = 0;
 590:Middlewares/Third_Party/wolfSSL_wolfSSL_wolfSSL/wolfssl/wolfcrypt/src/poly1305.c ****     ctx->r[1] = 0;
 591:Middlewares/Third_Party/wolfSSL_wolfSSL_wolfSSL/wolfssl/wolfcrypt/src/poly1305.c ****     ctx->r[2] = 0;
 592:Middlewares/Third_Party/wolfSSL_wolfSSL_wolfSSL/wolfssl/wolfcrypt/src/poly1305.c ****     ctx->pad[0] = 0;
 593:Middlewares/Third_Party/wolfSSL_wolfSSL_wolfSSL/wolfssl/wolfcrypt/src/poly1305.c ****     ctx->pad[1] = 0;
 594:Middlewares/Third_Party/wolfSSL_wolfSSL_wolfSSL/wolfssl/wolfcrypt/src/poly1305.c **** 
 595:Middlewares/Third_Party/wolfSSL_wolfSSL_wolfSSL/wolfssl/wolfcrypt/src/poly1305.c **** #else /* if not 64 bit then use 32 bit */
 596:Middlewares/Third_Party/wolfSSL_wolfSSL_wolfSSL/wolfssl/wolfcrypt/src/poly1305.c **** 
 597:Middlewares/Third_Party/wolfSSL_wolfSSL_wolfSSL/wolfssl/wolfcrypt/src/poly1305.c ****     /* process the remaining block */
 598:Middlewares/Third_Party/wolfSSL_wolfSSL_wolfSSL/wolfssl/wolfcrypt/src/poly1305.c ****     if (ctx->leftover) {
 831              		.loc 1 598 5 is_stmt 1 view .LVU274
 832              		.loc 1 598 12 is_stmt 0 view .LVU275
 833 0014 826B     		ldr	r2, [r0, #56]
 834              		.loc 1 598 8 view .LVU276
 835 0016 A2B1     		cbz	r2, .L22
 836              	.LBB6:
 599:Middlewares/Third_Party/wolfSSL_wolfSSL_wolfSSL/wolfssl/wolfcrypt/src/poly1305.c ****         size_t i = ctx->leftover;
 837              		.loc 1 599 9 is_stmt 1 view .LVU277
 838              	.LVL101:
 600:Middlewares/Third_Party/wolfSSL_wolfSSL_wolfSSL/wolfssl/wolfcrypt/src/poly1305.c ****         ctx->buffer[i++] = 1;
 839              		.loc 1 600 9 view .LVU278
 840              		.loc 1 600 22 is_stmt 0 view .LVU279
 841 0018 531C     		adds	r3, r2, #1
 842              	.LVL102:
 843              		.loc 1 600 26 view .LVU280
 844 001a 0244     		add	r2, r2, r0
 845 001c 0121     		movs	r1, #1
 846              	.LVL103:
 847              		.loc 1 600 26 view .LVU281
 848 001e 82F83C10 		strb	r1, [r2, #60]
 601:Middlewares/Third_Party/wolfSSL_wolfSSL_wolfSSL/wolfssl/wolfcrypt/src/poly1305.c ****         for (; i < POLY1305_BLOCK_SIZE; i++)
 849              		.loc 1 601 9 is_stmt 1 view .LVU282
 850 0022 04E0     		b	.L23
 851              	.L24:
 602:Middlewares/Third_Party/wolfSSL_wolfSSL_wolfSSL/wolfssl/wolfcrypt/src/poly1305.c ****             ctx->buffer[i] = 0;
 852              		.loc 1 602 13 discriminator 2 view .LVU283
 853              		.loc 1 602 28 is_stmt 0 discriminator 2 view .LVU284
 854 0024 E218     		adds	r2, r4, r3
 855 0026 0021     		movs	r1, #0
 856 0028 82F83C10 		strb	r1, [r2, #60]
 601:Middlewares/Third_Party/wolfSSL_wolfSSL_wolfSSL/wolfssl/wolfcrypt/src/poly1305.c ****         for (; i < POLY1305_BLOCK_SIZE; i++)
 857              		.loc 1 601 41 is_stmt 1 discriminator 2 view .LVU285
 601:Middlewares/Third_Party/wolfSSL_wolfSSL_wolfSSL/wolfssl/wolfcrypt/src/poly1305.c ****         for (; i < POLY1305_BLOCK_SIZE; i++)
 858              		.loc 1 601 42 is_stmt 0 discriminator 2 view .LVU286
 859 002c 0133     		adds	r3, r3, #1
 860              	.LVL104:
 861              	.L23:
 601:Middlewares/Third_Party/wolfSSL_wolfSSL_wolfSSL/wolfssl/wolfcrypt/src/poly1305.c ****         for (; i < POLY1305_BLOCK_SIZE; i++)
ARM GAS  /tmp/ccGcaF1m.s 			page 27


 862              		.loc 1 601 16 is_stmt 1 discriminator 1 view .LVU287
 601:Middlewares/Third_Party/wolfSSL_wolfSSL_wolfSSL/wolfssl/wolfcrypt/src/poly1305.c ****         for (; i < POLY1305_BLOCK_SIZE; i++)
 863              		.loc 1 601 9 is_stmt 0 discriminator 1 view .LVU288
 864 002e 0F2B     		cmp	r3, #15
 865 0030 F8D9     		bls	.L24
 603:Middlewares/Third_Party/wolfSSL_wolfSSL_wolfSSL/wolfssl/wolfcrypt/src/poly1305.c ****         ctx->finished = 1;
 866              		.loc 1 603 9 is_stmt 1 view .LVU289
 867              		.loc 1 603 23 is_stmt 0 view .LVU290
 868 0032 0123     		movs	r3, #1
 869              	.LVL105:
 870              		.loc 1 603 23 view .LVU291
 871 0034 84F84C30 		strb	r3, [r4, #76]
 604:Middlewares/Third_Party/wolfSSL_wolfSSL_wolfSSL/wolfssl/wolfcrypt/src/poly1305.c ****         poly1305_block(ctx, ctx->buffer);
 872              		.loc 1 604 9 is_stmt 1 view .LVU292
 873 0038 04F13C01 		add	r1, r4, #60
 874 003c 2046     		mov	r0, r4
 875              	.LVL106:
 876              		.loc 1 604 9 is_stmt 0 view .LVU293
 877 003e FFF7FEFF 		bl	poly1305_block
 878              	.LVL107:
 879              	.L22:
 880              		.loc 1 604 9 view .LVU294
 881              	.LBE6:
 605:Middlewares/Third_Party/wolfSSL_wolfSSL_wolfSSL/wolfssl/wolfcrypt/src/poly1305.c ****     }
 606:Middlewares/Third_Party/wolfSSL_wolfSSL_wolfSSL/wolfssl/wolfcrypt/src/poly1305.c **** 
 607:Middlewares/Third_Party/wolfSSL_wolfSSL_wolfSSL/wolfssl/wolfcrypt/src/poly1305.c ****     /* fully carry h */
 608:Middlewares/Third_Party/wolfSSL_wolfSSL_wolfSSL/wolfssl/wolfcrypt/src/poly1305.c ****     h0 = ctx->h[0];
 882              		.loc 1 608 5 is_stmt 1 view .LVU295
 883              		.loc 1 608 8 is_stmt 0 view .LVU296
 884 0042 6169     		ldr	r1, [r4, #20]
 885              	.LVL108:
 609:Middlewares/Third_Party/wolfSSL_wolfSSL_wolfSSL/wolfssl/wolfcrypt/src/poly1305.c ****     h1 = ctx->h[1];
 886              		.loc 1 609 5 is_stmt 1 view .LVU297
 887              		.loc 1 609 8 is_stmt 0 view .LVU298
 888 0044 A769     		ldr	r7, [r4, #24]
 889              	.LVL109:
 610:Middlewares/Third_Party/wolfSSL_wolfSSL_wolfSSL/wolfssl/wolfcrypt/src/poly1305.c ****     h2 = ctx->h[2];
 890              		.loc 1 610 5 is_stmt 1 view .LVU299
 891              		.loc 1 610 8 is_stmt 0 view .LVU300
 892 0046 E569     		ldr	r5, [r4, #28]
 893              	.LVL110:
 611:Middlewares/Third_Party/wolfSSL_wolfSSL_wolfSSL/wolfssl/wolfcrypt/src/poly1305.c ****     h3 = ctx->h[3];
 894              		.loc 1 611 5 is_stmt 1 view .LVU301
 895              		.loc 1 611 8 is_stmt 0 view .LVU302
 896 0048 206A     		ldr	r0, [r4, #32]
 897              	.LVL111:
 612:Middlewares/Third_Party/wolfSSL_wolfSSL_wolfSSL/wolfssl/wolfcrypt/src/poly1305.c ****     h4 = ctx->h[4];
 898              		.loc 1 612 5 is_stmt 1 view .LVU303
 899              		.loc 1 612 8 is_stmt 0 view .LVU304
 900 004a 636A     		ldr	r3, [r4, #36]
 901              	.LVL112:
 613:Middlewares/Third_Party/wolfSSL_wolfSSL_wolfSSL/wolfssl/wolfcrypt/src/poly1305.c **** 
 614:Middlewares/Third_Party/wolfSSL_wolfSSL_wolfSSL/wolfssl/wolfcrypt/src/poly1305.c ****                  c = h1 >> 26; h1 = h1 & 0x3ffffff;
 902              		.loc 1 614 18 is_stmt 1 view .LVU305
 903              		.loc 1 614 32 view .LVU306
 904              		.loc 1 614 35 is_stmt 0 view .LVU307
 905 004c 27F07C42 		bic	r2, r7, #-67108864
ARM GAS  /tmp/ccGcaF1m.s 			page 28


 906              	.LVL113:
 615:Middlewares/Third_Party/wolfSSL_wolfSSL_wolfSSL/wolfssl/wolfcrypt/src/poly1305.c ****     h2 +=     c; c = h2 >> 26; h2 = h2 & 0x3ffffff;
 907              		.loc 1 615 5 is_stmt 1 view .LVU308
 908              		.loc 1 615 8 is_stmt 0 view .LVU309
 909 0050 05EB976E 		add	lr, r5, r7, lsr #26
 910              	.LVL114:
 911              		.loc 1 615 18 is_stmt 1 view .LVU310
 912              		.loc 1 615 32 view .LVU311
 913              		.loc 1 615 35 is_stmt 0 view .LVU312
 914 0054 2EF07C4C 		bic	ip, lr, #-67108864
 915              	.LVL115:
 616:Middlewares/Third_Party/wolfSSL_wolfSSL_wolfSSL/wolfssl/wolfcrypt/src/poly1305.c ****     h3 +=     c; c = h3 >> 26; h3 = h3 & 0x3ffffff;
 916              		.loc 1 616 5 is_stmt 1 view .LVU313
 917              		.loc 1 616 8 is_stmt 0 view .LVU314
 918 0058 00EB9E6E 		add	lr, r0, lr, lsr #26
 919              	.LVL116:
 920              		.loc 1 616 18 is_stmt 1 view .LVU315
 921              		.loc 1 616 32 view .LVU316
 922              		.loc 1 616 35 is_stmt 0 view .LVU317
 923 005c 2EF07C40 		bic	r0, lr, #-67108864
 924              	.LVL117:
 617:Middlewares/Third_Party/wolfSSL_wolfSSL_wolfSSL/wolfssl/wolfcrypt/src/poly1305.c ****     h4 +=     c; c = h4 >> 26; h4 = h4 & 0x3ffffff;
 925              		.loc 1 617 5 is_stmt 1 view .LVU318
 926              		.loc 1 617 8 is_stmt 0 view .LVU319
 927 0060 03EB9E6E 		add	lr, r3, lr, lsr #26
 928              	.LVL118:
 929              		.loc 1 617 18 is_stmt 1 view .LVU320
 930              		.loc 1 617 20 is_stmt 0 view .LVU321
 931 0064 4FEA9E63 		lsr	r3, lr, #26
 932              	.LVL119:
 933              		.loc 1 617 32 is_stmt 1 view .LVU322
 934              		.loc 1 617 35 is_stmt 0 view .LVU323
 935 0068 2EF07C4E 		bic	lr, lr, #-67108864
 936              	.LVL120:
 618:Middlewares/Third_Party/wolfSSL_wolfSSL_wolfSSL/wolfssl/wolfcrypt/src/poly1305.c ****     h0 += c * 5; c = h0 >> 26; h0 = h0 & 0x3ffffff;
 937              		.loc 1 618 5 is_stmt 1 view .LVU324
 938              		.loc 1 618 13 is_stmt 0 view .LVU325
 939 006c 03EB8303 		add	r3, r3, r3, lsl #2
 940              	.LVL121:
 941              		.loc 1 618 8 view .LVU326
 942 0070 0B44     		add	r3, r3, r1
 943              	.LVL122:
 944              		.loc 1 618 18 is_stmt 1 view .LVU327
 945              		.loc 1 618 32 view .LVU328
 946              		.loc 1 618 35 is_stmt 0 view .LVU329
 947 0072 23F07C45 		bic	r5, r3, #-67108864
 948              	.LVL123:
 619:Middlewares/Third_Party/wolfSSL_wolfSSL_wolfSSL/wolfssl/wolfcrypt/src/poly1305.c ****     h1 +=     c;
 949              		.loc 1 619 5 is_stmt 1 view .LVU330
 950              		.loc 1 619 8 is_stmt 0 view .LVU331
 951 0076 02EB9361 		add	r1, r2, r3, lsr #26
 952              	.LVL124:
 620:Middlewares/Third_Party/wolfSSL_wolfSSL_wolfSSL/wolfssl/wolfcrypt/src/poly1305.c **** 
 621:Middlewares/Third_Party/wolfSSL_wolfSSL_wolfSSL/wolfssl/wolfcrypt/src/poly1305.c ****     /* compute h + -p */
 622:Middlewares/Third_Party/wolfSSL_wolfSSL_wolfSSL/wolfssl/wolfcrypt/src/poly1305.c ****     g0 = h0 + 5; c = g0 >> 26; g0 &= 0x3ffffff;
 953              		.loc 1 622 5 is_stmt 1 view .LVU332
 954              		.loc 1 622 8 is_stmt 0 view .LVU333
ARM GAS  /tmp/ccGcaF1m.s 			page 29


 955 007a 6A1D     		adds	r2, r5, #5
 956              	.LVL125:
 957              		.loc 1 622 18 is_stmt 1 view .LVU334
 958              		.loc 1 622 32 view .LVU335
 959              		.loc 1 622 35 is_stmt 0 view .LVU336
 960 007c 22F07C4A 		bic	r10, r2, #-67108864
 961              	.LVL126:
 623:Middlewares/Third_Party/wolfSSL_wolfSSL_wolfSSL/wolfssl/wolfcrypt/src/poly1305.c ****     g1 = h1 + c; c = g1 >> 26; g1 &= 0x3ffffff;
 962              		.loc 1 623 5 is_stmt 1 view .LVU337
 963              		.loc 1 623 8 is_stmt 0 view .LVU338
 964 0080 01EB9262 		add	r2, r1, r2, lsr #26
 965              	.LVL127:
 966              		.loc 1 623 18 is_stmt 1 view .LVU339
 967              		.loc 1 623 32 view .LVU340
 968              		.loc 1 623 35 is_stmt 0 view .LVU341
 969 0084 22F07C49 		bic	r9, r2, #-67108864
 970              	.LVL128:
 624:Middlewares/Third_Party/wolfSSL_wolfSSL_wolfSSL/wolfssl/wolfcrypt/src/poly1305.c ****     g2 = h2 + c; c = g2 >> 26; g2 &= 0x3ffffff;
 971              		.loc 1 624 5 is_stmt 1 view .LVU342
 972              		.loc 1 624 8 is_stmt 0 view .LVU343
 973 0088 0CEB9262 		add	r2, ip, r2, lsr #26
 974              	.LVL129:
 975              		.loc 1 624 18 is_stmt 1 view .LVU344
 976              		.loc 1 624 32 view .LVU345
 977              		.loc 1 624 35 is_stmt 0 view .LVU346
 978 008c 22F07C48 		bic	r8, r2, #-67108864
 979              	.LVL130:
 625:Middlewares/Third_Party/wolfSSL_wolfSSL_wolfSSL/wolfssl/wolfcrypt/src/poly1305.c ****     g3 = h3 + c; c = g3 >> 26; g3 &= 0x3ffffff;
 980              		.loc 1 625 5 is_stmt 1 view .LVU347
 981              		.loc 1 625 8 is_stmt 0 view .LVU348
 982 0090 00EB9262 		add	r2, r0, r2, lsr #26
 983              	.LVL131:
 984              		.loc 1 625 18 is_stmt 1 view .LVU349
 985              		.loc 1 625 32 view .LVU350
 986              		.loc 1 625 35 is_stmt 0 view .LVU351
 987 0094 22F07C47 		bic	r7, r2, #-67108864
 988              	.LVL132:
 626:Middlewares/Third_Party/wolfSSL_wolfSSL_wolfSSL/wolfssl/wolfcrypt/src/poly1305.c ****     g4 = h4 + c - ((word32)1 << 26);
 989              		.loc 1 626 5 is_stmt 1 view .LVU352
 990              		.loc 1 626 13 is_stmt 0 view .LVU353
 991 0098 0EEB9262 		add	r2, lr, r2, lsr #26
 992              	.LVL133:
 993              		.loc 1 626 8 view .LVU354
 994 009c 02F17C42 		add	r2, r2, #-67108864
 995              	.LVL134:
 627:Middlewares/Third_Party/wolfSSL_wolfSSL_wolfSSL/wolfssl/wolfcrypt/src/poly1305.c **** 
 628:Middlewares/Third_Party/wolfSSL_wolfSSL_wolfSSL/wolfssl/wolfcrypt/src/poly1305.c ****     /* select h if h < p, or h + -p if h >= p */
 629:Middlewares/Third_Party/wolfSSL_wolfSSL_wolfSSL/wolfssl/wolfcrypt/src/poly1305.c ****     mask = ((word32)g4 >> ((sizeof(word32) * 8) - 1)) - 1;
 996              		.loc 1 629 5 is_stmt 1 view .LVU355
 997              		.loc 1 629 24 is_stmt 0 view .LVU356
 998 00a0 D30F     		lsrs	r3, r2, #31
 999              		.loc 1 629 10 view .LVU357
 1000 00a2 03F1FF3B 		add	fp, r3, #-1
 1001              	.LVL135:
 630:Middlewares/Third_Party/wolfSSL_wolfSSL_wolfSSL/wolfssl/wolfcrypt/src/poly1305.c ****     g0 &= mask;
 1002              		.loc 1 630 5 is_stmt 1 view .LVU358
 1003              		.loc 1 630 8 is_stmt 0 view .LVU359
ARM GAS  /tmp/ccGcaF1m.s 			page 30


 1004 00a6 0AEA0B0A 		and	r10, r10, fp
 1005              	.LVL136:
 631:Middlewares/Third_Party/wolfSSL_wolfSSL_wolfSSL/wolfssl/wolfcrypt/src/poly1305.c ****     g1 &= mask;
 1006              		.loc 1 631 5 is_stmt 1 view .LVU360
 1007              		.loc 1 631 8 is_stmt 0 view .LVU361
 1008 00aa 09EA0B09 		and	r9, r9, fp
 1009              	.LVL137:
 632:Middlewares/Third_Party/wolfSSL_wolfSSL_wolfSSL/wolfssl/wolfcrypt/src/poly1305.c ****     g2 &= mask;
 1010              		.loc 1 632 5 is_stmt 1 view .LVU362
 1011              		.loc 1 632 8 is_stmt 0 view .LVU363
 1012 00ae 08EA0B08 		and	r8, r8, fp
 1013              	.LVL138:
 633:Middlewares/Third_Party/wolfSSL_wolfSSL_wolfSSL/wolfssl/wolfcrypt/src/poly1305.c ****     g3 &= mask;
 1014              		.loc 1 633 5 is_stmt 1 view .LVU364
 1015              		.loc 1 633 8 is_stmt 0 view .LVU365
 1016 00b2 07EA0B07 		and	r7, r7, fp
 1017              	.LVL139:
 634:Middlewares/Third_Party/wolfSSL_wolfSSL_wolfSSL/wolfssl/wolfcrypt/src/poly1305.c ****     g4 &= mask;
 1018              		.loc 1 634 5 is_stmt 1 view .LVU366
 1019              		.loc 1 634 8 is_stmt 0 view .LVU367
 1020 00b6 02EA0B02 		and	r2, r2, fp
 1021              	.LVL140:
 635:Middlewares/Third_Party/wolfSSL_wolfSSL_wolfSSL/wolfssl/wolfcrypt/src/poly1305.c ****     mask = ~mask;
 1022              		.loc 1 635 5 is_stmt 1 view .LVU368
 1023 00ba 5B42     		rsbs	r3, r3, #0
 1024              	.LVL141:
 636:Middlewares/Third_Party/wolfSSL_wolfSSL_wolfSSL/wolfssl/wolfcrypt/src/poly1305.c ****     h0 = (h0 & mask) | g0;
 1025              		.loc 1 636 5 view .LVU369
 1026              		.loc 1 636 14 is_stmt 0 view .LVU370
 1027 00bc 1D40     		ands	r5, r5, r3
 1028              	.LVL142:
 1029              		.loc 1 636 8 view .LVU371
 1030 00be 45EA0A0A 		orr	r10, r5, r10
 1031              	.LVL143:
 637:Middlewares/Third_Party/wolfSSL_wolfSSL_wolfSSL/wolfssl/wolfcrypt/src/poly1305.c ****     h1 = (h1 & mask) | g1;
 1032              		.loc 1 637 5 is_stmt 1 view .LVU372
 1033              		.loc 1 637 14 is_stmt 0 view .LVU373
 1034 00c2 1940     		ands	r1, r1, r3
 1035              	.LVL144:
 1036              		.loc 1 637 8 view .LVU374
 1037 00c4 41EA0909 		orr	r9, r1, r9
 1038              	.LVL145:
 638:Middlewares/Third_Party/wolfSSL_wolfSSL_wolfSSL/wolfssl/wolfcrypt/src/poly1305.c ****     h2 = (h2 & mask) | g2;
 1039              		.loc 1 638 5 is_stmt 1 view .LVU375
 1040              		.loc 1 638 14 is_stmt 0 view .LVU376
 1041 00c8 03EA0C0C 		and	ip, r3, ip
 1042              	.LVL146:
 1043              		.loc 1 638 8 view .LVU377
 1044 00cc 4CEA0808 		orr	r8, ip, r8
 1045              	.LVL147:
 639:Middlewares/Third_Party/wolfSSL_wolfSSL_wolfSSL/wolfssl/wolfcrypt/src/poly1305.c ****     h3 = (h3 & mask) | g3;
 1046              		.loc 1 639 5 is_stmt 1 view .LVU378
 1047              		.loc 1 639 14 is_stmt 0 view .LVU379
 1048 00d0 1840     		ands	r0, r0, r3
 1049              	.LVL148:
 1050              		.loc 1 639 8 view .LVU380
 1051 00d2 0743     		orrs	r7, r7, r0
ARM GAS  /tmp/ccGcaF1m.s 			page 31


 1052              	.LVL149:
 640:Middlewares/Third_Party/wolfSSL_wolfSSL_wolfSSL/wolfssl/wolfcrypt/src/poly1305.c ****     h4 = (h4 & mask) | g4;
 1053              		.loc 1 640 5 is_stmt 1 view .LVU381
 1054              		.loc 1 640 14 is_stmt 0 view .LVU382
 1055 00d4 03EA0E03 		and	r3, r3, lr
 1056              	.LVL150:
 1057              		.loc 1 640 8 view .LVU383
 1058 00d8 1343     		orrs	r3, r3, r2
 1059              	.LVL151:
 641:Middlewares/Third_Party/wolfSSL_wolfSSL_wolfSSL/wolfssl/wolfcrypt/src/poly1305.c **** 
 642:Middlewares/Third_Party/wolfSSL_wolfSSL_wolfSSL/wolfssl/wolfcrypt/src/poly1305.c ****     /* h = h % (2^128) */
 643:Middlewares/Third_Party/wolfSSL_wolfSSL_wolfSSL/wolfssl/wolfcrypt/src/poly1305.c ****     h0 = ((h0      ) | (h1 << 26)) & 0xffffffff;
 1060              		.loc 1 643 5 is_stmt 1 view .LVU384
 1061              		.loc 1 643 8 is_stmt 0 view .LVU385
 1062 00da 4AEA896A 		orr	r10, r10, r9, lsl #26
 1063              	.LVL152:
 644:Middlewares/Third_Party/wolfSSL_wolfSSL_wolfSSL/wolfssl/wolfcrypt/src/poly1305.c ****     h1 = ((h1 >>  6) | (h2 << 20)) & 0xffffffff;
 1064              		.loc 1 644 5 is_stmt 1 view .LVU386
 1065              		.loc 1 644 28 is_stmt 0 view .LVU387
 1066 00de 4FEA0851 		lsl	r1, r8, #20
 1067              		.loc 1 644 8 view .LVU388
 1068 00e2 41EA9919 		orr	r9, r1, r9, lsr #6
 1069              	.LVL153:
 645:Middlewares/Third_Party/wolfSSL_wolfSSL_wolfSSL/wolfssl/wolfcrypt/src/poly1305.c ****     h2 = ((h2 >> 12) | (h3 << 14)) & 0xffffffff;
 1070              		.loc 1 645 5 is_stmt 1 view .LVU389
 1071              		.loc 1 645 28 is_stmt 0 view .LVU390
 1072 00e6 4FEA873C 		lsl	ip, r7, #14
 1073              		.loc 1 645 8 view .LVU391
 1074 00ea 4CEA1838 		orr	r8, ip, r8, lsr #12
 1075              	.LVL154:
 646:Middlewares/Third_Party/wolfSSL_wolfSSL_wolfSSL/wolfssl/wolfcrypt/src/poly1305.c ****     h3 = ((h3 >> 18) | (h4 <<  8)) & 0xffffffff;
 1076              		.loc 1 646 5 is_stmt 1 view .LVU392
 1077              		.loc 1 646 28 is_stmt 0 view .LVU393
 1078 00ee 1B02     		lsls	r3, r3, #8
 1079              	.LVL155:
 1080              		.loc 1 646 8 view .LVU394
 1081 00f0 43EA9743 		orr	r3, r3, r7, lsr #18
 1082              	.LVL156:
 647:Middlewares/Third_Party/wolfSSL_wolfSSL_wolfSSL/wolfssl/wolfcrypt/src/poly1305.c **** 
 648:Middlewares/Third_Party/wolfSSL_wolfSSL_wolfSSL/wolfssl/wolfcrypt/src/poly1305.c ****     /* mac = (h + pad) % (2^128) */
 649:Middlewares/Third_Party/wolfSSL_wolfSSL_wolfSSL/wolfssl/wolfcrypt/src/poly1305.c ****     f = (word64)h0 + ctx->pad[0]            ; h0 = (word32)f;
 1083              		.loc 1 649 5 is_stmt 1 view .LVU395
 1084              		.loc 1 649 9 is_stmt 0 view .LVU396
 1085 00f4 0025     		movs	r5, #0
 1086              		.loc 1 649 30 view .LVU397
 1087 00f6 A16A     		ldr	r1, [r4, #40]
 1088              		.loc 1 649 7 view .LVU398
 1089 00f8 1AEB0101 		adds	r1, r10, r1
 1090 00fc 45EB0507 		adc	r7, r5, r5
 1091              	.LVL157:
 1092              		.loc 1 649 47 is_stmt 1 view .LVU399
 650:Middlewares/Third_Party/wolfSSL_wolfSSL_wolfSSL/wolfssl/wolfcrypt/src/poly1305.c ****     f = (word64)h1 + ctx->pad[1] + (f >> 32); h1 = (word32)f;
 1093              		.loc 1 650 5 view .LVU400
 1094              		.loc 1 650 30 is_stmt 0 view .LVU401
 1095 0100 E26A     		ldr	r2, [r4, #44]
 1096              	.LVL158:
 1097              		.loc 1 650 20 view .LVU402
ARM GAS  /tmp/ccGcaF1m.s 			page 32


 1098 0102 19EB0209 		adds	r9, r9, r2
 1099              	.LVL159:
 1100              		.loc 1 650 20 view .LVU403
 1101 0106 45EB0500 		adc	r0, r5, r5
 1102              		.loc 1 650 7 view .LVU404
 1103 010a 19EB0709 		adds	r9, r9, r7
 1104 010e 40F10000 		adc	r0, r0, #0
 1105              	.LVL160:
 1106              		.loc 1 650 47 is_stmt 1 view .LVU405
 651:Middlewares/Third_Party/wolfSSL_wolfSSL_wolfSSL/wolfssl/wolfcrypt/src/poly1305.c ****     f = (word64)h2 + ctx->pad[2] + (f >> 32); h2 = (word32)f;
 1107              		.loc 1 651 5 view .LVU406
 1108              		.loc 1 651 30 is_stmt 0 view .LVU407
 1109 0112 226B     		ldr	r2, [r4, #48]
 1110              		.loc 1 651 20 view .LVU408
 1111 0114 18EB0208 		adds	r8, r8, r2
 1112              	.LVL161:
 1113              		.loc 1 651 20 view .LVU409
 1114 0118 45EB0507 		adc	r7, r5, r5
 1115              		.loc 1 651 7 view .LVU410
 1116 011c 18EB0008 		adds	r8, r8, r0
 1117 0120 47F10007 		adc	r7, r7, #0
 1118              	.LVL162:
 1119              		.loc 1 651 47 is_stmt 1 view .LVU411
 652:Middlewares/Third_Party/wolfSSL_wolfSSL_wolfSSL/wolfssl/wolfcrypt/src/poly1305.c ****     f = (word64)h3 + ctx->pad[3] + (f >> 32); h3 = (word32)f;
 1120              		.loc 1 652 5 view .LVU412
 1121              		.loc 1 652 30 is_stmt 0 view .LVU413
 1122 0124 626B     		ldr	r2, [r4, #52]
 1123              		.loc 1 652 20 view .LVU414
 1124 0126 9B18     		adds	r3, r3, r2
 1125              	.LVL163:
 1126              		.loc 1 652 7 view .LVU415
 1127 0128 DF19     		adds	r7, r3, r7
 1128              	.LVL164:
 1129              		.loc 1 652 47 is_stmt 1 view .LVU416
 653:Middlewares/Third_Party/wolfSSL_wolfSSL_wolfSSL/wolfssl/wolfcrypt/src/poly1305.c **** 
 654:Middlewares/Third_Party/wolfSSL_wolfSSL_wolfSSL/wolfssl/wolfcrypt/src/poly1305.c ****     U32TO8(mac + 0, h0);
 1130              		.loc 1 654 5 view .LVU417
 1131 012a 3046     		mov	r0, r6
 1132 012c FFF7FEFF 		bl	U32TO8
 1133              	.LVL165:
 655:Middlewares/Third_Party/wolfSSL_wolfSSL_wolfSSL/wolfssl/wolfcrypt/src/poly1305.c ****     U32TO8(mac + 4, h1);
 1134              		.loc 1 655 5 view .LVU418
 1135 0130 4946     		mov	r1, r9
 1136 0132 301D     		adds	r0, r6, #4
 1137 0134 FFF7FEFF 		bl	U32TO8
 1138              	.LVL166:
 656:Middlewares/Third_Party/wolfSSL_wolfSSL_wolfSSL/wolfssl/wolfcrypt/src/poly1305.c ****     U32TO8(mac + 8, h2);
 1139              		.loc 1 656 5 view .LVU419
 1140 0138 4146     		mov	r1, r8
 1141 013a 06F10800 		add	r0, r6, #8
 1142 013e FFF7FEFF 		bl	U32TO8
 1143              	.LVL167:
 657:Middlewares/Third_Party/wolfSSL_wolfSSL_wolfSSL/wolfssl/wolfcrypt/src/poly1305.c ****     U32TO8(mac + 12, h3);
 1144              		.loc 1 657 5 view .LVU420
 1145 0142 3946     		mov	r1, r7
 1146 0144 06F10C00 		add	r0, r6, #12
 1147 0148 FFF7FEFF 		bl	U32TO8
ARM GAS  /tmp/ccGcaF1m.s 			page 33


 1148              	.LVL168:
 658:Middlewares/Third_Party/wolfSSL_wolfSSL_wolfSSL/wolfssl/wolfcrypt/src/poly1305.c **** 
 659:Middlewares/Third_Party/wolfSSL_wolfSSL_wolfSSL/wolfssl/wolfcrypt/src/poly1305.c ****     /* zero out the state */
 660:Middlewares/Third_Party/wolfSSL_wolfSSL_wolfSSL/wolfssl/wolfcrypt/src/poly1305.c ****     ctx->h[0] = 0;
 1149              		.loc 1 660 5 view .LVU421
 1150              		.loc 1 660 15 is_stmt 0 view .LVU422
 1151 014c 6561     		str	r5, [r4, #20]
 661:Middlewares/Third_Party/wolfSSL_wolfSSL_wolfSSL/wolfssl/wolfcrypt/src/poly1305.c ****     ctx->h[1] = 0;
 1152              		.loc 1 661 5 is_stmt 1 view .LVU423
 1153              		.loc 1 661 15 is_stmt 0 view .LVU424
 1154 014e A561     		str	r5, [r4, #24]
 662:Middlewares/Third_Party/wolfSSL_wolfSSL_wolfSSL/wolfssl/wolfcrypt/src/poly1305.c ****     ctx->h[2] = 0;
 1155              		.loc 1 662 5 is_stmt 1 view .LVU425
 1156              		.loc 1 662 15 is_stmt 0 view .LVU426
 1157 0150 E561     		str	r5, [r4, #28]
 663:Middlewares/Third_Party/wolfSSL_wolfSSL_wolfSSL/wolfssl/wolfcrypt/src/poly1305.c ****     ctx->h[3] = 0;
 1158              		.loc 1 663 5 is_stmt 1 view .LVU427
 1159              		.loc 1 663 15 is_stmt 0 view .LVU428
 1160 0152 2562     		str	r5, [r4, #32]
 664:Middlewares/Third_Party/wolfSSL_wolfSSL_wolfSSL/wolfssl/wolfcrypt/src/poly1305.c ****     ctx->h[4] = 0;
 1161              		.loc 1 664 5 is_stmt 1 view .LVU429
 1162              		.loc 1 664 15 is_stmt 0 view .LVU430
 1163 0154 6562     		str	r5, [r4, #36]
 665:Middlewares/Third_Party/wolfSSL_wolfSSL_wolfSSL/wolfssl/wolfcrypt/src/poly1305.c ****     ctx->r[0] = 0;
 1164              		.loc 1 665 5 is_stmt 1 view .LVU431
 1165              		.loc 1 665 15 is_stmt 0 view .LVU432
 1166 0156 2560     		str	r5, [r4]
 666:Middlewares/Third_Party/wolfSSL_wolfSSL_wolfSSL/wolfssl/wolfcrypt/src/poly1305.c ****     ctx->r[1] = 0;
 1167              		.loc 1 666 5 is_stmt 1 view .LVU433
 1168              		.loc 1 666 15 is_stmt 0 view .LVU434
 1169 0158 6560     		str	r5, [r4, #4]
 667:Middlewares/Third_Party/wolfSSL_wolfSSL_wolfSSL/wolfssl/wolfcrypt/src/poly1305.c ****     ctx->r[2] = 0;
 1170              		.loc 1 667 5 is_stmt 1 view .LVU435
 1171              		.loc 1 667 15 is_stmt 0 view .LVU436
 1172 015a A560     		str	r5, [r4, #8]
 668:Middlewares/Third_Party/wolfSSL_wolfSSL_wolfSSL/wolfssl/wolfcrypt/src/poly1305.c ****     ctx->r[3] = 0;
 1173              		.loc 1 668 5 is_stmt 1 view .LVU437
 1174              		.loc 1 668 15 is_stmt 0 view .LVU438
 1175 015c E560     		str	r5, [r4, #12]
 669:Middlewares/Third_Party/wolfSSL_wolfSSL_wolfSSL/wolfssl/wolfcrypt/src/poly1305.c ****     ctx->r[4] = 0;
 1176              		.loc 1 669 5 is_stmt 1 view .LVU439
 1177              		.loc 1 669 15 is_stmt 0 view .LVU440
 1178 015e 2561     		str	r5, [r4, #16]
 670:Middlewares/Third_Party/wolfSSL_wolfSSL_wolfSSL/wolfssl/wolfcrypt/src/poly1305.c ****     ctx->pad[0] = 0;
 1179              		.loc 1 670 5 is_stmt 1 view .LVU441
 1180              		.loc 1 670 17 is_stmt 0 view .LVU442
 1181 0160 A562     		str	r5, [r4, #40]
 671:Middlewares/Third_Party/wolfSSL_wolfSSL_wolfSSL/wolfssl/wolfcrypt/src/poly1305.c ****     ctx->pad[1] = 0;
 1182              		.loc 1 671 5 is_stmt 1 view .LVU443
 1183              		.loc 1 671 17 is_stmt 0 view .LVU444
 1184 0162 E562     		str	r5, [r4, #44]
 672:Middlewares/Third_Party/wolfSSL_wolfSSL_wolfSSL/wolfssl/wolfcrypt/src/poly1305.c ****     ctx->pad[2] = 0;
 1185              		.loc 1 672 5 is_stmt 1 view .LVU445
 1186              		.loc 1 672 17 is_stmt 0 view .LVU446
 1187 0164 2563     		str	r5, [r4, #48]
 673:Middlewares/Third_Party/wolfSSL_wolfSSL_wolfSSL/wolfssl/wolfcrypt/src/poly1305.c ****     ctx->pad[3] = 0;
 1188              		.loc 1 673 5 is_stmt 1 view .LVU447
ARM GAS  /tmp/ccGcaF1m.s 			page 34


 1189              		.loc 1 673 17 is_stmt 0 view .LVU448
 1190 0166 6563     		str	r5, [r4, #52]
 674:Middlewares/Third_Party/wolfSSL_wolfSSL_wolfSSL/wolfssl/wolfcrypt/src/poly1305.c **** 
 675:Middlewares/Third_Party/wolfSSL_wolfSSL_wolfSSL/wolfssl/wolfcrypt/src/poly1305.c **** #endif
 676:Middlewares/Third_Party/wolfSSL_wolfSSL_wolfSSL/wolfssl/wolfcrypt/src/poly1305.c **** 
 677:Middlewares/Third_Party/wolfSSL_wolfSSL_wolfSSL/wolfssl/wolfcrypt/src/poly1305.c ****     return 0;
 1191              		.loc 1 677 5 is_stmt 1 view .LVU449
 1192              		.loc 1 677 12 is_stmt 0 view .LVU450
 1193 0168 2846     		mov	r0, r5
 1194              	.LVL169:
 1195              	.L20:
 678:Middlewares/Third_Party/wolfSSL_wolfSSL_wolfSSL/wolfssl/wolfcrypt/src/poly1305.c **** }
 1196              		.loc 1 678 1 view .LVU451
 1197 016a BDE8F88F 		pop	{r3, r4, r5, r6, r7, r8, r9, r10, fp, pc}
 1198              	.LVL170:
 1199              	.L25:
 1200              	.LCFI8:
 1201              		.cfi_def_cfa_offset 0
 1202              		.cfi_restore 3
 1203              		.cfi_restore 4
 1204              		.cfi_restore 5
 1205              		.cfi_restore 6
 1206              		.cfi_restore 7
 1207              		.cfi_restore 8
 1208              		.cfi_restore 9
 1209              		.cfi_restore 10
 1210              		.cfi_restore 11
 1211              		.cfi_restore 14
 516:Middlewares/Third_Party/wolfSSL_wolfSSL_wolfSSL/wolfssl/wolfcrypt/src/poly1305.c **** 
 1212              		.loc 1 516 16 view .LVU452
 1213 016e 6FF0AC00 		mvn	r0, #172
 1214              	.LVL171:
 1215              		.loc 1 678 1 view .LVU453
 1216 0172 7047     		bx	lr
 1217              	.LVL172:
 1218              	.L26:
 1219              	.LCFI9:
 1220              		.cfi_def_cfa_offset 40
 1221              		.cfi_offset 3, -40
 1222              		.cfi_offset 4, -36
 1223              		.cfi_offset 5, -32
 1224              		.cfi_offset 6, -28
 1225              		.cfi_offset 7, -24
 1226              		.cfi_offset 8, -20
 1227              		.cfi_offset 9, -16
 1228              		.cfi_offset 10, -12
 1229              		.cfi_offset 11, -8
 1230              		.cfi_offset 14, -4
 516:Middlewares/Third_Party/wolfSSL_wolfSSL_wolfSSL/wolfssl/wolfcrypt/src/poly1305.c **** 
 1231              		.loc 1 516 16 view .LVU454
 1232 0174 6FF0AC00 		mvn	r0, #172
 1233              	.LVL173:
 516:Middlewares/Third_Party/wolfSSL_wolfSSL_wolfSSL/wolfssl/wolfcrypt/src/poly1305.c **** 
 1234              		.loc 1 516 16 view .LVU455
 1235 0178 F7E7     		b	.L20
 1236              		.cfi_endproc
 1237              	.LFE181:
ARM GAS  /tmp/ccGcaF1m.s 			page 35


 1239              		.section	.text.wc_Poly1305Update,"ax",%progbits
 1240              		.align	1
 1241              		.global	wc_Poly1305Update
 1242              		.syntax unified
 1243              		.thumb
 1244              		.thumb_func
 1245              		.fpu fpv4-sp-d16
 1247              	wc_Poly1305Update:
 1248              	.LVL174:
 1249              	.LFB182:
 679:Middlewares/Third_Party/wolfSSL_wolfSSL_wolfSSL/wolfssl/wolfcrypt/src/poly1305.c **** #endif /* !defined(WOLFSSL_ARMASM) || !defined(__aarch64__) */
 680:Middlewares/Third_Party/wolfSSL_wolfSSL_wolfSSL/wolfssl/wolfcrypt/src/poly1305.c **** 
 681:Middlewares/Third_Party/wolfSSL_wolfSSL_wolfSSL/wolfssl/wolfcrypt/src/poly1305.c **** 
 682:Middlewares/Third_Party/wolfSSL_wolfSSL_wolfSSL/wolfssl/wolfcrypt/src/poly1305.c **** int wc_Poly1305Update(Poly1305* ctx, const byte* m, word32 bytes)
 683:Middlewares/Third_Party/wolfSSL_wolfSSL_wolfSSL/wolfssl/wolfcrypt/src/poly1305.c **** {
 1250              		.loc 1 683 1 is_stmt 1 view -0
 1251              		.cfi_startproc
 1252              		@ args = 0, pretend = 0, frame = 0
 1253              		@ frame_needed = 0, uses_anonymous_args = 0
 684:Middlewares/Third_Party/wolfSSL_wolfSSL_wolfSSL/wolfssl/wolfcrypt/src/poly1305.c ****     size_t i;
 1254              		.loc 1 684 5 view .LVU457
 685:Middlewares/Third_Party/wolfSSL_wolfSSL_wolfSSL/wolfssl/wolfcrypt/src/poly1305.c **** 
 686:Middlewares/Third_Party/wolfSSL_wolfSSL_wolfSSL/wolfssl/wolfcrypt/src/poly1305.c ****     if (ctx == NULL || (m == NULL && bytes > 0))
 1255              		.loc 1 686 5 view .LVU458
 1256              		.loc 1 686 8 is_stmt 0 view .LVU459
 1257 0000 0028     		cmp	r0, #0
 1258 0002 4BD0     		beq	.L41
 683:Middlewares/Third_Party/wolfSSL_wolfSSL_wolfSSL/wolfssl/wolfcrypt/src/poly1305.c ****     size_t i;
 1259              		.loc 1 683 1 discriminator 1 view .LVU460
 1260 0004 F8B5     		push	{r3, r4, r5, r6, r7, lr}
 1261              	.LCFI10:
 1262              		.cfi_def_cfa_offset 24
 1263              		.cfi_offset 3, -24
 1264              		.cfi_offset 4, -20
 1265              		.cfi_offset 5, -16
 1266              		.cfi_offset 6, -12
 1267              		.cfi_offset 7, -8
 1268              		.cfi_offset 14, -4
 1269 0006 0C46     		mov	r4, r1
 1270 0008 1646     		mov	r6, r2
 1271 000a 0546     		mov	r5, r0
 1272              		.loc 1 686 21 discriminator 1 view .LVU461
 1273 000c 51B1     		cbz	r1, .L51
 1274              	.L33:
 687:Middlewares/Third_Party/wolfSSL_wolfSSL_wolfSSL/wolfssl/wolfcrypt/src/poly1305.c ****         return BAD_FUNC_ARG;
 688:Middlewares/Third_Party/wolfSSL_wolfSSL_wolfSSL/wolfssl/wolfcrypt/src/poly1305.c **** 
 689:Middlewares/Third_Party/wolfSSL_wolfSSL_wolfSSL/wolfssl/wolfcrypt/src/poly1305.c ****     if (bytes == 0) {
 1275              		.loc 1 689 5 is_stmt 1 view .LVU462
 1276              		.loc 1 689 8 is_stmt 0 view .LVU463
 1277 000e 002E     		cmp	r6, #0
 1278 0010 47D0     		beq	.L43
 690:Middlewares/Third_Party/wolfSSL_wolfSSL_wolfSSL/wolfssl/wolfcrypt/src/poly1305.c ****         /* valid, but do nothing */
 691:Middlewares/Third_Party/wolfSSL_wolfSSL_wolfSSL/wolfssl/wolfcrypt/src/poly1305.c ****         return 0;
 692:Middlewares/Third_Party/wolfSSL_wolfSSL_wolfSSL/wolfssl/wolfcrypt/src/poly1305.c ****     }
 693:Middlewares/Third_Party/wolfSSL_wolfSSL_wolfSSL/wolfssl/wolfcrypt/src/poly1305.c **** #ifdef CHACHA_AEAD_TEST
 694:Middlewares/Third_Party/wolfSSL_wolfSSL_wolfSSL/wolfssl/wolfcrypt/src/poly1305.c ****     word32 k;
 695:Middlewares/Third_Party/wolfSSL_wolfSSL_wolfSSL/wolfssl/wolfcrypt/src/poly1305.c ****     printf("Raw input to poly:\n");
ARM GAS  /tmp/ccGcaF1m.s 			page 36


 696:Middlewares/Third_Party/wolfSSL_wolfSSL_wolfSSL/wolfssl/wolfcrypt/src/poly1305.c ****     for (k = 0; k < bytes; k++) {
 697:Middlewares/Third_Party/wolfSSL_wolfSSL_wolfSSL/wolfssl/wolfcrypt/src/poly1305.c ****         printf("%02x", m[k]);
 698:Middlewares/Third_Party/wolfSSL_wolfSSL_wolfSSL/wolfssl/wolfcrypt/src/poly1305.c ****         if ((k+1) % 16 == 0)
 699:Middlewares/Third_Party/wolfSSL_wolfSSL_wolfSSL/wolfssl/wolfcrypt/src/poly1305.c ****             printf("\n");
 700:Middlewares/Third_Party/wolfSSL_wolfSSL_wolfSSL/wolfssl/wolfcrypt/src/poly1305.c ****     }
 701:Middlewares/Third_Party/wolfSSL_wolfSSL_wolfSSL/wolfssl/wolfcrypt/src/poly1305.c ****     printf("\n");
 702:Middlewares/Third_Party/wolfSSL_wolfSSL_wolfSSL/wolfssl/wolfcrypt/src/poly1305.c **** #endif
 703:Middlewares/Third_Party/wolfSSL_wolfSSL_wolfSSL/wolfssl/wolfcrypt/src/poly1305.c **** 
 704:Middlewares/Third_Party/wolfSSL_wolfSSL_wolfSSL/wolfssl/wolfcrypt/src/poly1305.c **** #ifdef USE_INTEL_SPEEDUP
 705:Middlewares/Third_Party/wolfSSL_wolfSSL_wolfSSL/wolfssl/wolfcrypt/src/poly1305.c ****     #ifdef HAVE_INTEL_AVX2
 706:Middlewares/Third_Party/wolfSSL_wolfSSL_wolfSSL/wolfssl/wolfcrypt/src/poly1305.c ****     if (IS_INTEL_AVX2(intel_flags)) {
 707:Middlewares/Third_Party/wolfSSL_wolfSSL_wolfSSL/wolfssl/wolfcrypt/src/poly1305.c ****         /* handle leftover */
 708:Middlewares/Third_Party/wolfSSL_wolfSSL_wolfSSL/wolfssl/wolfcrypt/src/poly1305.c ****         if (ctx->leftover) {
 709:Middlewares/Third_Party/wolfSSL_wolfSSL_wolfSSL/wolfssl/wolfcrypt/src/poly1305.c ****             size_t want = sizeof(ctx->buffer) - ctx->leftover;
 710:Middlewares/Third_Party/wolfSSL_wolfSSL_wolfSSL/wolfssl/wolfcrypt/src/poly1305.c ****             if (want > bytes)
 711:Middlewares/Third_Party/wolfSSL_wolfSSL_wolfSSL/wolfssl/wolfcrypt/src/poly1305.c ****                 want = bytes;
 712:Middlewares/Third_Party/wolfSSL_wolfSSL_wolfSSL/wolfssl/wolfcrypt/src/poly1305.c **** 
 713:Middlewares/Third_Party/wolfSSL_wolfSSL_wolfSSL/wolfssl/wolfcrypt/src/poly1305.c ****             for (i = 0; i < want; i++)
 714:Middlewares/Third_Party/wolfSSL_wolfSSL_wolfSSL/wolfssl/wolfcrypt/src/poly1305.c ****                 ctx->buffer[ctx->leftover + i] = m[i];
 715:Middlewares/Third_Party/wolfSSL_wolfSSL_wolfSSL/wolfssl/wolfcrypt/src/poly1305.c ****             bytes -= (word32)want;
 716:Middlewares/Third_Party/wolfSSL_wolfSSL_wolfSSL/wolfssl/wolfcrypt/src/poly1305.c ****             m += want;
 717:Middlewares/Third_Party/wolfSSL_wolfSSL_wolfSSL/wolfssl/wolfcrypt/src/poly1305.c ****             ctx->leftover += want;
 718:Middlewares/Third_Party/wolfSSL_wolfSSL_wolfSSL/wolfssl/wolfcrypt/src/poly1305.c ****             if (ctx->leftover < sizeof(ctx->buffer))
 719:Middlewares/Third_Party/wolfSSL_wolfSSL_wolfSSL/wolfssl/wolfcrypt/src/poly1305.c ****                 return 0;
 720:Middlewares/Third_Party/wolfSSL_wolfSSL_wolfSSL/wolfssl/wolfcrypt/src/poly1305.c **** 
 721:Middlewares/Third_Party/wolfSSL_wolfSSL_wolfSSL/wolfssl/wolfcrypt/src/poly1305.c ****             SAVE_VECTOR_REGISTERS();
 722:Middlewares/Third_Party/wolfSSL_wolfSSL_wolfSSL/wolfssl/wolfcrypt/src/poly1305.c ****             if (!ctx->started)
 723:Middlewares/Third_Party/wolfSSL_wolfSSL_wolfSSL/wolfssl/wolfcrypt/src/poly1305.c ****                 poly1305_calc_powers_avx2(ctx);
 724:Middlewares/Third_Party/wolfSSL_wolfSSL_wolfSSL/wolfssl/wolfcrypt/src/poly1305.c ****             poly1305_blocks_avx2(ctx, ctx->buffer, sizeof(ctx->buffer));
 725:Middlewares/Third_Party/wolfSSL_wolfSSL_wolfSSL/wolfssl/wolfcrypt/src/poly1305.c ****             ctx->leftover = 0;
 726:Middlewares/Third_Party/wolfSSL_wolfSSL_wolfSSL/wolfssl/wolfcrypt/src/poly1305.c ****         } else
 727:Middlewares/Third_Party/wolfSSL_wolfSSL_wolfSSL/wolfssl/wolfcrypt/src/poly1305.c ****             SAVE_VECTOR_REGISTERS();
 728:Middlewares/Third_Party/wolfSSL_wolfSSL_wolfSSL/wolfssl/wolfcrypt/src/poly1305.c **** 
 729:Middlewares/Third_Party/wolfSSL_wolfSSL_wolfSSL/wolfssl/wolfcrypt/src/poly1305.c ****         /* process full blocks */
 730:Middlewares/Third_Party/wolfSSL_wolfSSL_wolfSSL/wolfssl/wolfcrypt/src/poly1305.c ****         if (bytes >= sizeof(ctx->buffer)) {
 731:Middlewares/Third_Party/wolfSSL_wolfSSL_wolfSSL/wolfssl/wolfcrypt/src/poly1305.c ****             size_t want = bytes & ~(sizeof(ctx->buffer) - 1);
 732:Middlewares/Third_Party/wolfSSL_wolfSSL_wolfSSL/wolfssl/wolfcrypt/src/poly1305.c **** 
 733:Middlewares/Third_Party/wolfSSL_wolfSSL_wolfSSL/wolfssl/wolfcrypt/src/poly1305.c ****             if (!ctx->started)
 734:Middlewares/Third_Party/wolfSSL_wolfSSL_wolfSSL/wolfssl/wolfcrypt/src/poly1305.c ****                 poly1305_calc_powers_avx2(ctx);
 735:Middlewares/Third_Party/wolfSSL_wolfSSL_wolfSSL/wolfssl/wolfcrypt/src/poly1305.c ****             poly1305_blocks_avx2(ctx, m, want);
 736:Middlewares/Third_Party/wolfSSL_wolfSSL_wolfSSL/wolfssl/wolfcrypt/src/poly1305.c ****             m += want;
 737:Middlewares/Third_Party/wolfSSL_wolfSSL_wolfSSL/wolfssl/wolfcrypt/src/poly1305.c ****             bytes -= (word32)want;
 738:Middlewares/Third_Party/wolfSSL_wolfSSL_wolfSSL/wolfssl/wolfcrypt/src/poly1305.c ****         }
 739:Middlewares/Third_Party/wolfSSL_wolfSSL_wolfSSL/wolfssl/wolfcrypt/src/poly1305.c **** 
 740:Middlewares/Third_Party/wolfSSL_wolfSSL_wolfSSL/wolfssl/wolfcrypt/src/poly1305.c ****         /* store leftover */
 741:Middlewares/Third_Party/wolfSSL_wolfSSL_wolfSSL/wolfssl/wolfcrypt/src/poly1305.c ****         if (bytes) {
 742:Middlewares/Third_Party/wolfSSL_wolfSSL_wolfSSL/wolfssl/wolfcrypt/src/poly1305.c ****             for (i = 0; i < bytes; i++)
 743:Middlewares/Third_Party/wolfSSL_wolfSSL_wolfSSL/wolfssl/wolfcrypt/src/poly1305.c ****                 ctx->buffer[ctx->leftover + i] = m[i];
 744:Middlewares/Third_Party/wolfSSL_wolfSSL_wolfSSL/wolfssl/wolfcrypt/src/poly1305.c ****             ctx->leftover += bytes;
 745:Middlewares/Third_Party/wolfSSL_wolfSSL_wolfSSL/wolfssl/wolfcrypt/src/poly1305.c ****         }
 746:Middlewares/Third_Party/wolfSSL_wolfSSL_wolfSSL/wolfssl/wolfcrypt/src/poly1305.c ****         RESTORE_VECTOR_REGISTERS();
 747:Middlewares/Third_Party/wolfSSL_wolfSSL_wolfSSL/wolfssl/wolfcrypt/src/poly1305.c ****     }
 748:Middlewares/Third_Party/wolfSSL_wolfSSL_wolfSSL/wolfssl/wolfcrypt/src/poly1305.c ****     else
 749:Middlewares/Third_Party/wolfSSL_wolfSSL_wolfSSL/wolfssl/wolfcrypt/src/poly1305.c ****     #endif
 750:Middlewares/Third_Party/wolfSSL_wolfSSL_wolfSSL/wolfssl/wolfcrypt/src/poly1305.c **** #endif
 751:Middlewares/Third_Party/wolfSSL_wolfSSL_wolfSSL/wolfssl/wolfcrypt/src/poly1305.c ****     {
 752:Middlewares/Third_Party/wolfSSL_wolfSSL_wolfSSL/wolfssl/wolfcrypt/src/poly1305.c ****         /* handle leftover */
ARM GAS  /tmp/ccGcaF1m.s 			page 37


 753:Middlewares/Third_Party/wolfSSL_wolfSSL_wolfSSL/wolfssl/wolfcrypt/src/poly1305.c ****         if (ctx->leftover) {
 1279              		.loc 1 753 9 is_stmt 1 view .LVU464
 1280              		.loc 1 753 16 is_stmt 0 view .LVU465
 1281 0012 AA6B     		ldr	r2, [r5, #56]
 1282              	.LVL175:
 1283              		.loc 1 753 12 view .LVU466
 1284 0014 1AB3     		cbz	r2, .L34
 1285              	.LBB7:
 754:Middlewares/Third_Party/wolfSSL_wolfSSL_wolfSSL/wolfssl/wolfcrypt/src/poly1305.c ****             size_t want = (POLY1305_BLOCK_SIZE - ctx->leftover);
 1286              		.loc 1 754 13 is_stmt 1 view .LVU467
 1287              		.loc 1 754 20 is_stmt 0 view .LVU468
 1288 0016 C2F1100C 		rsb	ip, r2, #16
 1289              	.LVL176:
 755:Middlewares/Third_Party/wolfSSL_wolfSSL_wolfSSL/wolfssl/wolfcrypt/src/poly1305.c ****             if (want > bytes)
 1290              		.loc 1 755 13 is_stmt 1 view .LVU469
 1291              		.loc 1 755 16 is_stmt 0 view .LVU470
 1292 001a 6645     		cmp	r6, ip
 1293 001c 00D2     		bcs	.L35
 756:Middlewares/Third_Party/wolfSSL_wolfSSL_wolfSSL/wolfssl/wolfcrypt/src/poly1305.c ****                 want = bytes;
 1294              		.loc 1 756 22 view .LVU471
 1295 001e B446     		mov	ip, r6
 1296              	.LVL177:
 1297              	.L35:
 757:Middlewares/Third_Party/wolfSSL_wolfSSL_wolfSSL/wolfssl/wolfcrypt/src/poly1305.c ****             for (i = 0; i < want; i++)
 1298              		.loc 1 757 13 is_stmt 1 view .LVU472
 1299              		.loc 1 757 20 is_stmt 0 view .LVU473
 1300 0020 0023     		movs	r3, #0
 1301              		.loc 1 757 13 view .LVU474
 1302 0022 0AE0     		b	.L36
 1303              	.LVL178:
 1304              	.L51:
 1305              		.loc 1 757 13 view .LVU475
 1306              	.LBE7:
 686:Middlewares/Third_Party/wolfSSL_wolfSSL_wolfSSL/wolfssl/wolfcrypt/src/poly1305.c ****         return BAD_FUNC_ARG;
 1307              		.loc 1 686 35 discriminator 2 view .LVU476
 1308 0024 002A     		cmp	r2, #0
 1309 0026 F2D0     		beq	.L33
 687:Middlewares/Third_Party/wolfSSL_wolfSSL_wolfSSL/wolfssl/wolfcrypt/src/poly1305.c **** 
 1310              		.loc 1 687 16 view .LVU477
 1311 0028 6FF0AC00 		mvn	r0, #172
 1312              	.LVL179:
 687:Middlewares/Third_Party/wolfSSL_wolfSSL_wolfSSL/wolfssl/wolfcrypt/src/poly1305.c **** 
 1313              		.loc 1 687 16 view .LVU478
 1314 002c 3AE0     		b	.L31
 1315              	.LVL180:
 1316              	.L37:
 1317              	.LBB8:
 758:Middlewares/Third_Party/wolfSSL_wolfSSL_wolfSSL/wolfssl/wolfcrypt/src/poly1305.c ****                 ctx->buffer[ctx->leftover + i] = m[i];
 1318              		.loc 1 758 17 is_stmt 1 discriminator 3 view .LVU479
 1319              		.loc 1 758 43 is_stmt 0 discriminator 3 view .LVU480
 1320 002e D018     		adds	r0, r2, r3
 1321              		.loc 1 758 51 discriminator 3 view .LVU481
 1322 0030 E15C     		ldrb	r1, [r4, r3]	@ zero_extendqisi2
 1323              		.loc 1 758 48 discriminator 3 view .LVU482
 1324 0032 2844     		add	r0, r0, r5
 1325 0034 80F83C10 		strb	r1, [r0, #60]
 757:Middlewares/Third_Party/wolfSSL_wolfSSL_wolfSSL/wolfssl/wolfcrypt/src/poly1305.c ****                 ctx->buffer[ctx->leftover + i] = m[i];
ARM GAS  /tmp/ccGcaF1m.s 			page 38


 1326              		.loc 1 757 35 is_stmt 1 discriminator 3 view .LVU483
 757:Middlewares/Third_Party/wolfSSL_wolfSSL_wolfSSL/wolfssl/wolfcrypt/src/poly1305.c ****                 ctx->buffer[ctx->leftover + i] = m[i];
 1327              		.loc 1 757 36 is_stmt 0 discriminator 3 view .LVU484
 1328 0038 0133     		adds	r3, r3, #1
 1329              	.LVL181:
 1330              	.L36:
 757:Middlewares/Third_Party/wolfSSL_wolfSSL_wolfSSL/wolfssl/wolfcrypt/src/poly1305.c ****                 ctx->buffer[ctx->leftover + i] = m[i];
 1331              		.loc 1 757 25 is_stmt 1 discriminator 1 view .LVU485
 757:Middlewares/Third_Party/wolfSSL_wolfSSL_wolfSSL/wolfssl/wolfcrypt/src/poly1305.c ****                 ctx->buffer[ctx->leftover + i] = m[i];
 1332              		.loc 1 757 13 is_stmt 0 discriminator 1 view .LVU486
 1333 003a 6345     		cmp	r3, ip
 1334 003c F7D3     		bcc	.L37
 759:Middlewares/Third_Party/wolfSSL_wolfSSL_wolfSSL/wolfssl/wolfcrypt/src/poly1305.c ****             bytes -= (word32)want;
 1335              		.loc 1 759 13 is_stmt 1 view .LVU487
 1336              		.loc 1 759 19 is_stmt 0 view .LVU488
 1337 003e A6EB0C06 		sub	r6, r6, ip
 1338              	.LVL182:
 760:Middlewares/Third_Party/wolfSSL_wolfSSL_wolfSSL/wolfssl/wolfcrypt/src/poly1305.c ****             m += want;
 1339              		.loc 1 760 13 is_stmt 1 view .LVU489
 1340              		.loc 1 760 15 is_stmt 0 view .LVU490
 1341 0042 6444     		add	r4, r4, ip
 1342              	.LVL183:
 761:Middlewares/Third_Party/wolfSSL_wolfSSL_wolfSSL/wolfssl/wolfcrypt/src/poly1305.c ****             ctx->leftover += want;
 1343              		.loc 1 761 13 is_stmt 1 view .LVU491
 1344              		.loc 1 761 27 is_stmt 0 view .LVU492
 1345 0044 6244     		add	r2, r2, ip
 1346 0046 AA63     		str	r2, [r5, #56]
 762:Middlewares/Third_Party/wolfSSL_wolfSSL_wolfSSL/wolfssl/wolfcrypt/src/poly1305.c ****             if (ctx->leftover < POLY1305_BLOCK_SIZE)
 1347              		.loc 1 762 13 is_stmt 1 view .LVU493
 1348              		.loc 1 762 16 is_stmt 0 view .LVU494
 1349 0048 0F2A     		cmp	r2, #15
 1350 004a 01D8     		bhi	.L52
 763:Middlewares/Third_Party/wolfSSL_wolfSSL_wolfSSL/wolfssl/wolfcrypt/src/poly1305.c ****                 return 0;
 1351              		.loc 1 763 24 view .LVU495
 1352 004c 0020     		movs	r0, #0
 1353 004e 29E0     		b	.L31
 1354              	.L52:
 764:Middlewares/Third_Party/wolfSSL_wolfSSL_wolfSSL/wolfssl/wolfcrypt/src/poly1305.c ****             poly1305_block(ctx, ctx->buffer);
 1355              		.loc 1 764 13 is_stmt 1 view .LVU496
 1356 0050 05F13C01 		add	r1, r5, #60
 1357 0054 2846     		mov	r0, r5
 1358 0056 FFF7FEFF 		bl	poly1305_block
 1359              	.LVL184:
 765:Middlewares/Third_Party/wolfSSL_wolfSSL_wolfSSL/wolfssl/wolfcrypt/src/poly1305.c ****             ctx->leftover = 0;
 1360              		.loc 1 765 13 view .LVU497
 1361              		.loc 1 765 27 is_stmt 0 view .LVU498
 1362 005a 0023     		movs	r3, #0
 1363 005c AB63     		str	r3, [r5, #56]
 1364              	.L34:
 1365              		.loc 1 765 27 view .LVU499
 1366              	.LBE8:
 766:Middlewares/Third_Party/wolfSSL_wolfSSL_wolfSSL/wolfssl/wolfcrypt/src/poly1305.c ****         }
 767:Middlewares/Third_Party/wolfSSL_wolfSSL_wolfSSL/wolfssl/wolfcrypt/src/poly1305.c **** 
 768:Middlewares/Third_Party/wolfSSL_wolfSSL_wolfSSL/wolfssl/wolfcrypt/src/poly1305.c ****         /* process full blocks */
 769:Middlewares/Third_Party/wolfSSL_wolfSSL_wolfSSL/wolfssl/wolfcrypt/src/poly1305.c ****         if (bytes >= POLY1305_BLOCK_SIZE) {
 1367              		.loc 1 769 9 is_stmt 1 view .LVU500
 1368              		.loc 1 769 12 is_stmt 0 view .LVU501
ARM GAS  /tmp/ccGcaF1m.s 			page 39


 1369 005e 0F2E     		cmp	r6, #15
 1370 0060 02D8     		bhi	.L53
 1371              	.L38:
 770:Middlewares/Third_Party/wolfSSL_wolfSSL_wolfSSL/wolfssl/wolfcrypt/src/poly1305.c ****             size_t want = (bytes & ~(POLY1305_BLOCK_SIZE - 1));
 771:Middlewares/Third_Party/wolfSSL_wolfSSL_wolfSSL/wolfssl/wolfcrypt/src/poly1305.c ****             poly1305_blocks(ctx, m, want);
 772:Middlewares/Third_Party/wolfSSL_wolfSSL_wolfSSL/wolfssl/wolfcrypt/src/poly1305.c ****             m += want;
 773:Middlewares/Third_Party/wolfSSL_wolfSSL_wolfSSL/wolfssl/wolfcrypt/src/poly1305.c ****             bytes -= (word32)want;
 774:Middlewares/Third_Party/wolfSSL_wolfSSL_wolfSSL/wolfssl/wolfcrypt/src/poly1305.c ****         }
 775:Middlewares/Third_Party/wolfSSL_wolfSSL_wolfSSL/wolfssl/wolfcrypt/src/poly1305.c **** 
 776:Middlewares/Third_Party/wolfSSL_wolfSSL_wolfSSL/wolfssl/wolfcrypt/src/poly1305.c ****         /* store leftover */
 777:Middlewares/Third_Party/wolfSSL_wolfSSL_wolfSSL/wolfssl/wolfcrypt/src/poly1305.c ****         if (bytes) {
 1372              		.loc 1 777 9 is_stmt 1 view .LVU502
 1373              		.loc 1 777 12 is_stmt 0 view .LVU503
 1374 0062 CEB9     		cbnz	r6, .L46
 778:Middlewares/Third_Party/wolfSSL_wolfSSL_wolfSSL/wolfssl/wolfcrypt/src/poly1305.c ****             for (i = 0; i < bytes; i++)
 779:Middlewares/Third_Party/wolfSSL_wolfSSL_wolfSSL/wolfssl/wolfcrypt/src/poly1305.c ****                 ctx->buffer[ctx->leftover + i] = m[i];
 780:Middlewares/Third_Party/wolfSSL_wolfSSL_wolfSSL/wolfssl/wolfcrypt/src/poly1305.c ****             ctx->leftover += bytes;
 781:Middlewares/Third_Party/wolfSSL_wolfSSL_wolfSSL/wolfssl/wolfcrypt/src/poly1305.c ****         }
 782:Middlewares/Third_Party/wolfSSL_wolfSSL_wolfSSL/wolfssl/wolfcrypt/src/poly1305.c ****     }
 783:Middlewares/Third_Party/wolfSSL_wolfSSL_wolfSSL/wolfssl/wolfcrypt/src/poly1305.c **** 
 784:Middlewares/Third_Party/wolfSSL_wolfSSL_wolfSSL/wolfssl/wolfcrypt/src/poly1305.c ****     return 0;
 1375              		.loc 1 784 12 view .LVU504
 1376 0064 0020     		movs	r0, #0
 1377 0066 1DE0     		b	.L31
 1378              	.L53:
 1379              	.LBB9:
 770:Middlewares/Third_Party/wolfSSL_wolfSSL_wolfSSL/wolfssl/wolfcrypt/src/poly1305.c ****             size_t want = (bytes & ~(POLY1305_BLOCK_SIZE - 1));
 1380              		.loc 1 770 13 is_stmt 1 view .LVU505
 770:Middlewares/Third_Party/wolfSSL_wolfSSL_wolfSSL/wolfssl/wolfcrypt/src/poly1305.c ****             size_t want = (bytes & ~(POLY1305_BLOCK_SIZE - 1));
 1381              		.loc 1 770 20 is_stmt 0 view .LVU506
 1382 0068 26F00F07 		bic	r7, r6, #15
 1383              	.LVL185:
 771:Middlewares/Third_Party/wolfSSL_wolfSSL_wolfSSL/wolfssl/wolfcrypt/src/poly1305.c ****             m += want;
 1384              		.loc 1 771 13 is_stmt 1 view .LVU507
 1385 006c 3A46     		mov	r2, r7
 1386 006e 2146     		mov	r1, r4
 1387 0070 2846     		mov	r0, r5
 1388 0072 FFF7FEFF 		bl	poly1305_blocks
 1389              	.LVL186:
 772:Middlewares/Third_Party/wolfSSL_wolfSSL_wolfSSL/wolfssl/wolfcrypt/src/poly1305.c ****             bytes -= (word32)want;
 1390              		.loc 1 772 13 view .LVU508
 772:Middlewares/Third_Party/wolfSSL_wolfSSL_wolfSSL/wolfssl/wolfcrypt/src/poly1305.c ****             bytes -= (word32)want;
 1391              		.loc 1 772 15 is_stmt 0 view .LVU509
 1392 0076 3C44     		add	r4, r4, r7
 1393              	.LVL187:
 773:Middlewares/Third_Party/wolfSSL_wolfSSL_wolfSSL/wolfssl/wolfcrypt/src/poly1305.c ****         }
 1394              		.loc 1 773 13 is_stmt 1 view .LVU510
 773:Middlewares/Third_Party/wolfSSL_wolfSSL_wolfSSL/wolfssl/wolfcrypt/src/poly1305.c ****         }
 1395              		.loc 1 773 19 is_stmt 0 view .LVU511
 1396 0078 F61B     		subs	r6, r6, r7
 1397              	.LVL188:
 773:Middlewares/Third_Party/wolfSSL_wolfSSL_wolfSSL/wolfssl/wolfcrypt/src/poly1305.c ****         }
 1398              		.loc 1 773 19 view .LVU512
 1399 007a F2E7     		b	.L38
 1400              	.LVL189:
 1401              	.L40:
 773:Middlewares/Third_Party/wolfSSL_wolfSSL_wolfSSL/wolfssl/wolfcrypt/src/poly1305.c ****         }
ARM GAS  /tmp/ccGcaF1m.s 			page 40


 1402              		.loc 1 773 19 view .LVU513
 1403              	.LBE9:
 779:Middlewares/Third_Party/wolfSSL_wolfSSL_wolfSSL/wolfssl/wolfcrypt/src/poly1305.c ****             ctx->leftover += bytes;
 1404              		.loc 1 779 17 is_stmt 1 discriminator 3 view .LVU514
 779:Middlewares/Third_Party/wolfSSL_wolfSSL_wolfSSL/wolfssl/wolfcrypt/src/poly1305.c ****             ctx->leftover += bytes;
 1405              		.loc 1 779 32 is_stmt 0 discriminator 3 view .LVU515
 1406 007c AB6B     		ldr	r3, [r5, #56]
 779:Middlewares/Third_Party/wolfSSL_wolfSSL_wolfSSL/wolfssl/wolfcrypt/src/poly1305.c ****             ctx->leftover += bytes;
 1407              		.loc 1 779 43 discriminator 3 view .LVU516
 1408 007e 1344     		add	r3, r3, r2
 779:Middlewares/Third_Party/wolfSSL_wolfSSL_wolfSSL/wolfssl/wolfcrypt/src/poly1305.c ****             ctx->leftover += bytes;
 1409              		.loc 1 779 51 discriminator 3 view .LVU517
 1410 0080 A15C     		ldrb	r1, [r4, r2]	@ zero_extendqisi2
 779:Middlewares/Third_Party/wolfSSL_wolfSSL_wolfSSL/wolfssl/wolfcrypt/src/poly1305.c ****             ctx->leftover += bytes;
 1411              		.loc 1 779 48 discriminator 3 view .LVU518
 1412 0082 2B44     		add	r3, r3, r5
 1413 0084 83F83C10 		strb	r1, [r3, #60]
 778:Middlewares/Third_Party/wolfSSL_wolfSSL_wolfSSL/wolfssl/wolfcrypt/src/poly1305.c ****                 ctx->buffer[ctx->leftover + i] = m[i];
 1414              		.loc 1 778 36 is_stmt 1 discriminator 3 view .LVU519
 778:Middlewares/Third_Party/wolfSSL_wolfSSL_wolfSSL/wolfssl/wolfcrypt/src/poly1305.c ****                 ctx->buffer[ctx->leftover + i] = m[i];
 1415              		.loc 1 778 37 is_stmt 0 discriminator 3 view .LVU520
 1416 0088 0132     		adds	r2, r2, #1
 1417              	.LVL190:
 1418              	.L39:
 778:Middlewares/Third_Party/wolfSSL_wolfSSL_wolfSSL/wolfssl/wolfcrypt/src/poly1305.c ****                 ctx->buffer[ctx->leftover + i] = m[i];
 1419              		.loc 1 778 25 is_stmt 1 discriminator 1 view .LVU521
 778:Middlewares/Third_Party/wolfSSL_wolfSSL_wolfSSL/wolfssl/wolfcrypt/src/poly1305.c ****                 ctx->buffer[ctx->leftover + i] = m[i];
 1420              		.loc 1 778 13 is_stmt 0 discriminator 1 view .LVU522
 1421 008a 9642     		cmp	r6, r2
 1422 008c F6D8     		bhi	.L40
 780:Middlewares/Third_Party/wolfSSL_wolfSSL_wolfSSL/wolfssl/wolfcrypt/src/poly1305.c ****         }
 1423              		.loc 1 780 13 is_stmt 1 view .LVU523
 780:Middlewares/Third_Party/wolfSSL_wolfSSL_wolfSSL/wolfssl/wolfcrypt/src/poly1305.c ****         }
 1424              		.loc 1 780 27 is_stmt 0 view .LVU524
 1425 008e AB6B     		ldr	r3, [r5, #56]
 1426 0090 3344     		add	r3, r3, r6
 1427 0092 AB63     		str	r3, [r5, #56]
 1428              		.loc 1 784 12 view .LVU525
 1429 0094 0020     		movs	r0, #0
 1430 0096 05E0     		b	.L31
 1431              	.LVL191:
 1432              	.L46:
 778:Middlewares/Third_Party/wolfSSL_wolfSSL_wolfSSL/wolfssl/wolfcrypt/src/poly1305.c ****                 ctx->buffer[ctx->leftover + i] = m[i];
 1433              		.loc 1 778 20 view .LVU526
 1434 0098 0022     		movs	r2, #0
 1435 009a F6E7     		b	.L39
 1436              	.LVL192:
 1437              	.L41:
 1438              	.LCFI11:
 1439              		.cfi_def_cfa_offset 0
 1440              		.cfi_restore 3
 1441              		.cfi_restore 4
 1442              		.cfi_restore 5
 1443              		.cfi_restore 6
 1444              		.cfi_restore 7
 1445              		.cfi_restore 14
 687:Middlewares/Third_Party/wolfSSL_wolfSSL_wolfSSL/wolfssl/wolfcrypt/src/poly1305.c **** 
ARM GAS  /tmp/ccGcaF1m.s 			page 41


 1446              		.loc 1 687 16 view .LVU527
 1447 009c 6FF0AC00 		mvn	r0, #172
 1448              	.LVL193:
 785:Middlewares/Third_Party/wolfSSL_wolfSSL_wolfSSL/wolfssl/wolfcrypt/src/poly1305.c **** }
 1449              		.loc 1 785 1 view .LVU528
 1450 00a0 7047     		bx	lr
 1451              	.LVL194:
 1452              	.L43:
 1453              	.LCFI12:
 1454              		.cfi_def_cfa_offset 24
 1455              		.cfi_offset 3, -24
 1456              		.cfi_offset 4, -20
 1457              		.cfi_offset 5, -16
 1458              		.cfi_offset 6, -12
 1459              		.cfi_offset 7, -8
 1460              		.cfi_offset 14, -4
 691:Middlewares/Third_Party/wolfSSL_wolfSSL_wolfSSL/wolfssl/wolfcrypt/src/poly1305.c ****     }
 1461              		.loc 1 691 16 view .LVU529
 1462 00a2 0020     		movs	r0, #0
 1463              	.LVL195:
 1464              	.L31:
 1465              		.loc 1 785 1 view .LVU530
 1466 00a4 F8BD     		pop	{r3, r4, r5, r6, r7, pc}
 1467              		.loc 1 785 1 view .LVU531
 1468              		.cfi_endproc
 1469              	.LFE182:
 1471              		.section	.text.wc_Poly1305_Pad,"ax",%progbits
 1472              		.align	1
 1473              		.global	wc_Poly1305_Pad
 1474              		.syntax unified
 1475              		.thumb
 1476              		.thumb_func
 1477              		.fpu fpv4-sp-d16
 1479              	wc_Poly1305_Pad:
 1480              	.LVL196:
 1481              	.LFB183:
 786:Middlewares/Third_Party/wolfSSL_wolfSSL_wolfSSL/wolfssl/wolfcrypt/src/poly1305.c **** 
 787:Middlewares/Third_Party/wolfSSL_wolfSSL_wolfSSL/wolfssl/wolfcrypt/src/poly1305.c **** /*  Takes a Poly1305 struct that has a key loaded and pads the provided length
 788:Middlewares/Third_Party/wolfSSL_wolfSSL_wolfSSL/wolfssl/wolfcrypt/src/poly1305.c ****     ctx        : Initialized Poly1305 struct to use
 789:Middlewares/Third_Party/wolfSSL_wolfSSL_wolfSSL/wolfssl/wolfcrypt/src/poly1305.c ****     lenToPad   : Current number of bytes updated that needs padding to 16
 790:Middlewares/Third_Party/wolfSSL_wolfSSL_wolfSSL/wolfssl/wolfcrypt/src/poly1305.c ****  */
 791:Middlewares/Third_Party/wolfSSL_wolfSSL_wolfSSL/wolfssl/wolfcrypt/src/poly1305.c **** int wc_Poly1305_Pad(Poly1305* ctx, word32 lenToPad)
 792:Middlewares/Third_Party/wolfSSL_wolfSSL_wolfSSL/wolfssl/wolfcrypt/src/poly1305.c **** {
 1482              		.loc 1 792 1 is_stmt 1 view -0
 1483              		.cfi_startproc
 1484              		@ args = 0, pretend = 0, frame = 16
 1485              		@ frame_needed = 0, uses_anonymous_args = 0
 793:Middlewares/Third_Party/wolfSSL_wolfSSL_wolfSSL/wolfssl/wolfcrypt/src/poly1305.c ****     int ret = 0;
 1486              		.loc 1 793 5 view .LVU533
 794:Middlewares/Third_Party/wolfSSL_wolfSSL_wolfSSL/wolfssl/wolfcrypt/src/poly1305.c ****     word32 paddingLen;
 1487              		.loc 1 794 5 view .LVU534
 795:Middlewares/Third_Party/wolfSSL_wolfSSL_wolfSSL/wolfssl/wolfcrypt/src/poly1305.c ****     byte padding[WC_POLY1305_PAD_SZ - 1];
 1488              		.loc 1 795 5 view .LVU535
 796:Middlewares/Third_Party/wolfSSL_wolfSSL_wolfSSL/wolfssl/wolfcrypt/src/poly1305.c **** 
 797:Middlewares/Third_Party/wolfSSL_wolfSSL_wolfSSL/wolfssl/wolfcrypt/src/poly1305.c ****     if (ctx == NULL) {
 1489              		.loc 1 797 5 view .LVU536
 1490              		.loc 1 797 8 is_stmt 0 view .LVU537
ARM GAS  /tmp/ccGcaF1m.s 			page 42


 1491 0000 B0B1     		cbz	r0, .L56
 798:Middlewares/Third_Party/wolfSSL_wolfSSL_wolfSSL/wolfssl/wolfcrypt/src/poly1305.c ****         return BAD_FUNC_ARG;
 799:Middlewares/Third_Party/wolfSSL_wolfSSL_wolfSSL/wolfssl/wolfcrypt/src/poly1305.c ****     }
 800:Middlewares/Third_Party/wolfSSL_wolfSSL_wolfSSL/wolfssl/wolfcrypt/src/poly1305.c ****     if (lenToPad == 0) {
 1492              		.loc 1 800 5 is_stmt 1 view .LVU538
 1493              		.loc 1 800 8 is_stmt 0 view .LVU539
 1494 0002 09B9     		cbnz	r1, .L63
 801:Middlewares/Third_Party/wolfSSL_wolfSSL_wolfSSL/wolfssl/wolfcrypt/src/poly1305.c ****         return 0; /* nothing needs to be done */
 1495              		.loc 1 801 16 view .LVU540
 1496 0004 0020     		movs	r0, #0
 1497              	.LVL197:
 802:Middlewares/Third_Party/wolfSSL_wolfSSL_wolfSSL/wolfssl/wolfcrypt/src/poly1305.c ****     }
 803:Middlewares/Third_Party/wolfSSL_wolfSSL_wolfSSL/wolfssl/wolfcrypt/src/poly1305.c **** 
 804:Middlewares/Third_Party/wolfSSL_wolfSSL_wolfSSL/wolfssl/wolfcrypt/src/poly1305.c ****     XMEMSET(padding, 0, sizeof(padding));
 805:Middlewares/Third_Party/wolfSSL_wolfSSL_wolfSSL/wolfssl/wolfcrypt/src/poly1305.c **** 
 806:Middlewares/Third_Party/wolfSSL_wolfSSL_wolfSSL/wolfssl/wolfcrypt/src/poly1305.c ****     /* Pad length to 16 bytes */
 807:Middlewares/Third_Party/wolfSSL_wolfSSL_wolfSSL/wolfssl/wolfcrypt/src/poly1305.c ****     paddingLen = -(int)lenToPad & (WC_POLY1305_PAD_SZ - 1);
 808:Middlewares/Third_Party/wolfSSL_wolfSSL_wolfSSL/wolfssl/wolfcrypt/src/poly1305.c ****     if (paddingLen > 0) {
 809:Middlewares/Third_Party/wolfSSL_wolfSSL_wolfSSL/wolfssl/wolfcrypt/src/poly1305.c ****         ret = wc_Poly1305Update(ctx, padding, paddingLen);
 810:Middlewares/Third_Party/wolfSSL_wolfSSL_wolfSSL/wolfssl/wolfcrypt/src/poly1305.c ****     }
 811:Middlewares/Third_Party/wolfSSL_wolfSSL_wolfSSL/wolfssl/wolfcrypt/src/poly1305.c ****     return ret;
 812:Middlewares/Third_Party/wolfSSL_wolfSSL_wolfSSL/wolfssl/wolfcrypt/src/poly1305.c **** }
 1498              		.loc 1 812 1 view .LVU541
 1499 0006 7047     		bx	lr
 1500              	.LVL198:
 1501              	.L63:
 792:Middlewares/Third_Party/wolfSSL_wolfSSL_wolfSSL/wolfssl/wolfcrypt/src/poly1305.c ****     int ret = 0;
 1502              		.loc 1 792 1 view .LVU542
 1503 0008 00B5     		push	{lr}
 1504              	.LCFI13:
 1505              		.cfi_def_cfa_offset 4
 1506              		.cfi_offset 14, -4
 1507 000a 85B0     		sub	sp, sp, #20
 1508              	.LCFI14:
 1509              		.cfi_def_cfa_offset 24
 804:Middlewares/Third_Party/wolfSSL_wolfSSL_wolfSSL/wolfssl/wolfcrypt/src/poly1305.c **** 
 1510              		.loc 1 804 5 is_stmt 1 view .LVU543
 1511 000c 0023     		movs	r3, #0
 1512 000e 0093     		str	r3, [sp]
 1513 0010 0193     		str	r3, [sp, #4]
 1514 0012 0293     		str	r3, [sp, #8]
 1515 0014 CDF80B30 		str	r3, [sp, #11]	@ unaligned
 807:Middlewares/Third_Party/wolfSSL_wolfSSL_wolfSSL/wolfssl/wolfcrypt/src/poly1305.c ****     if (paddingLen > 0) {
 1516              		.loc 1 807 5 view .LVU544
 807:Middlewares/Third_Party/wolfSSL_wolfSSL_wolfSSL/wolfssl/wolfcrypt/src/poly1305.c ****     if (paddingLen > 0) {
 1517              		.loc 1 807 18 is_stmt 0 view .LVU545
 1518 0018 4942     		rsbs	r1, r1, #0
 1519              	.LVL199:
 808:Middlewares/Third_Party/wolfSSL_wolfSSL_wolfSSL/wolfssl/wolfcrypt/src/poly1305.c ****         ret = wc_Poly1305Update(ctx, padding, paddingLen);
 1520              		.loc 1 808 5 is_stmt 1 view .LVU546
 808:Middlewares/Third_Party/wolfSSL_wolfSSL_wolfSSL/wolfssl/wolfcrypt/src/poly1305.c ****         ret = wc_Poly1305Update(ctx, padding, paddingLen);
 1521              		.loc 1 808 8 is_stmt 0 view .LVU547
 1522 001a 11F00F02 		ands	r2, r1, #15
 1523              	.LVL200:
 808:Middlewares/Third_Party/wolfSSL_wolfSSL_wolfSSL/wolfssl/wolfcrypt/src/poly1305.c ****         ret = wc_Poly1305Update(ctx, padding, paddingLen);
 1524              		.loc 1 808 8 view .LVU548
 1525 001e 03D1     		bne	.L64
ARM GAS  /tmp/ccGcaF1m.s 			page 43


 793:Middlewares/Third_Party/wolfSSL_wolfSSL_wolfSSL/wolfssl/wolfcrypt/src/poly1305.c ****     word32 paddingLen;
 1526              		.loc 1 793 9 view .LVU549
 1527 0020 0020     		movs	r0, #0
 1528              	.LVL201:
 1529              	.L54:
 1530              		.loc 1 812 1 view .LVU550
 1531 0022 05B0     		add	sp, sp, #20
 1532              	.LCFI15:
 1533              		.cfi_remember_state
 1534              		.cfi_def_cfa_offset 4
 1535              		@ sp needed
 1536 0024 5DF804FB 		ldr	pc, [sp], #4
 1537              	.LVL202:
 1538              	.L64:
 1539              	.LCFI16:
 1540              		.cfi_restore_state
 809:Middlewares/Third_Party/wolfSSL_wolfSSL_wolfSSL/wolfssl/wolfcrypt/src/poly1305.c ****     }
 1541              		.loc 1 809 9 is_stmt 1 view .LVU551
 809:Middlewares/Third_Party/wolfSSL_wolfSSL_wolfSSL/wolfssl/wolfcrypt/src/poly1305.c ****     }
 1542              		.loc 1 809 15 is_stmt 0 view .LVU552
 1543 0028 6946     		mov	r1, sp
 1544 002a FFF7FEFF 		bl	wc_Poly1305Update
 1545              	.LVL203:
 809:Middlewares/Third_Party/wolfSSL_wolfSSL_wolfSSL/wolfssl/wolfcrypt/src/poly1305.c ****     }
 1546              		.loc 1 809 15 view .LVU553
 1547 002e F8E7     		b	.L54
 1548              	.LVL204:
 1549              	.L56:
 1550              	.LCFI17:
 1551              		.cfi_def_cfa_offset 0
 1552              		.cfi_restore 14
 798:Middlewares/Third_Party/wolfSSL_wolfSSL_wolfSSL/wolfssl/wolfcrypt/src/poly1305.c ****     }
 1553              		.loc 1 798 16 view .LVU554
 1554 0030 6FF0AC00 		mvn	r0, #172
 1555              	.LVL205:
 798:Middlewares/Third_Party/wolfSSL_wolfSSL_wolfSSL/wolfssl/wolfcrypt/src/poly1305.c ****     }
 1556              		.loc 1 798 16 view .LVU555
 1557 0034 7047     		bx	lr
 1558              		.cfi_endproc
 1559              	.LFE183:
 1561              		.section	.text.wc_Poly1305_EncodeSizes,"ax",%progbits
 1562              		.align	1
 1563              		.global	wc_Poly1305_EncodeSizes
 1564              		.syntax unified
 1565              		.thumb
 1566              		.thumb_func
 1567              		.fpu fpv4-sp-d16
 1569              	wc_Poly1305_EncodeSizes:
 1570              	.LVL206:
 1571              	.LFB184:
 813:Middlewares/Third_Party/wolfSSL_wolfSSL_wolfSSL/wolfssl/wolfcrypt/src/poly1305.c **** 
 814:Middlewares/Third_Party/wolfSSL_wolfSSL_wolfSSL/wolfssl/wolfcrypt/src/poly1305.c **** /*  Takes a Poly1305 struct that has a key loaded and adds the AEAD length
 815:Middlewares/Third_Party/wolfSSL_wolfSSL_wolfSSL/wolfssl/wolfcrypt/src/poly1305.c ****     encoding in 64-bit little endian
 816:Middlewares/Third_Party/wolfSSL_wolfSSL_wolfSSL/wolfssl/wolfcrypt/src/poly1305.c ****     aadSz      : Size of the additional authentication data
 817:Middlewares/Third_Party/wolfSSL_wolfSSL_wolfSSL/wolfssl/wolfcrypt/src/poly1305.c ****     dataSz     : Size of the plaintext or ciphertext
 818:Middlewares/Third_Party/wolfSSL_wolfSSL_wolfSSL/wolfssl/wolfcrypt/src/poly1305.c ****  */
 819:Middlewares/Third_Party/wolfSSL_wolfSSL_wolfSSL/wolfssl/wolfcrypt/src/poly1305.c **** int wc_Poly1305_EncodeSizes(Poly1305* ctx, word32 aadSz, word32 dataSz)
ARM GAS  /tmp/ccGcaF1m.s 			page 44


 820:Middlewares/Third_Party/wolfSSL_wolfSSL_wolfSSL/wolfssl/wolfcrypt/src/poly1305.c **** {
 1572              		.loc 1 820 1 is_stmt 1 view -0
 1573              		.cfi_startproc
 1574              		@ args = 0, pretend = 0, frame = 16
 1575              		@ frame_needed = 0, uses_anonymous_args = 0
 821:Middlewares/Third_Party/wolfSSL_wolfSSL_wolfSSL/wolfssl/wolfcrypt/src/poly1305.c ****     int ret;
 1576              		.loc 1 821 5 view .LVU557
 822:Middlewares/Third_Party/wolfSSL_wolfSSL_wolfSSL/wolfssl/wolfcrypt/src/poly1305.c ****     byte little64[16]; /* sizeof(word64) * 2 */
 1577              		.loc 1 822 5 view .LVU558
 823:Middlewares/Third_Party/wolfSSL_wolfSSL_wolfSSL/wolfssl/wolfcrypt/src/poly1305.c **** 
 824:Middlewares/Third_Party/wolfSSL_wolfSSL_wolfSSL/wolfssl/wolfcrypt/src/poly1305.c ****     if (ctx == NULL) {
 1578              		.loc 1 824 5 view .LVU559
 1579              		.loc 1 824 8 is_stmt 0 view .LVU560
 1580 0000 38B3     		cbz	r0, .L67
 820:Middlewares/Third_Party/wolfSSL_wolfSSL_wolfSSL/wolfssl/wolfcrypt/src/poly1305.c ****     int ret;
 1581              		.loc 1 820 1 view .LVU561
 1582 0002 00B5     		push	{lr}
 1583              	.LCFI18:
 1584              		.cfi_def_cfa_offset 4
 1585              		.cfi_offset 14, -4
 1586 0004 85B0     		sub	sp, sp, #20
 1587              	.LCFI19:
 1588              		.cfi_def_cfa_offset 24
 825:Middlewares/Third_Party/wolfSSL_wolfSSL_wolfSSL/wolfssl/wolfcrypt/src/poly1305.c ****         return BAD_FUNC_ARG;
 826:Middlewares/Third_Party/wolfSSL_wolfSSL_wolfSSL/wolfssl/wolfcrypt/src/poly1305.c ****     }
 827:Middlewares/Third_Party/wolfSSL_wolfSSL_wolfSSL/wolfssl/wolfcrypt/src/poly1305.c **** 
 828:Middlewares/Third_Party/wolfSSL_wolfSSL_wolfSSL/wolfssl/wolfcrypt/src/poly1305.c ****     XMEMSET(little64, 0, sizeof(little64));
 1589              		.loc 1 828 5 is_stmt 1 view .LVU562
 1590 0006 0023     		movs	r3, #0
 1591 0008 0093     		str	r3, [sp]
 1592 000a 0193     		str	r3, [sp, #4]
 1593 000c 0293     		str	r3, [sp, #8]
 1594 000e 0393     		str	r3, [sp, #12]
 829:Middlewares/Third_Party/wolfSSL_wolfSSL_wolfSSL/wolfssl/wolfcrypt/src/poly1305.c **** 
 830:Middlewares/Third_Party/wolfSSL_wolfSSL_wolfSSL/wolfssl/wolfcrypt/src/poly1305.c ****     /* size of additional data and input data as little endian 64 bit types */
 831:Middlewares/Third_Party/wolfSSL_wolfSSL_wolfSSL/wolfssl/wolfcrypt/src/poly1305.c ****     u32tole64(aadSz,  little64);
 1595              		.loc 1 831 5 view .LVU563
 1596              	.LVL207:
 1597              	.LBB10:
 1598              	.LBI10:
 243:Middlewares/Third_Party/wolfSSL_wolfSSL_wolfSSL/wolfssl/wolfcrypt/src/poly1305.c **** {
 1599              		.loc 1 243 23 view .LVU564
 1600              	.LBB11:
 246:Middlewares/Third_Party/wolfSSL_wolfSSL_wolfSSL/wolfssl/wolfcrypt/src/poly1305.c ****     outLe64[1] = (byte)((inLe32 & 0x0000FF00) >> 8);
 1601              		.loc 1 246 5 view .LVU565
 246:Middlewares/Third_Party/wolfSSL_wolfSSL_wolfSSL/wolfssl/wolfcrypt/src/poly1305.c ****     outLe64[1] = (byte)((inLe32 & 0x0000FF00) >> 8);
 1602              		.loc 1 246 16 is_stmt 0 view .LVU566
 1603 0010 8DF80010 		strb	r1, [sp]
 247:Middlewares/Third_Party/wolfSSL_wolfSSL_wolfSSL/wolfssl/wolfcrypt/src/poly1305.c ****     outLe64[2] = (byte)((inLe32 & 0x00FF0000) >> 16);
 1604              		.loc 1 247 5 is_stmt 1 view .LVU567
 247:Middlewares/Third_Party/wolfSSL_wolfSSL_wolfSSL/wolfssl/wolfcrypt/src/poly1305.c ****     outLe64[2] = (byte)((inLe32 & 0x00FF0000) >> 16);
 1605              		.loc 1 247 18 is_stmt 0 view .LVU568
 1606 0014 C1F30723 		ubfx	r3, r1, #8, #8
 247:Middlewares/Third_Party/wolfSSL_wolfSSL_wolfSSL/wolfssl/wolfcrypt/src/poly1305.c ****     outLe64[2] = (byte)((inLe32 & 0x00FF0000) >> 16);
 1607              		.loc 1 247 16 view .LVU569
 1608 0018 8DF80130 		strb	r3, [sp, #1]
 248:Middlewares/Third_Party/wolfSSL_wolfSSL_wolfSSL/wolfssl/wolfcrypt/src/poly1305.c ****     outLe64[3] = (byte)((inLe32 & 0xFF000000) >> 24);
ARM GAS  /tmp/ccGcaF1m.s 			page 45


 1609              		.loc 1 248 5 is_stmt 1 view .LVU570
 248:Middlewares/Third_Party/wolfSSL_wolfSSL_wolfSSL/wolfssl/wolfcrypt/src/poly1305.c ****     outLe64[3] = (byte)((inLe32 & 0xFF000000) >> 24);
 1610              		.loc 1 248 18 is_stmt 0 view .LVU571
 1611 001c C1F30743 		ubfx	r3, r1, #16, #8
 248:Middlewares/Third_Party/wolfSSL_wolfSSL_wolfSSL/wolfssl/wolfcrypt/src/poly1305.c ****     outLe64[3] = (byte)((inLe32 & 0xFF000000) >> 24);
 1612              		.loc 1 248 16 view .LVU572
 1613 0020 8DF80230 		strb	r3, [sp, #2]
 249:Middlewares/Third_Party/wolfSSL_wolfSSL_wolfSSL/wolfssl/wolfcrypt/src/poly1305.c ****     outLe64[4] = 0;
 1614              		.loc 1 249 5 is_stmt 1 view .LVU573
 249:Middlewares/Third_Party/wolfSSL_wolfSSL_wolfSSL/wolfssl/wolfcrypt/src/poly1305.c ****     outLe64[4] = 0;
 1615              		.loc 1 249 18 is_stmt 0 view .LVU574
 1616 0024 090E     		lsrs	r1, r1, #24
 1617              	.LVL208:
 249:Middlewares/Third_Party/wolfSSL_wolfSSL_wolfSSL/wolfssl/wolfcrypt/src/poly1305.c ****     outLe64[4] = 0;
 1618              		.loc 1 249 16 view .LVU575
 1619 0026 8DF80310 		strb	r1, [sp, #3]
 250:Middlewares/Third_Party/wolfSSL_wolfSSL_wolfSSL/wolfssl/wolfcrypt/src/poly1305.c ****     outLe64[5] = 0;
 1620              		.loc 1 250 5 is_stmt 1 view .LVU576
 251:Middlewares/Third_Party/wolfSSL_wolfSSL_wolfSSL/wolfssl/wolfcrypt/src/poly1305.c ****     outLe64[6] = 0;
 1621              		.loc 1 251 5 view .LVU577
 252:Middlewares/Third_Party/wolfSSL_wolfSSL_wolfSSL/wolfssl/wolfcrypt/src/poly1305.c ****     outLe64[7] = 0;
 1622              		.loc 1 252 5 view .LVU578
 253:Middlewares/Third_Party/wolfSSL_wolfSSL_wolfSSL/wolfssl/wolfcrypt/src/poly1305.c **** #else
 1623              		.loc 1 253 5 view .LVU579
 1624              	.LVL209:
 253:Middlewares/Third_Party/wolfSSL_wolfSSL_wolfSSL/wolfssl/wolfcrypt/src/poly1305.c **** #else
 1625              		.loc 1 253 5 is_stmt 0 view .LVU580
 1626              	.LBE11:
 1627              	.LBE10:
 832:Middlewares/Third_Party/wolfSSL_wolfSSL_wolfSSL/wolfssl/wolfcrypt/src/poly1305.c ****     u32tole64(dataSz, little64 + 8);
 1628              		.loc 1 832 5 is_stmt 1 view .LVU581
 1629              	.LBB12:
 1630              	.LBI12:
 243:Middlewares/Third_Party/wolfSSL_wolfSSL_wolfSSL/wolfssl/wolfcrypt/src/poly1305.c **** {
 1631              		.loc 1 243 23 view .LVU582
 1632              	.LBB13:
 246:Middlewares/Third_Party/wolfSSL_wolfSSL_wolfSSL/wolfssl/wolfcrypt/src/poly1305.c ****     outLe64[1] = (byte)((inLe32 & 0x0000FF00) >> 8);
 1633              		.loc 1 246 5 view .LVU583
 246:Middlewares/Third_Party/wolfSSL_wolfSSL_wolfSSL/wolfssl/wolfcrypt/src/poly1305.c ****     outLe64[1] = (byte)((inLe32 & 0x0000FF00) >> 8);
 1634              		.loc 1 246 16 is_stmt 0 view .LVU584
 1635 002a 8DF80820 		strb	r2, [sp, #8]
 247:Middlewares/Third_Party/wolfSSL_wolfSSL_wolfSSL/wolfssl/wolfcrypt/src/poly1305.c ****     outLe64[2] = (byte)((inLe32 & 0x00FF0000) >> 16);
 1636              		.loc 1 247 5 is_stmt 1 view .LVU585
 247:Middlewares/Third_Party/wolfSSL_wolfSSL_wolfSSL/wolfssl/wolfcrypt/src/poly1305.c ****     outLe64[2] = (byte)((inLe32 & 0x00FF0000) >> 16);
 1637              		.loc 1 247 18 is_stmt 0 view .LVU586
 1638 002e C2F30723 		ubfx	r3, r2, #8, #8
 247:Middlewares/Third_Party/wolfSSL_wolfSSL_wolfSSL/wolfssl/wolfcrypt/src/poly1305.c ****     outLe64[2] = (byte)((inLe32 & 0x00FF0000) >> 16);
 1639              		.loc 1 247 16 view .LVU587
 1640 0032 8DF80930 		strb	r3, [sp, #9]
 248:Middlewares/Third_Party/wolfSSL_wolfSSL_wolfSSL/wolfssl/wolfcrypt/src/poly1305.c ****     outLe64[3] = (byte)((inLe32 & 0xFF000000) >> 24);
 1641              		.loc 1 248 5 is_stmt 1 view .LVU588
 248:Middlewares/Third_Party/wolfSSL_wolfSSL_wolfSSL/wolfssl/wolfcrypt/src/poly1305.c ****     outLe64[3] = (byte)((inLe32 & 0xFF000000) >> 24);
 1642              		.loc 1 248 18 is_stmt 0 view .LVU589
 1643 0036 C2F30743 		ubfx	r3, r2, #16, #8
 248:Middlewares/Third_Party/wolfSSL_wolfSSL_wolfSSL/wolfssl/wolfcrypt/src/poly1305.c ****     outLe64[3] = (byte)((inLe32 & 0xFF000000) >> 24);
 1644              		.loc 1 248 16 view .LVU590
 1645 003a 8DF80A30 		strb	r3, [sp, #10]
ARM GAS  /tmp/ccGcaF1m.s 			page 46


 249:Middlewares/Third_Party/wolfSSL_wolfSSL_wolfSSL/wolfssl/wolfcrypt/src/poly1305.c ****     outLe64[4] = 0;
 1646              		.loc 1 249 5 is_stmt 1 view .LVU591
 249:Middlewares/Third_Party/wolfSSL_wolfSSL_wolfSSL/wolfssl/wolfcrypt/src/poly1305.c ****     outLe64[4] = 0;
 1647              		.loc 1 249 18 is_stmt 0 view .LVU592
 1648 003e 120E     		lsrs	r2, r2, #24
 1649              	.LVL210:
 249:Middlewares/Third_Party/wolfSSL_wolfSSL_wolfSSL/wolfssl/wolfcrypt/src/poly1305.c ****     outLe64[4] = 0;
 1650              		.loc 1 249 16 view .LVU593
 1651 0040 8DF80B20 		strb	r2, [sp, #11]
 250:Middlewares/Third_Party/wolfSSL_wolfSSL_wolfSSL/wolfssl/wolfcrypt/src/poly1305.c ****     outLe64[5] = 0;
 1652              		.loc 1 250 5 is_stmt 1 view .LVU594
 251:Middlewares/Third_Party/wolfSSL_wolfSSL_wolfSSL/wolfssl/wolfcrypt/src/poly1305.c ****     outLe64[6] = 0;
 1653              		.loc 1 251 5 view .LVU595
 252:Middlewares/Third_Party/wolfSSL_wolfSSL_wolfSSL/wolfssl/wolfcrypt/src/poly1305.c ****     outLe64[7] = 0;
 1654              		.loc 1 252 5 view .LVU596
 253:Middlewares/Third_Party/wolfSSL_wolfSSL_wolfSSL/wolfssl/wolfcrypt/src/poly1305.c **** #else
 1655              		.loc 1 253 5 view .LVU597
 1656              	.LVL211:
 253:Middlewares/Third_Party/wolfSSL_wolfSSL_wolfSSL/wolfssl/wolfcrypt/src/poly1305.c **** #else
 1657              		.loc 1 253 5 is_stmt 0 view .LVU598
 1658              	.LBE13:
 1659              	.LBE12:
 833:Middlewares/Third_Party/wolfSSL_wolfSSL_wolfSSL/wolfssl/wolfcrypt/src/poly1305.c ****     ret = wc_Poly1305Update(ctx, little64, sizeof(little64));
 1660              		.loc 1 833 5 is_stmt 1 view .LVU599
 1661              		.loc 1 833 11 is_stmt 0 view .LVU600
 1662 0044 1022     		movs	r2, #16
 1663 0046 6946     		mov	r1, sp
 1664 0048 FFF7FEFF 		bl	wc_Poly1305Update
 1665              	.LVL212:
 834:Middlewares/Third_Party/wolfSSL_wolfSSL_wolfSSL/wolfssl/wolfcrypt/src/poly1305.c **** 
 835:Middlewares/Third_Party/wolfSSL_wolfSSL_wolfSSL/wolfssl/wolfcrypt/src/poly1305.c ****     return ret;
 1666              		.loc 1 835 5 is_stmt 1 view .LVU601
 836:Middlewares/Third_Party/wolfSSL_wolfSSL_wolfSSL/wolfssl/wolfcrypt/src/poly1305.c **** }
 1667              		.loc 1 836 1 is_stmt 0 view .LVU602
 1668 004c 05B0     		add	sp, sp, #20
 1669              	.LCFI20:
 1670              		.cfi_def_cfa_offset 4
 1671              		@ sp needed
 1672 004e 5DF804FB 		ldr	pc, [sp], #4
 1673              	.LVL213:
 1674              	.L67:
 1675              	.LCFI21:
 1676              		.cfi_def_cfa_offset 0
 1677              		.cfi_restore 14
 825:Middlewares/Third_Party/wolfSSL_wolfSSL_wolfSSL/wolfssl/wolfcrypt/src/poly1305.c ****     }
 1678              		.loc 1 825 16 view .LVU603
 1679 0052 6FF0AC00 		mvn	r0, #172
 1680              	.LVL214:
 1681              		.loc 1 836 1 view .LVU604
 1682 0056 7047     		bx	lr
 1683              		.cfi_endproc
 1684              	.LFE184:
 1686              		.section	.text.wc_Poly1305_EncodeSizes64,"ax",%progbits
 1687              		.align	1
 1688              		.global	wc_Poly1305_EncodeSizes64
 1689              		.syntax unified
 1690              		.thumb
ARM GAS  /tmp/ccGcaF1m.s 			page 47


 1691              		.thumb_func
 1692              		.fpu fpv4-sp-d16
 1694              	wc_Poly1305_EncodeSizes64:
 1695              	.LVL215:
 1696              	.LFB185:
 837:Middlewares/Third_Party/wolfSSL_wolfSSL_wolfSSL/wolfssl/wolfcrypt/src/poly1305.c **** 
 838:Middlewares/Third_Party/wolfSSL_wolfSSL_wolfSSL/wolfssl/wolfcrypt/src/poly1305.c **** #ifdef WORD64_AVAILABLE
 839:Middlewares/Third_Party/wolfSSL_wolfSSL_wolfSSL/wolfssl/wolfcrypt/src/poly1305.c **** int wc_Poly1305_EncodeSizes64(Poly1305* ctx, word64 aadSz, word64 dataSz)
 840:Middlewares/Third_Party/wolfSSL_wolfSSL_wolfSSL/wolfssl/wolfcrypt/src/poly1305.c **** {
 1697              		.loc 1 840 1 is_stmt 1 view -0
 1698              		.cfi_startproc
 1699              		@ args = 8, pretend = 0, frame = 16
 1700              		@ frame_needed = 0, uses_anonymous_args = 0
 841:Middlewares/Third_Party/wolfSSL_wolfSSL_wolfSSL/wolfssl/wolfcrypt/src/poly1305.c ****     int ret;
 1701              		.loc 1 841 5 view .LVU606
 842:Middlewares/Third_Party/wolfSSL_wolfSSL_wolfSSL/wolfssl/wolfcrypt/src/poly1305.c ****     word64 little64[2];
 1702              		.loc 1 842 5 view .LVU607
 843:Middlewares/Third_Party/wolfSSL_wolfSSL_wolfSSL/wolfssl/wolfcrypt/src/poly1305.c **** 
 844:Middlewares/Third_Party/wolfSSL_wolfSSL_wolfSSL/wolfssl/wolfcrypt/src/poly1305.c ****     if (ctx == NULL) {
 1703              		.loc 1 844 5 view .LVU608
 1704              		.loc 1 844 8 is_stmt 0 view .LVU609
 1705 0000 70B1     		cbz	r0, .L74
 840:Middlewares/Third_Party/wolfSSL_wolfSSL_wolfSSL/wolfssl/wolfcrypt/src/poly1305.c ****     int ret;
 1706              		.loc 1 840 1 view .LVU610
 1707 0002 00B5     		push	{lr}
 1708              	.LCFI22:
 1709              		.cfi_def_cfa_offset 4
 1710              		.cfi_offset 14, -4
 1711 0004 85B0     		sub	sp, sp, #20
 1712              	.LCFI23:
 1713              		.cfi_def_cfa_offset 24
 845:Middlewares/Third_Party/wolfSSL_wolfSSL_wolfSSL/wolfssl/wolfcrypt/src/poly1305.c ****         return BAD_FUNC_ARG;
 846:Middlewares/Third_Party/wolfSSL_wolfSSL_wolfSSL/wolfssl/wolfcrypt/src/poly1305.c ****     }
 847:Middlewares/Third_Party/wolfSSL_wolfSSL_wolfSSL/wolfssl/wolfcrypt/src/poly1305.c **** 
 848:Middlewares/Third_Party/wolfSSL_wolfSSL_wolfSSL/wolfssl/wolfcrypt/src/poly1305.c **** #ifdef BIG_ENDIAN_ORDER
 849:Middlewares/Third_Party/wolfSSL_wolfSSL_wolfSSL/wolfssl/wolfcrypt/src/poly1305.c ****     little64[0] = ByteReverseWord64(aadSz);
 850:Middlewares/Third_Party/wolfSSL_wolfSSL_wolfSSL/wolfssl/wolfcrypt/src/poly1305.c ****     little64[1] = ByteReverseWord64(dataSz);
 851:Middlewares/Third_Party/wolfSSL_wolfSSL_wolfSSL/wolfssl/wolfcrypt/src/poly1305.c **** #else
 852:Middlewares/Third_Party/wolfSSL_wolfSSL_wolfSSL/wolfssl/wolfcrypt/src/poly1305.c ****     little64[0] = aadSz;
 1714              		.loc 1 852 5 is_stmt 1 view .LVU611
 1715              		.loc 1 852 17 is_stmt 0 view .LVU612
 1716 0006 0092     		str	r2, [sp]
 1717 0008 0193     		str	r3, [sp, #4]
 853:Middlewares/Third_Party/wolfSSL_wolfSSL_wolfSSL/wolfssl/wolfcrypt/src/poly1305.c ****     little64[1] = dataSz;
 1718              		.loc 1 853 5 is_stmt 1 view .LVU613
 1719              		.loc 1 853 17 is_stmt 0 view .LVU614
 1720 000a DDE90623 		ldrd	r2, [sp, #24]
 1721              	.LVL216:
 1722              		.loc 1 853 17 view .LVU615
 1723 000e CDE90223 		strd	r2, [sp, #8]
 854:Middlewares/Third_Party/wolfSSL_wolfSSL_wolfSSL/wolfssl/wolfcrypt/src/poly1305.c **** #endif
 855:Middlewares/Third_Party/wolfSSL_wolfSSL_wolfSSL/wolfssl/wolfcrypt/src/poly1305.c **** 
 856:Middlewares/Third_Party/wolfSSL_wolfSSL_wolfSSL/wolfssl/wolfcrypt/src/poly1305.c ****     ret = wc_Poly1305Update(ctx, (byte *)little64, sizeof(little64));
 1724              		.loc 1 856 5 is_stmt 1 view .LVU616
 1725              		.loc 1 856 11 is_stmt 0 view .LVU617
 1726 0012 1022     		movs	r2, #16
 1727 0014 6946     		mov	r1, sp
ARM GAS  /tmp/ccGcaF1m.s 			page 48


 1728 0016 FFF7FEFF 		bl	wc_Poly1305Update
 1729              	.LVL217:
 857:Middlewares/Third_Party/wolfSSL_wolfSSL_wolfSSL/wolfssl/wolfcrypt/src/poly1305.c **** 
 858:Middlewares/Third_Party/wolfSSL_wolfSSL_wolfSSL/wolfssl/wolfcrypt/src/poly1305.c ****     return ret;
 1730              		.loc 1 858 5 is_stmt 1 view .LVU618
 859:Middlewares/Third_Party/wolfSSL_wolfSSL_wolfSSL/wolfssl/wolfcrypt/src/poly1305.c **** }
 1731              		.loc 1 859 1 is_stmt 0 view .LVU619
 1732 001a 05B0     		add	sp, sp, #20
 1733              	.LCFI24:
 1734              		.cfi_def_cfa_offset 4
 1735              		@ sp needed
 1736 001c 5DF804FB 		ldr	pc, [sp], #4
 1737              	.LVL218:
 1738              	.L74:
 1739              	.LCFI25:
 1740              		.cfi_def_cfa_offset 0
 1741              		.cfi_restore 14
 845:Middlewares/Third_Party/wolfSSL_wolfSSL_wolfSSL/wolfssl/wolfcrypt/src/poly1305.c ****     }
 1742              		.loc 1 845 16 view .LVU620
 1743 0020 6FF0AC00 		mvn	r0, #172
 1744              	.LVL219:
 1745              		.loc 1 859 1 view .LVU621
 1746 0024 7047     		bx	lr
 1747              		.cfi_endproc
 1748              	.LFE185:
 1750              		.section	.text.wc_Poly1305_MAC,"ax",%progbits
 1751              		.align	1
 1752              		.global	wc_Poly1305_MAC
 1753              		.syntax unified
 1754              		.thumb
 1755              		.thumb_func
 1756              		.fpu fpv4-sp-d16
 1758              	wc_Poly1305_MAC:
 1759              	.LVL220:
 1760              	.LFB186:
 860:Middlewares/Third_Party/wolfSSL_wolfSSL_wolfSSL/wolfssl/wolfcrypt/src/poly1305.c **** #endif
 861:Middlewares/Third_Party/wolfSSL_wolfSSL_wolfSSL/wolfssl/wolfcrypt/src/poly1305.c **** 
 862:Middlewares/Third_Party/wolfSSL_wolfSSL_wolfSSL/wolfssl/wolfcrypt/src/poly1305.c **** /*  Takes in an initialized Poly1305 struct that has a key loaded and creates
 863:Middlewares/Third_Party/wolfSSL_wolfSSL_wolfSSL/wolfssl/wolfcrypt/src/poly1305.c ****     a MAC (tag) using recent TLS AEAD padding scheme.
 864:Middlewares/Third_Party/wolfSSL_wolfSSL_wolfSSL/wolfssl/wolfcrypt/src/poly1305.c ****     ctx        : Initialized Poly1305 struct to use
 865:Middlewares/Third_Party/wolfSSL_wolfSSL_wolfSSL/wolfssl/wolfcrypt/src/poly1305.c ****     additional : Additional data to use
 866:Middlewares/Third_Party/wolfSSL_wolfSSL_wolfSSL/wolfssl/wolfcrypt/src/poly1305.c ****     addSz      : Size of additional buffer
 867:Middlewares/Third_Party/wolfSSL_wolfSSL_wolfSSL/wolfssl/wolfcrypt/src/poly1305.c ****     input      : Input buffer to create tag from
 868:Middlewares/Third_Party/wolfSSL_wolfSSL_wolfSSL/wolfssl/wolfcrypt/src/poly1305.c ****     sz         : Size of input buffer
 869:Middlewares/Third_Party/wolfSSL_wolfSSL_wolfSSL/wolfssl/wolfcrypt/src/poly1305.c ****     tag        : Buffer to hold created tag
 870:Middlewares/Third_Party/wolfSSL_wolfSSL_wolfSSL/wolfssl/wolfcrypt/src/poly1305.c ****     tagSz      : Size of input tag buffer (must be at least
 871:Middlewares/Third_Party/wolfSSL_wolfSSL_wolfSSL/wolfssl/wolfcrypt/src/poly1305.c ****                  WC_POLY1305_MAC_SZ(16))
 872:Middlewares/Third_Party/wolfSSL_wolfSSL_wolfSSL/wolfssl/wolfcrypt/src/poly1305.c ****  */
 873:Middlewares/Third_Party/wolfSSL_wolfSSL_wolfSSL/wolfssl/wolfcrypt/src/poly1305.c **** int wc_Poly1305_MAC(Poly1305* ctx, byte* additional, word32 addSz,
 874:Middlewares/Third_Party/wolfSSL_wolfSSL_wolfSSL/wolfssl/wolfcrypt/src/poly1305.c ****                     byte* input, word32 sz, byte* tag, word32 tagSz)
 875:Middlewares/Third_Party/wolfSSL_wolfSSL_wolfSSL/wolfssl/wolfcrypt/src/poly1305.c **** {
 1761              		.loc 1 875 1 is_stmt 1 view -0
 1762              		.cfi_startproc
 1763              		@ args = 12, pretend = 0, frame = 0
 1764              		@ frame_needed = 0, uses_anonymous_args = 0
 1765              		.loc 1 875 1 is_stmt 0 view .LVU623
 1766 0000 F8B5     		push	{r3, r4, r5, r6, r7, lr}
ARM GAS  /tmp/ccGcaF1m.s 			page 49


 1767              	.LCFI26:
 1768              		.cfi_def_cfa_offset 24
 1769              		.cfi_offset 3, -24
 1770              		.cfi_offset 4, -20
 1771              		.cfi_offset 5, -16
 1772              		.cfi_offset 6, -12
 1773              		.cfi_offset 7, -8
 1774              		.cfi_offset 14, -4
 1775 0002 079E     		ldr	r6, [sp, #28]
 876:Middlewares/Third_Party/wolfSSL_wolfSSL_wolfSSL/wolfssl/wolfcrypt/src/poly1305.c ****     int ret;
 1776              		.loc 1 876 5 is_stmt 1 view .LVU624
 877:Middlewares/Third_Party/wolfSSL_wolfSSL_wolfSSL/wolfssl/wolfcrypt/src/poly1305.c **** 
 878:Middlewares/Third_Party/wolfSSL_wolfSSL_wolfSSL/wolfssl/wolfcrypt/src/poly1305.c ****     /* sanity check on arguments */
 879:Middlewares/Third_Party/wolfSSL_wolfSSL_wolfSSL/wolfssl/wolfcrypt/src/poly1305.c ****     if (ctx == NULL || input == NULL || tag == NULL ||
 1777              		.loc 1 879 5 view .LVU625
 1778              		.loc 1 879 8 is_stmt 0 view .LVU626
 1779 0004 0028     		cmp	r0, #0
 1780 0006 36D0     		beq	.L82
 1781 0008 1446     		mov	r4, r2
 1782 000a 1D46     		mov	r5, r3
 1783 000c 0746     		mov	r7, r0
 1784              		.loc 1 879 21 discriminator 1 view .LVU627
 1785 000e 002B     		cmp	r3, #0
 1786 0010 34D0     		beq	.L83
 1787              		.loc 1 879 38 discriminator 2 view .LVU628
 1788 0012 002E     		cmp	r6, #0
 1789 0014 35D0     		beq	.L84
 1790              		.loc 1 879 53 discriminator 3 view .LVU629
 1791 0016 089B     		ldr	r3, [sp, #32]
 1792              	.LVL221:
 1793              		.loc 1 879 53 discriminator 3 view .LVU630
 1794 0018 0F2B     		cmp	r3, #15
 1795 001a 35D9     		bls	.L85
 880:Middlewares/Third_Party/wolfSSL_wolfSSL_wolfSSL/wolfssl/wolfcrypt/src/poly1305.c ****                                                    tagSz < WC_POLY1305_MAC_SZ) {
 881:Middlewares/Third_Party/wolfSSL_wolfSSL_wolfSSL/wolfssl/wolfcrypt/src/poly1305.c ****         return BAD_FUNC_ARG;
 882:Middlewares/Third_Party/wolfSSL_wolfSSL_wolfSSL/wolfssl/wolfcrypt/src/poly1305.c ****     }
 883:Middlewares/Third_Party/wolfSSL_wolfSSL_wolfSSL/wolfssl/wolfcrypt/src/poly1305.c **** 
 884:Middlewares/Third_Party/wolfSSL_wolfSSL_wolfSSL/wolfssl/wolfcrypt/src/poly1305.c ****     /* additional allowed to be 0 */
 885:Middlewares/Third_Party/wolfSSL_wolfSSL_wolfSSL/wolfssl/wolfcrypt/src/poly1305.c ****     if (addSz > 0) {
 1796              		.loc 1 885 5 is_stmt 1 view .LVU631
 1797              		.loc 1 885 8 is_stmt 0 view .LVU632
 1798 001c 72B1     		cbz	r2, .L81
 886:Middlewares/Third_Party/wolfSSL_wolfSSL_wolfSSL/wolfssl/wolfcrypt/src/poly1305.c ****         if (additional == NULL)
 1799              		.loc 1 886 9 is_stmt 1 view .LVU633
 1800              		.loc 1 886 12 is_stmt 0 view .LVU634
 1801 001e 0029     		cmp	r1, #0
 1802 0020 35D0     		beq	.L86
 887:Middlewares/Third_Party/wolfSSL_wolfSSL_wolfSSL/wolfssl/wolfcrypt/src/poly1305.c ****             return BAD_FUNC_ARG;
 888:Middlewares/Third_Party/wolfSSL_wolfSSL_wolfSSL/wolfssl/wolfcrypt/src/poly1305.c **** 
 889:Middlewares/Third_Party/wolfSSL_wolfSSL_wolfSSL/wolfssl/wolfcrypt/src/poly1305.c ****         /* additional data plus padding */
 890:Middlewares/Third_Party/wolfSSL_wolfSSL_wolfSSL/wolfssl/wolfcrypt/src/poly1305.c ****         if ((ret = wc_Poly1305Update(ctx, additional, addSz)) != 0) {
 1803              		.loc 1 890 9 is_stmt 1 view .LVU635
 1804              		.loc 1 890 20 is_stmt 0 view .LVU636
 1805 0022 FFF7FEFF 		bl	wc_Poly1305Update
 1806              	.LVL222:
 1807              		.loc 1 890 12 view .LVU637
 1808 0026 0346     		mov	r3, r0
ARM GAS  /tmp/ccGcaF1m.s 			page 50


 1809 0028 08B1     		cbz	r0, .L88
 1810              	.LVL223:
 1811              	.L79:
 891:Middlewares/Third_Party/wolfSSL_wolfSSL_wolfSSL/wolfssl/wolfcrypt/src/poly1305.c ****             return ret;
 892:Middlewares/Third_Party/wolfSSL_wolfSSL_wolfSSL/wolfssl/wolfcrypt/src/poly1305.c ****         }
 893:Middlewares/Third_Party/wolfSSL_wolfSSL_wolfSSL/wolfssl/wolfcrypt/src/poly1305.c ****         /* pad additional data */
 894:Middlewares/Third_Party/wolfSSL_wolfSSL_wolfSSL/wolfssl/wolfcrypt/src/poly1305.c ****         if ((ret = wc_Poly1305_Pad(ctx, addSz)) != 0) {
 895:Middlewares/Third_Party/wolfSSL_wolfSSL_wolfSSL/wolfssl/wolfcrypt/src/poly1305.c ****             return ret;
 896:Middlewares/Third_Party/wolfSSL_wolfSSL_wolfSSL/wolfssl/wolfcrypt/src/poly1305.c ****         }
 897:Middlewares/Third_Party/wolfSSL_wolfSSL_wolfSSL/wolfssl/wolfcrypt/src/poly1305.c ****     }
 898:Middlewares/Third_Party/wolfSSL_wolfSSL_wolfSSL/wolfssl/wolfcrypt/src/poly1305.c **** 
 899:Middlewares/Third_Party/wolfSSL_wolfSSL_wolfSSL/wolfssl/wolfcrypt/src/poly1305.c ****     /* input plus padding */
 900:Middlewares/Third_Party/wolfSSL_wolfSSL_wolfSSL/wolfssl/wolfcrypt/src/poly1305.c ****     if ((ret = wc_Poly1305Update(ctx, input, sz)) != 0) {
 901:Middlewares/Third_Party/wolfSSL_wolfSSL_wolfSSL/wolfssl/wolfcrypt/src/poly1305.c ****         return ret;
 902:Middlewares/Third_Party/wolfSSL_wolfSSL_wolfSSL/wolfssl/wolfcrypt/src/poly1305.c ****     }
 903:Middlewares/Third_Party/wolfSSL_wolfSSL_wolfSSL/wolfssl/wolfcrypt/src/poly1305.c ****     /* pad input data */
 904:Middlewares/Third_Party/wolfSSL_wolfSSL_wolfSSL/wolfssl/wolfcrypt/src/poly1305.c ****     if ((ret = wc_Poly1305_Pad(ctx, sz)) != 0) {
 905:Middlewares/Third_Party/wolfSSL_wolfSSL_wolfSSL/wolfssl/wolfcrypt/src/poly1305.c ****         return ret;
 906:Middlewares/Third_Party/wolfSSL_wolfSSL_wolfSSL/wolfssl/wolfcrypt/src/poly1305.c ****     }
 907:Middlewares/Third_Party/wolfSSL_wolfSSL_wolfSSL/wolfssl/wolfcrypt/src/poly1305.c **** 
 908:Middlewares/Third_Party/wolfSSL_wolfSSL_wolfSSL/wolfssl/wolfcrypt/src/poly1305.c ****     /* encode size of AAD and input data as little endian 64 bit types */
 909:Middlewares/Third_Party/wolfSSL_wolfSSL_wolfSSL/wolfssl/wolfcrypt/src/poly1305.c ****     if ((ret = wc_Poly1305_EncodeSizes(ctx, addSz, sz)) != 0) {
 910:Middlewares/Third_Party/wolfSSL_wolfSSL_wolfSSL/wolfssl/wolfcrypt/src/poly1305.c ****         return ret;
 911:Middlewares/Third_Party/wolfSSL_wolfSSL_wolfSSL/wolfssl/wolfcrypt/src/poly1305.c ****     }
 912:Middlewares/Third_Party/wolfSSL_wolfSSL_wolfSSL/wolfssl/wolfcrypt/src/poly1305.c **** 
 913:Middlewares/Third_Party/wolfSSL_wolfSSL_wolfSSL/wolfssl/wolfcrypt/src/poly1305.c ****     /* Finalize the auth tag */
 914:Middlewares/Third_Party/wolfSSL_wolfSSL_wolfSSL/wolfssl/wolfcrypt/src/poly1305.c ****     ret = wc_Poly1305Final(ctx, tag);
 915:Middlewares/Third_Party/wolfSSL_wolfSSL_wolfSSL/wolfssl/wolfcrypt/src/poly1305.c **** 
 916:Middlewares/Third_Party/wolfSSL_wolfSSL_wolfSSL/wolfssl/wolfcrypt/src/poly1305.c ****     return ret;
 917:Middlewares/Third_Party/wolfSSL_wolfSSL_wolfSSL/wolfssl/wolfcrypt/src/poly1305.c **** 
 918:Middlewares/Third_Party/wolfSSL_wolfSSL_wolfSSL/wolfssl/wolfcrypt/src/poly1305.c **** }
 1812              		.loc 1 918 1 view .LVU638
 1813 002a 1846     		mov	r0, r3
 1814 002c F8BD     		pop	{r3, r4, r5, r6, r7, pc}
 1815              	.LVL224:
 1816              	.L88:
 894:Middlewares/Third_Party/wolfSSL_wolfSSL_wolfSSL/wolfssl/wolfcrypt/src/poly1305.c ****             return ret;
 1817              		.loc 1 894 9 is_stmt 1 view .LVU639
 894:Middlewares/Third_Party/wolfSSL_wolfSSL_wolfSSL/wolfssl/wolfcrypt/src/poly1305.c ****             return ret;
 1818              		.loc 1 894 20 is_stmt 0 view .LVU640
 1819 002e 2146     		mov	r1, r4
 1820 0030 3846     		mov	r0, r7
 1821              	.LVL225:
 894:Middlewares/Third_Party/wolfSSL_wolfSSL_wolfSSL/wolfssl/wolfcrypt/src/poly1305.c ****             return ret;
 1822              		.loc 1 894 20 view .LVU641
 1823 0032 FFF7FEFF 		bl	wc_Poly1305_Pad
 1824              	.LVL226:
 894:Middlewares/Third_Party/wolfSSL_wolfSSL_wolfSSL/wolfssl/wolfcrypt/src/poly1305.c ****             return ret;
 1825              		.loc 1 894 12 view .LVU642
 1826 0036 0346     		mov	r3, r0
 1827 0038 0028     		cmp	r0, #0
 1828 003a F6D1     		bne	.L79
 1829              	.LVL227:
 1830              	.L81:
 900:Middlewares/Third_Party/wolfSSL_wolfSSL_wolfSSL/wolfssl/wolfcrypt/src/poly1305.c ****         return ret;
 1831              		.loc 1 900 5 is_stmt 1 view .LVU643
 900:Middlewares/Third_Party/wolfSSL_wolfSSL_wolfSSL/wolfssl/wolfcrypt/src/poly1305.c ****         return ret;
ARM GAS  /tmp/ccGcaF1m.s 			page 51


 1832              		.loc 1 900 16 is_stmt 0 view .LVU644
 1833 003c 069A     		ldr	r2, [sp, #24]
 1834 003e 2946     		mov	r1, r5
 1835 0040 3846     		mov	r0, r7
 1836 0042 FFF7FEFF 		bl	wc_Poly1305Update
 1837              	.LVL228:
 900:Middlewares/Third_Party/wolfSSL_wolfSSL_wolfSSL/wolfssl/wolfcrypt/src/poly1305.c ****         return ret;
 1838              		.loc 1 900 8 view .LVU645
 1839 0046 0346     		mov	r3, r0
 1840 0048 0028     		cmp	r0, #0
 1841 004a EED1     		bne	.L79
 904:Middlewares/Third_Party/wolfSSL_wolfSSL_wolfSSL/wolfssl/wolfcrypt/src/poly1305.c ****         return ret;
 1842              		.loc 1 904 5 is_stmt 1 view .LVU646
 904:Middlewares/Third_Party/wolfSSL_wolfSSL_wolfSSL/wolfssl/wolfcrypt/src/poly1305.c ****         return ret;
 1843              		.loc 1 904 16 is_stmt 0 view .LVU647
 1844 004c 0699     		ldr	r1, [sp, #24]
 1845 004e 3846     		mov	r0, r7
 1846              	.LVL229:
 904:Middlewares/Third_Party/wolfSSL_wolfSSL_wolfSSL/wolfssl/wolfcrypt/src/poly1305.c ****         return ret;
 1847              		.loc 1 904 16 view .LVU648
 1848 0050 FFF7FEFF 		bl	wc_Poly1305_Pad
 1849              	.LVL230:
 904:Middlewares/Third_Party/wolfSSL_wolfSSL_wolfSSL/wolfssl/wolfcrypt/src/poly1305.c ****         return ret;
 1850              		.loc 1 904 8 view .LVU649
 1851 0054 0346     		mov	r3, r0
 1852 0056 0028     		cmp	r0, #0
 1853 0058 E7D1     		bne	.L79
 909:Middlewares/Third_Party/wolfSSL_wolfSSL_wolfSSL/wolfssl/wolfcrypt/src/poly1305.c ****         return ret;
 1854              		.loc 1 909 5 is_stmt 1 view .LVU650
 909:Middlewares/Third_Party/wolfSSL_wolfSSL_wolfSSL/wolfssl/wolfcrypt/src/poly1305.c ****         return ret;
 1855              		.loc 1 909 16 is_stmt 0 view .LVU651
 1856 005a 069A     		ldr	r2, [sp, #24]
 1857 005c 2146     		mov	r1, r4
 1858 005e 3846     		mov	r0, r7
 1859              	.LVL231:
 909:Middlewares/Third_Party/wolfSSL_wolfSSL_wolfSSL/wolfssl/wolfcrypt/src/poly1305.c ****         return ret;
 1860              		.loc 1 909 16 view .LVU652
 1861 0060 FFF7FEFF 		bl	wc_Poly1305_EncodeSizes
 1862              	.LVL232:
 909:Middlewares/Third_Party/wolfSSL_wolfSSL_wolfSSL/wolfssl/wolfcrypt/src/poly1305.c ****         return ret;
 1863              		.loc 1 909 8 view .LVU653
 1864 0064 0346     		mov	r3, r0
 1865 0066 0028     		cmp	r0, #0
 1866 0068 DFD1     		bne	.L79
 914:Middlewares/Third_Party/wolfSSL_wolfSSL_wolfSSL/wolfssl/wolfcrypt/src/poly1305.c **** 
 1867              		.loc 1 914 5 is_stmt 1 view .LVU654
 914:Middlewares/Third_Party/wolfSSL_wolfSSL_wolfSSL/wolfssl/wolfcrypt/src/poly1305.c **** 
 1868              		.loc 1 914 11 is_stmt 0 view .LVU655
 1869 006a 3146     		mov	r1, r6
 1870 006c 3846     		mov	r0, r7
 1871              	.LVL233:
 914:Middlewares/Third_Party/wolfSSL_wolfSSL_wolfSSL/wolfssl/wolfcrypt/src/poly1305.c **** 
 1872              		.loc 1 914 11 view .LVU656
 1873 006e FFF7FEFF 		bl	wc_Poly1305Final
 1874              	.LVL234:
 914:Middlewares/Third_Party/wolfSSL_wolfSSL_wolfSSL/wolfssl/wolfcrypt/src/poly1305.c **** 
 1875              		.loc 1 914 11 view .LVU657
ARM GAS  /tmp/ccGcaF1m.s 			page 52


 1876 0072 0346     		mov	r3, r0
 1877              	.LVL235:
 916:Middlewares/Third_Party/wolfSSL_wolfSSL_wolfSSL/wolfssl/wolfcrypt/src/poly1305.c **** 
 1878              		.loc 1 916 5 is_stmt 1 view .LVU658
 916:Middlewares/Third_Party/wolfSSL_wolfSSL_wolfSSL/wolfssl/wolfcrypt/src/poly1305.c **** 
 1879              		.loc 1 916 12 is_stmt 0 view .LVU659
 1880 0074 D9E7     		b	.L79
 1881              	.LVL236:
 1882              	.L82:
 881:Middlewares/Third_Party/wolfSSL_wolfSSL_wolfSSL/wolfssl/wolfcrypt/src/poly1305.c ****     }
 1883              		.loc 1 881 16 view .LVU660
 1884 0076 6FF0AC03 		mvn	r3, #172
 1885              	.LVL237:
 881:Middlewares/Third_Party/wolfSSL_wolfSSL_wolfSSL/wolfssl/wolfcrypt/src/poly1305.c ****     }
 1886              		.loc 1 881 16 view .LVU661
 1887 007a D6E7     		b	.L79
 1888              	.LVL238:
 1889              	.L83:
 881:Middlewares/Third_Party/wolfSSL_wolfSSL_wolfSSL/wolfssl/wolfcrypt/src/poly1305.c ****     }
 1890              		.loc 1 881 16 view .LVU662
 1891 007c 6FF0AC03 		mvn	r3, #172
 1892              	.LVL239:
 881:Middlewares/Third_Party/wolfSSL_wolfSSL_wolfSSL/wolfssl/wolfcrypt/src/poly1305.c ****     }
 1893              		.loc 1 881 16 view .LVU663
 1894 0080 D3E7     		b	.L79
 1895              	.LVL240:
 1896              	.L84:
 881:Middlewares/Third_Party/wolfSSL_wolfSSL_wolfSSL/wolfssl/wolfcrypt/src/poly1305.c ****     }
 1897              		.loc 1 881 16 view .LVU664
 1898 0082 6FF0AC03 		mvn	r3, #172
 1899              	.LVL241:
 881:Middlewares/Third_Party/wolfSSL_wolfSSL_wolfSSL/wolfssl/wolfcrypt/src/poly1305.c ****     }
 1900              		.loc 1 881 16 view .LVU665
 1901 0086 D0E7     		b	.L79
 1902              	.L85:
 1903 0088 6FF0AC03 		mvn	r3, #172
 1904 008c CDE7     		b	.L79
 1905              	.L86:
 887:Middlewares/Third_Party/wolfSSL_wolfSSL_wolfSSL/wolfssl/wolfcrypt/src/poly1305.c **** 
 1906              		.loc 1 887 20 view .LVU666
 1907 008e 6FF0AC03 		mvn	r3, #172
 1908 0092 CAE7     		b	.L79
 1909              		.cfi_endproc
 1910              	.LFE186:
 1912              		.text
 1913              	.Letext0:
 1914              		.file 2 "/usr/lib/gcc/arm-none-eabi/10.2.0/include/stddef.h"
 1915              		.file 3 "Middlewares/Third_Party/wolfSSL_wolfSSL_wolfSSL/wolfssl/wolfssl/wolfcrypt/types.h"
 1916              		.file 4 "Middlewares/Third_Party/wolfSSL_wolfSSL_wolfSSL/wolfssl/wolfssl/wolfcrypt/poly1305.h"
 1917              		.file 5 "Middlewares/Third_Party/wolfSSL_wolfSSL_wolfSSL/wolfssl/wolfssl/wolfcrypt/error-crypt.h"
ARM GAS  /tmp/ccGcaF1m.s 			page 53

