ARM GAS  /tmp/cc09iKDl.s 			page 1


   1              		.cpu cortex-m4
   2              		.eabi_attribute 27, 1
   3              		.eabi_attribute 28, 1
   4              		.eabi_attribute 20, 1
   5              		.eabi_attribute 21, 1
   6              		.eabi_attribute 23, 3
   7              		.eabi_attribute 24, 1
   8              		.eabi_attribute 25, 1
   9              		.eabi_attribute 26, 1
  10              		.eabi_attribute 30, 1
  11              		.eabi_attribute 34, 1
  12              		.eabi_attribute 18, 4
  13              		.file	"random.c"
  14              		.text
  15              	.Ltext0:
  16              		.cfi_sections	.debug_frame
  17              		.section	.text.Hash_DRBG_Uninstantiate,"ax",%progbits
  18              		.align	1
  19              		.arch armv7e-m
  20              		.syntax unified
  21              		.thumb
  22              		.thumb_func
  23              		.fpu fpv4-sp-d16
  25              	Hash_DRBG_Uninstantiate:
  26              	.LVL0:
  27              	.LFB183:
  28              		.file 1 "Middlewares/Third_Party/wolfSSL_wolfSSL_wolfSSL/wolfssl/wolfcrypt/src/random.c"
   1:Middlewares/Third_Party/wolfSSL_wolfSSL_wolfSSL/wolfssl/wolfcrypt/src/random.c **** /* random.c
   2:Middlewares/Third_Party/wolfSSL_wolfSSL_wolfSSL/wolfssl/wolfcrypt/src/random.c ****  *
   3:Middlewares/Third_Party/wolfSSL_wolfSSL_wolfSSL/wolfssl/wolfcrypt/src/random.c ****  * Copyright (C) 2006-2020 wolfSSL Inc.
   4:Middlewares/Third_Party/wolfSSL_wolfSSL_wolfSSL/wolfssl/wolfcrypt/src/random.c ****  *
   5:Middlewares/Third_Party/wolfSSL_wolfSSL_wolfSSL/wolfssl/wolfcrypt/src/random.c ****  * This file is part of wolfSSL.
   6:Middlewares/Third_Party/wolfSSL_wolfSSL_wolfSSL/wolfssl/wolfcrypt/src/random.c ****  *
   7:Middlewares/Third_Party/wolfSSL_wolfSSL_wolfSSL/wolfssl/wolfcrypt/src/random.c ****  * wolfSSL is free software; you can redistribute it and/or modify
   8:Middlewares/Third_Party/wolfSSL_wolfSSL_wolfSSL/wolfssl/wolfcrypt/src/random.c ****  * it under the terms of the GNU General Public License as published by
   9:Middlewares/Third_Party/wolfSSL_wolfSSL_wolfSSL/wolfssl/wolfcrypt/src/random.c ****  * the Free Software Foundation; either version 2 of the License, or
  10:Middlewares/Third_Party/wolfSSL_wolfSSL_wolfSSL/wolfssl/wolfcrypt/src/random.c ****  * (at your option) any later version.
  11:Middlewares/Third_Party/wolfSSL_wolfSSL_wolfSSL/wolfssl/wolfcrypt/src/random.c ****  *
  12:Middlewares/Third_Party/wolfSSL_wolfSSL_wolfSSL/wolfssl/wolfcrypt/src/random.c ****  * wolfSSL is distributed in the hope that it will be useful,
  13:Middlewares/Third_Party/wolfSSL_wolfSSL_wolfSSL/wolfssl/wolfcrypt/src/random.c ****  * but WITHOUT ANY WARRANTY; without even the implied warranty of
  14:Middlewares/Third_Party/wolfSSL_wolfSSL_wolfSSL/wolfssl/wolfcrypt/src/random.c ****  * MERCHANTABILITY or FITNESS FOR A PARTICULAR PURPOSE.  See the
  15:Middlewares/Third_Party/wolfSSL_wolfSSL_wolfSSL/wolfssl/wolfcrypt/src/random.c ****  * GNU General Public License for more details.
  16:Middlewares/Third_Party/wolfSSL_wolfSSL_wolfSSL/wolfssl/wolfcrypt/src/random.c ****  *
  17:Middlewares/Third_Party/wolfSSL_wolfSSL_wolfSSL/wolfssl/wolfcrypt/src/random.c ****  * You should have received a copy of the GNU General Public License
  18:Middlewares/Third_Party/wolfSSL_wolfSSL_wolfSSL/wolfssl/wolfcrypt/src/random.c ****  * along with this program; if not, write to the Free Software
  19:Middlewares/Third_Party/wolfSSL_wolfSSL_wolfSSL/wolfssl/wolfcrypt/src/random.c ****  * Foundation, Inc., 51 Franklin Street, Fifth Floor, Boston, MA 02110-1335, USA
  20:Middlewares/Third_Party/wolfSSL_wolfSSL_wolfSSL/wolfssl/wolfcrypt/src/random.c ****  */
  21:Middlewares/Third_Party/wolfSSL_wolfSSL_wolfSSL/wolfssl/wolfcrypt/src/random.c **** 
  22:Middlewares/Third_Party/wolfSSL_wolfSSL_wolfSSL/wolfssl/wolfcrypt/src/random.c **** /*
  23:Middlewares/Third_Party/wolfSSL_wolfSSL_wolfSSL/wolfssl/wolfcrypt/src/random.c **** 
  24:Middlewares/Third_Party/wolfSSL_wolfSSL_wolfSSL/wolfssl/wolfcrypt/src/random.c **** DESCRIPTION
  25:Middlewares/Third_Party/wolfSSL_wolfSSL_wolfSSL/wolfssl/wolfcrypt/src/random.c **** This library contains implementation for the random number generator.
  26:Middlewares/Third_Party/wolfSSL_wolfSSL_wolfSSL/wolfssl/wolfcrypt/src/random.c **** 
  27:Middlewares/Third_Party/wolfSSL_wolfSSL_wolfSSL/wolfssl/wolfcrypt/src/random.c **** */
  28:Middlewares/Third_Party/wolfSSL_wolfSSL_wolfSSL/wolfssl/wolfcrypt/src/random.c **** #ifdef HAVE_CONFIG_H
  29:Middlewares/Third_Party/wolfSSL_wolfSSL_wolfSSL/wolfssl/wolfcrypt/src/random.c ****     #include <config.h>
  30:Middlewares/Third_Party/wolfSSL_wolfSSL_wolfSSL/wolfssl/wolfcrypt/src/random.c **** #endif
ARM GAS  /tmp/cc09iKDl.s 			page 2


  31:Middlewares/Third_Party/wolfSSL_wolfSSL_wolfSSL/wolfssl/wolfcrypt/src/random.c **** 
  32:Middlewares/Third_Party/wolfSSL_wolfSSL_wolfSSL/wolfssl/wolfcrypt/src/random.c **** #include <wolfssl/wolfcrypt/settings.h>
  33:Middlewares/Third_Party/wolfSSL_wolfSSL_wolfSSL/wolfssl/wolfcrypt/src/random.c **** #include <wolfssl/wolfcrypt/error-crypt.h>
  34:Middlewares/Third_Party/wolfSSL_wolfSSL_wolfSSL/wolfssl/wolfcrypt/src/random.c **** 
  35:Middlewares/Third_Party/wolfSSL_wolfSSL_wolfSSL/wolfssl/wolfcrypt/src/random.c **** /* on HPUX 11 you may need to install /dev/random see
  36:Middlewares/Third_Party/wolfSSL_wolfSSL_wolfSSL/wolfssl/wolfcrypt/src/random.c ****    http://h20293.www2.hp.com/portal/swdepot/displayProductInfo.do?productNumber=KRNG11I
  37:Middlewares/Third_Party/wolfSSL_wolfSSL_wolfSSL/wolfssl/wolfcrypt/src/random.c **** 
  38:Middlewares/Third_Party/wolfSSL_wolfSSL_wolfSSL/wolfssl/wolfcrypt/src/random.c **** */
  39:Middlewares/Third_Party/wolfSSL_wolfSSL_wolfSSL/wolfssl/wolfcrypt/src/random.c **** 
  40:Middlewares/Third_Party/wolfSSL_wolfSSL_wolfSSL/wolfssl/wolfcrypt/src/random.c **** #if defined(HAVE_FIPS) && \
  41:Middlewares/Third_Party/wolfSSL_wolfSSL_wolfSSL/wolfssl/wolfcrypt/src/random.c ****     defined(HAVE_FIPS_VERSION) && (HAVE_FIPS_VERSION >= 2)
  42:Middlewares/Third_Party/wolfSSL_wolfSSL_wolfSSL/wolfssl/wolfcrypt/src/random.c **** 
  43:Middlewares/Third_Party/wolfSSL_wolfSSL_wolfSSL/wolfssl/wolfcrypt/src/random.c ****     /* set NO_WRAPPERS before headers, use direct internal f()s not wrappers */
  44:Middlewares/Third_Party/wolfSSL_wolfSSL_wolfSSL/wolfssl/wolfcrypt/src/random.c ****     #define FIPS_NO_WRAPPERS
  45:Middlewares/Third_Party/wolfSSL_wolfSSL_wolfSSL/wolfssl/wolfcrypt/src/random.c **** 
  46:Middlewares/Third_Party/wolfSSL_wolfSSL_wolfSSL/wolfssl/wolfcrypt/src/random.c ****     #ifdef USE_WINDOWS_API
  47:Middlewares/Third_Party/wolfSSL_wolfSSL_wolfSSL/wolfssl/wolfcrypt/src/random.c ****         #pragma code_seg(".fipsA$c")
  48:Middlewares/Third_Party/wolfSSL_wolfSSL_wolfSSL/wolfssl/wolfcrypt/src/random.c ****         #pragma const_seg(".fipsB$c")
  49:Middlewares/Third_Party/wolfSSL_wolfSSL_wolfSSL/wolfssl/wolfcrypt/src/random.c ****     #endif
  50:Middlewares/Third_Party/wolfSSL_wolfSSL_wolfSSL/wolfssl/wolfcrypt/src/random.c **** #endif
  51:Middlewares/Third_Party/wolfSSL_wolfSSL_wolfSSL/wolfssl/wolfcrypt/src/random.c **** 
  52:Middlewares/Third_Party/wolfSSL_wolfSSL_wolfSSL/wolfssl/wolfcrypt/src/random.c **** 
  53:Middlewares/Third_Party/wolfSSL_wolfSSL_wolfSSL/wolfssl/wolfcrypt/src/random.c **** #include <wolfssl/wolfcrypt/random.h>
  54:Middlewares/Third_Party/wolfSSL_wolfSSL_wolfSSL/wolfssl/wolfcrypt/src/random.c **** #include <wolfssl/wolfcrypt/cpuid.h>
  55:Middlewares/Third_Party/wolfSSL_wolfSSL_wolfSSL/wolfssl/wolfcrypt/src/random.c **** 
  56:Middlewares/Third_Party/wolfSSL_wolfSSL_wolfSSL/wolfssl/wolfcrypt/src/random.c **** 
  57:Middlewares/Third_Party/wolfSSL_wolfSSL_wolfSSL/wolfssl/wolfcrypt/src/random.c **** /* If building for old FIPS. */
  58:Middlewares/Third_Party/wolfSSL_wolfSSL_wolfSSL/wolfssl/wolfcrypt/src/random.c **** #if defined(HAVE_FIPS) && \
  59:Middlewares/Third_Party/wolfSSL_wolfSSL_wolfSSL/wolfssl/wolfcrypt/src/random.c ****     (!defined(HAVE_FIPS_VERSION) || (HAVE_FIPS_VERSION < 2))
  60:Middlewares/Third_Party/wolfSSL_wolfSSL_wolfSSL/wolfssl/wolfcrypt/src/random.c **** 
  61:Middlewares/Third_Party/wolfSSL_wolfSSL_wolfSSL/wolfssl/wolfcrypt/src/random.c **** int wc_GenerateSeed(OS_Seed* os, byte* seed, word32 sz)
  62:Middlewares/Third_Party/wolfSSL_wolfSSL_wolfSSL/wolfssl/wolfcrypt/src/random.c **** {
  63:Middlewares/Third_Party/wolfSSL_wolfSSL_wolfSSL/wolfssl/wolfcrypt/src/random.c ****     return GenerateSeed(os, seed, sz);
  64:Middlewares/Third_Party/wolfSSL_wolfSSL_wolfSSL/wolfssl/wolfcrypt/src/random.c **** }
  65:Middlewares/Third_Party/wolfSSL_wolfSSL_wolfSSL/wolfssl/wolfcrypt/src/random.c **** 
  66:Middlewares/Third_Party/wolfSSL_wolfSSL_wolfSSL/wolfssl/wolfcrypt/src/random.c **** int wc_InitRng_ex(WC_RNG* rng, void* heap, int devId)
  67:Middlewares/Third_Party/wolfSSL_wolfSSL_wolfSSL/wolfssl/wolfcrypt/src/random.c **** {
  68:Middlewares/Third_Party/wolfSSL_wolfSSL_wolfSSL/wolfssl/wolfcrypt/src/random.c ****     (void)heap;
  69:Middlewares/Third_Party/wolfSSL_wolfSSL_wolfSSL/wolfssl/wolfcrypt/src/random.c ****     (void)devId;
  70:Middlewares/Third_Party/wolfSSL_wolfSSL_wolfSSL/wolfssl/wolfcrypt/src/random.c ****     return InitRng_fips(rng);
  71:Middlewares/Third_Party/wolfSSL_wolfSSL_wolfSSL/wolfssl/wolfcrypt/src/random.c **** }
  72:Middlewares/Third_Party/wolfSSL_wolfSSL_wolfSSL/wolfssl/wolfcrypt/src/random.c **** 
  73:Middlewares/Third_Party/wolfSSL_wolfSSL_wolfSSL/wolfssl/wolfcrypt/src/random.c **** int wc_InitRng(WC_RNG* rng)
  74:Middlewares/Third_Party/wolfSSL_wolfSSL_wolfSSL/wolfssl/wolfcrypt/src/random.c **** {
  75:Middlewares/Third_Party/wolfSSL_wolfSSL_wolfSSL/wolfssl/wolfcrypt/src/random.c ****     return InitRng_fips(rng);
  76:Middlewares/Third_Party/wolfSSL_wolfSSL_wolfSSL/wolfssl/wolfcrypt/src/random.c **** }
  77:Middlewares/Third_Party/wolfSSL_wolfSSL_wolfSSL/wolfssl/wolfcrypt/src/random.c **** 
  78:Middlewares/Third_Party/wolfSSL_wolfSSL_wolfSSL/wolfssl/wolfcrypt/src/random.c **** 
  79:Middlewares/Third_Party/wolfSSL_wolfSSL_wolfSSL/wolfssl/wolfcrypt/src/random.c **** int wc_RNG_GenerateBlock(WC_RNG* rng, byte* b, word32 sz)
  80:Middlewares/Third_Party/wolfSSL_wolfSSL_wolfSSL/wolfssl/wolfcrypt/src/random.c **** {
  81:Middlewares/Third_Party/wolfSSL_wolfSSL_wolfSSL/wolfssl/wolfcrypt/src/random.c ****     return RNG_GenerateBlock_fips(rng, b, sz);
  82:Middlewares/Third_Party/wolfSSL_wolfSSL_wolfSSL/wolfssl/wolfcrypt/src/random.c **** }
  83:Middlewares/Third_Party/wolfSSL_wolfSSL_wolfSSL/wolfssl/wolfcrypt/src/random.c **** 
  84:Middlewares/Third_Party/wolfSSL_wolfSSL_wolfSSL/wolfssl/wolfcrypt/src/random.c **** 
  85:Middlewares/Third_Party/wolfSSL_wolfSSL_wolfSSL/wolfssl/wolfcrypt/src/random.c **** int wc_RNG_GenerateByte(WC_RNG* rng, byte* b)
  86:Middlewares/Third_Party/wolfSSL_wolfSSL_wolfSSL/wolfssl/wolfcrypt/src/random.c **** {
  87:Middlewares/Third_Party/wolfSSL_wolfSSL_wolfSSL/wolfssl/wolfcrypt/src/random.c ****     return RNG_GenerateByte(rng, b);
ARM GAS  /tmp/cc09iKDl.s 			page 3


  88:Middlewares/Third_Party/wolfSSL_wolfSSL_wolfSSL/wolfssl/wolfcrypt/src/random.c **** }
  89:Middlewares/Third_Party/wolfSSL_wolfSSL_wolfSSL/wolfssl/wolfcrypt/src/random.c **** 
  90:Middlewares/Third_Party/wolfSSL_wolfSSL_wolfSSL/wolfssl/wolfcrypt/src/random.c **** #ifdef HAVE_HASHDRBG
  91:Middlewares/Third_Party/wolfSSL_wolfSSL_wolfSSL/wolfssl/wolfcrypt/src/random.c **** 
  92:Middlewares/Third_Party/wolfSSL_wolfSSL_wolfSSL/wolfssl/wolfcrypt/src/random.c ****     int wc_FreeRng(WC_RNG* rng)
  93:Middlewares/Third_Party/wolfSSL_wolfSSL_wolfSSL/wolfssl/wolfcrypt/src/random.c ****     {
  94:Middlewares/Third_Party/wolfSSL_wolfSSL_wolfSSL/wolfssl/wolfcrypt/src/random.c ****         return FreeRng_fips(rng);
  95:Middlewares/Third_Party/wolfSSL_wolfSSL_wolfSSL/wolfssl/wolfcrypt/src/random.c ****     }
  96:Middlewares/Third_Party/wolfSSL_wolfSSL_wolfSSL/wolfssl/wolfcrypt/src/random.c **** 
  97:Middlewares/Third_Party/wolfSSL_wolfSSL_wolfSSL/wolfssl/wolfcrypt/src/random.c ****     int wc_RNG_HealthTest(int reseed, const byte* seedA, word32 seedASz,
  98:Middlewares/Third_Party/wolfSSL_wolfSSL_wolfSSL/wolfssl/wolfcrypt/src/random.c ****                                       const byte* seedB, word32 seedBSz,
  99:Middlewares/Third_Party/wolfSSL_wolfSSL_wolfSSL/wolfssl/wolfcrypt/src/random.c ****                                       byte* output, word32 outputSz)
 100:Middlewares/Third_Party/wolfSSL_wolfSSL_wolfSSL/wolfssl/wolfcrypt/src/random.c ****     {
 101:Middlewares/Third_Party/wolfSSL_wolfSSL_wolfSSL/wolfssl/wolfcrypt/src/random.c ****         return RNG_HealthTest_fips(reseed, seedA, seedASz,
 102:Middlewares/Third_Party/wolfSSL_wolfSSL_wolfSSL/wolfssl/wolfcrypt/src/random.c ****                               seedB, seedBSz, output, outputSz);
 103:Middlewares/Third_Party/wolfSSL_wolfSSL_wolfSSL/wolfssl/wolfcrypt/src/random.c ****    }
 104:Middlewares/Third_Party/wolfSSL_wolfSSL_wolfSSL/wolfssl/wolfcrypt/src/random.c **** #endif /* HAVE_HASHDRBG */
 105:Middlewares/Third_Party/wolfSSL_wolfSSL_wolfSSL/wolfssl/wolfcrypt/src/random.c **** 
 106:Middlewares/Third_Party/wolfSSL_wolfSSL_wolfSSL/wolfssl/wolfcrypt/src/random.c **** #else /* else build without fips, or for new fips */
 107:Middlewares/Third_Party/wolfSSL_wolfSSL_wolfSSL/wolfssl/wolfcrypt/src/random.c **** 
 108:Middlewares/Third_Party/wolfSSL_wolfSSL_wolfSSL/wolfssl/wolfcrypt/src/random.c **** #ifndef WC_NO_RNG /* if not FIPS and RNG is disabled then do not compile */
 109:Middlewares/Third_Party/wolfSSL_wolfSSL_wolfSSL/wolfssl/wolfcrypt/src/random.c **** 
 110:Middlewares/Third_Party/wolfSSL_wolfSSL_wolfSSL/wolfssl/wolfcrypt/src/random.c **** #include <wolfssl/wolfcrypt/sha256.h>
 111:Middlewares/Third_Party/wolfSSL_wolfSSL_wolfSSL/wolfssl/wolfcrypt/src/random.c **** 
 112:Middlewares/Third_Party/wolfSSL_wolfSSL_wolfSSL/wolfssl/wolfcrypt/src/random.c **** #ifdef WOLF_CRYPTO_CB
 113:Middlewares/Third_Party/wolfSSL_wolfSSL_wolfSSL/wolfssl/wolfcrypt/src/random.c ****     #include <wolfssl/wolfcrypt/cryptocb.h>
 114:Middlewares/Third_Party/wolfSSL_wolfSSL_wolfSSL/wolfssl/wolfcrypt/src/random.c **** #endif
 115:Middlewares/Third_Party/wolfSSL_wolfSSL_wolfSSL/wolfssl/wolfcrypt/src/random.c **** 
 116:Middlewares/Third_Party/wolfSSL_wolfSSL_wolfSSL/wolfssl/wolfcrypt/src/random.c **** #ifdef NO_INLINE
 117:Middlewares/Third_Party/wolfSSL_wolfSSL_wolfSSL/wolfssl/wolfcrypt/src/random.c ****     #include <wolfssl/wolfcrypt/misc.h>
 118:Middlewares/Third_Party/wolfSSL_wolfSSL_wolfSSL/wolfssl/wolfcrypt/src/random.c **** #else
 119:Middlewares/Third_Party/wolfSSL_wolfSSL_wolfSSL/wolfssl/wolfcrypt/src/random.c ****     #define WOLFSSL_MISC_INCLUDED
 120:Middlewares/Third_Party/wolfSSL_wolfSSL_wolfSSL/wolfssl/wolfcrypt/src/random.c ****     #include <wolfcrypt/src/misc.c>
 121:Middlewares/Third_Party/wolfSSL_wolfSSL_wolfSSL/wolfssl/wolfcrypt/src/random.c **** #endif
 122:Middlewares/Third_Party/wolfSSL_wolfSSL_wolfSSL/wolfssl/wolfcrypt/src/random.c **** 
 123:Middlewares/Third_Party/wolfSSL_wolfSSL_wolfSSL/wolfssl/wolfcrypt/src/random.c **** #if defined(WOLFSSL_SGX)
 124:Middlewares/Third_Party/wolfSSL_wolfSSL_wolfSSL/wolfssl/wolfcrypt/src/random.c ****     #include <sgx_trts.h>
 125:Middlewares/Third_Party/wolfSSL_wolfSSL_wolfSSL/wolfssl/wolfcrypt/src/random.c **** #elif defined(USE_WINDOWS_API)
 126:Middlewares/Third_Party/wolfSSL_wolfSSL_wolfSSL/wolfssl/wolfcrypt/src/random.c ****     #ifndef _WIN32_WINNT
 127:Middlewares/Third_Party/wolfSSL_wolfSSL_wolfSSL/wolfssl/wolfcrypt/src/random.c ****         #define _WIN32_WINNT 0x0400
 128:Middlewares/Third_Party/wolfSSL_wolfSSL_wolfSSL/wolfssl/wolfcrypt/src/random.c ****     #endif
 129:Middlewares/Third_Party/wolfSSL_wolfSSL_wolfSSL/wolfssl/wolfcrypt/src/random.c ****     #include <windows.h>
 130:Middlewares/Third_Party/wolfSSL_wolfSSL_wolfSSL/wolfssl/wolfcrypt/src/random.c ****     #include <wincrypt.h>
 131:Middlewares/Third_Party/wolfSSL_wolfSSL_wolfSSL/wolfssl/wolfcrypt/src/random.c **** #elif defined(HAVE_WNR)
 132:Middlewares/Third_Party/wolfSSL_wolfSSL_wolfSSL/wolfssl/wolfcrypt/src/random.c ****     #include <wnr.h>
 133:Middlewares/Third_Party/wolfSSL_wolfSSL_wolfSSL/wolfssl/wolfcrypt/src/random.c ****     #include <wolfssl/wolfcrypt/logging.h>
 134:Middlewares/Third_Party/wolfSSL_wolfSSL_wolfSSL/wolfssl/wolfcrypt/src/random.c ****     wolfSSL_Mutex wnr_mutex;    /* global netRandom mutex */
 135:Middlewares/Third_Party/wolfSSL_wolfSSL_wolfSSL/wolfssl/wolfcrypt/src/random.c ****     int wnr_timeout     = 0;    /* entropy timeout, mililseconds */
 136:Middlewares/Third_Party/wolfSSL_wolfSSL_wolfSSL/wolfssl/wolfcrypt/src/random.c ****     int wnr_mutex_init  = 0;    /* flag for mutex init */
 137:Middlewares/Third_Party/wolfSSL_wolfSSL_wolfSSL/wolfssl/wolfcrypt/src/random.c ****     wnr_context*  wnr_ctx;      /* global netRandom context */
 138:Middlewares/Third_Party/wolfSSL_wolfSSL_wolfSSL/wolfssl/wolfcrypt/src/random.c **** #elif defined(FREESCALE_KSDK_2_0_TRNG)
 139:Middlewares/Third_Party/wolfSSL_wolfSSL_wolfSSL/wolfssl/wolfcrypt/src/random.c ****     #include "fsl_trng.h"
 140:Middlewares/Third_Party/wolfSSL_wolfSSL_wolfSSL/wolfssl/wolfcrypt/src/random.c **** #elif defined(FREESCALE_KSDK_2_0_RNGA)
 141:Middlewares/Third_Party/wolfSSL_wolfSSL_wolfSSL/wolfssl/wolfcrypt/src/random.c ****     #include "fsl_rnga.h"
 142:Middlewares/Third_Party/wolfSSL_wolfSSL_wolfSSL/wolfssl/wolfcrypt/src/random.c **** #elif defined(WOLFSSL_WICED)
 143:Middlewares/Third_Party/wolfSSL_wolfSSL_wolfSSL/wolfssl/wolfcrypt/src/random.c ****     #include "wiced_crypto.h"
 144:Middlewares/Third_Party/wolfSSL_wolfSSL_wolfSSL/wolfssl/wolfcrypt/src/random.c **** #elif defined(WOLFSSL_NETBURNER)
ARM GAS  /tmp/cc09iKDl.s 			page 4


 145:Middlewares/Third_Party/wolfSSL_wolfSSL_wolfSSL/wolfssl/wolfcrypt/src/random.c ****     #include <predef.h>
 146:Middlewares/Third_Party/wolfSSL_wolfSSL_wolfSSL/wolfssl/wolfcrypt/src/random.c ****     #include <basictypes.h>
 147:Middlewares/Third_Party/wolfSSL_wolfSSL_wolfSSL/wolfssl/wolfcrypt/src/random.c ****     #include <random.h>
 148:Middlewares/Third_Party/wolfSSL_wolfSSL_wolfSSL/wolfssl/wolfcrypt/src/random.c **** #elif defined(NO_DEV_RANDOM)
 149:Middlewares/Third_Party/wolfSSL_wolfSSL_wolfSSL/wolfssl/wolfcrypt/src/random.c **** #elif defined(CUSTOM_RAND_GENERATE)
 150:Middlewares/Third_Party/wolfSSL_wolfSSL_wolfSSL/wolfssl/wolfcrypt/src/random.c **** #elif defined(CUSTOM_RAND_GENERATE_BLOCK)
 151:Middlewares/Third_Party/wolfSSL_wolfSSL_wolfSSL/wolfssl/wolfcrypt/src/random.c **** #elif defined(CUSTOM_RAND_GENERATE_SEED)
 152:Middlewares/Third_Party/wolfSSL_wolfSSL_wolfSSL/wolfssl/wolfcrypt/src/random.c **** #elif defined(WOLFSSL_GENSEED_FORTEST)
 153:Middlewares/Third_Party/wolfSSL_wolfSSL_wolfSSL/wolfssl/wolfcrypt/src/random.c **** #elif defined(WOLFSSL_MDK_ARM)
 154:Middlewares/Third_Party/wolfSSL_wolfSSL_wolfSSL/wolfssl/wolfcrypt/src/random.c **** #elif defined(WOLFSSL_IAR_ARM)
 155:Middlewares/Third_Party/wolfSSL_wolfSSL_wolfSSL/wolfssl/wolfcrypt/src/random.c **** #elif defined(WOLFSSL_ROWLEY_ARM)
 156:Middlewares/Third_Party/wolfSSL_wolfSSL_wolfSSL/wolfssl/wolfcrypt/src/random.c **** #elif defined(WOLFSSL_EMBOS)
 157:Middlewares/Third_Party/wolfSSL_wolfSSL_wolfSSL/wolfssl/wolfcrypt/src/random.c **** #elif defined(WOLFSSL_DEOS)
 158:Middlewares/Third_Party/wolfSSL_wolfSSL_wolfSSL/wolfssl/wolfcrypt/src/random.c **** #elif defined(MICRIUM)
 159:Middlewares/Third_Party/wolfSSL_wolfSSL_wolfSSL/wolfssl/wolfcrypt/src/random.c **** #elif defined(WOLFSSL_NUCLEUS)
 160:Middlewares/Third_Party/wolfSSL_wolfSSL_wolfSSL/wolfssl/wolfcrypt/src/random.c **** #elif defined(WOLFSSL_PB)
 161:Middlewares/Third_Party/wolfSSL_wolfSSL_wolfSSL/wolfssl/wolfcrypt/src/random.c **** #elif defined(WOLFSSL_ZEPHYR)
 162:Middlewares/Third_Party/wolfSSL_wolfSSL_wolfSSL/wolfssl/wolfcrypt/src/random.c **** #elif defined(WOLFSSL_TELIT_M2MB)
 163:Middlewares/Third_Party/wolfSSL_wolfSSL_wolfSSL/wolfssl/wolfcrypt/src/random.c **** #elif defined(WOLFSSL_SCE) && !defined(WOLFSSL_SCE_NO_TRNG)
 164:Middlewares/Third_Party/wolfSSL_wolfSSL_wolfSSL/wolfssl/wolfcrypt/src/random.c **** #else
 165:Middlewares/Third_Party/wolfSSL_wolfSSL_wolfSSL/wolfssl/wolfcrypt/src/random.c ****     /* include headers that may be needed to get good seed */
 166:Middlewares/Third_Party/wolfSSL_wolfSSL_wolfSSL/wolfssl/wolfcrypt/src/random.c ****     #include <fcntl.h>
 167:Middlewares/Third_Party/wolfSSL_wolfSSL_wolfSSL/wolfssl/wolfcrypt/src/random.c ****     #ifndef EBSNET
 168:Middlewares/Third_Party/wolfSSL_wolfSSL_wolfSSL/wolfssl/wolfcrypt/src/random.c ****         #include <unistd.h>
 169:Middlewares/Third_Party/wolfSSL_wolfSSL_wolfSSL/wolfssl/wolfcrypt/src/random.c ****     #endif
 170:Middlewares/Third_Party/wolfSSL_wolfSSL_wolfSSL/wolfssl/wolfcrypt/src/random.c **** #endif
 171:Middlewares/Third_Party/wolfSSL_wolfSSL_wolfSSL/wolfssl/wolfcrypt/src/random.c **** 
 172:Middlewares/Third_Party/wolfSSL_wolfSSL_wolfSSL/wolfssl/wolfcrypt/src/random.c **** #if defined(WOLFSSL_SILABS_SE_ACCEL)
 173:Middlewares/Third_Party/wolfSSL_wolfSSL_wolfSSL/wolfssl/wolfcrypt/src/random.c **** #include <wolfssl/wolfcrypt/port/silabs/silabs_random.h>
 174:Middlewares/Third_Party/wolfSSL_wolfSSL_wolfSSL/wolfssl/wolfcrypt/src/random.c **** #endif
 175:Middlewares/Third_Party/wolfSSL_wolfSSL_wolfSSL/wolfssl/wolfcrypt/src/random.c **** 
 176:Middlewares/Third_Party/wolfSSL_wolfSSL_wolfSSL/wolfssl/wolfcrypt/src/random.c **** 
 177:Middlewares/Third_Party/wolfSSL_wolfSSL_wolfSSL/wolfssl/wolfcrypt/src/random.c **** #if defined(HAVE_INTEL_RDRAND) || defined(HAVE_INTEL_RDSEED)
 178:Middlewares/Third_Party/wolfSSL_wolfSSL_wolfSSL/wolfssl/wolfcrypt/src/random.c ****     static word32 intel_flags = 0;
 179:Middlewares/Third_Party/wolfSSL_wolfSSL_wolfSSL/wolfssl/wolfcrypt/src/random.c ****     static void wc_InitRng_IntelRD(void)
 180:Middlewares/Third_Party/wolfSSL_wolfSSL_wolfSSL/wolfssl/wolfcrypt/src/random.c ****     {
 181:Middlewares/Third_Party/wolfSSL_wolfSSL_wolfSSL/wolfssl/wolfcrypt/src/random.c ****         intel_flags = cpuid_get_flags();
 182:Middlewares/Third_Party/wolfSSL_wolfSSL_wolfSSL/wolfssl/wolfcrypt/src/random.c ****     }
 183:Middlewares/Third_Party/wolfSSL_wolfSSL_wolfSSL/wolfssl/wolfcrypt/src/random.c ****     #if defined(HAVE_INTEL_RDSEED) && !defined(WOLFSSL_LINUXKM)
 184:Middlewares/Third_Party/wolfSSL_wolfSSL_wolfSSL/wolfssl/wolfcrypt/src/random.c ****     static int wc_GenerateSeed_IntelRD(OS_Seed* os, byte* output, word32 sz);
 185:Middlewares/Third_Party/wolfSSL_wolfSSL_wolfSSL/wolfssl/wolfcrypt/src/random.c ****     #endif
 186:Middlewares/Third_Party/wolfSSL_wolfSSL_wolfSSL/wolfssl/wolfcrypt/src/random.c ****     #ifdef HAVE_INTEL_RDRAND
 187:Middlewares/Third_Party/wolfSSL_wolfSSL_wolfSSL/wolfssl/wolfcrypt/src/random.c ****     static int wc_GenerateRand_IntelRD(OS_Seed* os, byte* output, word32 sz);
 188:Middlewares/Third_Party/wolfSSL_wolfSSL_wolfSSL/wolfssl/wolfcrypt/src/random.c ****     #endif
 189:Middlewares/Third_Party/wolfSSL_wolfSSL_wolfSSL/wolfssl/wolfcrypt/src/random.c **** 
 190:Middlewares/Third_Party/wolfSSL_wolfSSL_wolfSSL/wolfssl/wolfcrypt/src/random.c **** #ifdef USE_WINDOWS_API
 191:Middlewares/Third_Party/wolfSSL_wolfSSL_wolfSSL/wolfssl/wolfcrypt/src/random.c ****     #define USE_INTEL_INTRINSICS
 192:Middlewares/Third_Party/wolfSSL_wolfSSL_wolfSSL/wolfssl/wolfcrypt/src/random.c **** #elif !defined __GNUC__ || defined __clang__ || __GNUC__ > 4
 193:Middlewares/Third_Party/wolfSSL_wolfSSL_wolfSSL/wolfssl/wolfcrypt/src/random.c ****     #define USE_INTEL_INTRINSICS
 194:Middlewares/Third_Party/wolfSSL_wolfSSL_wolfSSL/wolfssl/wolfcrypt/src/random.c **** #else
 195:Middlewares/Third_Party/wolfSSL_wolfSSL_wolfSSL/wolfssl/wolfcrypt/src/random.c ****     #undef USE_INTEL_INTRINSICS
 196:Middlewares/Third_Party/wolfSSL_wolfSSL_wolfSSL/wolfssl/wolfcrypt/src/random.c **** #endif
 197:Middlewares/Third_Party/wolfSSL_wolfSSL_wolfSSL/wolfssl/wolfcrypt/src/random.c **** 
 198:Middlewares/Third_Party/wolfSSL_wolfSSL_wolfSSL/wolfssl/wolfcrypt/src/random.c **** #ifdef USE_INTEL_INTRINSICS
 199:Middlewares/Third_Party/wolfSSL_wolfSSL_wolfSSL/wolfssl/wolfcrypt/src/random.c ****     #include <immintrin.h>
 200:Middlewares/Third_Party/wolfSSL_wolfSSL_wolfSSL/wolfssl/wolfcrypt/src/random.c ****     /* Before clang 7 or GCC 9, immintrin.h did not define _rdseed64_step() */
 201:Middlewares/Third_Party/wolfSSL_wolfSSL_wolfSSL/wolfssl/wolfcrypt/src/random.c ****     #ifndef HAVE_INTEL_RDSEED
ARM GAS  /tmp/cc09iKDl.s 			page 5


 202:Middlewares/Third_Party/wolfSSL_wolfSSL_wolfSSL/wolfssl/wolfcrypt/src/random.c ****     #elif defined __clang__ && __clang_major__ > 6
 203:Middlewares/Third_Party/wolfSSL_wolfSSL_wolfSSL/wolfssl/wolfcrypt/src/random.c ****     #elif !defined __GNUC__
 204:Middlewares/Third_Party/wolfSSL_wolfSSL_wolfSSL/wolfssl/wolfcrypt/src/random.c ****     #elif __GNUC__ > 8
 205:Middlewares/Third_Party/wolfSSL_wolfSSL_wolfSSL/wolfssl/wolfcrypt/src/random.c ****     #else
 206:Middlewares/Third_Party/wolfSSL_wolfSSL_wolfSSL/wolfssl/wolfcrypt/src/random.c ****         #ifndef __clang__
 207:Middlewares/Third_Party/wolfSSL_wolfSSL_wolfSSL/wolfssl/wolfcrypt/src/random.c ****             #pragma GCC push_options
 208:Middlewares/Third_Party/wolfSSL_wolfSSL_wolfSSL/wolfssl/wolfcrypt/src/random.c ****             #pragma GCC target("rdseed")
 209:Middlewares/Third_Party/wolfSSL_wolfSSL_wolfSSL/wolfssl/wolfcrypt/src/random.c ****         #else
 210:Middlewares/Third_Party/wolfSSL_wolfSSL_wolfSSL/wolfssl/wolfcrypt/src/random.c ****             #define __RDSEED__
 211:Middlewares/Third_Party/wolfSSL_wolfSSL_wolfSSL/wolfssl/wolfcrypt/src/random.c ****         #endif
 212:Middlewares/Third_Party/wolfSSL_wolfSSL_wolfSSL/wolfssl/wolfcrypt/src/random.c ****         #include <x86intrin.h>
 213:Middlewares/Third_Party/wolfSSL_wolfSSL_wolfSSL/wolfssl/wolfcrypt/src/random.c ****         #ifndef __clang__
 214:Middlewares/Third_Party/wolfSSL_wolfSSL_wolfSSL/wolfssl/wolfcrypt/src/random.c ****             #pragma GCC pop_options
 215:Middlewares/Third_Party/wolfSSL_wolfSSL_wolfSSL/wolfssl/wolfcrypt/src/random.c ****         #endif
 216:Middlewares/Third_Party/wolfSSL_wolfSSL_wolfSSL/wolfssl/wolfcrypt/src/random.c ****     #endif
 217:Middlewares/Third_Party/wolfSSL_wolfSSL_wolfSSL/wolfssl/wolfcrypt/src/random.c **** #endif /* USE_WINDOWS_API */
 218:Middlewares/Third_Party/wolfSSL_wolfSSL_wolfSSL/wolfssl/wolfcrypt/src/random.c **** #endif
 219:Middlewares/Third_Party/wolfSSL_wolfSSL_wolfSSL/wolfssl/wolfcrypt/src/random.c **** 
 220:Middlewares/Third_Party/wolfSSL_wolfSSL_wolfSSL/wolfssl/wolfcrypt/src/random.c **** /* Start NIST DRBG code */
 221:Middlewares/Third_Party/wolfSSL_wolfSSL_wolfSSL/wolfssl/wolfcrypt/src/random.c **** #ifdef HAVE_HASHDRBG
 222:Middlewares/Third_Party/wolfSSL_wolfSSL_wolfSSL/wolfssl/wolfcrypt/src/random.c **** 
 223:Middlewares/Third_Party/wolfSSL_wolfSSL_wolfSSL/wolfssl/wolfcrypt/src/random.c **** #define OUTPUT_BLOCK_LEN  (WC_SHA256_DIGEST_SIZE)
 224:Middlewares/Third_Party/wolfSSL_wolfSSL_wolfSSL/wolfssl/wolfcrypt/src/random.c **** #define MAX_REQUEST_LEN   (0x10000)
 225:Middlewares/Third_Party/wolfSSL_wolfSSL_wolfSSL/wolfssl/wolfcrypt/src/random.c **** #define RESEED_INTERVAL   WC_RESEED_INTERVAL
 226:Middlewares/Third_Party/wolfSSL_wolfSSL_wolfSSL/wolfssl/wolfcrypt/src/random.c **** 
 227:Middlewares/Third_Party/wolfSSL_wolfSSL_wolfSSL/wolfssl/wolfcrypt/src/random.c **** 
 228:Middlewares/Third_Party/wolfSSL_wolfSSL_wolfSSL/wolfssl/wolfcrypt/src/random.c **** /* For FIPS builds, the user should not be adjusting the values. */
 229:Middlewares/Third_Party/wolfSSL_wolfSSL_wolfSSL/wolfssl/wolfcrypt/src/random.c **** #if defined(HAVE_FIPS) && \
 230:Middlewares/Third_Party/wolfSSL_wolfSSL_wolfSSL/wolfssl/wolfcrypt/src/random.c ****     defined(HAVE_FIPS_VERSION) && (HAVE_FIPS_VERSION >= 2)
 231:Middlewares/Third_Party/wolfSSL_wolfSSL_wolfSSL/wolfssl/wolfcrypt/src/random.c ****     #if defined(RNG_SECURITY_STRENGTH) \
 232:Middlewares/Third_Party/wolfSSL_wolfSSL_wolfSSL/wolfssl/wolfcrypt/src/random.c ****             || defined(ENTROPY_SCALE_FACTOR) \
 233:Middlewares/Third_Party/wolfSSL_wolfSSL_wolfSSL/wolfssl/wolfcrypt/src/random.c ****             || defined(SEED_BLOCK_SZ)
 234:Middlewares/Third_Party/wolfSSL_wolfSSL_wolfSSL/wolfssl/wolfcrypt/src/random.c **** 
 235:Middlewares/Third_Party/wolfSSL_wolfSSL_wolfSSL/wolfssl/wolfcrypt/src/random.c ****         #error "Do not change the RNG parameters for FIPS builds."
 236:Middlewares/Third_Party/wolfSSL_wolfSSL_wolfSSL/wolfssl/wolfcrypt/src/random.c ****     #endif
 237:Middlewares/Third_Party/wolfSSL_wolfSSL_wolfSSL/wolfssl/wolfcrypt/src/random.c **** #endif
 238:Middlewares/Third_Party/wolfSSL_wolfSSL_wolfSSL/wolfssl/wolfcrypt/src/random.c **** 
 239:Middlewares/Third_Party/wolfSSL_wolfSSL_wolfSSL/wolfssl/wolfcrypt/src/random.c **** 
 240:Middlewares/Third_Party/wolfSSL_wolfSSL_wolfSSL/wolfssl/wolfcrypt/src/random.c **** /* The security strength for the RNG is the target number of bits of
 241:Middlewares/Third_Party/wolfSSL_wolfSSL_wolfSSL/wolfssl/wolfcrypt/src/random.c ****  * entropy you are looking for in a seed. */
 242:Middlewares/Third_Party/wolfSSL_wolfSSL_wolfSSL/wolfssl/wolfcrypt/src/random.c **** #ifndef RNG_SECURITY_STRENGTH
 243:Middlewares/Third_Party/wolfSSL_wolfSSL_wolfSSL/wolfssl/wolfcrypt/src/random.c ****     #if defined(HAVE_FIPS) && \
 244:Middlewares/Third_Party/wolfSSL_wolfSSL_wolfSSL/wolfssl/wolfcrypt/src/random.c ****         defined(HAVE_FIPS_VERSION) && (HAVE_FIPS_VERSION >= 2)
 245:Middlewares/Third_Party/wolfSSL_wolfSSL_wolfSSL/wolfssl/wolfcrypt/src/random.c ****         /* SHA-256 requires a minimum of 256-bits of entropy. The goal
 246:Middlewares/Third_Party/wolfSSL_wolfSSL_wolfSSL/wolfssl/wolfcrypt/src/random.c ****          * of 1024 will provide 4 times that. */
 247:Middlewares/Third_Party/wolfSSL_wolfSSL_wolfSSL/wolfssl/wolfcrypt/src/random.c ****         #define RNG_SECURITY_STRENGTH (1024)
 248:Middlewares/Third_Party/wolfSSL_wolfSSL_wolfSSL/wolfssl/wolfcrypt/src/random.c ****     #else
 249:Middlewares/Third_Party/wolfSSL_wolfSSL_wolfSSL/wolfssl/wolfcrypt/src/random.c ****         /* If not using FIPS or using old FIPS, set the number down a bit.
 250:Middlewares/Third_Party/wolfSSL_wolfSSL_wolfSSL/wolfssl/wolfcrypt/src/random.c ****          * More is better, but more is also slower. */
 251:Middlewares/Third_Party/wolfSSL_wolfSSL_wolfSSL/wolfssl/wolfcrypt/src/random.c ****         #define RNG_SECURITY_STRENGTH (256)
 252:Middlewares/Third_Party/wolfSSL_wolfSSL_wolfSSL/wolfssl/wolfcrypt/src/random.c ****     #endif
 253:Middlewares/Third_Party/wolfSSL_wolfSSL_wolfSSL/wolfssl/wolfcrypt/src/random.c **** #endif
 254:Middlewares/Third_Party/wolfSSL_wolfSSL_wolfSSL/wolfssl/wolfcrypt/src/random.c **** 
 255:Middlewares/Third_Party/wolfSSL_wolfSSL_wolfSSL/wolfssl/wolfcrypt/src/random.c **** #ifndef ENTROPY_SCALE_FACTOR
 256:Middlewares/Third_Party/wolfSSL_wolfSSL_wolfSSL/wolfssl/wolfcrypt/src/random.c ****     /* The entropy scale factor should be the whole number inverse of the
 257:Middlewares/Third_Party/wolfSSL_wolfSSL_wolfSSL/wolfssl/wolfcrypt/src/random.c ****      * minimum bits of entropy per bit of NDRNG output. */
 258:Middlewares/Third_Party/wolfSSL_wolfSSL_wolfSSL/wolfssl/wolfcrypt/src/random.c ****     #if defined(HAVE_INTEL_RDSEED) || defined(HAVE_INTEL_RDRAND)
ARM GAS  /tmp/cc09iKDl.s 			page 6


 259:Middlewares/Third_Party/wolfSSL_wolfSSL_wolfSSL/wolfssl/wolfcrypt/src/random.c ****         /* The value of 2 applies to Intel's RDSEED which provides about
 260:Middlewares/Third_Party/wolfSSL_wolfSSL_wolfSSL/wolfssl/wolfcrypt/src/random.c ****          * 0.5 bits minimum of entropy per bit. */
 261:Middlewares/Third_Party/wolfSSL_wolfSSL_wolfSSL/wolfssl/wolfcrypt/src/random.c ****         #define ENTROPY_SCALE_FACTOR 2
 262:Middlewares/Third_Party/wolfSSL_wolfSSL_wolfSSL/wolfssl/wolfcrypt/src/random.c ****     #else
 263:Middlewares/Third_Party/wolfSSL_wolfSSL_wolfSSL/wolfssl/wolfcrypt/src/random.c ****         /* Setting the default to 1. */
 264:Middlewares/Third_Party/wolfSSL_wolfSSL_wolfSSL/wolfssl/wolfcrypt/src/random.c ****         #define ENTROPY_SCALE_FACTOR 1
 265:Middlewares/Third_Party/wolfSSL_wolfSSL_wolfSSL/wolfssl/wolfcrypt/src/random.c ****     #endif
 266:Middlewares/Third_Party/wolfSSL_wolfSSL_wolfSSL/wolfssl/wolfcrypt/src/random.c **** #endif
 267:Middlewares/Third_Party/wolfSSL_wolfSSL_wolfSSL/wolfssl/wolfcrypt/src/random.c **** 
 268:Middlewares/Third_Party/wolfSSL_wolfSSL_wolfSSL/wolfssl/wolfcrypt/src/random.c **** #ifndef SEED_BLOCK_SZ
 269:Middlewares/Third_Party/wolfSSL_wolfSSL_wolfSSL/wolfssl/wolfcrypt/src/random.c ****     /* The seed block size, is the size of the output of the underlying NDRNG.
 270:Middlewares/Third_Party/wolfSSL_wolfSSL_wolfSSL/wolfssl/wolfcrypt/src/random.c ****      * This value is used for testing the output of the NDRNG. */
 271:Middlewares/Third_Party/wolfSSL_wolfSSL_wolfSSL/wolfssl/wolfcrypt/src/random.c ****     #if defined(HAVE_INTEL_RDSEED) || defined(HAVE_INTEL_RDRAND)
 272:Middlewares/Third_Party/wolfSSL_wolfSSL_wolfSSL/wolfssl/wolfcrypt/src/random.c ****         /* RDSEED outputs in blocks of 64-bits. */
 273:Middlewares/Third_Party/wolfSSL_wolfSSL_wolfSSL/wolfssl/wolfcrypt/src/random.c ****         #define SEED_BLOCK_SZ sizeof(word64)
 274:Middlewares/Third_Party/wolfSSL_wolfSSL_wolfSSL/wolfssl/wolfcrypt/src/random.c ****     #else
 275:Middlewares/Third_Party/wolfSSL_wolfSSL_wolfSSL/wolfssl/wolfcrypt/src/random.c ****         /* Setting the default to 4. */
 276:Middlewares/Third_Party/wolfSSL_wolfSSL_wolfSSL/wolfssl/wolfcrypt/src/random.c ****         #define SEED_BLOCK_SZ 4
 277:Middlewares/Third_Party/wolfSSL_wolfSSL_wolfSSL/wolfssl/wolfcrypt/src/random.c ****     #endif
 278:Middlewares/Third_Party/wolfSSL_wolfSSL_wolfSSL/wolfssl/wolfcrypt/src/random.c **** #endif
 279:Middlewares/Third_Party/wolfSSL_wolfSSL_wolfSSL/wolfssl/wolfcrypt/src/random.c **** 
 280:Middlewares/Third_Party/wolfSSL_wolfSSL_wolfSSL/wolfssl/wolfcrypt/src/random.c **** #define SEED_SZ        (RNG_SECURITY_STRENGTH*ENTROPY_SCALE_FACTOR/8)
 281:Middlewares/Third_Party/wolfSSL_wolfSSL_wolfSSL/wolfssl/wolfcrypt/src/random.c **** 
 282:Middlewares/Third_Party/wolfSSL_wolfSSL_wolfSSL/wolfssl/wolfcrypt/src/random.c **** /* The maximum seed size will be the seed size plus a seed block for the
 283:Middlewares/Third_Party/wolfSSL_wolfSSL_wolfSSL/wolfssl/wolfcrypt/src/random.c ****  * test, and an additional half of the seed size. This additional half
 284:Middlewares/Third_Party/wolfSSL_wolfSSL_wolfSSL/wolfssl/wolfcrypt/src/random.c ****  * is in case the user does not supply a nonce. A nonce will be obtained
 285:Middlewares/Third_Party/wolfSSL_wolfSSL_wolfSSL/wolfssl/wolfcrypt/src/random.c ****  * from the NDRNG. */
 286:Middlewares/Third_Party/wolfSSL_wolfSSL_wolfSSL/wolfssl/wolfcrypt/src/random.c **** #define MAX_SEED_SZ    (SEED_SZ + SEED_SZ/2 + SEED_BLOCK_SZ)
 287:Middlewares/Third_Party/wolfSSL_wolfSSL_wolfSSL/wolfssl/wolfcrypt/src/random.c **** 
 288:Middlewares/Third_Party/wolfSSL_wolfSSL_wolfSSL/wolfssl/wolfcrypt/src/random.c **** 
 289:Middlewares/Third_Party/wolfSSL_wolfSSL_wolfSSL/wolfssl/wolfcrypt/src/random.c **** /* Internal return codes */
 290:Middlewares/Third_Party/wolfSSL_wolfSSL_wolfSSL/wolfssl/wolfcrypt/src/random.c **** #define DRBG_SUCCESS      0
 291:Middlewares/Third_Party/wolfSSL_wolfSSL_wolfSSL/wolfssl/wolfcrypt/src/random.c **** #define DRBG_FAILURE      1
 292:Middlewares/Third_Party/wolfSSL_wolfSSL_wolfSSL/wolfssl/wolfcrypt/src/random.c **** #define DRBG_NEED_RESEED  2
 293:Middlewares/Third_Party/wolfSSL_wolfSSL_wolfSSL/wolfssl/wolfcrypt/src/random.c **** #define DRBG_CONT_FAILURE 3
 294:Middlewares/Third_Party/wolfSSL_wolfSSL_wolfSSL/wolfssl/wolfcrypt/src/random.c **** 
 295:Middlewares/Third_Party/wolfSSL_wolfSSL_wolfSSL/wolfssl/wolfcrypt/src/random.c **** /* RNG health states */
 296:Middlewares/Third_Party/wolfSSL_wolfSSL_wolfSSL/wolfssl/wolfcrypt/src/random.c **** #define DRBG_NOT_INIT     0
 297:Middlewares/Third_Party/wolfSSL_wolfSSL_wolfSSL/wolfssl/wolfcrypt/src/random.c **** #define DRBG_OK           1
 298:Middlewares/Third_Party/wolfSSL_wolfSSL_wolfSSL/wolfssl/wolfcrypt/src/random.c **** #define DRBG_FAILED       2
 299:Middlewares/Third_Party/wolfSSL_wolfSSL_wolfSSL/wolfssl/wolfcrypt/src/random.c **** #define DRBG_CONT_FAILED  3
 300:Middlewares/Third_Party/wolfSSL_wolfSSL_wolfSSL/wolfssl/wolfcrypt/src/random.c **** 
 301:Middlewares/Third_Party/wolfSSL_wolfSSL_wolfSSL/wolfssl/wolfcrypt/src/random.c **** #define RNG_HEALTH_TEST_CHECK_SIZE (WC_SHA256_DIGEST_SIZE * 4)
 302:Middlewares/Third_Party/wolfSSL_wolfSSL_wolfSSL/wolfssl/wolfcrypt/src/random.c **** 
 303:Middlewares/Third_Party/wolfSSL_wolfSSL_wolfSSL/wolfssl/wolfcrypt/src/random.c **** /* Verify max gen block len */
 304:Middlewares/Third_Party/wolfSSL_wolfSSL_wolfSSL/wolfssl/wolfcrypt/src/random.c **** #if RNG_MAX_BLOCK_LEN > MAX_REQUEST_LEN
 305:Middlewares/Third_Party/wolfSSL_wolfSSL_wolfSSL/wolfssl/wolfcrypt/src/random.c ****     #error RNG_MAX_BLOCK_LEN is larger than NIST DBRG max request length
 306:Middlewares/Third_Party/wolfSSL_wolfSSL_wolfSSL/wolfssl/wolfcrypt/src/random.c **** #endif
 307:Middlewares/Third_Party/wolfSSL_wolfSSL_wolfSSL/wolfssl/wolfcrypt/src/random.c **** 
 308:Middlewares/Third_Party/wolfSSL_wolfSSL_wolfSSL/wolfssl/wolfcrypt/src/random.c **** enum {
 309:Middlewares/Third_Party/wolfSSL_wolfSSL_wolfSSL/wolfssl/wolfcrypt/src/random.c ****     drbgInitC     = 0,
 310:Middlewares/Third_Party/wolfSSL_wolfSSL_wolfSSL/wolfssl/wolfcrypt/src/random.c ****     drbgReseed    = 1,
 311:Middlewares/Third_Party/wolfSSL_wolfSSL_wolfSSL/wolfssl/wolfcrypt/src/random.c ****     drbgGenerateW = 2,
 312:Middlewares/Third_Party/wolfSSL_wolfSSL_wolfSSL/wolfssl/wolfcrypt/src/random.c ****     drbgGenerateH = 3,
 313:Middlewares/Third_Party/wolfSSL_wolfSSL_wolfSSL/wolfssl/wolfcrypt/src/random.c ****     drbgInitV
 314:Middlewares/Third_Party/wolfSSL_wolfSSL_wolfSSL/wolfssl/wolfcrypt/src/random.c **** };
 315:Middlewares/Third_Party/wolfSSL_wolfSSL_wolfSSL/wolfssl/wolfcrypt/src/random.c **** 
ARM GAS  /tmp/cc09iKDl.s 			page 7


 316:Middlewares/Third_Party/wolfSSL_wolfSSL_wolfSSL/wolfssl/wolfcrypt/src/random.c **** typedef struct DRBG_internal DRBG_internal;
 317:Middlewares/Third_Party/wolfSSL_wolfSSL_wolfSSL/wolfssl/wolfcrypt/src/random.c **** 
 318:Middlewares/Third_Party/wolfSSL_wolfSSL_wolfSSL/wolfssl/wolfcrypt/src/random.c **** static int wc_RNG_HealthTestLocal(int reseed);
 319:Middlewares/Third_Party/wolfSSL_wolfSSL_wolfSSL/wolfssl/wolfcrypt/src/random.c **** 
 320:Middlewares/Third_Party/wolfSSL_wolfSSL_wolfSSL/wolfssl/wolfcrypt/src/random.c **** /* Hash Derivation Function */
 321:Middlewares/Third_Party/wolfSSL_wolfSSL_wolfSSL/wolfssl/wolfcrypt/src/random.c **** /* Returns: DRBG_SUCCESS or DRBG_FAILURE */
 322:Middlewares/Third_Party/wolfSSL_wolfSSL_wolfSSL/wolfssl/wolfcrypt/src/random.c **** static int Hash_df(DRBG_internal* drbg, byte* out, word32 outSz, byte type,
 323:Middlewares/Third_Party/wolfSSL_wolfSSL_wolfSSL/wolfssl/wolfcrypt/src/random.c ****                                                   const byte* inA, word32 inASz,
 324:Middlewares/Third_Party/wolfSSL_wolfSSL_wolfSSL/wolfssl/wolfcrypt/src/random.c ****                                                   const byte* inB, word32 inBSz)
 325:Middlewares/Third_Party/wolfSSL_wolfSSL_wolfSSL/wolfssl/wolfcrypt/src/random.c **** {
 326:Middlewares/Third_Party/wolfSSL_wolfSSL_wolfSSL/wolfssl/wolfcrypt/src/random.c ****     int ret = DRBG_FAILURE;
 327:Middlewares/Third_Party/wolfSSL_wolfSSL_wolfSSL/wolfssl/wolfcrypt/src/random.c ****     byte ctr;
 328:Middlewares/Third_Party/wolfSSL_wolfSSL_wolfSSL/wolfssl/wolfcrypt/src/random.c ****     int i;
 329:Middlewares/Third_Party/wolfSSL_wolfSSL_wolfSSL/wolfssl/wolfcrypt/src/random.c ****     int len;
 330:Middlewares/Third_Party/wolfSSL_wolfSSL_wolfSSL/wolfssl/wolfcrypt/src/random.c ****     word32 bits = (outSz * 8); /* reverse byte order */
 331:Middlewares/Third_Party/wolfSSL_wolfSSL_wolfSSL/wolfssl/wolfcrypt/src/random.c **** #ifdef WOLFSSL_SMALL_STACK_CACHE
 332:Middlewares/Third_Party/wolfSSL_wolfSSL_wolfSSL/wolfssl/wolfcrypt/src/random.c ****     wc_Sha256* sha = &drbg->sha256;
 333:Middlewares/Third_Party/wolfSSL_wolfSSL_wolfSSL/wolfssl/wolfcrypt/src/random.c **** #else
 334:Middlewares/Third_Party/wolfSSL_wolfSSL_wolfSSL/wolfssl/wolfcrypt/src/random.c ****     wc_Sha256 sha[1];
 335:Middlewares/Third_Party/wolfSSL_wolfSSL_wolfSSL/wolfssl/wolfcrypt/src/random.c **** #endif
 336:Middlewares/Third_Party/wolfSSL_wolfSSL_wolfSSL/wolfssl/wolfcrypt/src/random.c **** #ifdef WC_ASYNC_ENABLE_SHA256
 337:Middlewares/Third_Party/wolfSSL_wolfSSL_wolfSSL/wolfssl/wolfcrypt/src/random.c ****     DECLARE_VAR(digest, byte, WC_SHA256_DIGEST_SIZE, drbg->heap);
 338:Middlewares/Third_Party/wolfSSL_wolfSSL_wolfSSL/wolfssl/wolfcrypt/src/random.c ****     if (digest == NULL)
 339:Middlewares/Third_Party/wolfSSL_wolfSSL_wolfSSL/wolfssl/wolfcrypt/src/random.c ****         return MEMORY_E;
 340:Middlewares/Third_Party/wolfSSL_wolfSSL_wolfSSL/wolfssl/wolfcrypt/src/random.c **** #else
 341:Middlewares/Third_Party/wolfSSL_wolfSSL_wolfSSL/wolfssl/wolfcrypt/src/random.c ****     byte digest[WC_SHA256_DIGEST_SIZE];
 342:Middlewares/Third_Party/wolfSSL_wolfSSL_wolfSSL/wolfssl/wolfcrypt/src/random.c **** #endif
 343:Middlewares/Third_Party/wolfSSL_wolfSSL_wolfSSL/wolfssl/wolfcrypt/src/random.c **** 
 344:Middlewares/Third_Party/wolfSSL_wolfSSL_wolfSSL/wolfssl/wolfcrypt/src/random.c ****     (void)drbg;
 345:Middlewares/Third_Party/wolfSSL_wolfSSL_wolfSSL/wolfssl/wolfcrypt/src/random.c **** #ifdef WC_ASYNC_ENABLE_SHA256
 346:Middlewares/Third_Party/wolfSSL_wolfSSL_wolfSSL/wolfssl/wolfcrypt/src/random.c ****     if (digest == NULL)
 347:Middlewares/Third_Party/wolfSSL_wolfSSL_wolfSSL/wolfssl/wolfcrypt/src/random.c ****         return DRBG_FAILURE;
 348:Middlewares/Third_Party/wolfSSL_wolfSSL_wolfSSL/wolfssl/wolfcrypt/src/random.c **** #endif
 349:Middlewares/Third_Party/wolfSSL_wolfSSL_wolfSSL/wolfssl/wolfcrypt/src/random.c **** 
 350:Middlewares/Third_Party/wolfSSL_wolfSSL_wolfSSL/wolfssl/wolfcrypt/src/random.c **** #ifdef LITTLE_ENDIAN_ORDER
 351:Middlewares/Third_Party/wolfSSL_wolfSSL_wolfSSL/wolfssl/wolfcrypt/src/random.c ****     bits = ByteReverseWord32(bits);
 352:Middlewares/Third_Party/wolfSSL_wolfSSL_wolfSSL/wolfssl/wolfcrypt/src/random.c **** #endif
 353:Middlewares/Third_Party/wolfSSL_wolfSSL_wolfSSL/wolfssl/wolfcrypt/src/random.c ****     len = (outSz / OUTPUT_BLOCK_LEN)
 354:Middlewares/Third_Party/wolfSSL_wolfSSL_wolfSSL/wolfssl/wolfcrypt/src/random.c ****         + ((outSz % OUTPUT_BLOCK_LEN) ? 1 : 0);
 355:Middlewares/Third_Party/wolfSSL_wolfSSL_wolfSSL/wolfssl/wolfcrypt/src/random.c **** 
 356:Middlewares/Third_Party/wolfSSL_wolfSSL_wolfSSL/wolfssl/wolfcrypt/src/random.c ****     for (i = 0, ctr = 1; i < len; i++, ctr++) {
 357:Middlewares/Third_Party/wolfSSL_wolfSSL_wolfSSL/wolfssl/wolfcrypt/src/random.c **** #ifndef WOLFSSL_SMALL_STACK_CACHE
 358:Middlewares/Third_Party/wolfSSL_wolfSSL_wolfSSL/wolfssl/wolfcrypt/src/random.c ****     #if defined(WOLFSSL_ASYNC_CRYPT) || defined(WOLF_CRYPTO_CB)
 359:Middlewares/Third_Party/wolfSSL_wolfSSL_wolfSSL/wolfssl/wolfcrypt/src/random.c ****         ret = wc_InitSha256_ex(sha, drbg->heap, drbg->devId);
 360:Middlewares/Third_Party/wolfSSL_wolfSSL_wolfSSL/wolfssl/wolfcrypt/src/random.c ****     #else
 361:Middlewares/Third_Party/wolfSSL_wolfSSL_wolfSSL/wolfssl/wolfcrypt/src/random.c ****         ret = wc_InitSha256(sha);
 362:Middlewares/Third_Party/wolfSSL_wolfSSL_wolfSSL/wolfssl/wolfcrypt/src/random.c ****     #endif
 363:Middlewares/Third_Party/wolfSSL_wolfSSL_wolfSSL/wolfssl/wolfcrypt/src/random.c ****         if (ret != 0)
 364:Middlewares/Third_Party/wolfSSL_wolfSSL_wolfSSL/wolfssl/wolfcrypt/src/random.c ****             break;
 365:Middlewares/Third_Party/wolfSSL_wolfSSL_wolfSSL/wolfssl/wolfcrypt/src/random.c **** 
 366:Middlewares/Third_Party/wolfSSL_wolfSSL_wolfSSL/wolfssl/wolfcrypt/src/random.c ****         if (ret == 0)
 367:Middlewares/Third_Party/wolfSSL_wolfSSL_wolfSSL/wolfssl/wolfcrypt/src/random.c **** #endif
 368:Middlewares/Third_Party/wolfSSL_wolfSSL_wolfSSL/wolfssl/wolfcrypt/src/random.c ****             ret = wc_Sha256Update(sha, &ctr, sizeof(ctr));
 369:Middlewares/Third_Party/wolfSSL_wolfSSL_wolfSSL/wolfssl/wolfcrypt/src/random.c ****         if (ret == 0)
 370:Middlewares/Third_Party/wolfSSL_wolfSSL_wolfSSL/wolfssl/wolfcrypt/src/random.c ****             ret = wc_Sha256Update(sha, (byte*)&bits, sizeof(bits));
 371:Middlewares/Third_Party/wolfSSL_wolfSSL_wolfSSL/wolfssl/wolfcrypt/src/random.c **** 
 372:Middlewares/Third_Party/wolfSSL_wolfSSL_wolfSSL/wolfssl/wolfcrypt/src/random.c ****         if (ret == 0) {
ARM GAS  /tmp/cc09iKDl.s 			page 8


 373:Middlewares/Third_Party/wolfSSL_wolfSSL_wolfSSL/wolfssl/wolfcrypt/src/random.c ****             /* churning V is the only string that doesn't have the type added */
 374:Middlewares/Third_Party/wolfSSL_wolfSSL_wolfSSL/wolfssl/wolfcrypt/src/random.c ****             if (type != drbgInitV)
 375:Middlewares/Third_Party/wolfSSL_wolfSSL_wolfSSL/wolfssl/wolfcrypt/src/random.c ****                 ret = wc_Sha256Update(sha, &type, sizeof(type));
 376:Middlewares/Third_Party/wolfSSL_wolfSSL_wolfSSL/wolfssl/wolfcrypt/src/random.c ****         }
 377:Middlewares/Third_Party/wolfSSL_wolfSSL_wolfSSL/wolfssl/wolfcrypt/src/random.c ****         if (ret == 0)
 378:Middlewares/Third_Party/wolfSSL_wolfSSL_wolfSSL/wolfssl/wolfcrypt/src/random.c ****             ret = wc_Sha256Update(sha, inA, inASz);
 379:Middlewares/Third_Party/wolfSSL_wolfSSL_wolfSSL/wolfssl/wolfcrypt/src/random.c ****         if (ret == 0) {
 380:Middlewares/Third_Party/wolfSSL_wolfSSL_wolfSSL/wolfssl/wolfcrypt/src/random.c ****             if (inB != NULL && inBSz > 0)
 381:Middlewares/Third_Party/wolfSSL_wolfSSL_wolfSSL/wolfssl/wolfcrypt/src/random.c ****                 ret = wc_Sha256Update(sha, inB, inBSz);
 382:Middlewares/Third_Party/wolfSSL_wolfSSL_wolfSSL/wolfssl/wolfcrypt/src/random.c ****         }
 383:Middlewares/Third_Party/wolfSSL_wolfSSL_wolfSSL/wolfssl/wolfcrypt/src/random.c ****         if (ret == 0)
 384:Middlewares/Third_Party/wolfSSL_wolfSSL_wolfSSL/wolfssl/wolfcrypt/src/random.c ****             ret = wc_Sha256Final(sha, digest);
 385:Middlewares/Third_Party/wolfSSL_wolfSSL_wolfSSL/wolfssl/wolfcrypt/src/random.c **** 
 386:Middlewares/Third_Party/wolfSSL_wolfSSL_wolfSSL/wolfssl/wolfcrypt/src/random.c **** #ifndef WOLFSSL_SMALL_STACK_CACHE
 387:Middlewares/Third_Party/wolfSSL_wolfSSL_wolfSSL/wolfssl/wolfcrypt/src/random.c ****         wc_Sha256Free(sha);
 388:Middlewares/Third_Party/wolfSSL_wolfSSL_wolfSSL/wolfssl/wolfcrypt/src/random.c **** #endif
 389:Middlewares/Third_Party/wolfSSL_wolfSSL_wolfSSL/wolfssl/wolfcrypt/src/random.c ****         if (ret == 0) {
 390:Middlewares/Third_Party/wolfSSL_wolfSSL_wolfSSL/wolfssl/wolfcrypt/src/random.c ****             if (outSz > OUTPUT_BLOCK_LEN) {
 391:Middlewares/Third_Party/wolfSSL_wolfSSL_wolfSSL/wolfssl/wolfcrypt/src/random.c ****                 XMEMCPY(out, digest, OUTPUT_BLOCK_LEN);
 392:Middlewares/Third_Party/wolfSSL_wolfSSL_wolfSSL/wolfssl/wolfcrypt/src/random.c ****                 outSz -= OUTPUT_BLOCK_LEN;
 393:Middlewares/Third_Party/wolfSSL_wolfSSL_wolfSSL/wolfssl/wolfcrypt/src/random.c ****                 out += OUTPUT_BLOCK_LEN;
 394:Middlewares/Third_Party/wolfSSL_wolfSSL_wolfSSL/wolfssl/wolfcrypt/src/random.c ****             }
 395:Middlewares/Third_Party/wolfSSL_wolfSSL_wolfSSL/wolfssl/wolfcrypt/src/random.c ****             else {
 396:Middlewares/Third_Party/wolfSSL_wolfSSL_wolfSSL/wolfssl/wolfcrypt/src/random.c ****                 XMEMCPY(out, digest, outSz);
 397:Middlewares/Third_Party/wolfSSL_wolfSSL_wolfSSL/wolfssl/wolfcrypt/src/random.c ****             }
 398:Middlewares/Third_Party/wolfSSL_wolfSSL_wolfSSL/wolfssl/wolfcrypt/src/random.c ****         }
 399:Middlewares/Third_Party/wolfSSL_wolfSSL_wolfSSL/wolfssl/wolfcrypt/src/random.c ****     }
 400:Middlewares/Third_Party/wolfSSL_wolfSSL_wolfSSL/wolfssl/wolfcrypt/src/random.c **** 
 401:Middlewares/Third_Party/wolfSSL_wolfSSL_wolfSSL/wolfssl/wolfcrypt/src/random.c ****     ForceZero(digest, WC_SHA256_DIGEST_SIZE);
 402:Middlewares/Third_Party/wolfSSL_wolfSSL_wolfSSL/wolfssl/wolfcrypt/src/random.c **** 
 403:Middlewares/Third_Party/wolfSSL_wolfSSL_wolfSSL/wolfssl/wolfcrypt/src/random.c **** #ifdef WC_ASYNC_ENABLE_SHA256
 404:Middlewares/Third_Party/wolfSSL_wolfSSL_wolfSSL/wolfssl/wolfcrypt/src/random.c ****     FREE_VAR(digest, drbg->heap);
 405:Middlewares/Third_Party/wolfSSL_wolfSSL_wolfSSL/wolfssl/wolfcrypt/src/random.c **** #endif
 406:Middlewares/Third_Party/wolfSSL_wolfSSL_wolfSSL/wolfssl/wolfcrypt/src/random.c **** 
 407:Middlewares/Third_Party/wolfSSL_wolfSSL_wolfSSL/wolfssl/wolfcrypt/src/random.c ****     return (ret == 0) ? DRBG_SUCCESS : DRBG_FAILURE;
 408:Middlewares/Third_Party/wolfSSL_wolfSSL_wolfSSL/wolfssl/wolfcrypt/src/random.c **** }
 409:Middlewares/Third_Party/wolfSSL_wolfSSL_wolfSSL/wolfssl/wolfcrypt/src/random.c **** 
 410:Middlewares/Third_Party/wolfSSL_wolfSSL_wolfSSL/wolfssl/wolfcrypt/src/random.c **** /* Returns: DRBG_SUCCESS or DRBG_FAILURE */
 411:Middlewares/Third_Party/wolfSSL_wolfSSL_wolfSSL/wolfssl/wolfcrypt/src/random.c **** static int Hash_DRBG_Reseed(DRBG_internal* drbg, const byte* seed, word32 seedSz)
 412:Middlewares/Third_Party/wolfSSL_wolfSSL_wolfSSL/wolfssl/wolfcrypt/src/random.c **** {
 413:Middlewares/Third_Party/wolfSSL_wolfSSL_wolfSSL/wolfssl/wolfcrypt/src/random.c ****     byte newV[DRBG_SEED_LEN];
 414:Middlewares/Third_Party/wolfSSL_wolfSSL_wolfSSL/wolfssl/wolfcrypt/src/random.c **** 
 415:Middlewares/Third_Party/wolfSSL_wolfSSL_wolfSSL/wolfssl/wolfcrypt/src/random.c ****     XMEMSET(newV, 0, DRBG_SEED_LEN);
 416:Middlewares/Third_Party/wolfSSL_wolfSSL_wolfSSL/wolfssl/wolfcrypt/src/random.c **** 
 417:Middlewares/Third_Party/wolfSSL_wolfSSL_wolfSSL/wolfssl/wolfcrypt/src/random.c ****     if (Hash_df(drbg, newV, sizeof(newV), drbgReseed,
 418:Middlewares/Third_Party/wolfSSL_wolfSSL_wolfSSL/wolfssl/wolfcrypt/src/random.c ****                 drbg->V, sizeof(drbg->V), seed, seedSz) != DRBG_SUCCESS) {
 419:Middlewares/Third_Party/wolfSSL_wolfSSL_wolfSSL/wolfssl/wolfcrypt/src/random.c ****         return DRBG_FAILURE;
 420:Middlewares/Third_Party/wolfSSL_wolfSSL_wolfSSL/wolfssl/wolfcrypt/src/random.c ****     }
 421:Middlewares/Third_Party/wolfSSL_wolfSSL_wolfSSL/wolfssl/wolfcrypt/src/random.c **** 
 422:Middlewares/Third_Party/wolfSSL_wolfSSL_wolfSSL/wolfssl/wolfcrypt/src/random.c ****     XMEMCPY(drbg->V, newV, sizeof(drbg->V));
 423:Middlewares/Third_Party/wolfSSL_wolfSSL_wolfSSL/wolfssl/wolfcrypt/src/random.c ****     ForceZero(newV, sizeof(newV));
 424:Middlewares/Third_Party/wolfSSL_wolfSSL_wolfSSL/wolfssl/wolfcrypt/src/random.c **** 
 425:Middlewares/Third_Party/wolfSSL_wolfSSL_wolfSSL/wolfssl/wolfcrypt/src/random.c ****     if (Hash_df(drbg, drbg->C, sizeof(drbg->C), drbgInitC, drbg->V,
 426:Middlewares/Third_Party/wolfSSL_wolfSSL_wolfSSL/wolfssl/wolfcrypt/src/random.c ****                                     sizeof(drbg->V), NULL, 0) != DRBG_SUCCESS) {
 427:Middlewares/Third_Party/wolfSSL_wolfSSL_wolfSSL/wolfssl/wolfcrypt/src/random.c ****         return DRBG_FAILURE;
 428:Middlewares/Third_Party/wolfSSL_wolfSSL_wolfSSL/wolfssl/wolfcrypt/src/random.c ****     }
 429:Middlewares/Third_Party/wolfSSL_wolfSSL_wolfSSL/wolfssl/wolfcrypt/src/random.c **** 
ARM GAS  /tmp/cc09iKDl.s 			page 9


 430:Middlewares/Third_Party/wolfSSL_wolfSSL_wolfSSL/wolfssl/wolfcrypt/src/random.c ****     drbg->reseedCtr = 1;
 431:Middlewares/Third_Party/wolfSSL_wolfSSL_wolfSSL/wolfssl/wolfcrypt/src/random.c ****     drbg->lastBlock = 0;
 432:Middlewares/Third_Party/wolfSSL_wolfSSL_wolfSSL/wolfssl/wolfcrypt/src/random.c ****     drbg->matchCount = 0;
 433:Middlewares/Third_Party/wolfSSL_wolfSSL_wolfSSL/wolfssl/wolfcrypt/src/random.c ****     return DRBG_SUCCESS;
 434:Middlewares/Third_Party/wolfSSL_wolfSSL_wolfSSL/wolfssl/wolfcrypt/src/random.c **** }
 435:Middlewares/Third_Party/wolfSSL_wolfSSL_wolfSSL/wolfssl/wolfcrypt/src/random.c **** 
 436:Middlewares/Third_Party/wolfSSL_wolfSSL_wolfSSL/wolfssl/wolfcrypt/src/random.c **** /* Returns: DRBG_SUCCESS and DRBG_FAILURE or BAD_FUNC_ARG on fail */
 437:Middlewares/Third_Party/wolfSSL_wolfSSL_wolfSSL/wolfssl/wolfcrypt/src/random.c **** int wc_RNG_DRBG_Reseed(WC_RNG* rng, const byte* seed, word32 seedSz)
 438:Middlewares/Third_Party/wolfSSL_wolfSSL_wolfSSL/wolfssl/wolfcrypt/src/random.c **** {
 439:Middlewares/Third_Party/wolfSSL_wolfSSL_wolfSSL/wolfssl/wolfcrypt/src/random.c ****     if (rng == NULL || seed == NULL) {
 440:Middlewares/Third_Party/wolfSSL_wolfSSL_wolfSSL/wolfssl/wolfcrypt/src/random.c ****         return BAD_FUNC_ARG;
 441:Middlewares/Third_Party/wolfSSL_wolfSSL_wolfSSL/wolfssl/wolfcrypt/src/random.c ****     }
 442:Middlewares/Third_Party/wolfSSL_wolfSSL_wolfSSL/wolfssl/wolfcrypt/src/random.c **** 
 443:Middlewares/Third_Party/wolfSSL_wolfSSL_wolfSSL/wolfssl/wolfcrypt/src/random.c ****     return Hash_DRBG_Reseed((DRBG_internal *)rng->drbg, seed, seedSz);
 444:Middlewares/Third_Party/wolfSSL_wolfSSL_wolfSSL/wolfssl/wolfcrypt/src/random.c **** }
 445:Middlewares/Third_Party/wolfSSL_wolfSSL_wolfSSL/wolfssl/wolfcrypt/src/random.c **** 
 446:Middlewares/Third_Party/wolfSSL_wolfSSL_wolfSSL/wolfssl/wolfcrypt/src/random.c **** static WC_INLINE void array_add_one(byte* data, word32 dataSz)
 447:Middlewares/Third_Party/wolfSSL_wolfSSL_wolfSSL/wolfssl/wolfcrypt/src/random.c **** {
 448:Middlewares/Third_Party/wolfSSL_wolfSSL_wolfSSL/wolfssl/wolfcrypt/src/random.c ****     int i;
 449:Middlewares/Third_Party/wolfSSL_wolfSSL_wolfSSL/wolfssl/wolfcrypt/src/random.c **** 
 450:Middlewares/Third_Party/wolfSSL_wolfSSL_wolfSSL/wolfssl/wolfcrypt/src/random.c ****     for (i = dataSz - 1; i >= 0; i--)
 451:Middlewares/Third_Party/wolfSSL_wolfSSL_wolfSSL/wolfssl/wolfcrypt/src/random.c ****     {
 452:Middlewares/Third_Party/wolfSSL_wolfSSL_wolfSSL/wolfssl/wolfcrypt/src/random.c ****         data[i]++;
 453:Middlewares/Third_Party/wolfSSL_wolfSSL_wolfSSL/wolfssl/wolfcrypt/src/random.c ****         if (data[i] != 0) break;
 454:Middlewares/Third_Party/wolfSSL_wolfSSL_wolfSSL/wolfssl/wolfcrypt/src/random.c ****     }
 455:Middlewares/Third_Party/wolfSSL_wolfSSL_wolfSSL/wolfssl/wolfcrypt/src/random.c **** }
 456:Middlewares/Third_Party/wolfSSL_wolfSSL_wolfSSL/wolfssl/wolfcrypt/src/random.c **** 
 457:Middlewares/Third_Party/wolfSSL_wolfSSL_wolfSSL/wolfssl/wolfcrypt/src/random.c **** /* Returns: DRBG_SUCCESS or DRBG_FAILURE */
 458:Middlewares/Third_Party/wolfSSL_wolfSSL_wolfSSL/wolfssl/wolfcrypt/src/random.c **** static int Hash_gen(DRBG_internal* drbg, byte* out, word32 outSz, const byte* V)
 459:Middlewares/Third_Party/wolfSSL_wolfSSL_wolfSSL/wolfssl/wolfcrypt/src/random.c **** {
 460:Middlewares/Third_Party/wolfSSL_wolfSSL_wolfSSL/wolfssl/wolfcrypt/src/random.c ****     int ret = DRBG_FAILURE;
 461:Middlewares/Third_Party/wolfSSL_wolfSSL_wolfSSL/wolfssl/wolfcrypt/src/random.c ****     byte data[DRBG_SEED_LEN];
 462:Middlewares/Third_Party/wolfSSL_wolfSSL_wolfSSL/wolfssl/wolfcrypt/src/random.c ****     int i;
 463:Middlewares/Third_Party/wolfSSL_wolfSSL_wolfSSL/wolfssl/wolfcrypt/src/random.c ****     int len;
 464:Middlewares/Third_Party/wolfSSL_wolfSSL_wolfSSL/wolfssl/wolfcrypt/src/random.c ****     word32 checkBlock;
 465:Middlewares/Third_Party/wolfSSL_wolfSSL_wolfSSL/wolfssl/wolfcrypt/src/random.c **** #ifdef WOLFSSL_SMALL_STACK_CACHE
 466:Middlewares/Third_Party/wolfSSL_wolfSSL_wolfSSL/wolfssl/wolfcrypt/src/random.c ****     wc_Sha256* sha = &drbg->sha256;
 467:Middlewares/Third_Party/wolfSSL_wolfSSL_wolfSSL/wolfssl/wolfcrypt/src/random.c **** #else
 468:Middlewares/Third_Party/wolfSSL_wolfSSL_wolfSSL/wolfssl/wolfcrypt/src/random.c ****     wc_Sha256 sha[1];
 469:Middlewares/Third_Party/wolfSSL_wolfSSL_wolfSSL/wolfssl/wolfcrypt/src/random.c **** #endif
 470:Middlewares/Third_Party/wolfSSL_wolfSSL_wolfSSL/wolfssl/wolfcrypt/src/random.c **** #ifdef WC_ASYNC_ENABLE_SHA256
 471:Middlewares/Third_Party/wolfSSL_wolfSSL_wolfSSL/wolfssl/wolfcrypt/src/random.c ****     DECLARE_VAR(digest, byte, WC_SHA256_DIGEST_SIZE, drbg->heap);
 472:Middlewares/Third_Party/wolfSSL_wolfSSL_wolfSSL/wolfssl/wolfcrypt/src/random.c ****     if (digest == NULL)
 473:Middlewares/Third_Party/wolfSSL_wolfSSL_wolfSSL/wolfssl/wolfcrypt/src/random.c ****         return MEMORY_E;
 474:Middlewares/Third_Party/wolfSSL_wolfSSL_wolfSSL/wolfssl/wolfcrypt/src/random.c **** #else
 475:Middlewares/Third_Party/wolfSSL_wolfSSL_wolfSSL/wolfssl/wolfcrypt/src/random.c ****     byte digest[WC_SHA256_DIGEST_SIZE];
 476:Middlewares/Third_Party/wolfSSL_wolfSSL_wolfSSL/wolfssl/wolfcrypt/src/random.c **** #endif
 477:Middlewares/Third_Party/wolfSSL_wolfSSL_wolfSSL/wolfssl/wolfcrypt/src/random.c **** 
 478:Middlewares/Third_Party/wolfSSL_wolfSSL_wolfSSL/wolfssl/wolfcrypt/src/random.c ****     /* Special case: outSz is 0 and out is NULL. wc_Generate a block to save for
 479:Middlewares/Third_Party/wolfSSL_wolfSSL_wolfSSL/wolfssl/wolfcrypt/src/random.c ****      * the continuous test. */
 480:Middlewares/Third_Party/wolfSSL_wolfSSL_wolfSSL/wolfssl/wolfcrypt/src/random.c **** 
 481:Middlewares/Third_Party/wolfSSL_wolfSSL_wolfSSL/wolfssl/wolfcrypt/src/random.c ****     if (outSz == 0) outSz = 1;
 482:Middlewares/Third_Party/wolfSSL_wolfSSL_wolfSSL/wolfssl/wolfcrypt/src/random.c **** 
 483:Middlewares/Third_Party/wolfSSL_wolfSSL_wolfSSL/wolfssl/wolfcrypt/src/random.c ****     len = (outSz / OUTPUT_BLOCK_LEN) + ((outSz % OUTPUT_BLOCK_LEN) ? 1 : 0);
 484:Middlewares/Third_Party/wolfSSL_wolfSSL_wolfSSL/wolfssl/wolfcrypt/src/random.c **** 
 485:Middlewares/Third_Party/wolfSSL_wolfSSL_wolfSSL/wolfssl/wolfcrypt/src/random.c ****     XMEMCPY(data, V, sizeof(data));
 486:Middlewares/Third_Party/wolfSSL_wolfSSL_wolfSSL/wolfssl/wolfcrypt/src/random.c ****     for (i = 0; i < len; i++) {
ARM GAS  /tmp/cc09iKDl.s 			page 10


 487:Middlewares/Third_Party/wolfSSL_wolfSSL_wolfSSL/wolfssl/wolfcrypt/src/random.c **** #ifndef WOLFSSL_SMALL_STACK_CACHE
 488:Middlewares/Third_Party/wolfSSL_wolfSSL_wolfSSL/wolfssl/wolfcrypt/src/random.c ****     #if defined(WOLFSSL_ASYNC_CRYPT) || defined(WOLF_CRYPTO_CB)
 489:Middlewares/Third_Party/wolfSSL_wolfSSL_wolfSSL/wolfssl/wolfcrypt/src/random.c ****         ret = wc_InitSha256_ex(sha, drbg->heap, drbg->devId);
 490:Middlewares/Third_Party/wolfSSL_wolfSSL_wolfSSL/wolfssl/wolfcrypt/src/random.c ****     #else
 491:Middlewares/Third_Party/wolfSSL_wolfSSL_wolfSSL/wolfssl/wolfcrypt/src/random.c ****         ret = wc_InitSha256(sha);
 492:Middlewares/Third_Party/wolfSSL_wolfSSL_wolfSSL/wolfssl/wolfcrypt/src/random.c ****     #endif
 493:Middlewares/Third_Party/wolfSSL_wolfSSL_wolfSSL/wolfssl/wolfcrypt/src/random.c ****         if (ret == 0)
 494:Middlewares/Third_Party/wolfSSL_wolfSSL_wolfSSL/wolfssl/wolfcrypt/src/random.c **** #endif
 495:Middlewares/Third_Party/wolfSSL_wolfSSL_wolfSSL/wolfssl/wolfcrypt/src/random.c ****             ret = wc_Sha256Update(sha, data, sizeof(data));
 496:Middlewares/Third_Party/wolfSSL_wolfSSL_wolfSSL/wolfssl/wolfcrypt/src/random.c ****         if (ret == 0)
 497:Middlewares/Third_Party/wolfSSL_wolfSSL_wolfSSL/wolfssl/wolfcrypt/src/random.c ****             ret = wc_Sha256Final(sha, digest);
 498:Middlewares/Third_Party/wolfSSL_wolfSSL_wolfSSL/wolfssl/wolfcrypt/src/random.c **** #ifndef WOLFSSL_SMALL_STACK_CACHE
 499:Middlewares/Third_Party/wolfSSL_wolfSSL_wolfSSL/wolfssl/wolfcrypt/src/random.c ****         wc_Sha256Free(sha);
 500:Middlewares/Third_Party/wolfSSL_wolfSSL_wolfSSL/wolfssl/wolfcrypt/src/random.c **** #endif
 501:Middlewares/Third_Party/wolfSSL_wolfSSL_wolfSSL/wolfssl/wolfcrypt/src/random.c **** 
 502:Middlewares/Third_Party/wolfSSL_wolfSSL_wolfSSL/wolfssl/wolfcrypt/src/random.c ****         if (ret == 0) {
 503:Middlewares/Third_Party/wolfSSL_wolfSSL_wolfSSL/wolfssl/wolfcrypt/src/random.c ****             XMEMCPY(&checkBlock, digest, sizeof(word32));
 504:Middlewares/Third_Party/wolfSSL_wolfSSL_wolfSSL/wolfssl/wolfcrypt/src/random.c ****             if (drbg->reseedCtr > 1 && checkBlock == drbg->lastBlock) {
 505:Middlewares/Third_Party/wolfSSL_wolfSSL_wolfSSL/wolfssl/wolfcrypt/src/random.c ****                 if (drbg->matchCount == 1) {
 506:Middlewares/Third_Party/wolfSSL_wolfSSL_wolfSSL/wolfssl/wolfcrypt/src/random.c ****                     return DRBG_CONT_FAILURE;
 507:Middlewares/Third_Party/wolfSSL_wolfSSL_wolfSSL/wolfssl/wolfcrypt/src/random.c ****                 }
 508:Middlewares/Third_Party/wolfSSL_wolfSSL_wolfSSL/wolfssl/wolfcrypt/src/random.c ****                 else {
 509:Middlewares/Third_Party/wolfSSL_wolfSSL_wolfSSL/wolfssl/wolfcrypt/src/random.c ****                     if (i == (len-1)) {
 510:Middlewares/Third_Party/wolfSSL_wolfSSL_wolfSSL/wolfssl/wolfcrypt/src/random.c ****                         len++;
 511:Middlewares/Third_Party/wolfSSL_wolfSSL_wolfSSL/wolfssl/wolfcrypt/src/random.c ****                     }
 512:Middlewares/Third_Party/wolfSSL_wolfSSL_wolfSSL/wolfssl/wolfcrypt/src/random.c ****                     drbg->matchCount = 1;
 513:Middlewares/Third_Party/wolfSSL_wolfSSL_wolfSSL/wolfssl/wolfcrypt/src/random.c ****                 }
 514:Middlewares/Third_Party/wolfSSL_wolfSSL_wolfSSL/wolfssl/wolfcrypt/src/random.c ****             }
 515:Middlewares/Third_Party/wolfSSL_wolfSSL_wolfSSL/wolfssl/wolfcrypt/src/random.c ****             else {
 516:Middlewares/Third_Party/wolfSSL_wolfSSL_wolfSSL/wolfssl/wolfcrypt/src/random.c ****                 drbg->matchCount = 0;
 517:Middlewares/Third_Party/wolfSSL_wolfSSL_wolfSSL/wolfssl/wolfcrypt/src/random.c ****                 drbg->lastBlock = checkBlock;
 518:Middlewares/Third_Party/wolfSSL_wolfSSL_wolfSSL/wolfssl/wolfcrypt/src/random.c ****             }
 519:Middlewares/Third_Party/wolfSSL_wolfSSL_wolfSSL/wolfssl/wolfcrypt/src/random.c **** 
 520:Middlewares/Third_Party/wolfSSL_wolfSSL_wolfSSL/wolfssl/wolfcrypt/src/random.c ****             if (out != NULL && outSz != 0) {
 521:Middlewares/Third_Party/wolfSSL_wolfSSL_wolfSSL/wolfssl/wolfcrypt/src/random.c ****                 if (outSz >= OUTPUT_BLOCK_LEN) {
 522:Middlewares/Third_Party/wolfSSL_wolfSSL_wolfSSL/wolfssl/wolfcrypt/src/random.c ****                     XMEMCPY(out, digest, OUTPUT_BLOCK_LEN);
 523:Middlewares/Third_Party/wolfSSL_wolfSSL_wolfSSL/wolfssl/wolfcrypt/src/random.c ****                     outSz -= OUTPUT_BLOCK_LEN;
 524:Middlewares/Third_Party/wolfSSL_wolfSSL_wolfSSL/wolfssl/wolfcrypt/src/random.c ****                     out += OUTPUT_BLOCK_LEN;
 525:Middlewares/Third_Party/wolfSSL_wolfSSL_wolfSSL/wolfssl/wolfcrypt/src/random.c ****                     array_add_one(data, DRBG_SEED_LEN);
 526:Middlewares/Third_Party/wolfSSL_wolfSSL_wolfSSL/wolfssl/wolfcrypt/src/random.c ****                 }
 527:Middlewares/Third_Party/wolfSSL_wolfSSL_wolfSSL/wolfssl/wolfcrypt/src/random.c ****                 else {
 528:Middlewares/Third_Party/wolfSSL_wolfSSL_wolfSSL/wolfssl/wolfcrypt/src/random.c ****                     XMEMCPY(out, digest, outSz);
 529:Middlewares/Third_Party/wolfSSL_wolfSSL_wolfSSL/wolfssl/wolfcrypt/src/random.c ****                     outSz = 0;
 530:Middlewares/Third_Party/wolfSSL_wolfSSL_wolfSSL/wolfssl/wolfcrypt/src/random.c ****                 }
 531:Middlewares/Third_Party/wolfSSL_wolfSSL_wolfSSL/wolfssl/wolfcrypt/src/random.c ****             }
 532:Middlewares/Third_Party/wolfSSL_wolfSSL_wolfSSL/wolfssl/wolfcrypt/src/random.c ****         }
 533:Middlewares/Third_Party/wolfSSL_wolfSSL_wolfSSL/wolfssl/wolfcrypt/src/random.c ****         else {
 534:Middlewares/Third_Party/wolfSSL_wolfSSL_wolfSSL/wolfssl/wolfcrypt/src/random.c ****             /* wc_Sha256Update or wc_Sha256Final returned error */
 535:Middlewares/Third_Party/wolfSSL_wolfSSL_wolfSSL/wolfssl/wolfcrypt/src/random.c ****             break;
 536:Middlewares/Third_Party/wolfSSL_wolfSSL_wolfSSL/wolfssl/wolfcrypt/src/random.c ****         }
 537:Middlewares/Third_Party/wolfSSL_wolfSSL_wolfSSL/wolfssl/wolfcrypt/src/random.c ****     }
 538:Middlewares/Third_Party/wolfSSL_wolfSSL_wolfSSL/wolfssl/wolfcrypt/src/random.c ****     ForceZero(data, sizeof(data));
 539:Middlewares/Third_Party/wolfSSL_wolfSSL_wolfSSL/wolfssl/wolfcrypt/src/random.c **** 
 540:Middlewares/Third_Party/wolfSSL_wolfSSL_wolfSSL/wolfssl/wolfcrypt/src/random.c **** #ifdef WC_ASYNC_ENABLE_SHA256
 541:Middlewares/Third_Party/wolfSSL_wolfSSL_wolfSSL/wolfssl/wolfcrypt/src/random.c ****     FREE_VAR(digest, drbg->heap);
 542:Middlewares/Third_Party/wolfSSL_wolfSSL_wolfSSL/wolfssl/wolfcrypt/src/random.c **** #endif
 543:Middlewares/Third_Party/wolfSSL_wolfSSL_wolfSSL/wolfssl/wolfcrypt/src/random.c **** 
ARM GAS  /tmp/cc09iKDl.s 			page 11


 544:Middlewares/Third_Party/wolfSSL_wolfSSL_wolfSSL/wolfssl/wolfcrypt/src/random.c ****     return (ret == 0) ? DRBG_SUCCESS : DRBG_FAILURE;
 545:Middlewares/Third_Party/wolfSSL_wolfSSL_wolfSSL/wolfssl/wolfcrypt/src/random.c **** }
 546:Middlewares/Third_Party/wolfSSL_wolfSSL_wolfSSL/wolfssl/wolfcrypt/src/random.c **** 
 547:Middlewares/Third_Party/wolfSSL_wolfSSL_wolfSSL/wolfssl/wolfcrypt/src/random.c **** static WC_INLINE void array_add(byte* d, word32 dLen, const byte* s, word32 sLen)
 548:Middlewares/Third_Party/wolfSSL_wolfSSL_wolfSSL/wolfssl/wolfcrypt/src/random.c **** {
 549:Middlewares/Third_Party/wolfSSL_wolfSSL_wolfSSL/wolfssl/wolfcrypt/src/random.c ****     word16 carry = 0;
 550:Middlewares/Third_Party/wolfSSL_wolfSSL_wolfSSL/wolfssl/wolfcrypt/src/random.c **** 
 551:Middlewares/Third_Party/wolfSSL_wolfSSL_wolfSSL/wolfssl/wolfcrypt/src/random.c ****     if (dLen > 0 && sLen > 0 && dLen >= sLen) {
 552:Middlewares/Third_Party/wolfSSL_wolfSSL_wolfSSL/wolfssl/wolfcrypt/src/random.c ****         int sIdx, dIdx;
 553:Middlewares/Third_Party/wolfSSL_wolfSSL_wolfSSL/wolfssl/wolfcrypt/src/random.c **** 
 554:Middlewares/Third_Party/wolfSSL_wolfSSL_wolfSSL/wolfssl/wolfcrypt/src/random.c ****         for (sIdx = sLen - 1, dIdx = dLen - 1; sIdx >= 0; dIdx--, sIdx--) {
 555:Middlewares/Third_Party/wolfSSL_wolfSSL_wolfSSL/wolfssl/wolfcrypt/src/random.c ****             carry += (word16)d[dIdx] + (word16)s[sIdx];
 556:Middlewares/Third_Party/wolfSSL_wolfSSL_wolfSSL/wolfssl/wolfcrypt/src/random.c ****             d[dIdx] = (byte)carry;
 557:Middlewares/Third_Party/wolfSSL_wolfSSL_wolfSSL/wolfssl/wolfcrypt/src/random.c ****             carry >>= 8;
 558:Middlewares/Third_Party/wolfSSL_wolfSSL_wolfSSL/wolfssl/wolfcrypt/src/random.c ****         }
 559:Middlewares/Third_Party/wolfSSL_wolfSSL_wolfSSL/wolfssl/wolfcrypt/src/random.c **** 
 560:Middlewares/Third_Party/wolfSSL_wolfSSL_wolfSSL/wolfssl/wolfcrypt/src/random.c ****         for (; carry != 0 && dIdx >= 0; dIdx--) {
 561:Middlewares/Third_Party/wolfSSL_wolfSSL_wolfSSL/wolfssl/wolfcrypt/src/random.c ****             carry += (word16)d[dIdx];
 562:Middlewares/Third_Party/wolfSSL_wolfSSL_wolfSSL/wolfssl/wolfcrypt/src/random.c ****             d[dIdx] = (byte)carry;
 563:Middlewares/Third_Party/wolfSSL_wolfSSL_wolfSSL/wolfssl/wolfcrypt/src/random.c ****             carry >>= 8;
 564:Middlewares/Third_Party/wolfSSL_wolfSSL_wolfSSL/wolfssl/wolfcrypt/src/random.c ****         }
 565:Middlewares/Third_Party/wolfSSL_wolfSSL_wolfSSL/wolfssl/wolfcrypt/src/random.c ****     }
 566:Middlewares/Third_Party/wolfSSL_wolfSSL_wolfSSL/wolfssl/wolfcrypt/src/random.c **** }
 567:Middlewares/Third_Party/wolfSSL_wolfSSL_wolfSSL/wolfssl/wolfcrypt/src/random.c **** 
 568:Middlewares/Third_Party/wolfSSL_wolfSSL_wolfSSL/wolfssl/wolfcrypt/src/random.c **** /* Returns: DRBG_SUCCESS, DRBG_NEED_RESEED, or DRBG_FAILURE */
 569:Middlewares/Third_Party/wolfSSL_wolfSSL_wolfSSL/wolfssl/wolfcrypt/src/random.c **** static int Hash_DRBG_Generate(DRBG_internal* drbg, byte* out, word32 outSz)
 570:Middlewares/Third_Party/wolfSSL_wolfSSL_wolfSSL/wolfssl/wolfcrypt/src/random.c **** {
 571:Middlewares/Third_Party/wolfSSL_wolfSSL_wolfSSL/wolfssl/wolfcrypt/src/random.c ****     int ret;
 572:Middlewares/Third_Party/wolfSSL_wolfSSL_wolfSSL/wolfssl/wolfcrypt/src/random.c **** #ifdef WOLFSSL_SMALL_STACK_CACHE
 573:Middlewares/Third_Party/wolfSSL_wolfSSL_wolfSSL/wolfssl/wolfcrypt/src/random.c ****     wc_Sha256* sha = &drbg->sha256;
 574:Middlewares/Third_Party/wolfSSL_wolfSSL_wolfSSL/wolfssl/wolfcrypt/src/random.c **** #else
 575:Middlewares/Third_Party/wolfSSL_wolfSSL_wolfSSL/wolfssl/wolfcrypt/src/random.c ****     wc_Sha256 sha[1];
 576:Middlewares/Third_Party/wolfSSL_wolfSSL_wolfSSL/wolfssl/wolfcrypt/src/random.c **** #endif
 577:Middlewares/Third_Party/wolfSSL_wolfSSL_wolfSSL/wolfssl/wolfcrypt/src/random.c ****     byte type;
 578:Middlewares/Third_Party/wolfSSL_wolfSSL_wolfSSL/wolfssl/wolfcrypt/src/random.c ****     word32 reseedCtr;
 579:Middlewares/Third_Party/wolfSSL_wolfSSL_wolfSSL/wolfssl/wolfcrypt/src/random.c **** 
 580:Middlewares/Third_Party/wolfSSL_wolfSSL_wolfSSL/wolfssl/wolfcrypt/src/random.c ****     if (drbg->reseedCtr == RESEED_INTERVAL) {
 581:Middlewares/Third_Party/wolfSSL_wolfSSL_wolfSSL/wolfssl/wolfcrypt/src/random.c ****         return DRBG_NEED_RESEED;
 582:Middlewares/Third_Party/wolfSSL_wolfSSL_wolfSSL/wolfssl/wolfcrypt/src/random.c ****     } else {
 583:Middlewares/Third_Party/wolfSSL_wolfSSL_wolfSSL/wolfssl/wolfcrypt/src/random.c ****     #ifdef WC_ASYNC_ENABLE_SHA256
 584:Middlewares/Third_Party/wolfSSL_wolfSSL_wolfSSL/wolfssl/wolfcrypt/src/random.c ****         DECLARE_VAR(digest, byte, WC_SHA256_DIGEST_SIZE, drbg->heap);
 585:Middlewares/Third_Party/wolfSSL_wolfSSL_wolfSSL/wolfssl/wolfcrypt/src/random.c ****         if (digest == NULL)
 586:Middlewares/Third_Party/wolfSSL_wolfSSL_wolfSSL/wolfssl/wolfcrypt/src/random.c ****             return MEMORY_E;
 587:Middlewares/Third_Party/wolfSSL_wolfSSL_wolfSSL/wolfssl/wolfcrypt/src/random.c ****     #else
 588:Middlewares/Third_Party/wolfSSL_wolfSSL_wolfSSL/wolfssl/wolfcrypt/src/random.c ****         byte digest[WC_SHA256_DIGEST_SIZE];
 589:Middlewares/Third_Party/wolfSSL_wolfSSL_wolfSSL/wolfssl/wolfcrypt/src/random.c ****     #endif
 590:Middlewares/Third_Party/wolfSSL_wolfSSL_wolfSSL/wolfssl/wolfcrypt/src/random.c ****         type = drbgGenerateH;
 591:Middlewares/Third_Party/wolfSSL_wolfSSL_wolfSSL/wolfssl/wolfcrypt/src/random.c ****         reseedCtr = drbg->reseedCtr;
 592:Middlewares/Third_Party/wolfSSL_wolfSSL_wolfSSL/wolfssl/wolfcrypt/src/random.c **** 
 593:Middlewares/Third_Party/wolfSSL_wolfSSL_wolfSSL/wolfssl/wolfcrypt/src/random.c ****         ret = Hash_gen(drbg, out, outSz, drbg->V);
 594:Middlewares/Third_Party/wolfSSL_wolfSSL_wolfSSL/wolfssl/wolfcrypt/src/random.c ****         if (ret == DRBG_SUCCESS) {
 595:Middlewares/Third_Party/wolfSSL_wolfSSL_wolfSSL/wolfssl/wolfcrypt/src/random.c **** #ifndef WOLFSSL_SMALL_STACK_CACHE
 596:Middlewares/Third_Party/wolfSSL_wolfSSL_wolfSSL/wolfssl/wolfcrypt/src/random.c ****         #if defined(WOLFSSL_ASYNC_CRYPT) || defined(WOLF_CRYPTO_CB)
 597:Middlewares/Third_Party/wolfSSL_wolfSSL_wolfSSL/wolfssl/wolfcrypt/src/random.c ****             ret = wc_InitSha256_ex(sha, drbg->heap, drbg->devId);
 598:Middlewares/Third_Party/wolfSSL_wolfSSL_wolfSSL/wolfssl/wolfcrypt/src/random.c ****         #else
 599:Middlewares/Third_Party/wolfSSL_wolfSSL_wolfSSL/wolfssl/wolfcrypt/src/random.c ****             ret = wc_InitSha256(sha);
 600:Middlewares/Third_Party/wolfSSL_wolfSSL_wolfSSL/wolfssl/wolfcrypt/src/random.c ****         #endif
ARM GAS  /tmp/cc09iKDl.s 			page 12


 601:Middlewares/Third_Party/wolfSSL_wolfSSL_wolfSSL/wolfssl/wolfcrypt/src/random.c ****             if (ret == 0)
 602:Middlewares/Third_Party/wolfSSL_wolfSSL_wolfSSL/wolfssl/wolfcrypt/src/random.c **** #endif
 603:Middlewares/Third_Party/wolfSSL_wolfSSL_wolfSSL/wolfssl/wolfcrypt/src/random.c ****                 ret = wc_Sha256Update(sha, &type, sizeof(type));
 604:Middlewares/Third_Party/wolfSSL_wolfSSL_wolfSSL/wolfssl/wolfcrypt/src/random.c ****             if (ret == 0)
 605:Middlewares/Third_Party/wolfSSL_wolfSSL_wolfSSL/wolfssl/wolfcrypt/src/random.c ****                 ret = wc_Sha256Update(sha, drbg->V, sizeof(drbg->V));
 606:Middlewares/Third_Party/wolfSSL_wolfSSL_wolfSSL/wolfssl/wolfcrypt/src/random.c ****             if (ret == 0)
 607:Middlewares/Third_Party/wolfSSL_wolfSSL_wolfSSL/wolfssl/wolfcrypt/src/random.c ****                 ret = wc_Sha256Final(sha, digest);
 608:Middlewares/Third_Party/wolfSSL_wolfSSL_wolfSSL/wolfssl/wolfcrypt/src/random.c **** 
 609:Middlewares/Third_Party/wolfSSL_wolfSSL_wolfSSL/wolfssl/wolfcrypt/src/random.c **** #ifndef WOLFSSL_SMALL_STACK_CACHE
 610:Middlewares/Third_Party/wolfSSL_wolfSSL_wolfSSL/wolfssl/wolfcrypt/src/random.c ****             wc_Sha256Free(sha);
 611:Middlewares/Third_Party/wolfSSL_wolfSSL_wolfSSL/wolfssl/wolfcrypt/src/random.c **** #endif
 612:Middlewares/Third_Party/wolfSSL_wolfSSL_wolfSSL/wolfssl/wolfcrypt/src/random.c **** 
 613:Middlewares/Third_Party/wolfSSL_wolfSSL_wolfSSL/wolfssl/wolfcrypt/src/random.c ****             if (ret == 0) {
 614:Middlewares/Third_Party/wolfSSL_wolfSSL_wolfSSL/wolfssl/wolfcrypt/src/random.c ****                 array_add(drbg->V, sizeof(drbg->V), digest, WC_SHA256_DIGEST_SIZE);
 615:Middlewares/Third_Party/wolfSSL_wolfSSL_wolfSSL/wolfssl/wolfcrypt/src/random.c ****                 array_add(drbg->V, sizeof(drbg->V), drbg->C, sizeof(drbg->C));
 616:Middlewares/Third_Party/wolfSSL_wolfSSL_wolfSSL/wolfssl/wolfcrypt/src/random.c ****             #ifdef LITTLE_ENDIAN_ORDER
 617:Middlewares/Third_Party/wolfSSL_wolfSSL_wolfSSL/wolfssl/wolfcrypt/src/random.c ****                 reseedCtr = ByteReverseWord32(reseedCtr);
 618:Middlewares/Third_Party/wolfSSL_wolfSSL_wolfSSL/wolfssl/wolfcrypt/src/random.c ****             #endif
 619:Middlewares/Third_Party/wolfSSL_wolfSSL_wolfSSL/wolfssl/wolfcrypt/src/random.c ****                 array_add(drbg->V, sizeof(drbg->V),
 620:Middlewares/Third_Party/wolfSSL_wolfSSL_wolfSSL/wolfssl/wolfcrypt/src/random.c ****                                           (byte*)&reseedCtr, sizeof(reseedCtr));
 621:Middlewares/Third_Party/wolfSSL_wolfSSL_wolfSSL/wolfssl/wolfcrypt/src/random.c ****                 ret = DRBG_SUCCESS;
 622:Middlewares/Third_Party/wolfSSL_wolfSSL_wolfSSL/wolfssl/wolfcrypt/src/random.c ****             }
 623:Middlewares/Third_Party/wolfSSL_wolfSSL_wolfSSL/wolfssl/wolfcrypt/src/random.c ****             drbg->reseedCtr++;
 624:Middlewares/Third_Party/wolfSSL_wolfSSL_wolfSSL/wolfssl/wolfcrypt/src/random.c ****         }
 625:Middlewares/Third_Party/wolfSSL_wolfSSL_wolfSSL/wolfssl/wolfcrypt/src/random.c ****         ForceZero(digest, WC_SHA256_DIGEST_SIZE);
 626:Middlewares/Third_Party/wolfSSL_wolfSSL_wolfSSL/wolfssl/wolfcrypt/src/random.c ****     #ifdef WC_ASYNC_ENABLE_SHA256
 627:Middlewares/Third_Party/wolfSSL_wolfSSL_wolfSSL/wolfssl/wolfcrypt/src/random.c ****         FREE_VAR(digest, drbg->heap);
 628:Middlewares/Third_Party/wolfSSL_wolfSSL_wolfSSL/wolfssl/wolfcrypt/src/random.c ****     #endif
 629:Middlewares/Third_Party/wolfSSL_wolfSSL_wolfSSL/wolfssl/wolfcrypt/src/random.c ****     }
 630:Middlewares/Third_Party/wolfSSL_wolfSSL_wolfSSL/wolfssl/wolfcrypt/src/random.c **** 
 631:Middlewares/Third_Party/wolfSSL_wolfSSL_wolfSSL/wolfssl/wolfcrypt/src/random.c ****     return (ret == 0) ? DRBG_SUCCESS : DRBG_FAILURE;
 632:Middlewares/Third_Party/wolfSSL_wolfSSL_wolfSSL/wolfssl/wolfcrypt/src/random.c **** }
 633:Middlewares/Third_Party/wolfSSL_wolfSSL_wolfSSL/wolfssl/wolfcrypt/src/random.c **** 
 634:Middlewares/Third_Party/wolfSSL_wolfSSL_wolfSSL/wolfssl/wolfcrypt/src/random.c **** /* Returns: DRBG_SUCCESS or DRBG_FAILURE */
 635:Middlewares/Third_Party/wolfSSL_wolfSSL_wolfSSL/wolfssl/wolfcrypt/src/random.c **** static int Hash_DRBG_Instantiate(DRBG_internal* drbg, const byte* seed, word32 seedSz,
 636:Middlewares/Third_Party/wolfSSL_wolfSSL_wolfSSL/wolfssl/wolfcrypt/src/random.c ****                                              const byte* nonce, word32 nonceSz,
 637:Middlewares/Third_Party/wolfSSL_wolfSSL_wolfSSL/wolfssl/wolfcrypt/src/random.c ****                                              void* heap, int devId)
 638:Middlewares/Third_Party/wolfSSL_wolfSSL_wolfSSL/wolfssl/wolfcrypt/src/random.c **** {
 639:Middlewares/Third_Party/wolfSSL_wolfSSL_wolfSSL/wolfssl/wolfcrypt/src/random.c ****     int ret = DRBG_FAILURE;
 640:Middlewares/Third_Party/wolfSSL_wolfSSL_wolfSSL/wolfssl/wolfcrypt/src/random.c **** 
 641:Middlewares/Third_Party/wolfSSL_wolfSSL_wolfSSL/wolfssl/wolfcrypt/src/random.c ****     XMEMSET(drbg, 0, sizeof(DRBG_internal));
 642:Middlewares/Third_Party/wolfSSL_wolfSSL_wolfSSL/wolfssl/wolfcrypt/src/random.c **** #if defined(WOLFSSL_ASYNC_CRYPT) || defined(WOLF_CRYPTO_CB)
 643:Middlewares/Third_Party/wolfSSL_wolfSSL_wolfSSL/wolfssl/wolfcrypt/src/random.c ****     drbg->heap = heap;
 644:Middlewares/Third_Party/wolfSSL_wolfSSL_wolfSSL/wolfssl/wolfcrypt/src/random.c ****     drbg->devId = devId;
 645:Middlewares/Third_Party/wolfSSL_wolfSSL_wolfSSL/wolfssl/wolfcrypt/src/random.c **** #else
 646:Middlewares/Third_Party/wolfSSL_wolfSSL_wolfSSL/wolfssl/wolfcrypt/src/random.c ****     (void)heap;
 647:Middlewares/Third_Party/wolfSSL_wolfSSL_wolfSSL/wolfssl/wolfcrypt/src/random.c ****     (void)devId;
 648:Middlewares/Third_Party/wolfSSL_wolfSSL_wolfSSL/wolfssl/wolfcrypt/src/random.c **** #endif
 649:Middlewares/Third_Party/wolfSSL_wolfSSL_wolfSSL/wolfssl/wolfcrypt/src/random.c **** 
 650:Middlewares/Third_Party/wolfSSL_wolfSSL_wolfSSL/wolfssl/wolfcrypt/src/random.c **** #ifdef WOLFSSL_SMALL_STACK_CACHE
 651:Middlewares/Third_Party/wolfSSL_wolfSSL_wolfSSL/wolfssl/wolfcrypt/src/random.c ****     #if defined(WOLFSSL_ASYNC_CRYPT) || defined(WOLF_CRYPTO_CB)
 652:Middlewares/Third_Party/wolfSSL_wolfSSL_wolfSSL/wolfssl/wolfcrypt/src/random.c ****         ret = wc_InitSha256_ex(&drbg->sha256, drbg->heap, drbg->devId);
 653:Middlewares/Third_Party/wolfSSL_wolfSSL_wolfSSL/wolfssl/wolfcrypt/src/random.c ****     #else
 654:Middlewares/Third_Party/wolfSSL_wolfSSL_wolfSSL/wolfssl/wolfcrypt/src/random.c ****         ret = wc_InitSha256(&drbg->sha256);
 655:Middlewares/Third_Party/wolfSSL_wolfSSL_wolfSSL/wolfssl/wolfcrypt/src/random.c ****     #endif
 656:Middlewares/Third_Party/wolfSSL_wolfSSL_wolfSSL/wolfssl/wolfcrypt/src/random.c ****     if (ret != 0)
 657:Middlewares/Third_Party/wolfSSL_wolfSSL_wolfSSL/wolfssl/wolfcrypt/src/random.c ****         return ret;
ARM GAS  /tmp/cc09iKDl.s 			page 13


 658:Middlewares/Third_Party/wolfSSL_wolfSSL_wolfSSL/wolfssl/wolfcrypt/src/random.c **** #endif
 659:Middlewares/Third_Party/wolfSSL_wolfSSL_wolfSSL/wolfssl/wolfcrypt/src/random.c **** 
 660:Middlewares/Third_Party/wolfSSL_wolfSSL_wolfSSL/wolfssl/wolfcrypt/src/random.c ****     if (Hash_df(drbg, drbg->V, sizeof(drbg->V), drbgInitV, seed, seedSz,
 661:Middlewares/Third_Party/wolfSSL_wolfSSL_wolfSSL/wolfssl/wolfcrypt/src/random.c ****                                               nonce, nonceSz) == DRBG_SUCCESS &&
 662:Middlewares/Third_Party/wolfSSL_wolfSSL_wolfSSL/wolfssl/wolfcrypt/src/random.c ****         Hash_df(drbg, drbg->C, sizeof(drbg->C), drbgInitC, drbg->V,
 663:Middlewares/Third_Party/wolfSSL_wolfSSL_wolfSSL/wolfssl/wolfcrypt/src/random.c ****                                     sizeof(drbg->V), NULL, 0) == DRBG_SUCCESS) {
 664:Middlewares/Third_Party/wolfSSL_wolfSSL_wolfSSL/wolfssl/wolfcrypt/src/random.c **** 
 665:Middlewares/Third_Party/wolfSSL_wolfSSL_wolfSSL/wolfssl/wolfcrypt/src/random.c ****         drbg->reseedCtr = 1;
 666:Middlewares/Third_Party/wolfSSL_wolfSSL_wolfSSL/wolfssl/wolfcrypt/src/random.c ****         drbg->lastBlock = 0;
 667:Middlewares/Third_Party/wolfSSL_wolfSSL_wolfSSL/wolfssl/wolfcrypt/src/random.c ****         drbg->matchCount = 0;
 668:Middlewares/Third_Party/wolfSSL_wolfSSL_wolfSSL/wolfssl/wolfcrypt/src/random.c ****         ret = DRBG_SUCCESS;
 669:Middlewares/Third_Party/wolfSSL_wolfSSL_wolfSSL/wolfssl/wolfcrypt/src/random.c ****     }
 670:Middlewares/Third_Party/wolfSSL_wolfSSL_wolfSSL/wolfssl/wolfcrypt/src/random.c **** 
 671:Middlewares/Third_Party/wolfSSL_wolfSSL_wolfSSL/wolfssl/wolfcrypt/src/random.c ****     return ret;
 672:Middlewares/Third_Party/wolfSSL_wolfSSL_wolfSSL/wolfssl/wolfcrypt/src/random.c **** }
 673:Middlewares/Third_Party/wolfSSL_wolfSSL_wolfSSL/wolfssl/wolfcrypt/src/random.c **** 
 674:Middlewares/Third_Party/wolfSSL_wolfSSL_wolfSSL/wolfssl/wolfcrypt/src/random.c **** /* Returns: DRBG_SUCCESS or DRBG_FAILURE */
 675:Middlewares/Third_Party/wolfSSL_wolfSSL_wolfSSL/wolfssl/wolfcrypt/src/random.c **** static int Hash_DRBG_Uninstantiate(DRBG_internal* drbg)
 676:Middlewares/Third_Party/wolfSSL_wolfSSL_wolfSSL/wolfssl/wolfcrypt/src/random.c **** {
  29              		.loc 1 676 1 view -0
  30              		.cfi_startproc
  31              		@ args = 0, pretend = 0, frame = 0
  32              		@ frame_needed = 0, uses_anonymous_args = 0
  33              		@ link register save eliminated.
 677:Middlewares/Third_Party/wolfSSL_wolfSSL_wolfSSL/wolfssl/wolfcrypt/src/random.c ****     word32 i;
  34              		.loc 1 677 5 view .LVU1
 678:Middlewares/Third_Party/wolfSSL_wolfSSL_wolfSSL/wolfssl/wolfcrypt/src/random.c ****     int    compareSum = 0;
  35              		.loc 1 678 5 view .LVU2
 679:Middlewares/Third_Party/wolfSSL_wolfSSL_wolfSSL/wolfssl/wolfcrypt/src/random.c ****     byte*  compareDrbg = (byte*)drbg;
  36              		.loc 1 679 5 view .LVU3
 680:Middlewares/Third_Party/wolfSSL_wolfSSL_wolfSSL/wolfssl/wolfcrypt/src/random.c **** 
 681:Middlewares/Third_Party/wolfSSL_wolfSSL_wolfSSL/wolfssl/wolfcrypt/src/random.c **** #ifdef WOLFSSL_SMALL_STACK_CACHE
 682:Middlewares/Third_Party/wolfSSL_wolfSSL_wolfSSL/wolfssl/wolfcrypt/src/random.c ****     wc_Sha256Free(&drbg->sha256);
 683:Middlewares/Third_Party/wolfSSL_wolfSSL_wolfSSL/wolfssl/wolfcrypt/src/random.c **** #endif
 684:Middlewares/Third_Party/wolfSSL_wolfSSL_wolfSSL/wolfssl/wolfcrypt/src/random.c **** 
 685:Middlewares/Third_Party/wolfSSL_wolfSSL_wolfSSL/wolfssl/wolfcrypt/src/random.c ****     ForceZero(drbg, sizeof(DRBG_internal));
  37              		.loc 1 685 5 view .LVU4
  38              	.LBB48:
  39              	.LBI48:
  40              		.file 2 "Middlewares/Third_Party/wolfSSL_wolfSSL_wolfSSL/wolfssl/wolfcrypt/src/misc.c"
   1:Middlewares/Third_Party/wolfSSL_wolfSSL_wolfSSL/wolfssl/wolfcrypt/src/misc.c **** /* misc.c
   2:Middlewares/Third_Party/wolfSSL_wolfSSL_wolfSSL/wolfssl/wolfcrypt/src/misc.c ****  *
   3:Middlewares/Third_Party/wolfSSL_wolfSSL_wolfSSL/wolfssl/wolfcrypt/src/misc.c ****  * Copyright (C) 2006-2020 wolfSSL Inc.
   4:Middlewares/Third_Party/wolfSSL_wolfSSL_wolfSSL/wolfssl/wolfcrypt/src/misc.c ****  *
   5:Middlewares/Third_Party/wolfSSL_wolfSSL_wolfSSL/wolfssl/wolfcrypt/src/misc.c ****  * This file is part of wolfSSL.
   6:Middlewares/Third_Party/wolfSSL_wolfSSL_wolfSSL/wolfssl/wolfcrypt/src/misc.c ****  *
   7:Middlewares/Third_Party/wolfSSL_wolfSSL_wolfSSL/wolfssl/wolfcrypt/src/misc.c ****  * wolfSSL is free software; you can redistribute it and/or modify
   8:Middlewares/Third_Party/wolfSSL_wolfSSL_wolfSSL/wolfssl/wolfcrypt/src/misc.c ****  * it under the terms of the GNU General Public License as published by
   9:Middlewares/Third_Party/wolfSSL_wolfSSL_wolfSSL/wolfssl/wolfcrypt/src/misc.c ****  * the Free Software Foundation; either version 2 of the License, or
  10:Middlewares/Third_Party/wolfSSL_wolfSSL_wolfSSL/wolfssl/wolfcrypt/src/misc.c ****  * (at your option) any later version.
  11:Middlewares/Third_Party/wolfSSL_wolfSSL_wolfSSL/wolfssl/wolfcrypt/src/misc.c ****  *
  12:Middlewares/Third_Party/wolfSSL_wolfSSL_wolfSSL/wolfssl/wolfcrypt/src/misc.c ****  * wolfSSL is distributed in the hope that it will be useful,
  13:Middlewares/Third_Party/wolfSSL_wolfSSL_wolfSSL/wolfssl/wolfcrypt/src/misc.c ****  * but WITHOUT ANY WARRANTY; without even the implied warranty of
  14:Middlewares/Third_Party/wolfSSL_wolfSSL_wolfSSL/wolfssl/wolfcrypt/src/misc.c ****  * MERCHANTABILITY or FITNESS FOR A PARTICULAR PURPOSE.  See the
  15:Middlewares/Third_Party/wolfSSL_wolfSSL_wolfSSL/wolfssl/wolfcrypt/src/misc.c ****  * GNU General Public License for more details.
  16:Middlewares/Third_Party/wolfSSL_wolfSSL_wolfSSL/wolfssl/wolfcrypt/src/misc.c ****  *
  17:Middlewares/Third_Party/wolfSSL_wolfSSL_wolfSSL/wolfssl/wolfcrypt/src/misc.c ****  * You should have received a copy of the GNU General Public License
ARM GAS  /tmp/cc09iKDl.s 			page 14


  18:Middlewares/Third_Party/wolfSSL_wolfSSL_wolfSSL/wolfssl/wolfcrypt/src/misc.c ****  * along with this program; if not, write to the Free Software
  19:Middlewares/Third_Party/wolfSSL_wolfSSL_wolfSSL/wolfssl/wolfcrypt/src/misc.c ****  * Foundation, Inc., 51 Franklin Street, Fifth Floor, Boston, MA 02110-1335, USA
  20:Middlewares/Third_Party/wolfSSL_wolfSSL_wolfSSL/wolfssl/wolfcrypt/src/misc.c ****  */
  21:Middlewares/Third_Party/wolfSSL_wolfSSL_wolfSSL/wolfssl/wolfcrypt/src/misc.c **** /*
  22:Middlewares/Third_Party/wolfSSL_wolfSSL_wolfSSL/wolfssl/wolfcrypt/src/misc.c **** 
  23:Middlewares/Third_Party/wolfSSL_wolfSSL_wolfSSL/wolfssl/wolfcrypt/src/misc.c **** DESCRIPTION
  24:Middlewares/Third_Party/wolfSSL_wolfSSL_wolfSSL/wolfssl/wolfcrypt/src/misc.c **** This module implements the arithmetic-shift right, left, byte swapping, XOR,
  25:Middlewares/Third_Party/wolfSSL_wolfSSL_wolfSSL/wolfssl/wolfcrypt/src/misc.c **** masking and clearing memory logic.
  26:Middlewares/Third_Party/wolfSSL_wolfSSL_wolfSSL/wolfssl/wolfcrypt/src/misc.c **** 
  27:Middlewares/Third_Party/wolfSSL_wolfSSL_wolfSSL/wolfssl/wolfcrypt/src/misc.c **** */
  28:Middlewares/Third_Party/wolfSSL_wolfSSL_wolfSSL/wolfssl/wolfcrypt/src/misc.c **** #ifdef HAVE_CONFIG_H
  29:Middlewares/Third_Party/wolfSSL_wolfSSL_wolfSSL/wolfssl/wolfcrypt/src/misc.c ****     #include <config.h>
  30:Middlewares/Third_Party/wolfSSL_wolfSSL_wolfSSL/wolfssl/wolfcrypt/src/misc.c **** #endif
  31:Middlewares/Third_Party/wolfSSL_wolfSSL_wolfSSL/wolfssl/wolfcrypt/src/misc.c **** 
  32:Middlewares/Third_Party/wolfSSL_wolfSSL_wolfSSL/wolfssl/wolfcrypt/src/misc.c **** #include <wolfssl/wolfcrypt/settings.h>
  33:Middlewares/Third_Party/wolfSSL_wolfSSL_wolfSSL/wolfssl/wolfcrypt/src/misc.c **** 
  34:Middlewares/Third_Party/wolfSSL_wolfSSL_wolfSSL/wolfssl/wolfcrypt/src/misc.c **** #ifndef WOLF_CRYPT_MISC_C
  35:Middlewares/Third_Party/wolfSSL_wolfSSL_wolfSSL/wolfssl/wolfcrypt/src/misc.c **** #define WOLF_CRYPT_MISC_C
  36:Middlewares/Third_Party/wolfSSL_wolfSSL_wolfSSL/wolfssl/wolfcrypt/src/misc.c **** 
  37:Middlewares/Third_Party/wolfSSL_wolfSSL_wolfSSL/wolfssl/wolfcrypt/src/misc.c **** #include <wolfssl/wolfcrypt/misc.h>
  38:Middlewares/Third_Party/wolfSSL_wolfSSL_wolfSSL/wolfssl/wolfcrypt/src/misc.c **** 
  39:Middlewares/Third_Party/wolfSSL_wolfSSL_wolfSSL/wolfssl/wolfcrypt/src/misc.c **** /* inlining these functions is a huge speed increase and a small size decrease,
  40:Middlewares/Third_Party/wolfSSL_wolfSSL_wolfSSL/wolfssl/wolfcrypt/src/misc.c ****    because the functions are smaller than function call setup/cleanup, e.g.,
  41:Middlewares/Third_Party/wolfSSL_wolfSSL_wolfSSL/wolfssl/wolfcrypt/src/misc.c ****    md5 benchmark is twice as fast with inline.  If you don't want it, then
  42:Middlewares/Third_Party/wolfSSL_wolfSSL_wolfSSL/wolfssl/wolfcrypt/src/misc.c ****    define NO_INLINE and compile this file into wolfssl, otherwise it's used as
  43:Middlewares/Third_Party/wolfSSL_wolfSSL_wolfSSL/wolfssl/wolfcrypt/src/misc.c ****    a source header
  44:Middlewares/Third_Party/wolfSSL_wolfSSL_wolfSSL/wolfssl/wolfcrypt/src/misc.c ****  */
  45:Middlewares/Third_Party/wolfSSL_wolfSSL_wolfSSL/wolfssl/wolfcrypt/src/misc.c **** 
  46:Middlewares/Third_Party/wolfSSL_wolfSSL_wolfSSL/wolfssl/wolfcrypt/src/misc.c **** #ifdef NO_INLINE
  47:Middlewares/Third_Party/wolfSSL_wolfSSL_wolfSSL/wolfssl/wolfcrypt/src/misc.c ****     #define WC_STATIC
  48:Middlewares/Third_Party/wolfSSL_wolfSSL_wolfSSL/wolfssl/wolfcrypt/src/misc.c **** #else
  49:Middlewares/Third_Party/wolfSSL_wolfSSL_wolfSSL/wolfssl/wolfcrypt/src/misc.c ****     #define WC_STATIC static
  50:Middlewares/Third_Party/wolfSSL_wolfSSL_wolfSSL/wolfssl/wolfcrypt/src/misc.c **** #endif
  51:Middlewares/Third_Party/wolfSSL_wolfSSL_wolfSSL/wolfssl/wolfcrypt/src/misc.c **** 
  52:Middlewares/Third_Party/wolfSSL_wolfSSL_wolfSSL/wolfssl/wolfcrypt/src/misc.c **** /* Check for if compiling misc.c when not needed. */
  53:Middlewares/Third_Party/wolfSSL_wolfSSL_wolfSSL/wolfssl/wolfcrypt/src/misc.c **** #if !defined(WOLFSSL_MISC_INCLUDED) && !defined(NO_INLINE)
  54:Middlewares/Third_Party/wolfSSL_wolfSSL_wolfSSL/wolfssl/wolfcrypt/src/misc.c ****     #ifndef WOLFSSL_IGNORE_FILE_WARN
  55:Middlewares/Third_Party/wolfSSL_wolfSSL_wolfSSL/wolfssl/wolfcrypt/src/misc.c ****         #warning misc.c does not need to be compiled when using inline (NO_INLINE not defined)
  56:Middlewares/Third_Party/wolfSSL_wolfSSL_wolfSSL/wolfssl/wolfcrypt/src/misc.c ****     #endif
  57:Middlewares/Third_Party/wolfSSL_wolfSSL_wolfSSL/wolfssl/wolfcrypt/src/misc.c **** 
  58:Middlewares/Third_Party/wolfSSL_wolfSSL_wolfSSL/wolfssl/wolfcrypt/src/misc.c **** #else
  59:Middlewares/Third_Party/wolfSSL_wolfSSL_wolfSSL/wolfssl/wolfcrypt/src/misc.c **** 
  60:Middlewares/Third_Party/wolfSSL_wolfSSL_wolfSSL/wolfssl/wolfcrypt/src/misc.c **** 
  61:Middlewares/Third_Party/wolfSSL_wolfSSL_wolfSSL/wolfssl/wolfcrypt/src/misc.c **** #if defined(__ICCARM__)
  62:Middlewares/Third_Party/wolfSSL_wolfSSL_wolfSSL/wolfssl/wolfcrypt/src/misc.c ****     #include <intrinsics.h>
  63:Middlewares/Third_Party/wolfSSL_wolfSSL_wolfSSL/wolfssl/wolfcrypt/src/misc.c **** #endif
  64:Middlewares/Third_Party/wolfSSL_wolfSSL_wolfSSL/wolfssl/wolfcrypt/src/misc.c **** 
  65:Middlewares/Third_Party/wolfSSL_wolfSSL_wolfSSL/wolfssl/wolfcrypt/src/misc.c **** 
  66:Middlewares/Third_Party/wolfSSL_wolfSSL_wolfSSL/wolfssl/wolfcrypt/src/misc.c **** #ifdef INTEL_INTRINSICS
  67:Middlewares/Third_Party/wolfSSL_wolfSSL_wolfSSL/wolfssl/wolfcrypt/src/misc.c **** 
  68:Middlewares/Third_Party/wolfSSL_wolfSSL_wolfSSL/wolfssl/wolfcrypt/src/misc.c ****     #include <stdlib.h>      /* get intrinsic definitions */
  69:Middlewares/Third_Party/wolfSSL_wolfSSL_wolfSSL/wolfssl/wolfcrypt/src/misc.c **** 
  70:Middlewares/Third_Party/wolfSSL_wolfSSL_wolfSSL/wolfssl/wolfcrypt/src/misc.c ****     /* for non visual studio probably need no long version, 32 bit only
  71:Middlewares/Third_Party/wolfSSL_wolfSSL_wolfSSL/wolfssl/wolfcrypt/src/misc.c ****      * i.e., _rotl and _rotr */
  72:Middlewares/Third_Party/wolfSSL_wolfSSL_wolfSSL/wolfssl/wolfcrypt/src/misc.c ****     #pragma intrinsic(_lrotl, _lrotr)
  73:Middlewares/Third_Party/wolfSSL_wolfSSL_wolfSSL/wolfssl/wolfcrypt/src/misc.c **** 
  74:Middlewares/Third_Party/wolfSSL_wolfSSL_wolfSSL/wolfssl/wolfcrypt/src/misc.c ****     WC_STATIC WC_INLINE word32 rotlFixed(word32 x, word32 y)
ARM GAS  /tmp/cc09iKDl.s 			page 15


  75:Middlewares/Third_Party/wolfSSL_wolfSSL_wolfSSL/wolfssl/wolfcrypt/src/misc.c ****     {
  76:Middlewares/Third_Party/wolfSSL_wolfSSL_wolfSSL/wolfssl/wolfcrypt/src/misc.c ****         return y ? _lrotl(x, y) : x;
  77:Middlewares/Third_Party/wolfSSL_wolfSSL_wolfSSL/wolfssl/wolfcrypt/src/misc.c ****     }
  78:Middlewares/Third_Party/wolfSSL_wolfSSL_wolfSSL/wolfssl/wolfcrypt/src/misc.c **** 
  79:Middlewares/Third_Party/wolfSSL_wolfSSL_wolfSSL/wolfssl/wolfcrypt/src/misc.c ****     WC_STATIC WC_INLINE word32 rotrFixed(word32 x, word32 y)
  80:Middlewares/Third_Party/wolfSSL_wolfSSL_wolfSSL/wolfssl/wolfcrypt/src/misc.c ****     {
  81:Middlewares/Third_Party/wolfSSL_wolfSSL_wolfSSL/wolfssl/wolfcrypt/src/misc.c ****         return y ? _lrotr(x, y) : x;
  82:Middlewares/Third_Party/wolfSSL_wolfSSL_wolfSSL/wolfssl/wolfcrypt/src/misc.c ****     }
  83:Middlewares/Third_Party/wolfSSL_wolfSSL_wolfSSL/wolfssl/wolfcrypt/src/misc.c **** 
  84:Middlewares/Third_Party/wolfSSL_wolfSSL_wolfSSL/wolfssl/wolfcrypt/src/misc.c **** #else /* generic */
  85:Middlewares/Third_Party/wolfSSL_wolfSSL_wolfSSL/wolfssl/wolfcrypt/src/misc.c **** /* This routine performs a left circular arithmetic shift of <x> by <y> value. */
  86:Middlewares/Third_Party/wolfSSL_wolfSSL_wolfSSL/wolfssl/wolfcrypt/src/misc.c **** 
  87:Middlewares/Third_Party/wolfSSL_wolfSSL_wolfSSL/wolfssl/wolfcrypt/src/misc.c ****     WC_STATIC WC_INLINE word32 rotlFixed(word32 x, word32 y)
  88:Middlewares/Third_Party/wolfSSL_wolfSSL_wolfSSL/wolfssl/wolfcrypt/src/misc.c ****     {
  89:Middlewares/Third_Party/wolfSSL_wolfSSL_wolfSSL/wolfssl/wolfcrypt/src/misc.c ****         return (x << y) | (x >> (sizeof(y) * 8 - y));
  90:Middlewares/Third_Party/wolfSSL_wolfSSL_wolfSSL/wolfssl/wolfcrypt/src/misc.c ****     }
  91:Middlewares/Third_Party/wolfSSL_wolfSSL_wolfSSL/wolfssl/wolfcrypt/src/misc.c **** 
  92:Middlewares/Third_Party/wolfSSL_wolfSSL_wolfSSL/wolfssl/wolfcrypt/src/misc.c **** /* This routine performs a right circular arithmetic shift of <x> by <y> value. */
  93:Middlewares/Third_Party/wolfSSL_wolfSSL_wolfSSL/wolfssl/wolfcrypt/src/misc.c ****     WC_STATIC WC_INLINE word32 rotrFixed(word32 x, word32 y)
  94:Middlewares/Third_Party/wolfSSL_wolfSSL_wolfSSL/wolfssl/wolfcrypt/src/misc.c ****     {
  95:Middlewares/Third_Party/wolfSSL_wolfSSL_wolfSSL/wolfssl/wolfcrypt/src/misc.c ****         return (x >> y) | (x << (sizeof(y) * 8 - y));
  96:Middlewares/Third_Party/wolfSSL_wolfSSL_wolfSSL/wolfssl/wolfcrypt/src/misc.c ****     }
  97:Middlewares/Third_Party/wolfSSL_wolfSSL_wolfSSL/wolfssl/wolfcrypt/src/misc.c **** 
  98:Middlewares/Third_Party/wolfSSL_wolfSSL_wolfSSL/wolfssl/wolfcrypt/src/misc.c **** #endif
  99:Middlewares/Third_Party/wolfSSL_wolfSSL_wolfSSL/wolfssl/wolfcrypt/src/misc.c **** 
 100:Middlewares/Third_Party/wolfSSL_wolfSSL_wolfSSL/wolfssl/wolfcrypt/src/misc.c **** #ifdef WC_RC2
 101:Middlewares/Third_Party/wolfSSL_wolfSSL_wolfSSL/wolfssl/wolfcrypt/src/misc.c **** 
 102:Middlewares/Third_Party/wolfSSL_wolfSSL_wolfSSL/wolfssl/wolfcrypt/src/misc.c **** /* This routine performs a left circular arithmetic shift of <x> by <y> value */
 103:Middlewares/Third_Party/wolfSSL_wolfSSL_wolfSSL/wolfssl/wolfcrypt/src/misc.c **** WC_STATIC WC_INLINE word16 rotlFixed16(word16 x, word16 y)
 104:Middlewares/Third_Party/wolfSSL_wolfSSL_wolfSSL/wolfssl/wolfcrypt/src/misc.c **** {
 105:Middlewares/Third_Party/wolfSSL_wolfSSL_wolfSSL/wolfssl/wolfcrypt/src/misc.c ****     return (x << y) | (x >> (sizeof(y) * 8 - y));
 106:Middlewares/Third_Party/wolfSSL_wolfSSL_wolfSSL/wolfssl/wolfcrypt/src/misc.c **** }
 107:Middlewares/Third_Party/wolfSSL_wolfSSL_wolfSSL/wolfssl/wolfcrypt/src/misc.c **** 
 108:Middlewares/Third_Party/wolfSSL_wolfSSL_wolfSSL/wolfssl/wolfcrypt/src/misc.c **** 
 109:Middlewares/Third_Party/wolfSSL_wolfSSL_wolfSSL/wolfssl/wolfcrypt/src/misc.c **** /* This routine performs a right circular arithmetic shift of <x> by <y> value */
 110:Middlewares/Third_Party/wolfSSL_wolfSSL_wolfSSL/wolfssl/wolfcrypt/src/misc.c **** WC_STATIC WC_INLINE word16 rotrFixed16(word16 x, word16 y)
 111:Middlewares/Third_Party/wolfSSL_wolfSSL_wolfSSL/wolfssl/wolfcrypt/src/misc.c **** {
 112:Middlewares/Third_Party/wolfSSL_wolfSSL_wolfSSL/wolfssl/wolfcrypt/src/misc.c ****     return (x >> y) | (x << (sizeof(y) * 8 - y));
 113:Middlewares/Third_Party/wolfSSL_wolfSSL_wolfSSL/wolfssl/wolfcrypt/src/misc.c **** }
 114:Middlewares/Third_Party/wolfSSL_wolfSSL_wolfSSL/wolfssl/wolfcrypt/src/misc.c **** 
 115:Middlewares/Third_Party/wolfSSL_wolfSSL_wolfSSL/wolfssl/wolfcrypt/src/misc.c **** #endif /* WC_RC2 */
 116:Middlewares/Third_Party/wolfSSL_wolfSSL_wolfSSL/wolfssl/wolfcrypt/src/misc.c **** 
 117:Middlewares/Third_Party/wolfSSL_wolfSSL_wolfSSL/wolfssl/wolfcrypt/src/misc.c **** /* This routine performs a byte swap of 32-bit word value. */
 118:Middlewares/Third_Party/wolfSSL_wolfSSL_wolfSSL/wolfssl/wolfcrypt/src/misc.c **** WC_STATIC WC_INLINE word32 ByteReverseWord32(word32 value)
 119:Middlewares/Third_Party/wolfSSL_wolfSSL_wolfSSL/wolfssl/wolfcrypt/src/misc.c **** {
 120:Middlewares/Third_Party/wolfSSL_wolfSSL_wolfSSL/wolfssl/wolfcrypt/src/misc.c **** #ifdef PPC_INTRINSICS
 121:Middlewares/Third_Party/wolfSSL_wolfSSL_wolfSSL/wolfssl/wolfcrypt/src/misc.c ****     /* PPC: load reverse indexed instruction */
 122:Middlewares/Third_Party/wolfSSL_wolfSSL_wolfSSL/wolfssl/wolfcrypt/src/misc.c ****     return (word32)__lwbrx(&value,0);
 123:Middlewares/Third_Party/wolfSSL_wolfSSL_wolfSSL/wolfssl/wolfcrypt/src/misc.c **** #elif defined(__ICCARM__)
 124:Middlewares/Third_Party/wolfSSL_wolfSSL_wolfSSL/wolfssl/wolfcrypt/src/misc.c ****     return (word32)__REV(value);
 125:Middlewares/Third_Party/wolfSSL_wolfSSL_wolfSSL/wolfssl/wolfcrypt/src/misc.c **** #elif defined(KEIL_INTRINSICS)
 126:Middlewares/Third_Party/wolfSSL_wolfSSL_wolfSSL/wolfssl/wolfcrypt/src/misc.c ****     return (word32)__rev(value);
 127:Middlewares/Third_Party/wolfSSL_wolfSSL_wolfSSL/wolfssl/wolfcrypt/src/misc.c **** #elif defined(WOLF_ALLOW_BUILTIN) && \
 128:Middlewares/Third_Party/wolfSSL_wolfSSL_wolfSSL/wolfssl/wolfcrypt/src/misc.c ****         defined(__GNUC_PREREQ) && __GNUC_PREREQ(4, 3)
 129:Middlewares/Third_Party/wolfSSL_wolfSSL_wolfSSL/wolfssl/wolfcrypt/src/misc.c ****     return (word32)__builtin_bswap32(value);
 130:Middlewares/Third_Party/wolfSSL_wolfSSL_wolfSSL/wolfssl/wolfcrypt/src/misc.c **** #elif defined(WOLFSSL_BYTESWAP32_ASM) && defined(__GNUC__) && \
 131:Middlewares/Third_Party/wolfSSL_wolfSSL_wolfSSL/wolfssl/wolfcrypt/src/misc.c ****       defined(__aarch64__)
ARM GAS  /tmp/cc09iKDl.s 			page 16


 132:Middlewares/Third_Party/wolfSSL_wolfSSL_wolfSSL/wolfssl/wolfcrypt/src/misc.c ****     __asm__ volatile (
 133:Middlewares/Third_Party/wolfSSL_wolfSSL_wolfSSL/wolfssl/wolfcrypt/src/misc.c ****         "REV32 %0, %0  \n"
 134:Middlewares/Third_Party/wolfSSL_wolfSSL_wolfSSL/wolfssl/wolfcrypt/src/misc.c ****         : "+r" (value)
 135:Middlewares/Third_Party/wolfSSL_wolfSSL_wolfSSL/wolfssl/wolfcrypt/src/misc.c ****         :
 136:Middlewares/Third_Party/wolfSSL_wolfSSL_wolfSSL/wolfssl/wolfcrypt/src/misc.c ****     );
 137:Middlewares/Third_Party/wolfSSL_wolfSSL_wolfSSL/wolfssl/wolfcrypt/src/misc.c ****     return value;
 138:Middlewares/Third_Party/wolfSSL_wolfSSL_wolfSSL/wolfssl/wolfcrypt/src/misc.c **** #elif defined(WOLFSSL_BYTESWAP32_ASM) && defined(__GNUC__) && \
 139:Middlewares/Third_Party/wolfSSL_wolfSSL_wolfSSL/wolfssl/wolfcrypt/src/misc.c ****       (defined(__thumb__) || defined(__arm__))
 140:Middlewares/Third_Party/wolfSSL_wolfSSL_wolfSSL/wolfssl/wolfcrypt/src/misc.c ****     __asm__ volatile (
 141:Middlewares/Third_Party/wolfSSL_wolfSSL_wolfSSL/wolfssl/wolfcrypt/src/misc.c ****         "REV %0, %0  \n"
 142:Middlewares/Third_Party/wolfSSL_wolfSSL_wolfSSL/wolfssl/wolfcrypt/src/misc.c ****         : "+r" (value)
 143:Middlewares/Third_Party/wolfSSL_wolfSSL_wolfSSL/wolfssl/wolfcrypt/src/misc.c ****         :
 144:Middlewares/Third_Party/wolfSSL_wolfSSL_wolfSSL/wolfssl/wolfcrypt/src/misc.c ****     );
 145:Middlewares/Third_Party/wolfSSL_wolfSSL_wolfSSL/wolfssl/wolfcrypt/src/misc.c ****     return value;
 146:Middlewares/Third_Party/wolfSSL_wolfSSL_wolfSSL/wolfssl/wolfcrypt/src/misc.c **** #elif defined(FAST_ROTATE)
 147:Middlewares/Third_Party/wolfSSL_wolfSSL_wolfSSL/wolfssl/wolfcrypt/src/misc.c ****     /* 5 instructions with rotate instruction, 9 without */
 148:Middlewares/Third_Party/wolfSSL_wolfSSL_wolfSSL/wolfssl/wolfcrypt/src/misc.c ****     return (rotrFixed(value, 8U) & 0xff00ff00) |
 149:Middlewares/Third_Party/wolfSSL_wolfSSL_wolfSSL/wolfssl/wolfcrypt/src/misc.c ****            (rotlFixed(value, 8U) & 0x00ff00ff);
 150:Middlewares/Third_Party/wolfSSL_wolfSSL_wolfSSL/wolfssl/wolfcrypt/src/misc.c **** #else
 151:Middlewares/Third_Party/wolfSSL_wolfSSL_wolfSSL/wolfssl/wolfcrypt/src/misc.c ****     /* 6 instructions with rotate instruction, 8 without */
 152:Middlewares/Third_Party/wolfSSL_wolfSSL_wolfSSL/wolfssl/wolfcrypt/src/misc.c ****     value = ((value & 0xFF00FF00) >> 8) | ((value & 0x00FF00FF) << 8);
 153:Middlewares/Third_Party/wolfSSL_wolfSSL_wolfSSL/wolfssl/wolfcrypt/src/misc.c ****     return rotlFixed(value, 16U);
 154:Middlewares/Third_Party/wolfSSL_wolfSSL_wolfSSL/wolfssl/wolfcrypt/src/misc.c **** #endif
 155:Middlewares/Third_Party/wolfSSL_wolfSSL_wolfSSL/wolfssl/wolfcrypt/src/misc.c **** }
 156:Middlewares/Third_Party/wolfSSL_wolfSSL_wolfSSL/wolfssl/wolfcrypt/src/misc.c **** /* This routine performs a byte swap of words array of a given count. */
 157:Middlewares/Third_Party/wolfSSL_wolfSSL_wolfSSL/wolfssl/wolfcrypt/src/misc.c **** WC_STATIC WC_INLINE void ByteReverseWords(word32* out, const word32* in,
 158:Middlewares/Third_Party/wolfSSL_wolfSSL_wolfSSL/wolfssl/wolfcrypt/src/misc.c ****                                     word32 byteCount)
 159:Middlewares/Third_Party/wolfSSL_wolfSSL_wolfSSL/wolfssl/wolfcrypt/src/misc.c **** {
 160:Middlewares/Third_Party/wolfSSL_wolfSSL_wolfSSL/wolfssl/wolfcrypt/src/misc.c ****     word32 count = byteCount/(word32)sizeof(word32), i;
 161:Middlewares/Third_Party/wolfSSL_wolfSSL_wolfSSL/wolfssl/wolfcrypt/src/misc.c **** 
 162:Middlewares/Third_Party/wolfSSL_wolfSSL_wolfSSL/wolfssl/wolfcrypt/src/misc.c ****     for (i = 0; i < count; i++)
 163:Middlewares/Third_Party/wolfSSL_wolfSSL_wolfSSL/wolfssl/wolfcrypt/src/misc.c ****         out[i] = ByteReverseWord32(in[i]);
 164:Middlewares/Third_Party/wolfSSL_wolfSSL_wolfSSL/wolfssl/wolfcrypt/src/misc.c **** 
 165:Middlewares/Third_Party/wolfSSL_wolfSSL_wolfSSL/wolfssl/wolfcrypt/src/misc.c **** }
 166:Middlewares/Third_Party/wolfSSL_wolfSSL_wolfSSL/wolfssl/wolfcrypt/src/misc.c **** 
 167:Middlewares/Third_Party/wolfSSL_wolfSSL_wolfSSL/wolfssl/wolfcrypt/src/misc.c **** #if defined(WORD64_AVAILABLE) && !defined(WOLFSSL_NO_WORD64_OPS)
 168:Middlewares/Third_Party/wolfSSL_wolfSSL_wolfSSL/wolfssl/wolfcrypt/src/misc.c **** 
 169:Middlewares/Third_Party/wolfSSL_wolfSSL_wolfSSL/wolfssl/wolfcrypt/src/misc.c **** 
 170:Middlewares/Third_Party/wolfSSL_wolfSSL_wolfSSL/wolfssl/wolfcrypt/src/misc.c **** WC_STATIC WC_INLINE word64 rotlFixed64(word64 x, word64 y)
 171:Middlewares/Third_Party/wolfSSL_wolfSSL_wolfSSL/wolfssl/wolfcrypt/src/misc.c **** {
 172:Middlewares/Third_Party/wolfSSL_wolfSSL_wolfSSL/wolfssl/wolfcrypt/src/misc.c ****     return (x << y) | (x >> (sizeof(y) * 8 - y));
 173:Middlewares/Third_Party/wolfSSL_wolfSSL_wolfSSL/wolfssl/wolfcrypt/src/misc.c **** }
 174:Middlewares/Third_Party/wolfSSL_wolfSSL_wolfSSL/wolfssl/wolfcrypt/src/misc.c **** 
 175:Middlewares/Third_Party/wolfSSL_wolfSSL_wolfSSL/wolfssl/wolfcrypt/src/misc.c **** 
 176:Middlewares/Third_Party/wolfSSL_wolfSSL_wolfSSL/wolfssl/wolfcrypt/src/misc.c **** WC_STATIC WC_INLINE word64 rotrFixed64(word64 x, word64 y)
 177:Middlewares/Third_Party/wolfSSL_wolfSSL_wolfSSL/wolfssl/wolfcrypt/src/misc.c **** {
 178:Middlewares/Third_Party/wolfSSL_wolfSSL_wolfSSL/wolfssl/wolfcrypt/src/misc.c ****     return (x >> y) | (x << (sizeof(y) * 8 - y));
 179:Middlewares/Third_Party/wolfSSL_wolfSSL_wolfSSL/wolfssl/wolfcrypt/src/misc.c **** }
 180:Middlewares/Third_Party/wolfSSL_wolfSSL_wolfSSL/wolfssl/wolfcrypt/src/misc.c **** 
 181:Middlewares/Third_Party/wolfSSL_wolfSSL_wolfSSL/wolfssl/wolfcrypt/src/misc.c **** 
 182:Middlewares/Third_Party/wolfSSL_wolfSSL_wolfSSL/wolfssl/wolfcrypt/src/misc.c **** WC_STATIC WC_INLINE word64 ByteReverseWord64(word64 value)
 183:Middlewares/Third_Party/wolfSSL_wolfSSL_wolfSSL/wolfssl/wolfcrypt/src/misc.c **** {
 184:Middlewares/Third_Party/wolfSSL_wolfSSL_wolfSSL/wolfssl/wolfcrypt/src/misc.c **** #if defined(WOLF_ALLOW_BUILTIN) && defined(__GNUC_PREREQ) && __GNUC_PREREQ(4, 3)
 185:Middlewares/Third_Party/wolfSSL_wolfSSL_wolfSSL/wolfssl/wolfcrypt/src/misc.c ****     return (word64)__builtin_bswap64(value);
 186:Middlewares/Third_Party/wolfSSL_wolfSSL_wolfSSL/wolfssl/wolfcrypt/src/misc.c **** #elif defined(WOLFCRYPT_SLOW_WORD64)
 187:Middlewares/Third_Party/wolfSSL_wolfSSL_wolfSSL/wolfssl/wolfcrypt/src/misc.c **** 	return (word64)((word64)ByteReverseWord32((word32) value)) << 32 |
 188:Middlewares/Third_Party/wolfSSL_wolfSSL_wolfSSL/wolfssl/wolfcrypt/src/misc.c ****                     (word64)ByteReverseWord32((word32)(value   >> 32));
ARM GAS  /tmp/cc09iKDl.s 			page 17


 189:Middlewares/Third_Party/wolfSSL_wolfSSL_wolfSSL/wolfssl/wolfcrypt/src/misc.c **** #else
 190:Middlewares/Third_Party/wolfSSL_wolfSSL_wolfSSL/wolfssl/wolfcrypt/src/misc.c **** 	value = ((value & W64LIT(0xFF00FF00FF00FF00)) >> 8) |
 191:Middlewares/Third_Party/wolfSSL_wolfSSL_wolfSSL/wolfssl/wolfcrypt/src/misc.c ****             ((value & W64LIT(0x00FF00FF00FF00FF)) << 8);
 192:Middlewares/Third_Party/wolfSSL_wolfSSL_wolfSSL/wolfssl/wolfcrypt/src/misc.c **** 	value = ((value & W64LIT(0xFFFF0000FFFF0000)) >> 16) |
 193:Middlewares/Third_Party/wolfSSL_wolfSSL_wolfSSL/wolfssl/wolfcrypt/src/misc.c ****             ((value & W64LIT(0x0000FFFF0000FFFF)) << 16);
 194:Middlewares/Third_Party/wolfSSL_wolfSSL_wolfSSL/wolfssl/wolfcrypt/src/misc.c **** 	return rotlFixed64(value, 32U);
 195:Middlewares/Third_Party/wolfSSL_wolfSSL_wolfSSL/wolfssl/wolfcrypt/src/misc.c **** #endif
 196:Middlewares/Third_Party/wolfSSL_wolfSSL_wolfSSL/wolfssl/wolfcrypt/src/misc.c **** }
 197:Middlewares/Third_Party/wolfSSL_wolfSSL_wolfSSL/wolfssl/wolfcrypt/src/misc.c **** 
 198:Middlewares/Third_Party/wolfSSL_wolfSSL_wolfSSL/wolfssl/wolfcrypt/src/misc.c **** 
 199:Middlewares/Third_Party/wolfSSL_wolfSSL_wolfSSL/wolfssl/wolfcrypt/src/misc.c **** WC_STATIC WC_INLINE void ByteReverseWords64(word64* out, const word64* in,
 200:Middlewares/Third_Party/wolfSSL_wolfSSL_wolfSSL/wolfssl/wolfcrypt/src/misc.c ****                                       word32 byteCount)
 201:Middlewares/Third_Party/wolfSSL_wolfSSL_wolfSSL/wolfssl/wolfcrypt/src/misc.c **** {
 202:Middlewares/Third_Party/wolfSSL_wolfSSL_wolfSSL/wolfssl/wolfcrypt/src/misc.c ****     word32 count = byteCount/(word32)sizeof(word64), i;
 203:Middlewares/Third_Party/wolfSSL_wolfSSL_wolfSSL/wolfssl/wolfcrypt/src/misc.c **** 
 204:Middlewares/Third_Party/wolfSSL_wolfSSL_wolfSSL/wolfssl/wolfcrypt/src/misc.c ****     for (i = 0; i < count; i++)
 205:Middlewares/Third_Party/wolfSSL_wolfSSL_wolfSSL/wolfssl/wolfcrypt/src/misc.c ****         out[i] = ByteReverseWord64(in[i]);
 206:Middlewares/Third_Party/wolfSSL_wolfSSL_wolfSSL/wolfssl/wolfcrypt/src/misc.c **** 
 207:Middlewares/Third_Party/wolfSSL_wolfSSL_wolfSSL/wolfssl/wolfcrypt/src/misc.c **** }
 208:Middlewares/Third_Party/wolfSSL_wolfSSL_wolfSSL/wolfssl/wolfcrypt/src/misc.c **** 
 209:Middlewares/Third_Party/wolfSSL_wolfSSL_wolfSSL/wolfssl/wolfcrypt/src/misc.c **** #endif /* WORD64_AVAILABLE && !WOLFSSL_NO_WORD64_OPS */
 210:Middlewares/Third_Party/wolfSSL_wolfSSL_wolfSSL/wolfssl/wolfcrypt/src/misc.c **** 
 211:Middlewares/Third_Party/wolfSSL_wolfSSL_wolfSSL/wolfssl/wolfcrypt/src/misc.c **** #ifndef WOLFSSL_NO_XOR_OPS
 212:Middlewares/Third_Party/wolfSSL_wolfSSL_wolfSSL/wolfssl/wolfcrypt/src/misc.c **** /* This routine performs a bitwise XOR operation of <*r> and <*a> for <n> number
 213:Middlewares/Third_Party/wolfSSL_wolfSSL_wolfSSL/wolfssl/wolfcrypt/src/misc.c **** of wolfssl_words, placing the result in <*r>. */
 214:Middlewares/Third_Party/wolfSSL_wolfSSL_wolfSSL/wolfssl/wolfcrypt/src/misc.c **** WC_STATIC WC_INLINE void XorWordsOut(wolfssl_word* r, const wolfssl_word* a,
 215:Middlewares/Third_Party/wolfSSL_wolfSSL_wolfSSL/wolfssl/wolfcrypt/src/misc.c ****                                      const wolfssl_word* b, word32 n)
 216:Middlewares/Third_Party/wolfSSL_wolfSSL_wolfSSL/wolfssl/wolfcrypt/src/misc.c **** {
 217:Middlewares/Third_Party/wolfSSL_wolfSSL_wolfSSL/wolfssl/wolfcrypt/src/misc.c ****     word32 i;
 218:Middlewares/Third_Party/wolfSSL_wolfSSL_wolfSSL/wolfssl/wolfcrypt/src/misc.c **** 
 219:Middlewares/Third_Party/wolfSSL_wolfSSL_wolfSSL/wolfssl/wolfcrypt/src/misc.c ****     for (i = 0; i < n; i++) r[i] = a[i] ^ b[i];
 220:Middlewares/Third_Party/wolfSSL_wolfSSL_wolfSSL/wolfssl/wolfcrypt/src/misc.c **** }
 221:Middlewares/Third_Party/wolfSSL_wolfSSL_wolfSSL/wolfssl/wolfcrypt/src/misc.c **** 
 222:Middlewares/Third_Party/wolfSSL_wolfSSL_wolfSSL/wolfssl/wolfcrypt/src/misc.c **** /* This routine performs a bitwise XOR operation of <*buf> and <*mask> of n
 223:Middlewares/Third_Party/wolfSSL_wolfSSL_wolfSSL/wolfssl/wolfcrypt/src/misc.c **** counts, placing the result in <*buf>. */
 224:Middlewares/Third_Party/wolfSSL_wolfSSL_wolfSSL/wolfssl/wolfcrypt/src/misc.c **** 
 225:Middlewares/Third_Party/wolfSSL_wolfSSL_wolfSSL/wolfssl/wolfcrypt/src/misc.c **** WC_STATIC WC_INLINE void xorbufout(void*out, const void* buf, const void* mask,
 226:Middlewares/Third_Party/wolfSSL_wolfSSL_wolfSSL/wolfssl/wolfcrypt/src/misc.c ****                                    word32 count)
 227:Middlewares/Third_Party/wolfSSL_wolfSSL_wolfSSL/wolfssl/wolfcrypt/src/misc.c **** {
 228:Middlewares/Third_Party/wolfSSL_wolfSSL_wolfSSL/wolfssl/wolfcrypt/src/misc.c ****     if (((wolfssl_word)out | (wolfssl_word)buf | (wolfssl_word)mask | count) % \
 229:Middlewares/Third_Party/wolfSSL_wolfSSL_wolfSSL/wolfssl/wolfcrypt/src/misc.c ****                                                          WOLFSSL_WORD_SIZE == 0)
 230:Middlewares/Third_Party/wolfSSL_wolfSSL_wolfSSL/wolfssl/wolfcrypt/src/misc.c ****         XorWordsOut( (wolfssl_word*)out, (wolfssl_word*)buf,
 231:Middlewares/Third_Party/wolfSSL_wolfSSL_wolfSSL/wolfssl/wolfcrypt/src/misc.c ****                      (const wolfssl_word*)mask, count / WOLFSSL_WORD_SIZE);
 232:Middlewares/Third_Party/wolfSSL_wolfSSL_wolfSSL/wolfssl/wolfcrypt/src/misc.c ****     else {
 233:Middlewares/Third_Party/wolfSSL_wolfSSL_wolfSSL/wolfssl/wolfcrypt/src/misc.c ****         word32 i;
 234:Middlewares/Third_Party/wolfSSL_wolfSSL_wolfSSL/wolfssl/wolfcrypt/src/misc.c ****         byte*       o = (byte*)out;
 235:Middlewares/Third_Party/wolfSSL_wolfSSL_wolfSSL/wolfssl/wolfcrypt/src/misc.c ****         byte*       b = (byte*)buf;
 236:Middlewares/Third_Party/wolfSSL_wolfSSL_wolfSSL/wolfssl/wolfcrypt/src/misc.c ****         const byte* m = (const byte*)mask;
 237:Middlewares/Third_Party/wolfSSL_wolfSSL_wolfSSL/wolfssl/wolfcrypt/src/misc.c **** 
 238:Middlewares/Third_Party/wolfSSL_wolfSSL_wolfSSL/wolfssl/wolfcrypt/src/misc.c ****         for (i = 0; i < count; i++) o[i] = b[i] ^ m[i];
 239:Middlewares/Third_Party/wolfSSL_wolfSSL_wolfSSL/wolfssl/wolfcrypt/src/misc.c ****     }
 240:Middlewares/Third_Party/wolfSSL_wolfSSL_wolfSSL/wolfssl/wolfcrypt/src/misc.c **** }
 241:Middlewares/Third_Party/wolfSSL_wolfSSL_wolfSSL/wolfssl/wolfcrypt/src/misc.c **** 
 242:Middlewares/Third_Party/wolfSSL_wolfSSL_wolfSSL/wolfssl/wolfcrypt/src/misc.c **** /* This routine performs a bitwise XOR operation of <*r> and <*a> for <n> number
 243:Middlewares/Third_Party/wolfSSL_wolfSSL_wolfSSL/wolfssl/wolfcrypt/src/misc.c **** of wolfssl_words, placing the result in <*r>. */
 244:Middlewares/Third_Party/wolfSSL_wolfSSL_wolfSSL/wolfssl/wolfcrypt/src/misc.c **** WC_STATIC WC_INLINE void XorWords(wolfssl_word* r, const wolfssl_word* a, word32 n)
 245:Middlewares/Third_Party/wolfSSL_wolfSSL_wolfSSL/wolfssl/wolfcrypt/src/misc.c **** {
ARM GAS  /tmp/cc09iKDl.s 			page 18


 246:Middlewares/Third_Party/wolfSSL_wolfSSL_wolfSSL/wolfssl/wolfcrypt/src/misc.c ****     word32 i;
 247:Middlewares/Third_Party/wolfSSL_wolfSSL_wolfSSL/wolfssl/wolfcrypt/src/misc.c **** 
 248:Middlewares/Third_Party/wolfSSL_wolfSSL_wolfSSL/wolfssl/wolfcrypt/src/misc.c ****     for (i = 0; i < n; i++) r[i] ^= a[i];
 249:Middlewares/Third_Party/wolfSSL_wolfSSL_wolfSSL/wolfssl/wolfcrypt/src/misc.c **** }
 250:Middlewares/Third_Party/wolfSSL_wolfSSL_wolfSSL/wolfssl/wolfcrypt/src/misc.c **** 
 251:Middlewares/Third_Party/wolfSSL_wolfSSL_wolfSSL/wolfssl/wolfcrypt/src/misc.c **** /* This routine performs a bitwise XOR operation of <*buf> and <*mask> of n
 252:Middlewares/Third_Party/wolfSSL_wolfSSL_wolfSSL/wolfssl/wolfcrypt/src/misc.c **** counts, placing the result in <*buf>. */
 253:Middlewares/Third_Party/wolfSSL_wolfSSL_wolfSSL/wolfssl/wolfcrypt/src/misc.c **** 
 254:Middlewares/Third_Party/wolfSSL_wolfSSL_wolfSSL/wolfssl/wolfcrypt/src/misc.c **** WC_STATIC WC_INLINE void xorbuf(void* buf, const void* mask, word32 count)
 255:Middlewares/Third_Party/wolfSSL_wolfSSL_wolfSSL/wolfssl/wolfcrypt/src/misc.c **** {
 256:Middlewares/Third_Party/wolfSSL_wolfSSL_wolfSSL/wolfssl/wolfcrypt/src/misc.c ****     if (((wolfssl_word)buf | (wolfssl_word)mask | count) % WOLFSSL_WORD_SIZE == 0)
 257:Middlewares/Third_Party/wolfSSL_wolfSSL_wolfSSL/wolfssl/wolfcrypt/src/misc.c ****         XorWords( (wolfssl_word*)buf,
 258:Middlewares/Third_Party/wolfSSL_wolfSSL_wolfSSL/wolfssl/wolfcrypt/src/misc.c ****                   (const wolfssl_word*)mask, count / WOLFSSL_WORD_SIZE);
 259:Middlewares/Third_Party/wolfSSL_wolfSSL_wolfSSL/wolfssl/wolfcrypt/src/misc.c ****     else {
 260:Middlewares/Third_Party/wolfSSL_wolfSSL_wolfSSL/wolfssl/wolfcrypt/src/misc.c ****         word32 i;
 261:Middlewares/Third_Party/wolfSSL_wolfSSL_wolfSSL/wolfssl/wolfcrypt/src/misc.c ****         byte*       b = (byte*)buf;
 262:Middlewares/Third_Party/wolfSSL_wolfSSL_wolfSSL/wolfssl/wolfcrypt/src/misc.c ****         const byte* m = (const byte*)mask;
 263:Middlewares/Third_Party/wolfSSL_wolfSSL_wolfSSL/wolfssl/wolfcrypt/src/misc.c **** 
 264:Middlewares/Third_Party/wolfSSL_wolfSSL_wolfSSL/wolfssl/wolfcrypt/src/misc.c ****         for (i = 0; i < count; i++) b[i] ^= m[i];
 265:Middlewares/Third_Party/wolfSSL_wolfSSL_wolfSSL/wolfssl/wolfcrypt/src/misc.c ****     }
 266:Middlewares/Third_Party/wolfSSL_wolfSSL_wolfSSL/wolfssl/wolfcrypt/src/misc.c **** }
 267:Middlewares/Third_Party/wolfSSL_wolfSSL_wolfSSL/wolfssl/wolfcrypt/src/misc.c **** #endif
 268:Middlewares/Third_Party/wolfSSL_wolfSSL_wolfSSL/wolfssl/wolfcrypt/src/misc.c **** 
 269:Middlewares/Third_Party/wolfSSL_wolfSSL_wolfSSL/wolfssl/wolfcrypt/src/misc.c **** #ifndef WOLFSSL_NO_FORCE_ZERO
 270:Middlewares/Third_Party/wolfSSL_wolfSSL_wolfSSL/wolfssl/wolfcrypt/src/misc.c **** /* This routine fills the first len bytes of the memory area pointed by mem
 271:Middlewares/Third_Party/wolfSSL_wolfSSL_wolfSSL/wolfssl/wolfcrypt/src/misc.c ****    with zeros. It ensures compiler optimizations doesn't skip it  */
 272:Middlewares/Third_Party/wolfSSL_wolfSSL_wolfSSL/wolfssl/wolfcrypt/src/misc.c **** WC_STATIC WC_INLINE void ForceZero(const void* mem, word32 len)
  41              		.loc 2 272 26 view .LVU5
  42              	.LBB49:
 273:Middlewares/Third_Party/wolfSSL_wolfSSL_wolfSSL/wolfssl/wolfcrypt/src/misc.c **** {
 274:Middlewares/Third_Party/wolfSSL_wolfSSL_wolfSSL/wolfssl/wolfcrypt/src/misc.c ****     volatile byte* z = (volatile byte*)mem;
  43              		.loc 2 274 5 view .LVU6
 275:Middlewares/Third_Party/wolfSSL_wolfSSL_wolfSSL/wolfssl/wolfcrypt/src/misc.c **** 
 276:Middlewares/Third_Party/wolfSSL_wolfSSL_wolfSSL/wolfssl/wolfcrypt/src/misc.c **** #if (defined(WOLFSSL_X86_64_BUILD) || defined(WOLFSSL_AARCH64_BUILD)) \
 277:Middlewares/Third_Party/wolfSSL_wolfSSL_wolfSSL/wolfssl/wolfcrypt/src/misc.c ****             && defined(WORD64_AVAILABLE)
 278:Middlewares/Third_Party/wolfSSL_wolfSSL_wolfSSL/wolfssl/wolfcrypt/src/misc.c ****     volatile word64* w;
 279:Middlewares/Third_Party/wolfSSL_wolfSSL_wolfSSL/wolfssl/wolfcrypt/src/misc.c ****     #ifndef WOLFSSL_UNALIGNED_64BIT_ACCESS
 280:Middlewares/Third_Party/wolfSSL_wolfSSL_wolfSSL/wolfssl/wolfcrypt/src/misc.c ****         word32 l = (sizeof(word64) - ((size_t)z & (sizeof(word64)-1))) &
 281:Middlewares/Third_Party/wolfSSL_wolfSSL_wolfSSL/wolfssl/wolfcrypt/src/misc.c ****                                                              (sizeof(word64)-1);
 282:Middlewares/Third_Party/wolfSSL_wolfSSL_wolfSSL/wolfssl/wolfcrypt/src/misc.c **** 
 283:Middlewares/Third_Party/wolfSSL_wolfSSL_wolfSSL/wolfssl/wolfcrypt/src/misc.c ****         if (len < l) l = len;
 284:Middlewares/Third_Party/wolfSSL_wolfSSL_wolfSSL/wolfssl/wolfcrypt/src/misc.c ****         len -= l;
 285:Middlewares/Third_Party/wolfSSL_wolfSSL_wolfSSL/wolfssl/wolfcrypt/src/misc.c ****         while (l--) *z++ = 0;
 286:Middlewares/Third_Party/wolfSSL_wolfSSL_wolfSSL/wolfssl/wolfcrypt/src/misc.c ****     #endif
 287:Middlewares/Third_Party/wolfSSL_wolfSSL_wolfSSL/wolfssl/wolfcrypt/src/misc.c ****     for (w = (volatile word64*)z; len >= sizeof(*w); len -= sizeof(*w))
 288:Middlewares/Third_Party/wolfSSL_wolfSSL_wolfSSL/wolfssl/wolfcrypt/src/misc.c ****         *w++ = 0;
 289:Middlewares/Third_Party/wolfSSL_wolfSSL_wolfSSL/wolfssl/wolfcrypt/src/misc.c ****     z = (volatile byte*)w;
 290:Middlewares/Third_Party/wolfSSL_wolfSSL_wolfSSL/wolfssl/wolfcrypt/src/misc.c **** #endif
 291:Middlewares/Third_Party/wolfSSL_wolfSSL_wolfSSL/wolfssl/wolfcrypt/src/misc.c **** 
 292:Middlewares/Third_Party/wolfSSL_wolfSSL_wolfSSL/wolfssl/wolfcrypt/src/misc.c ****     while (len--) *z++ = 0;
  44              		.loc 2 292 5 view .LVU7
 274:Middlewares/Third_Party/wolfSSL_wolfSSL_wolfSSL/wolfssl/wolfcrypt/src/misc.c **** 
  45              		.loc 2 274 20 is_stmt 0 view .LVU8
  46 0000 0246     		mov	r2, r0
  47              		.loc 2 292 11 view .LVU9
  48 0002 7823     		movs	r3, #120
  49 0004 05E0     		b	.L2
ARM GAS  /tmp/cc09iKDl.s 			page 19


  50              	.LVL1:
  51              	.L3:
  52              		.loc 2 292 19 is_stmt 1 view .LVU10
  53              		.loc 2 292 21 is_stmt 0 view .LVU11
  54 0006 1346     		mov	r3, r2
  55              	.LVL2:
  56              		.loc 2 292 24 view .LVU12
  57 0008 0022     		movs	r2, #0
  58 000a 03F8012B 		strb	r2, [r3], #1
  59              	.LVL3:
  60              		.loc 2 292 21 view .LVU13
  61 000e 1A46     		mov	r2, r3
  62              		.loc 2 292 15 view .LVU14
  63 0010 0B46     		mov	r3, r1
  64              	.LVL4:
  65              	.L2:
  66              		.loc 2 292 11 is_stmt 1 view .LVU15
  67              		.loc 2 292 15 is_stmt 0 view .LVU16
  68 0012 591E     		subs	r1, r3, #1
  69              	.LVL5:
  70              		.loc 2 292 11 view .LVU17
  71 0014 002B     		cmp	r3, #0
  72 0016 F6D1     		bne	.L3
  73              		.loc 2 292 11 view .LVU18
  74              	.LBE49:
  75              	.LBE48:
 678:Middlewares/Third_Party/wolfSSL_wolfSSL_wolfSSL/wolfssl/wolfcrypt/src/random.c ****     byte*  compareDrbg = (byte*)drbg;
  76              		.loc 1 678 12 view .LVU19
  77 0018 0022     		movs	r2, #0
  78              	.LVL6:
 678:Middlewares/Third_Party/wolfSSL_wolfSSL_wolfSSL/wolfssl/wolfcrypt/src/random.c ****     byte*  compareDrbg = (byte*)drbg;
  79              		.loc 1 678 12 view .LVU20
  80 001a 02E0     		b	.L4
  81              	.LVL7:
  82              	.L5:
 686:Middlewares/Third_Party/wolfSSL_wolfSSL_wolfSSL/wolfssl/wolfcrypt/src/random.c **** 
 687:Middlewares/Third_Party/wolfSSL_wolfSSL_wolfSSL/wolfssl/wolfcrypt/src/random.c ****     for (i = 0; i < sizeof(DRBG_internal); i++)
 688:Middlewares/Third_Party/wolfSSL_wolfSSL_wolfSSL/wolfssl/wolfcrypt/src/random.c ****         compareSum |= compareDrbg[i] ^ 0;
  83              		.loc 1 688 9 is_stmt 1 discriminator 3 view .LVU21
  84              		.loc 1 688 34 is_stmt 0 discriminator 3 view .LVU22
  85 001c C15C     		ldrb	r1, [r0, r3]	@ zero_extendqisi2
  86              		.loc 1 688 20 discriminator 3 view .LVU23
  87 001e 0A43     		orrs	r2, r2, r1
  88              	.LVL8:
 687:Middlewares/Third_Party/wolfSSL_wolfSSL_wolfSSL/wolfssl/wolfcrypt/src/random.c ****         compareSum |= compareDrbg[i] ^ 0;
  89              		.loc 1 687 44 is_stmt 1 discriminator 3 view .LVU24
 687:Middlewares/Third_Party/wolfSSL_wolfSSL_wolfSSL/wolfssl/wolfcrypt/src/random.c ****         compareSum |= compareDrbg[i] ^ 0;
  90              		.loc 1 687 45 is_stmt 0 discriminator 3 view .LVU25
  91 0020 0133     		adds	r3, r3, #1
  92              	.LVL9:
  93              	.L4:
 687:Middlewares/Third_Party/wolfSSL_wolfSSL_wolfSSL/wolfssl/wolfcrypt/src/random.c ****         compareSum |= compareDrbg[i] ^ 0;
  94              		.loc 1 687 17 is_stmt 1 discriminator 1 view .LVU26
 687:Middlewares/Third_Party/wolfSSL_wolfSSL_wolfSSL/wolfssl/wolfcrypt/src/random.c ****         compareSum |= compareDrbg[i] ^ 0;
  95              		.loc 1 687 5 is_stmt 0 discriminator 1 view .LVU27
  96 0022 772B     		cmp	r3, #119
  97 0024 FAD9     		bls	.L5
ARM GAS  /tmp/cc09iKDl.s 			page 20


 689:Middlewares/Third_Party/wolfSSL_wolfSSL_wolfSSL/wolfssl/wolfcrypt/src/random.c **** 
 690:Middlewares/Third_Party/wolfSSL_wolfSSL_wolfSSL/wolfssl/wolfcrypt/src/random.c ****     return (compareSum == 0) ? DRBG_SUCCESS : DRBG_FAILURE;
  98              		.loc 1 690 5 is_stmt 1 view .LVU28
 691:Middlewares/Third_Party/wolfSSL_wolfSSL_wolfSSL/wolfssl/wolfcrypt/src/random.c **** }
  99              		.loc 1 691 1 is_stmt 0 view .LVU29
 100 0026 101E     		subs	r0, r2, #0
 101              	.LVL10:
 102              		.loc 1 691 1 view .LVU30
 103 0028 18BF     		it	ne
 104 002a 0120     		movne	r0, #1
 105 002c 7047     		bx	lr
 106              		.cfi_endproc
 107              	.LFE183:
 109              		.section	.text.Hash_df,"ax",%progbits
 110              		.align	1
 111              		.syntax unified
 112              		.thumb
 113              		.thumb_func
 114              		.fpu fpv4-sp-d16
 116              	Hash_df:
 117              	.LVL11:
 118              	.LFB175:
 325:Middlewares/Third_Party/wolfSSL_wolfSSL_wolfSSL/wolfssl/wolfcrypt/src/random.c ****     int ret = DRBG_FAILURE;
 119              		.loc 1 325 1 is_stmt 1 view -0
 120              		.cfi_startproc
 121              		@ args = 16, pretend = 0, frame = 160
 122              		@ frame_needed = 0, uses_anonymous_args = 0
 325:Middlewares/Third_Party/wolfSSL_wolfSSL_wolfSSL/wolfssl/wolfcrypt/src/random.c ****     int ret = DRBG_FAILURE;
 123              		.loc 1 325 1 is_stmt 0 view .LVU32
 124 0000 2DE9F04F 		push	{r4, r5, r6, r7, r8, r9, r10, fp, lr}
 125              	.LCFI0:
 126              		.cfi_def_cfa_offset 36
 127              		.cfi_offset 4, -36
 128              		.cfi_offset 5, -32
 129              		.cfi_offset 6, -28
 130              		.cfi_offset 7, -24
 131              		.cfi_offset 8, -20
 132              		.cfi_offset 9, -16
 133              		.cfi_offset 10, -12
 134              		.cfi_offset 11, -8
 135              		.cfi_offset 14, -4
 136 0004 A9B0     		sub	sp, sp, #164
 137              	.LCFI1:
 138              		.cfi_def_cfa_offset 200
 139 0006 0D46     		mov	r5, r1
 140 0008 1746     		mov	r7, r2
 141 000a DDF8CCB0 		ldr	fp, [sp, #204]
 142 000e DDF8D090 		ldr	r9, [sp, #208]
 143 0012 DDF8D4A0 		ldr	r10, [sp, #212]
 144 0016 8DF80730 		strb	r3, [sp, #7]
 326:Middlewares/Third_Party/wolfSSL_wolfSSL_wolfSSL/wolfssl/wolfcrypt/src/random.c ****     byte ctr;
 145              		.loc 1 326 5 is_stmt 1 view .LVU33
 146              	.LVL12:
 327:Middlewares/Third_Party/wolfSSL_wolfSSL_wolfSSL/wolfssl/wolfcrypt/src/random.c ****     int i;
 147              		.loc 1 327 5 view .LVU34
 328:Middlewares/Third_Party/wolfSSL_wolfSSL_wolfSSL/wolfssl/wolfcrypt/src/random.c ****     int len;
 148              		.loc 1 328 5 view .LVU35
ARM GAS  /tmp/cc09iKDl.s 			page 21


 329:Middlewares/Third_Party/wolfSSL_wolfSSL_wolfSSL/wolfssl/wolfcrypt/src/random.c ****     word32 bits = (outSz * 8); /* reverse byte order */
 149              		.loc 1 329 5 view .LVU36
 330:Middlewares/Third_Party/wolfSSL_wolfSSL_wolfSSL/wolfssl/wolfcrypt/src/random.c **** #ifdef WOLFSSL_SMALL_STACK_CACHE
 150              		.loc 1 330 5 view .LVU37
 330:Middlewares/Third_Party/wolfSSL_wolfSSL_wolfSSL/wolfssl/wolfcrypt/src/random.c **** #ifdef WOLFSSL_SMALL_STACK_CACHE
 151              		.loc 1 330 26 is_stmt 0 view .LVU38
 152 001a D300     		lsls	r3, r2, #3
 153              	.LVL13:
 330:Middlewares/Third_Party/wolfSSL_wolfSSL_wolfSSL/wolfssl/wolfcrypt/src/random.c **** #ifdef WOLFSSL_SMALL_STACK_CACHE
 154              		.loc 1 330 12 view .LVU39
 155 001c 2693     		str	r3, [sp, #152]
 334:Middlewares/Third_Party/wolfSSL_wolfSSL_wolfSSL/wolfssl/wolfcrypt/src/random.c **** #endif
 156              		.loc 1 334 5 is_stmt 1 view .LVU40
 341:Middlewares/Third_Party/wolfSSL_wolfSSL_wolfSSL/wolfssl/wolfcrypt/src/random.c **** #endif
 157              		.loc 1 341 5 view .LVU41
 344:Middlewares/Third_Party/wolfSSL_wolfSSL_wolfSSL/wolfssl/wolfcrypt/src/random.c **** #ifdef WC_ASYNC_ENABLE_SHA256
 158              		.loc 1 344 5 view .LVU42
 351:Middlewares/Third_Party/wolfSSL_wolfSSL_wolfSSL/wolfssl/wolfcrypt/src/random.c **** #endif
 159              		.loc 1 351 5 view .LVU43
 160              	.LVL14:
 161              	.LBB50:
 162              	.LBI50:
 118:Middlewares/Third_Party/wolfSSL_wolfSSL_wolfSSL/wolfssl/wolfcrypt/src/misc.c **** {
 163              		.loc 2 118 28 view .LVU44
 164              	.LBB51:
 152:Middlewares/Third_Party/wolfSSL_wolfSSL_wolfSSL/wolfssl/wolfcrypt/src/misc.c ****     return rotlFixed(value, 16U);
 165              		.loc 2 152 5 view .LVU45
 152:Middlewares/Third_Party/wolfSSL_wolfSSL_wolfSSL/wolfssl/wolfcrypt/src/misc.c ****     return rotlFixed(value, 16U);
 166              		.loc 2 152 35 is_stmt 0 view .LVU46
 167 001e 1B0A     		lsrs	r3, r3, #8
 168              	.LVL15:
 152:Middlewares/Third_Party/wolfSSL_wolfSSL_wolfSSL/wolfssl/wolfcrypt/src/misc.c ****     return rotlFixed(value, 16U);
 169              		.loc 2 152 35 view .LVU47
 170 0020 03F0FF13 		and	r3, r3, #16711935
 152:Middlewares/Third_Party/wolfSSL_wolfSSL_wolfSSL/wolfssl/wolfcrypt/src/misc.c ****     return rotlFixed(value, 16U);
 171              		.loc 2 152 65 view .LVU48
 172 0024 D202     		lsls	r2, r2, #11
 173              	.LVL16:
 152:Middlewares/Third_Party/wolfSSL_wolfSSL_wolfSSL/wolfssl/wolfcrypt/src/misc.c ****     return rotlFixed(value, 16U);
 174              		.loc 2 152 65 view .LVU49
 175 0026 02F0FF22 		and	r2, r2, #-16711936
 152:Middlewares/Third_Party/wolfSSL_wolfSSL_wolfSSL/wolfssl/wolfcrypt/src/misc.c ****     return rotlFixed(value, 16U);
 176              		.loc 2 152 11 view .LVU50
 177 002a 1343     		orrs	r3, r3, r2
 178              	.LVL17:
 153:Middlewares/Third_Party/wolfSSL_wolfSSL_wolfSSL/wolfssl/wolfcrypt/src/misc.c **** #endif
 179              		.loc 2 153 5 is_stmt 1 view .LVU51
 180              	.LBB52:
 181              	.LBI52:
  87:Middlewares/Third_Party/wolfSSL_wolfSSL_wolfSSL/wolfssl/wolfcrypt/src/misc.c ****     {
 182              		.loc 2 87 32 view .LVU52
 183              	.LBB53:
  89:Middlewares/Third_Party/wolfSSL_wolfSSL_wolfSSL/wolfssl/wolfcrypt/src/misc.c ****     }
 184              		.loc 2 89 9 view .LVU53
  89:Middlewares/Third_Party/wolfSSL_wolfSSL_wolfSSL/wolfssl/wolfcrypt/src/misc.c ****     }
 185              		.loc 2 89 25 is_stmt 0 view .LVU54
 186 002c 4FEA3343 		ror	r3, r3, #16
ARM GAS  /tmp/cc09iKDl.s 			page 22


 187              	.LVL18:
  89:Middlewares/Third_Party/wolfSSL_wolfSSL_wolfSSL/wolfssl/wolfcrypt/src/misc.c ****     }
 188              		.loc 2 89 25 view .LVU55
 189              	.LBE53:
 190              	.LBE52:
 191              	.LBE51:
 192              	.LBE50:
 351:Middlewares/Third_Party/wolfSSL_wolfSSL_wolfSSL/wolfssl/wolfcrypt/src/random.c **** #endif
 193              		.loc 1 351 10 view .LVU56
 194 0030 2693     		str	r3, [sp, #152]
 353:Middlewares/Third_Party/wolfSSL_wolfSSL_wolfSSL/wolfssl/wolfcrypt/src/random.c ****         + ((outSz % OUTPUT_BLOCK_LEN) ? 1 : 0);
 195              		.loc 1 353 5 is_stmt 1 view .LVU57
 353:Middlewares/Third_Party/wolfSSL_wolfSSL_wolfSSL/wolfssl/wolfcrypt/src/random.c ****         + ((outSz % OUTPUT_BLOCK_LEN) ? 1 : 0);
 196              		.loc 1 353 18 is_stmt 0 view .LVU58
 197 0032 4FEA5718 		lsr	r8, r7, #5
 354:Middlewares/Third_Party/wolfSSL_wolfSSL_wolfSSL/wolfssl/wolfcrypt/src/random.c **** 
 198              		.loc 1 354 43 view .LVU59
 199 0036 17F01F03 		ands	r3, r7, #31
 200 003a 00D0     		beq	.L7
 201 003c 0123     		movs	r3, #1
 202              	.L7:
 354:Middlewares/Third_Party/wolfSSL_wolfSSL_wolfSSL/wolfssl/wolfcrypt/src/random.c **** 
 203              		.loc 1 354 9 discriminator 4 view .LVU60
 204 003e 9844     		add	r8, r8, r3
 205              	.LVL19:
 356:Middlewares/Third_Party/wolfSSL_wolfSSL_wolfSSL/wolfssl/wolfcrypt/src/random.c **** #ifndef WOLFSSL_SMALL_STACK_CACHE
 206              		.loc 1 356 5 is_stmt 1 discriminator 4 view .LVU61
 356:Middlewares/Third_Party/wolfSSL_wolfSSL_wolfSSL/wolfssl/wolfcrypt/src/random.c **** #ifndef WOLFSSL_SMALL_STACK_CACHE
 207              		.loc 1 356 21 is_stmt 0 discriminator 4 view .LVU62
 208 0040 0120     		movs	r0, #1
 209              	.LVL20:
 356:Middlewares/Third_Party/wolfSSL_wolfSSL_wolfSSL/wolfssl/wolfcrypt/src/random.c **** #ifndef WOLFSSL_SMALL_STACK_CACHE
 210              		.loc 1 356 21 discriminator 4 view .LVU63
 211 0042 8DF89F00 		strb	r0, [sp, #159]
 356:Middlewares/Third_Party/wolfSSL_wolfSSL_wolfSSL/wolfssl/wolfcrypt/src/random.c **** #ifndef WOLFSSL_SMALL_STACK_CACHE
 212              		.loc 1 356 12 discriminator 4 view .LVU64
 213 0046 0026     		movs	r6, #0
 326:Middlewares/Third_Party/wolfSSL_wolfSSL_wolfSSL/wolfssl/wolfcrypt/src/random.c ****     byte ctr;
 214              		.loc 1 326 9 discriminator 4 view .LVU65
 215 0048 0446     		mov	r4, r0
 356:Middlewares/Third_Party/wolfSSL_wolfSSL_wolfSSL/wolfssl/wolfcrypt/src/random.c **** #ifndef WOLFSSL_SMALL_STACK_CACHE
 216              		.loc 1 356 5 discriminator 4 view .LVU66
 217 004a 33E0     		b	.L8
 218              	.LVL21:
 219              	.L22:
 370:Middlewares/Third_Party/wolfSSL_wolfSSL_wolfSSL/wolfssl/wolfcrypt/src/random.c **** 
 220              		.loc 1 370 13 is_stmt 1 view .LVU67
 370:Middlewares/Third_Party/wolfSSL_wolfSSL_wolfSSL/wolfssl/wolfcrypt/src/random.c **** 
 221              		.loc 1 370 19 is_stmt 0 view .LVU68
 222 004c 0422     		movs	r2, #4
 223 004e 26A9     		add	r1, sp, #152
 224 0050 0AA8     		add	r0, sp, #40
 225              	.LVL22:
 370:Middlewares/Third_Party/wolfSSL_wolfSSL_wolfSSL/wolfssl/wolfcrypt/src/random.c **** 
 226              		.loc 1 370 19 view .LVU69
 227 0052 FFF7FEFF 		bl	wc_Sha256Update
 228              	.LVL23:
ARM GAS  /tmp/cc09iKDl.s 			page 23


 229 0056 0446     		mov	r4, r0
 230              	.LVL24:
 370:Middlewares/Third_Party/wolfSSL_wolfSSL_wolfSSL/wolfssl/wolfcrypt/src/random.c **** 
 231              		.loc 1 370 19 view .LVU70
 232 0058 3CE0     		b	.L10
 233              	.L23:
 375:Middlewares/Third_Party/wolfSSL_wolfSSL_wolfSSL/wolfssl/wolfcrypt/src/random.c ****         }
 234              		.loc 1 375 17 is_stmt 1 view .LVU71
 375:Middlewares/Third_Party/wolfSSL_wolfSSL_wolfSSL/wolfssl/wolfcrypt/src/random.c ****         }
 235              		.loc 1 375 23 is_stmt 0 view .LVU72
 236 005a 0122     		movs	r2, #1
 237 005c 0DF10701 		add	r1, sp, #7
 238 0060 0AA8     		add	r0, sp, #40
 239              	.LVL25:
 375:Middlewares/Third_Party/wolfSSL_wolfSSL_wolfSSL/wolfssl/wolfcrypt/src/random.c ****         }
 240              		.loc 1 375 23 view .LVU73
 241 0062 FFF7FEFF 		bl	wc_Sha256Update
 242              	.LVL26:
 243 0066 0446     		mov	r4, r0
 244              	.LVL27:
 375:Middlewares/Third_Party/wolfSSL_wolfSSL_wolfSSL/wolfssl/wolfcrypt/src/random.c ****         }
 245              		.loc 1 375 23 view .LVU74
 246 0068 39E0     		b	.L11
 247              	.L24:
 378:Middlewares/Third_Party/wolfSSL_wolfSSL_wolfSSL/wolfssl/wolfcrypt/src/random.c ****         if (ret == 0) {
 248              		.loc 1 378 13 is_stmt 1 view .LVU75
 378:Middlewares/Third_Party/wolfSSL_wolfSSL_wolfSSL/wolfssl/wolfcrypt/src/random.c ****         if (ret == 0) {
 249              		.loc 1 378 19 is_stmt 0 view .LVU76
 250 006a 5A46     		mov	r2, fp
 251 006c 3299     		ldr	r1, [sp, #200]
 252 006e 0AA8     		add	r0, sp, #40
 253              	.LVL28:
 378:Middlewares/Third_Party/wolfSSL_wolfSSL_wolfSSL/wolfssl/wolfcrypt/src/random.c ****         if (ret == 0) {
 254              		.loc 1 378 19 view .LVU77
 255 0070 FFF7FEFF 		bl	wc_Sha256Update
 256              	.LVL29:
 257 0074 0446     		mov	r4, r0
 258              	.LVL30:
 378:Middlewares/Third_Party/wolfSSL_wolfSSL_wolfSSL/wolfssl/wolfcrypt/src/random.c ****         if (ret == 0) {
 259              		.loc 1 378 19 view .LVU78
 260 0076 34E0     		b	.L12
 261              	.L13:
 383:Middlewares/Third_Party/wolfSSL_wolfSSL_wolfSSL/wolfssl/wolfcrypt/src/random.c ****             ret = wc_Sha256Final(sha, digest);
 262              		.loc 1 383 9 is_stmt 1 view .LVU79
 383:Middlewares/Third_Party/wolfSSL_wolfSSL_wolfSSL/wolfssl/wolfcrypt/src/random.c ****             ret = wc_Sha256Final(sha, digest);
 263              		.loc 1 383 12 is_stmt 0 view .LVU80
 264 0078 002C     		cmp	r4, #0
 265 007a 41D0     		beq	.L21
 266              	.L14:
 387:Middlewares/Third_Party/wolfSSL_wolfSSL_wolfSSL/wolfssl/wolfcrypt/src/random.c **** #endif
 267              		.loc 1 387 9 is_stmt 1 view .LVU81
 268 007c 0AA8     		add	r0, sp, #40
 269              	.LVL31:
 387:Middlewares/Third_Party/wolfSSL_wolfSSL_wolfSSL/wolfssl/wolfcrypt/src/random.c **** #endif
 270              		.loc 1 387 9 is_stmt 0 view .LVU82
 271 007e FFF7FEFF 		bl	wc_Sha256Free
 272              	.LVL32:
ARM GAS  /tmp/cc09iKDl.s 			page 24


 389:Middlewares/Third_Party/wolfSSL_wolfSSL_wolfSSL/wolfssl/wolfcrypt/src/random.c ****             if (outSz > OUTPUT_BLOCK_LEN) {
 273              		.loc 1 389 9 is_stmt 1 view .LVU83
 389:Middlewares/Third_Party/wolfSSL_wolfSSL_wolfSSL/wolfssl/wolfcrypt/src/random.c ****             if (outSz > OUTPUT_BLOCK_LEN) {
 274              		.loc 1 389 12 is_stmt 0 view .LVU84
 275 0082 8CB9     		cbnz	r4, .L15
 390:Middlewares/Third_Party/wolfSSL_wolfSSL_wolfSSL/wolfssl/wolfcrypt/src/random.c ****                 XMEMCPY(out, digest, OUTPUT_BLOCK_LEN);
 276              		.loc 1 390 13 is_stmt 1 view .LVU85
 390:Middlewares/Third_Party/wolfSSL_wolfSSL_wolfSSL/wolfssl/wolfcrypt/src/random.c ****                 XMEMCPY(out, digest, OUTPUT_BLOCK_LEN);
 277              		.loc 1 390 16 is_stmt 0 view .LVU86
 278 0084 202F     		cmp	r7, #32
 279 0086 41D9     		bls	.L16
 391:Middlewares/Third_Party/wolfSSL_wolfSSL_wolfSSL/wolfssl/wolfcrypt/src/random.c ****                 outSz -= OUTPUT_BLOCK_LEN;
 280              		.loc 1 391 17 is_stmt 1 view .LVU87
 281 0088 0DF1080C 		add	ip, sp, #8
 282 008c BCE80F00 		ldmia	ip!, {r0, r1, r2, r3}
 283 0090 2860     		str	r0, [r5]	@ unaligned
 284 0092 6960     		str	r1, [r5, #4]	@ unaligned
 285 0094 AA60     		str	r2, [r5, #8]	@ unaligned
 286 0096 EB60     		str	r3, [r5, #12]	@ unaligned
 287 0098 BCE80F00 		ldmia	ip!, {r0, r1, r2, r3}
 288 009c 2861     		str	r0, [r5, #16]	@ unaligned
 289 009e 6961     		str	r1, [r5, #20]	@ unaligned
 290 00a0 AA61     		str	r2, [r5, #24]	@ unaligned
 291 00a2 EB61     		str	r3, [r5, #28]	@ unaligned
 392:Middlewares/Third_Party/wolfSSL_wolfSSL_wolfSSL/wolfssl/wolfcrypt/src/random.c ****                 out += OUTPUT_BLOCK_LEN;
 292              		.loc 1 392 17 view .LVU88
 392:Middlewares/Third_Party/wolfSSL_wolfSSL_wolfSSL/wolfssl/wolfcrypt/src/random.c ****                 out += OUTPUT_BLOCK_LEN;
 293              		.loc 1 392 23 is_stmt 0 view .LVU89
 294 00a4 203F     		subs	r7, r7, #32
 295              	.LVL33:
 393:Middlewares/Third_Party/wolfSSL_wolfSSL_wolfSSL/wolfssl/wolfcrypt/src/random.c ****             }
 296              		.loc 1 393 17 is_stmt 1 view .LVU90
 393:Middlewares/Third_Party/wolfSSL_wolfSSL_wolfSSL/wolfssl/wolfcrypt/src/random.c ****             }
 297              		.loc 1 393 21 is_stmt 0 view .LVU91
 298 00a6 2035     		adds	r5, r5, #32
 299              	.LVL34:
 300              	.L15:
 356:Middlewares/Third_Party/wolfSSL_wolfSSL_wolfSSL/wolfssl/wolfcrypt/src/random.c **** #ifndef WOLFSSL_SMALL_STACK_CACHE
 301              		.loc 1 356 35 is_stmt 1 discriminator 2 view .LVU92
 356:Middlewares/Third_Party/wolfSSL_wolfSSL_wolfSSL/wolfssl/wolfcrypt/src/random.c **** #ifndef WOLFSSL_SMALL_STACK_CACHE
 302              		.loc 1 356 36 is_stmt 0 discriminator 2 view .LVU93
 303 00a8 0136     		adds	r6, r6, #1
 304              	.LVL35:
 356:Middlewares/Third_Party/wolfSSL_wolfSSL_wolfSSL/wolfssl/wolfcrypt/src/random.c **** #ifndef WOLFSSL_SMALL_STACK_CACHE
 305              		.loc 1 356 43 discriminator 2 view .LVU94
 306 00aa 9DF89F30 		ldrb	r3, [sp, #159]	@ zero_extendqisi2
 307 00ae 0133     		adds	r3, r3, #1
 308 00b0 8DF89F30 		strb	r3, [sp, #159]
 309              	.LVL36:
 310              	.L8:
 356:Middlewares/Third_Party/wolfSSL_wolfSSL_wolfSSL/wolfssl/wolfcrypt/src/random.c **** #ifndef WOLFSSL_SMALL_STACK_CACHE
 311              		.loc 1 356 26 is_stmt 1 discriminator 1 view .LVU95
 356:Middlewares/Third_Party/wolfSSL_wolfSSL_wolfSSL/wolfssl/wolfcrypt/src/random.c **** #ifndef WOLFSSL_SMALL_STACK_CACHE
 312              		.loc 1 356 5 is_stmt 0 discriminator 1 view .LVU96
 313 00b4 4645     		cmp	r6, r8
 314 00b6 2FDA     		bge	.L9
 361:Middlewares/Third_Party/wolfSSL_wolfSSL_wolfSSL/wolfssl/wolfcrypt/src/random.c ****     #endif
ARM GAS  /tmp/cc09iKDl.s 			page 25


 315              		.loc 1 361 9 is_stmt 1 view .LVU97
 361:Middlewares/Third_Party/wolfSSL_wolfSSL_wolfSSL/wolfssl/wolfcrypt/src/random.c ****     #endif
 316              		.loc 1 361 15 is_stmt 0 view .LVU98
 317 00b8 0AA8     		add	r0, sp, #40
 318 00ba FFF7FEFF 		bl	wc_InitSha256
 319              	.LVL37:
 363:Middlewares/Third_Party/wolfSSL_wolfSSL_wolfSSL/wolfssl/wolfcrypt/src/random.c ****             break;
 320              		.loc 1 363 9 is_stmt 1 view .LVU99
 363:Middlewares/Third_Party/wolfSSL_wolfSSL_wolfSSL/wolfssl/wolfcrypt/src/random.c ****             break;
 321              		.loc 1 363 12 is_stmt 0 view .LVU100
 322 00be 0446     		mov	r4, r0
 323 00c0 50BB     		cbnz	r0, .L9
 366:Middlewares/Third_Party/wolfSSL_wolfSSL_wolfSSL/wolfssl/wolfcrypt/src/random.c **** #endif
 324              		.loc 1 366 9 is_stmt 1 view .LVU101
 368:Middlewares/Third_Party/wolfSSL_wolfSSL_wolfSSL/wolfssl/wolfcrypt/src/random.c ****         if (ret == 0)
 325              		.loc 1 368 13 view .LVU102
 368:Middlewares/Third_Party/wolfSSL_wolfSSL_wolfSSL/wolfssl/wolfcrypt/src/random.c ****         if (ret == 0)
 326              		.loc 1 368 19 is_stmt 0 view .LVU103
 327 00c2 0122     		movs	r2, #1
 328 00c4 0DF19F01 		add	r1, sp, #159
 329 00c8 0AA8     		add	r0, sp, #40
 330              	.LVL38:
 368:Middlewares/Third_Party/wolfSSL_wolfSSL_wolfSSL/wolfssl/wolfcrypt/src/random.c ****         if (ret == 0)
 331              		.loc 1 368 19 view .LVU104
 332 00ca FFF7FEFF 		bl	wc_Sha256Update
 333              	.LVL39:
 369:Middlewares/Third_Party/wolfSSL_wolfSSL_wolfSSL/wolfssl/wolfcrypt/src/random.c ****             ret = wc_Sha256Update(sha, (byte*)&bits, sizeof(bits));
 334              		.loc 1 369 9 is_stmt 1 view .LVU105
 369:Middlewares/Third_Party/wolfSSL_wolfSSL_wolfSSL/wolfssl/wolfcrypt/src/random.c ****             ret = wc_Sha256Update(sha, (byte*)&bits, sizeof(bits));
 335              		.loc 1 369 12 is_stmt 0 view .LVU106
 336 00ce 0446     		mov	r4, r0
 337 00d0 0028     		cmp	r0, #0
 338 00d2 BBD0     		beq	.L22
 339              	.L10:
 372:Middlewares/Third_Party/wolfSSL_wolfSSL_wolfSSL/wolfssl/wolfcrypt/src/random.c ****             /* churning V is the only string that doesn't have the type added */
 340              		.loc 1 372 9 is_stmt 1 view .LVU107
 372:Middlewares/Third_Party/wolfSSL_wolfSSL_wolfSSL/wolfssl/wolfcrypt/src/random.c ****             /* churning V is the only string that doesn't have the type added */
 341              		.loc 1 372 12 is_stmt 0 view .LVU108
 342 00d4 1CB9     		cbnz	r4, .L11
 374:Middlewares/Third_Party/wolfSSL_wolfSSL_wolfSSL/wolfssl/wolfcrypt/src/random.c ****                 ret = wc_Sha256Update(sha, &type, sizeof(type));
 343              		.loc 1 374 13 is_stmt 1 view .LVU109
 374:Middlewares/Third_Party/wolfSSL_wolfSSL_wolfSSL/wolfssl/wolfcrypt/src/random.c ****                 ret = wc_Sha256Update(sha, &type, sizeof(type));
 344              		.loc 1 374 22 is_stmt 0 view .LVU110
 345 00d6 9DF80730 		ldrb	r3, [sp, #7]	@ zero_extendqisi2
 374:Middlewares/Third_Party/wolfSSL_wolfSSL_wolfSSL/wolfssl/wolfcrypt/src/random.c ****                 ret = wc_Sha256Update(sha, &type, sizeof(type));
 346              		.loc 1 374 16 view .LVU111
 347 00da 042B     		cmp	r3, #4
 348 00dc BDD1     		bne	.L23
 349              	.L11:
 377:Middlewares/Third_Party/wolfSSL_wolfSSL_wolfSSL/wolfssl/wolfcrypt/src/random.c ****             ret = wc_Sha256Update(sha, inA, inASz);
 350              		.loc 1 377 9 is_stmt 1 view .LVU112
 377:Middlewares/Third_Party/wolfSSL_wolfSSL_wolfSSL/wolfssl/wolfcrypt/src/random.c ****             ret = wc_Sha256Update(sha, inA, inASz);
 351              		.loc 1 377 12 is_stmt 0 view .LVU113
 352 00de 002C     		cmp	r4, #0
 353 00e0 C3D0     		beq	.L24
 354              	.L12:
 379:Middlewares/Third_Party/wolfSSL_wolfSSL_wolfSSL/wolfssl/wolfcrypt/src/random.c ****             if (inB != NULL && inBSz > 0)
ARM GAS  /tmp/cc09iKDl.s 			page 26


 355              		.loc 1 379 9 is_stmt 1 view .LVU114
 379:Middlewares/Third_Party/wolfSSL_wolfSSL_wolfSSL/wolfssl/wolfcrypt/src/random.c ****             if (inB != NULL && inBSz > 0)
 356              		.loc 1 379 12 is_stmt 0 view .LVU115
 357 00e2 002C     		cmp	r4, #0
 358 00e4 C8D1     		bne	.L13
 380:Middlewares/Third_Party/wolfSSL_wolfSSL_wolfSSL/wolfssl/wolfcrypt/src/random.c ****                 ret = wc_Sha256Update(sha, inB, inBSz);
 359              		.loc 1 380 13 is_stmt 1 view .LVU116
 380:Middlewares/Third_Party/wolfSSL_wolfSSL_wolfSSL/wolfssl/wolfcrypt/src/random.c ****                 ret = wc_Sha256Update(sha, inB, inBSz);
 360              		.loc 1 380 16 is_stmt 0 view .LVU117
 361 00e6 B9F1000F 		cmp	r9, #0
 362 00ea C5D0     		beq	.L13
 380:Middlewares/Third_Party/wolfSSL_wolfSSL_wolfSSL/wolfssl/wolfcrypt/src/random.c ****                 ret = wc_Sha256Update(sha, inB, inBSz);
 363              		.loc 1 380 29 discriminator 1 view .LVU118
 364 00ec BAF1000F 		cmp	r10, #0
 365 00f0 C2D0     		beq	.L13
 381:Middlewares/Third_Party/wolfSSL_wolfSSL_wolfSSL/wolfssl/wolfcrypt/src/random.c ****         }
 366              		.loc 1 381 17 is_stmt 1 view .LVU119
 381:Middlewares/Third_Party/wolfSSL_wolfSSL_wolfSSL/wolfssl/wolfcrypt/src/random.c ****         }
 367              		.loc 1 381 23 is_stmt 0 view .LVU120
 368 00f2 5246     		mov	r2, r10
 369 00f4 4946     		mov	r1, r9
 370 00f6 0AA8     		add	r0, sp, #40
 371              	.LVL40:
 381:Middlewares/Third_Party/wolfSSL_wolfSSL_wolfSSL/wolfssl/wolfcrypt/src/random.c ****         }
 372              		.loc 1 381 23 view .LVU121
 373 00f8 FFF7FEFF 		bl	wc_Sha256Update
 374              	.LVL41:
 375 00fc 0446     		mov	r4, r0
 376              	.LVL42:
 381:Middlewares/Third_Party/wolfSSL_wolfSSL_wolfSSL/wolfssl/wolfcrypt/src/random.c ****         }
 377              		.loc 1 381 23 view .LVU122
 378 00fe BBE7     		b	.L13
 379              	.L21:
 384:Middlewares/Third_Party/wolfSSL_wolfSSL_wolfSSL/wolfssl/wolfcrypt/src/random.c **** 
 380              		.loc 1 384 13 is_stmt 1 view .LVU123
 384:Middlewares/Third_Party/wolfSSL_wolfSSL_wolfSSL/wolfssl/wolfcrypt/src/random.c **** 
 381              		.loc 1 384 19 is_stmt 0 view .LVU124
 382 0100 02A9     		add	r1, sp, #8
 383 0102 0AA8     		add	r0, sp, #40
 384              	.LVL43:
 384:Middlewares/Third_Party/wolfSSL_wolfSSL_wolfSSL/wolfssl/wolfcrypt/src/random.c **** 
 385              		.loc 1 384 19 view .LVU125
 386 0104 FFF7FEFF 		bl	wc_Sha256Final
 387              	.LVL44:
 388 0108 0446     		mov	r4, r0
 389              	.LVL45:
 384:Middlewares/Third_Party/wolfSSL_wolfSSL_wolfSSL/wolfssl/wolfcrypt/src/random.c **** 
 390              		.loc 1 384 19 view .LVU126
 391 010a B7E7     		b	.L14
 392              	.LVL46:
 393              	.L16:
 396:Middlewares/Third_Party/wolfSSL_wolfSSL_wolfSSL/wolfssl/wolfcrypt/src/random.c ****             }
 394              		.loc 1 396 17 is_stmt 1 view .LVU127
 395 010c 3A46     		mov	r2, r7
 396 010e 02A9     		add	r1, sp, #8
 397 0110 2846     		mov	r0, r5
 398 0112 FFF7FEFF 		bl	memcpy
ARM GAS  /tmp/cc09iKDl.s 			page 27


 399              	.LVL47:
 400 0116 C7E7     		b	.L15
 401              	.L9:
 401:Middlewares/Third_Party/wolfSSL_wolfSSL_wolfSSL/wolfssl/wolfcrypt/src/random.c **** 
 402              		.loc 1 401 5 view .LVU128
 403              	.LVL48:
 404              	.LBB54:
 405              	.LBI54:
 272:Middlewares/Third_Party/wolfSSL_wolfSSL_wolfSSL/wolfssl/wolfcrypt/src/misc.c **** {
 406              		.loc 2 272 26 view .LVU129
 407              	.LBB55:
 274:Middlewares/Third_Party/wolfSSL_wolfSSL_wolfSSL/wolfssl/wolfcrypt/src/misc.c **** 
 408              		.loc 2 274 5 view .LVU130
 409              		.loc 2 292 5 view .LVU131
 274:Middlewares/Third_Party/wolfSSL_wolfSSL_wolfSSL/wolfssl/wolfcrypt/src/misc.c **** 
 410              		.loc 2 274 20 is_stmt 0 view .LVU132
 411 0118 02AB     		add	r3, sp, #8
 412              	.LVL49:
 413              		.loc 2 292 11 view .LVU133
 414 011a 2022     		movs	r2, #32
 415              	.LVL50:
 416              	.L18:
 417              		.loc 2 292 11 is_stmt 1 view .LVU134
 418              		.loc 2 292 15 is_stmt 0 view .LVU135
 419 011c 511E     		subs	r1, r2, #1
 420              	.LVL51:
 421              		.loc 2 292 11 view .LVU136
 422 011e 22B1     		cbz	r2, .L25
 423              		.loc 2 292 19 is_stmt 1 view .LVU137
 424              	.LVL52:
 425              		.loc 2 292 24 is_stmt 0 view .LVU138
 426 0120 0022     		movs	r2, #0
 427 0122 03F8012B 		strb	r2, [r3], #1
 428              	.LVL53:
 429              		.loc 2 292 15 view .LVU139
 430 0126 0A46     		mov	r2, r1
 431 0128 F8E7     		b	.L18
 432              	.L25:
 433              	.LVL54:
 434              		.loc 2 292 15 view .LVU140
 435              	.LBE55:
 436              	.LBE54:
 407:Middlewares/Third_Party/wolfSSL_wolfSSL_wolfSSL/wolfssl/wolfcrypt/src/random.c **** }
 437              		.loc 1 407 5 is_stmt 1 view .LVU141
 408:Middlewares/Third_Party/wolfSSL_wolfSSL_wolfSSL/wolfssl/wolfcrypt/src/random.c **** 
 438              		.loc 1 408 1 is_stmt 0 view .LVU142
 439 012a 201E     		subs	r0, r4, #0
 440 012c 18BF     		it	ne
 441 012e 0120     		movne	r0, #1
 442 0130 29B0     		add	sp, sp, #164
 443              	.LCFI2:
 444              		.cfi_def_cfa_offset 36
 445              		@ sp needed
 446 0132 BDE8F08F 		pop	{r4, r5, r6, r7, r8, r9, r10, fp, pc}
 408:Middlewares/Third_Party/wolfSSL_wolfSSL_wolfSSL/wolfssl/wolfcrypt/src/random.c **** 
 447              		.loc 1 408 1 view .LVU143
 448              		.cfi_endproc
ARM GAS  /tmp/cc09iKDl.s 			page 28


 449              	.LFE175:
 451              		.section	.text.Hash_DRBG_Reseed,"ax",%progbits
 452              		.align	1
 453              		.syntax unified
 454              		.thumb
 455              		.thumb_func
 456              		.fpu fpv4-sp-d16
 458              	Hash_DRBG_Reseed:
 459              	.LVL55:
 460              	.LFB176:
 412:Middlewares/Third_Party/wolfSSL_wolfSSL_wolfSSL/wolfssl/wolfcrypt/src/random.c ****     byte newV[DRBG_SEED_LEN];
 461              		.loc 1 412 1 is_stmt 1 view -0
 462              		.cfi_startproc
 463              		@ args = 0, pretend = 0, frame = 56
 464              		@ frame_needed = 0, uses_anonymous_args = 0
 412:Middlewares/Third_Party/wolfSSL_wolfSSL_wolfSSL/wolfssl/wolfcrypt/src/random.c ****     byte newV[DRBG_SEED_LEN];
 465              		.loc 1 412 1 is_stmt 0 view .LVU145
 466 0000 2DE9F041 		push	{r4, r5, r6, r7, r8, lr}
 467              	.LCFI3:
 468              		.cfi_def_cfa_offset 24
 469              		.cfi_offset 4, -24
 470              		.cfi_offset 5, -20
 471              		.cfi_offset 6, -16
 472              		.cfi_offset 7, -12
 473              		.cfi_offset 8, -8
 474              		.cfi_offset 14, -4
 475 0004 92B0     		sub	sp, sp, #72
 476              	.LCFI4:
 477              		.cfi_def_cfa_offset 96
 478 0006 0446     		mov	r4, r0
 479 0008 0F46     		mov	r7, r1
 480 000a 9046     		mov	r8, r2
 413:Middlewares/Third_Party/wolfSSL_wolfSSL_wolfSSL/wolfssl/wolfcrypt/src/random.c **** 
 481              		.loc 1 413 5 is_stmt 1 view .LVU146
 415:Middlewares/Third_Party/wolfSSL_wolfSSL_wolfSSL/wolfssl/wolfcrypt/src/random.c **** 
 482              		.loc 1 415 5 view .LVU147
 483 000c 3726     		movs	r6, #55
 484 000e 3246     		mov	r2, r6
 485              	.LVL56:
 415:Middlewares/Third_Party/wolfSSL_wolfSSL_wolfSSL/wolfssl/wolfcrypt/src/random.c **** 
 486              		.loc 1 415 5 is_stmt 0 view .LVU148
 487 0010 0021     		movs	r1, #0
 488              	.LVL57:
 415:Middlewares/Third_Party/wolfSSL_wolfSSL_wolfSSL/wolfssl/wolfcrypt/src/random.c **** 
 489              		.loc 1 415 5 view .LVU149
 490 0012 04A8     		add	r0, sp, #16
 491              	.LVL58:
 415:Middlewares/Third_Party/wolfSSL_wolfSSL_wolfSSL/wolfssl/wolfcrypt/src/random.c **** 
 492              		.loc 1 415 5 view .LVU150
 493 0014 FFF7FEFF 		bl	memset
 494              	.LVL59:
 417:Middlewares/Third_Party/wolfSSL_wolfSSL_wolfSSL/wolfssl/wolfcrypt/src/random.c ****                 drbg->V, sizeof(drbg->V), seed, seedSz) != DRBG_SUCCESS) {
 495              		.loc 1 417 5 is_stmt 1 view .LVU151
 418:Middlewares/Third_Party/wolfSSL_wolfSSL_wolfSSL/wolfssl/wolfcrypt/src/random.c ****         return DRBG_FAILURE;
 496              		.loc 1 418 21 is_stmt 0 view .LVU152
 497 0018 04F10805 		add	r5, r4, #8
 417:Middlewares/Third_Party/wolfSSL_wolfSSL_wolfSSL/wolfssl/wolfcrypt/src/random.c ****                 drbg->V, sizeof(drbg->V), seed, seedSz) != DRBG_SUCCESS) {
ARM GAS  /tmp/cc09iKDl.s 			page 29


 498              		.loc 1 417 9 view .LVU153
 499 001c CDF80C80 		str	r8, [sp, #12]
 500 0020 0297     		str	r7, [sp, #8]
 501 0022 0196     		str	r6, [sp, #4]
 502 0024 0095     		str	r5, [sp]
 503 0026 0123     		movs	r3, #1
 504 0028 3246     		mov	r2, r6
 505 002a 04A9     		add	r1, sp, #16
 506 002c 2046     		mov	r0, r4
 507 002e FFF7FEFF 		bl	Hash_df
 508              	.LVL60:
 417:Middlewares/Third_Party/wolfSSL_wolfSSL_wolfSSL/wolfssl/wolfcrypt/src/random.c ****                 drbg->V, sizeof(drbg->V), seed, seedSz) != DRBG_SUCCESS) {
 509              		.loc 1 417 8 view .LVU154
 510 0032 0028     		cmp	r0, #0
 511 0034 3DD1     		bne	.L31
 422:Middlewares/Third_Party/wolfSSL_wolfSSL_wolfSSL/wolfssl/wolfcrypt/src/random.c ****     ForceZero(newV, sizeof(newV));
 512              		.loc 1 422 5 is_stmt 1 view .LVU155
 513 0036 04AE     		add	r6, sp, #16
 514 0038 AC46     		mov	ip, r5
 515 003a 10AF     		add	r7, sp, #64
 516              	.LVL61:
 517              	.L28:
 422:Middlewares/Third_Party/wolfSSL_wolfSSL_wolfSSL/wolfssl/wolfcrypt/src/random.c ****     ForceZero(newV, sizeof(newV));
 518              		.loc 1 422 5 is_stmt 0 view .LVU156
 519 003c B646     		mov	lr, r6
 520 003e BEE80F00 		ldmia	lr!, {r0, r1, r2, r3}
 521 0042 CCF80000 		str	r0, [ip]	@ unaligned
 522 0046 CCF80410 		str	r1, [ip, #4]	@ unaligned
 523 004a CCF80820 		str	r2, [ip, #8]	@ unaligned
 524 004e CCF80C30 		str	r3, [ip, #12]	@ unaligned
 525 0052 7646     		mov	r6, lr
 526 0054 0CF1100C 		add	ip, ip, #16
 527 0058 BE45     		cmp	lr, r7
 528 005a EFD1     		bne	.L28
 529 005c DEF80000 		ldr	r0, [lr]
 530 0060 CCF80000 		str	r0, [ip]	@ unaligned
 531 0064 BEF80420 		ldrh	r2, [lr, #4]	@ unaligned
 532 0068 9EF80630 		ldrb	r3, [lr, #6]	@ zero_extendqisi2
 533 006c ACF80420 		strh	r2, [ip, #4]	@ unaligned
 534 0070 8CF80630 		strb	r3, [ip, #6]
 423:Middlewares/Third_Party/wolfSSL_wolfSSL_wolfSSL/wolfssl/wolfcrypt/src/random.c **** 
 535              		.loc 1 423 5 is_stmt 1 view .LVU157
 536              	.LVL62:
 537              	.LBB56:
 538              	.LBI56:
 272:Middlewares/Third_Party/wolfSSL_wolfSSL_wolfSSL/wolfssl/wolfcrypt/src/misc.c **** {
 539              		.loc 2 272 26 view .LVU158
 540              	.LBB57:
 274:Middlewares/Third_Party/wolfSSL_wolfSSL_wolfSSL/wolfssl/wolfcrypt/src/misc.c **** 
 541              		.loc 2 274 5 view .LVU159
 542              		.loc 2 292 5 view .LVU160
 274:Middlewares/Third_Party/wolfSSL_wolfSSL_wolfSSL/wolfssl/wolfcrypt/src/misc.c **** 
 543              		.loc 2 274 20 is_stmt 0 view .LVU161
 544 0074 04AB     		add	r3, sp, #16
 545              	.LVL63:
 546              		.loc 2 292 11 view .LVU162
 547 0076 3722     		movs	r2, #55
ARM GAS  /tmp/cc09iKDl.s 			page 30


 548 0078 03E0     		b	.L29
 549              	.LVL64:
 550              	.L30:
 551              		.loc 2 292 19 is_stmt 1 view .LVU163
 552              		.loc 2 292 24 is_stmt 0 view .LVU164
 553 007a 0022     		movs	r2, #0
 554 007c 03F8012B 		strb	r2, [r3], #1
 555              	.LVL65:
 556              		.loc 2 292 15 view .LVU165
 557 0080 0A46     		mov	r2, r1
 558              	.LVL66:
 559              	.L29:
 560              		.loc 2 292 11 is_stmt 1 view .LVU166
 561              		.loc 2 292 15 is_stmt 0 view .LVU167
 562 0082 511E     		subs	r1, r2, #1
 563              	.LVL67:
 564              		.loc 2 292 11 view .LVU168
 565 0084 002A     		cmp	r2, #0
 566 0086 F8D1     		bne	.L30
 567              	.LVL68:
 568              		.loc 2 292 11 view .LVU169
 569              	.LBE57:
 570              	.LBE56:
 425:Middlewares/Third_Party/wolfSSL_wolfSSL_wolfSSL/wolfssl/wolfcrypt/src/random.c ****                                     sizeof(drbg->V), NULL, 0) != DRBG_SUCCESS) {
 571              		.loc 1 425 5 is_stmt 1 view .LVU170
 425:Middlewares/Third_Party/wolfSSL_wolfSSL_wolfSSL/wolfssl/wolfcrypt/src/random.c ****                                     sizeof(drbg->V), NULL, 0) != DRBG_SUCCESS) {
 572              		.loc 1 425 9 is_stmt 0 view .LVU171
 573 0088 0023     		movs	r3, #0
 574 008a 0393     		str	r3, [sp, #12]
 575 008c 0293     		str	r3, [sp, #8]
 576 008e 3722     		movs	r2, #55
 577 0090 0192     		str	r2, [sp, #4]
 578 0092 0095     		str	r5, [sp]
 579 0094 04F13F01 		add	r1, r4, #63
 580 0098 2046     		mov	r0, r4
 581 009a FFF7FEFF 		bl	Hash_df
 582              	.LVL69:
 425:Middlewares/Third_Party/wolfSSL_wolfSSL_wolfSSL/wolfssl/wolfcrypt/src/random.c ****                                     sizeof(drbg->V), NULL, 0) != DRBG_SUCCESS) {
 583              		.loc 1 425 8 view .LVU172
 584 009e 50B9     		cbnz	r0, .L32
 430:Middlewares/Third_Party/wolfSSL_wolfSSL_wolfSSL/wolfssl/wolfcrypt/src/random.c ****     drbg->lastBlock = 0;
 585              		.loc 1 430 5 is_stmt 1 view .LVU173
 430:Middlewares/Third_Party/wolfSSL_wolfSSL_wolfSSL/wolfssl/wolfcrypt/src/random.c ****     drbg->lastBlock = 0;
 586              		.loc 1 430 21 is_stmt 0 view .LVU174
 587 00a0 0123     		movs	r3, #1
 588 00a2 2360     		str	r3, [r4]
 431:Middlewares/Third_Party/wolfSSL_wolfSSL_wolfSSL/wolfssl/wolfcrypt/src/random.c ****     drbg->matchCount = 0;
 589              		.loc 1 431 5 is_stmt 1 view .LVU175
 431:Middlewares/Third_Party/wolfSSL_wolfSSL_wolfSSL/wolfssl/wolfcrypt/src/random.c ****     drbg->matchCount = 0;
 590              		.loc 1 431 21 is_stmt 0 view .LVU176
 591 00a4 0023     		movs	r3, #0
 592 00a6 6360     		str	r3, [r4, #4]
 432:Middlewares/Third_Party/wolfSSL_wolfSSL_wolfSSL/wolfssl/wolfcrypt/src/random.c ****     return DRBG_SUCCESS;
 593              		.loc 1 432 5 is_stmt 1 view .LVU177
 432:Middlewares/Third_Party/wolfSSL_wolfSSL_wolfSSL/wolfssl/wolfcrypt/src/random.c ****     return DRBG_SUCCESS;
 594              		.loc 1 432 22 is_stmt 0 view .LVU178
 595 00a8 84F87630 		strb	r3, [r4, #118]
ARM GAS  /tmp/cc09iKDl.s 			page 31


 433:Middlewares/Third_Party/wolfSSL_wolfSSL_wolfSSL/wolfssl/wolfcrypt/src/random.c **** }
 596              		.loc 1 433 5 is_stmt 1 view .LVU179
 597              	.L26:
 434:Middlewares/Third_Party/wolfSSL_wolfSSL_wolfSSL/wolfssl/wolfcrypt/src/random.c **** 
 598              		.loc 1 434 1 is_stmt 0 view .LVU180
 599 00ac 12B0     		add	sp, sp, #72
 600              	.LCFI5:
 601              		.cfi_remember_state
 602              		.cfi_def_cfa_offset 24
 603              		@ sp needed
 604 00ae BDE8F081 		pop	{r4, r5, r6, r7, r8, pc}
 605              	.LVL70:
 606              	.L31:
 607              	.LCFI6:
 608              		.cfi_restore_state
 419:Middlewares/Third_Party/wolfSSL_wolfSSL_wolfSSL/wolfssl/wolfcrypt/src/random.c ****     }
 609              		.loc 1 419 16 view .LVU181
 610 00b2 0120     		movs	r0, #1
 611 00b4 FAE7     		b	.L26
 612              	.LVL71:
 613              	.L32:
 427:Middlewares/Third_Party/wolfSSL_wolfSSL_wolfSSL/wolfssl/wolfcrypt/src/random.c ****     }
 614              		.loc 1 427 16 view .LVU182
 615 00b6 0120     		movs	r0, #1
 616 00b8 F8E7     		b	.L26
 617              		.cfi_endproc
 618              	.LFE176:
 620              		.section	.text.Hash_DRBG_Instantiate,"ax",%progbits
 621              		.align	1
 622              		.syntax unified
 623              		.thumb
 624              		.thumb_func
 625              		.fpu fpv4-sp-d16
 627              	Hash_DRBG_Instantiate:
 628              	.LVL72:
 629              	.LFB182:
 638:Middlewares/Third_Party/wolfSSL_wolfSSL_wolfSSL/wolfssl/wolfcrypt/src/random.c ****     int ret = DRBG_FAILURE;
 630              		.loc 1 638 1 is_stmt 1 view -0
 631              		.cfi_startproc
 632              		@ args = 12, pretend = 0, frame = 0
 633              		@ frame_needed = 0, uses_anonymous_args = 0
 638:Middlewares/Third_Party/wolfSSL_wolfSSL_wolfSSL/wolfssl/wolfcrypt/src/random.c ****     int ret = DRBG_FAILURE;
 634              		.loc 1 638 1 is_stmt 0 view .LVU184
 635 0000 2DE9F041 		push	{r4, r5, r6, r7, r8, lr}
 636              	.LCFI7:
 637              		.cfi_def_cfa_offset 24
 638              		.cfi_offset 4, -24
 639              		.cfi_offset 5, -20
 640              		.cfi_offset 6, -16
 641              		.cfi_offset 7, -12
 642              		.cfi_offset 8, -8
 643              		.cfi_offset 14, -4
 644 0004 84B0     		sub	sp, sp, #16
 645              	.LCFI8:
 646              		.cfi_def_cfa_offset 40
 647 0006 0446     		mov	r4, r0
 648 0008 0D46     		mov	r5, r1
ARM GAS  /tmp/cc09iKDl.s 			page 32


 649 000a 1646     		mov	r6, r2
 650 000c 1F46     		mov	r7, r3
 639:Middlewares/Third_Party/wolfSSL_wolfSSL_wolfSSL/wolfssl/wolfcrypt/src/random.c **** 
 651              		.loc 1 639 5 is_stmt 1 view .LVU185
 652              	.LVL73:
 641:Middlewares/Third_Party/wolfSSL_wolfSSL_wolfSSL/wolfssl/wolfcrypt/src/random.c **** #if defined(WOLFSSL_ASYNC_CRYPT) || defined(WOLF_CRYPTO_CB)
 653              		.loc 1 641 5 view .LVU186
 654 000e 7822     		movs	r2, #120
 655              	.LVL74:
 641:Middlewares/Third_Party/wolfSSL_wolfSSL_wolfSSL/wolfssl/wolfcrypt/src/random.c **** #if defined(WOLFSSL_ASYNC_CRYPT) || defined(WOLF_CRYPTO_CB)
 656              		.loc 1 641 5 is_stmt 0 view .LVU187
 657 0010 0021     		movs	r1, #0
 658              	.LVL75:
 641:Middlewares/Third_Party/wolfSSL_wolfSSL_wolfSSL/wolfssl/wolfcrypt/src/random.c **** #if defined(WOLFSSL_ASYNC_CRYPT) || defined(WOLF_CRYPTO_CB)
 659              		.loc 1 641 5 view .LVU188
 660 0012 FFF7FEFF 		bl	memset
 661              	.LVL76:
 646:Middlewares/Third_Party/wolfSSL_wolfSSL_wolfSSL/wolfssl/wolfcrypt/src/random.c ****     (void)devId;
 662              		.loc 1 646 5 is_stmt 1 view .LVU189
 647:Middlewares/Third_Party/wolfSSL_wolfSSL_wolfSSL/wolfssl/wolfcrypt/src/random.c **** #endif
 663              		.loc 1 647 5 view .LVU190
 660:Middlewares/Third_Party/wolfSSL_wolfSSL_wolfSSL/wolfssl/wolfcrypt/src/random.c ****                                               nonce, nonceSz) == DRBG_SUCCESS &&
 664              		.loc 1 660 5 view .LVU191
 660:Middlewares/Third_Party/wolfSSL_wolfSSL_wolfSSL/wolfssl/wolfcrypt/src/random.c ****                                               nonce, nonceSz) == DRBG_SUCCESS &&
 665              		.loc 1 660 27 is_stmt 0 view .LVU192
 666 0016 04F10808 		add	r8, r4, #8
 660:Middlewares/Third_Party/wolfSSL_wolfSSL_wolfSSL/wolfssl/wolfcrypt/src/random.c ****                                               nonce, nonceSz) == DRBG_SUCCESS &&
 667              		.loc 1 660 9 view .LVU193
 668 001a 0A9B     		ldr	r3, [sp, #40]
 669 001c 0393     		str	r3, [sp, #12]
 670 001e 0297     		str	r7, [sp, #8]
 671 0020 0196     		str	r6, [sp, #4]
 672 0022 0095     		str	r5, [sp]
 673 0024 0423     		movs	r3, #4
 674 0026 3722     		movs	r2, #55
 675 0028 4146     		mov	r1, r8
 676 002a 2046     		mov	r0, r4
 677 002c FFF7FEFF 		bl	Hash_df
 678              	.LVL77:
 660:Middlewares/Third_Party/wolfSSL_wolfSSL_wolfSSL/wolfssl/wolfcrypt/src/random.c ****                                               nonce, nonceSz) == DRBG_SUCCESS &&
 679              		.loc 1 660 8 view .LVU194
 680 0030 18B1     		cbz	r0, .L39
 639:Middlewares/Third_Party/wolfSSL_wolfSSL_wolfSSL/wolfssl/wolfcrypt/src/random.c **** 
 681              		.loc 1 639 9 view .LVU195
 682 0032 0120     		movs	r0, #1
 683              	.LVL78:
 684              	.L34:
 672:Middlewares/Third_Party/wolfSSL_wolfSSL_wolfSSL/wolfssl/wolfcrypt/src/random.c **** 
 685              		.loc 1 672 1 view .LVU196
 686 0034 04B0     		add	sp, sp, #16
 687              	.LCFI9:
 688              		.cfi_remember_state
 689              		.cfi_def_cfa_offset 24
 690              		@ sp needed
 691 0036 BDE8F081 		pop	{r4, r5, r6, r7, r8, pc}
 692              	.LVL79:
 693              	.L39:
ARM GAS  /tmp/cc09iKDl.s 			page 33


 694              	.LCFI10:
 695              		.cfi_restore_state
 662:Middlewares/Third_Party/wolfSSL_wolfSSL_wolfSSL/wolfssl/wolfcrypt/src/random.c ****                                     sizeof(drbg->V), NULL, 0) == DRBG_SUCCESS) {
 696              		.loc 1 662 9 view .LVU197
 697 003a 0023     		movs	r3, #0
 698 003c 0393     		str	r3, [sp, #12]
 699 003e 0293     		str	r3, [sp, #8]
 700 0040 3722     		movs	r2, #55
 701 0042 0192     		str	r2, [sp, #4]
 702 0044 CDF80080 		str	r8, [sp]
 703 0048 04F13F01 		add	r1, r4, #63
 704 004c 2046     		mov	r0, r4
 705 004e FFF7FEFF 		bl	Hash_df
 706              	.LVL80:
 661:Middlewares/Third_Party/wolfSSL_wolfSSL_wolfSSL/wolfssl/wolfcrypt/src/random.c ****         Hash_df(drbg, drbg->C, sizeof(drbg->C), drbgInitC, drbg->V,
 707              		.loc 1 661 79 view .LVU198
 708 0052 30B9     		cbnz	r0, .L37
 665:Middlewares/Third_Party/wolfSSL_wolfSSL_wolfSSL/wolfssl/wolfcrypt/src/random.c ****         drbg->lastBlock = 0;
 709              		.loc 1 665 9 is_stmt 1 view .LVU199
 665:Middlewares/Third_Party/wolfSSL_wolfSSL_wolfSSL/wolfssl/wolfcrypt/src/random.c ****         drbg->lastBlock = 0;
 710              		.loc 1 665 25 is_stmt 0 view .LVU200
 711 0054 0123     		movs	r3, #1
 712 0056 2360     		str	r3, [r4]
 666:Middlewares/Third_Party/wolfSSL_wolfSSL_wolfSSL/wolfssl/wolfcrypt/src/random.c ****         drbg->matchCount = 0;
 713              		.loc 1 666 9 is_stmt 1 view .LVU201
 666:Middlewares/Third_Party/wolfSSL_wolfSSL_wolfSSL/wolfssl/wolfcrypt/src/random.c ****         drbg->matchCount = 0;
 714              		.loc 1 666 25 is_stmt 0 view .LVU202
 715 0058 0023     		movs	r3, #0
 716 005a 6360     		str	r3, [r4, #4]
 667:Middlewares/Third_Party/wolfSSL_wolfSSL_wolfSSL/wolfssl/wolfcrypt/src/random.c ****         ret = DRBG_SUCCESS;
 717              		.loc 1 667 9 is_stmt 1 view .LVU203
 667:Middlewares/Third_Party/wolfSSL_wolfSSL_wolfSSL/wolfssl/wolfcrypt/src/random.c ****         ret = DRBG_SUCCESS;
 718              		.loc 1 667 26 is_stmt 0 view .LVU204
 719 005c 84F87630 		strb	r3, [r4, #118]
 668:Middlewares/Third_Party/wolfSSL_wolfSSL_wolfSSL/wolfssl/wolfcrypt/src/random.c ****     }
 720              		.loc 1 668 9 is_stmt 1 view .LVU205
 721              	.LVL81:
 668:Middlewares/Third_Party/wolfSSL_wolfSSL_wolfSSL/wolfssl/wolfcrypt/src/random.c ****     }
 722              		.loc 1 668 9 is_stmt 0 view .LVU206
 723 0060 E8E7     		b	.L34
 724              	.LVL82:
 725              	.L37:
 639:Middlewares/Third_Party/wolfSSL_wolfSSL_wolfSSL/wolfssl/wolfcrypt/src/random.c **** 
 726              		.loc 1 639 9 view .LVU207
 727 0062 0120     		movs	r0, #1
 671:Middlewares/Third_Party/wolfSSL_wolfSSL_wolfSSL/wolfssl/wolfcrypt/src/random.c **** }
 728              		.loc 1 671 5 is_stmt 1 view .LVU208
 671:Middlewares/Third_Party/wolfSSL_wolfSSL_wolfSSL/wolfssl/wolfcrypt/src/random.c **** }
 729              		.loc 1 671 12 is_stmt 0 view .LVU209
 730 0064 E6E7     		b	.L34
 731              		.cfi_endproc
 732              	.LFE182:
 734              		.section	.text.Hash_gen,"ax",%progbits
 735              		.align	1
 736              		.syntax unified
 737              		.thumb
 738              		.thumb_func
ARM GAS  /tmp/cc09iKDl.s 			page 34


 739              		.fpu fpv4-sp-d16
 741              	Hash_gen:
 742              	.LVL83:
 743              	.LFB179:
 459:Middlewares/Third_Party/wolfSSL_wolfSSL_wolfSSL/wolfssl/wolfcrypt/src/random.c ****     int ret = DRBG_FAILURE;
 744              		.loc 1 459 1 is_stmt 1 view -0
 745              		.cfi_startproc
 746              		@ args = 0, pretend = 0, frame = 200
 747              		@ frame_needed = 0, uses_anonymous_args = 0
 459:Middlewares/Third_Party/wolfSSL_wolfSSL_wolfSSL/wolfssl/wolfcrypt/src/random.c ****     int ret = DRBG_FAILURE;
 748              		.loc 1 459 1 is_stmt 0 view .LVU211
 749 0000 2DE9F043 		push	{r4, r5, r6, r7, r8, r9, lr}
 750              	.LCFI11:
 751              		.cfi_def_cfa_offset 28
 752              		.cfi_offset 4, -28
 753              		.cfi_offset 5, -24
 754              		.cfi_offset 6, -20
 755              		.cfi_offset 7, -16
 756              		.cfi_offset 8, -12
 757              		.cfi_offset 9, -8
 758              		.cfi_offset 14, -4
 759 0004 B3B0     		sub	sp, sp, #204
 760              	.LCFI12:
 761              		.cfi_def_cfa_offset 232
 762 0006 0546     		mov	r5, r0
 763 0008 0F46     		mov	r7, r1
 460:Middlewares/Third_Party/wolfSSL_wolfSSL_wolfSSL/wolfssl/wolfcrypt/src/random.c ****     byte data[DRBG_SEED_LEN];
 764              		.loc 1 460 5 is_stmt 1 view .LVU212
 765              	.LVL84:
 461:Middlewares/Third_Party/wolfSSL_wolfSSL_wolfSSL/wolfssl/wolfcrypt/src/random.c ****     int i;
 766              		.loc 1 461 5 view .LVU213
 462:Middlewares/Third_Party/wolfSSL_wolfSSL_wolfSSL/wolfssl/wolfcrypt/src/random.c ****     int len;
 767              		.loc 1 462 5 view .LVU214
 463:Middlewares/Third_Party/wolfSSL_wolfSSL_wolfSSL/wolfssl/wolfcrypt/src/random.c ****     word32 checkBlock;
 768              		.loc 1 463 5 view .LVU215
 464:Middlewares/Third_Party/wolfSSL_wolfSSL_wolfSSL/wolfssl/wolfcrypt/src/random.c **** #ifdef WOLFSSL_SMALL_STACK_CACHE
 769              		.loc 1 464 5 view .LVU216
 468:Middlewares/Third_Party/wolfSSL_wolfSSL_wolfSSL/wolfssl/wolfcrypt/src/random.c **** #endif
 770              		.loc 1 468 5 view .LVU217
 475:Middlewares/Third_Party/wolfSSL_wolfSSL_wolfSSL/wolfssl/wolfcrypt/src/random.c **** #endif
 771              		.loc 1 475 5 view .LVU218
 481:Middlewares/Third_Party/wolfSSL_wolfSSL_wolfSSL/wolfssl/wolfcrypt/src/random.c **** 
 772              		.loc 1 481 5 view .LVU219
 481:Middlewares/Third_Party/wolfSSL_wolfSSL_wolfSSL/wolfssl/wolfcrypt/src/random.c **** 
 773              		.loc 1 481 8 is_stmt 0 view .LVU220
 774 000a 9046     		mov	r8, r2
 775 000c 0AB9     		cbnz	r2, .L41
 481:Middlewares/Third_Party/wolfSSL_wolfSSL_wolfSSL/wolfssl/wolfcrypt/src/random.c **** 
 776              		.loc 1 481 27 view .LVU221
 777 000e 4FF00108 		mov	r8, #1
 778              	.L41:
 779              	.LVL85:
 483:Middlewares/Third_Party/wolfSSL_wolfSSL_wolfSSL/wolfssl/wolfcrypt/src/random.c **** 
 780              		.loc 1 483 5 is_stmt 1 view .LVU222
 483:Middlewares/Third_Party/wolfSSL_wolfSSL_wolfSSL/wolfssl/wolfcrypt/src/random.c **** 
 781              		.loc 1 483 18 is_stmt 0 view .LVU223
 782 0012 4FEA5819 		lsr	r9, r8, #5
ARM GAS  /tmp/cc09iKDl.s 			page 35


 483:Middlewares/Third_Party/wolfSSL_wolfSSL_wolfSSL/wolfssl/wolfcrypt/src/random.c **** 
 783              		.loc 1 483 72 view .LVU224
 784 0016 18F01F02 		ands	r2, r8, #31
 785 001a 00D0     		beq	.L42
 786 001c 0122     		movs	r2, #1
 787              	.L42:
 483:Middlewares/Third_Party/wolfSSL_wolfSSL_wolfSSL/wolfssl/wolfcrypt/src/random.c **** 
 788              		.loc 1 483 38 discriminator 4 view .LVU225
 789 001e 9144     		add	r9, r9, r2
 790              	.LVL86:
 485:Middlewares/Third_Party/wolfSSL_wolfSSL_wolfSSL/wolfssl/wolfcrypt/src/random.c ****     for (i = 0; i < len; i++) {
 791              		.loc 1 485 5 is_stmt 1 discriminator 4 view .LVU226
 792 0020 1C46     		mov	r4, r3
 793 0022 0DF1900C 		add	ip, sp, #144
 794 0026 03F1300E 		add	lr, r3, #48
 795              	.LVL87:
 796              	.L43:
 485:Middlewares/Third_Party/wolfSSL_wolfSSL_wolfSSL/wolfssl/wolfcrypt/src/random.c ****     for (i = 0; i < len; i++) {
 797              		.loc 1 485 5 is_stmt 0 discriminator 4 view .LVU227
 798 002a 6646     		mov	r6, ip
 799 002c 2068     		ldr	r0, [r4]	@ unaligned
 800 002e 6168     		ldr	r1, [r4, #4]	@ unaligned
 801 0030 A268     		ldr	r2, [r4, #8]	@ unaligned
 802 0032 E368     		ldr	r3, [r4, #12]	@ unaligned
 803 0034 0FC6     		stmia	r6!, {r0, r1, r2, r3}
 804 0036 1034     		adds	r4, r4, #16
 805 0038 B446     		mov	ip, r6
 806 003a 7445     		cmp	r4, lr
 807 003c F5D1     		bne	.L43
 808 003e 2068     		ldr	r0, [r4]	@ unaligned
 809 0040 3060     		str	r0, [r6]
 810 0042 A288     		ldrh	r2, [r4, #4]	@ unaligned
 811 0044 A379     		ldrb	r3, [r4, #6]	@ zero_extendqisi2
 812 0046 B280     		strh	r2, [r6, #4]	@ unaligned
 813 0048 B371     		strb	r3, [r6, #6]
 486:Middlewares/Third_Party/wolfSSL_wolfSSL_wolfSSL/wolfssl/wolfcrypt/src/random.c **** #ifndef WOLFSSL_SMALL_STACK_CACHE
 814              		.loc 1 486 5 is_stmt 1 discriminator 4 view .LVU228
 815              	.LVL88:
 486:Middlewares/Third_Party/wolfSSL_wolfSSL_wolfSSL/wolfssl/wolfcrypt/src/random.c **** #ifndef WOLFSSL_SMALL_STACK_CACHE
 816              		.loc 1 486 12 is_stmt 0 discriminator 4 view .LVU229
 817 004a 0026     		movs	r6, #0
 460:Middlewares/Third_Party/wolfSSL_wolfSSL_wolfSSL/wolfssl/wolfcrypt/src/random.c ****     byte data[DRBG_SEED_LEN];
 818              		.loc 1 460 9 discriminator 4 view .LVU230
 819 004c 0124     		movs	r4, #1
 486:Middlewares/Third_Party/wolfSSL_wolfSSL_wolfSSL/wolfssl/wolfcrypt/src/random.c **** #ifndef WOLFSSL_SMALL_STACK_CACHE
 820              		.loc 1 486 5 discriminator 4 view .LVU231
 821 004e 37E0     		b	.L44
 822              	.LVL89:
 823              	.L63:
 495:Middlewares/Third_Party/wolfSSL_wolfSSL_wolfSSL/wolfssl/wolfcrypt/src/random.c ****         if (ret == 0)
 824              		.loc 1 495 13 is_stmt 1 view .LVU232
 495:Middlewares/Third_Party/wolfSSL_wolfSSL_wolfSSL/wolfssl/wolfcrypt/src/random.c ****         if (ret == 0)
 825              		.loc 1 495 19 is_stmt 0 view .LVU233
 826 0050 3722     		movs	r2, #55
 827 0052 24A9     		add	r1, sp, #144
 828 0054 08A8     		add	r0, sp, #32
 829              	.LVL90:
ARM GAS  /tmp/cc09iKDl.s 			page 36


 495:Middlewares/Third_Party/wolfSSL_wolfSSL_wolfSSL/wolfssl/wolfcrypt/src/random.c ****         if (ret == 0)
 830              		.loc 1 495 19 view .LVU234
 831 0056 FFF7FEFF 		bl	wc_Sha256Update
 832              	.LVL91:
 833 005a 0446     		mov	r4, r0
 834              	.LVL92:
 495:Middlewares/Third_Party/wolfSSL_wolfSSL_wolfSSL/wolfssl/wolfcrypt/src/random.c ****         if (ret == 0)
 835              		.loc 1 495 19 view .LVU235
 836 005c 38E0     		b	.L45
 837              	.L64:
 497:Middlewares/Third_Party/wolfSSL_wolfSSL_wolfSSL/wolfssl/wolfcrypt/src/random.c **** #ifndef WOLFSSL_SMALL_STACK_CACHE
 838              		.loc 1 497 13 is_stmt 1 view .LVU236
 497:Middlewares/Third_Party/wolfSSL_wolfSSL_wolfSSL/wolfssl/wolfcrypt/src/random.c **** #ifndef WOLFSSL_SMALL_STACK_CACHE
 839              		.loc 1 497 19 is_stmt 0 view .LVU237
 840 005e 6946     		mov	r1, sp
 841 0060 08A8     		add	r0, sp, #32
 842              	.LVL93:
 497:Middlewares/Third_Party/wolfSSL_wolfSSL_wolfSSL/wolfssl/wolfcrypt/src/random.c **** #ifndef WOLFSSL_SMALL_STACK_CACHE
 843              		.loc 1 497 19 view .LVU238
 844 0062 FFF7FEFF 		bl	wc_Sha256Final
 845              	.LVL94:
 846 0066 0446     		mov	r4, r0
 847              	.LVL95:
 497:Middlewares/Third_Party/wolfSSL_wolfSSL_wolfSSL/wolfssl/wolfcrypt/src/random.c **** #ifndef WOLFSSL_SMALL_STACK_CACHE
 848              		.loc 1 497 19 view .LVU239
 849 0068 34E0     		b	.L46
 850              	.LVL96:
 851              	.L65:
 505:Middlewares/Third_Party/wolfSSL_wolfSSL_wolfSSL/wolfssl/wolfcrypt/src/random.c ****                     return DRBG_CONT_FAILURE;
 852              		.loc 1 505 17 is_stmt 1 view .LVU240
 505:Middlewares/Third_Party/wolfSSL_wolfSSL_wolfSSL/wolfssl/wolfcrypt/src/random.c ****                     return DRBG_CONT_FAILURE;
 853              		.loc 1 505 25 is_stmt 0 view .LVU241
 854 006a 95F87630 		ldrb	r3, [r5, #118]	@ zero_extendqisi2
 855              	.LVL97:
 505:Middlewares/Third_Party/wolfSSL_wolfSSL_wolfSSL/wolfssl/wolfcrypt/src/random.c ****                     return DRBG_CONT_FAILURE;
 856              		.loc 1 505 20 view .LVU242
 857 006e 012B     		cmp	r3, #1
 858 0070 5ED0     		beq	.L60
 509:Middlewares/Third_Party/wolfSSL_wolfSSL_wolfSSL/wolfssl/wolfcrypt/src/random.c ****                         len++;
 859              		.loc 1 509 21 is_stmt 1 view .LVU243
 509:Middlewares/Third_Party/wolfSSL_wolfSSL_wolfSSL/wolfssl/wolfcrypt/src/random.c ****                         len++;
 860              		.loc 1 509 34 is_stmt 0 view .LVU244
 861 0072 09F1FF33 		add	r3, r9, #-1
 509:Middlewares/Third_Party/wolfSSL_wolfSSL_wolfSSL/wolfssl/wolfcrypt/src/random.c ****                         len++;
 862              		.loc 1 509 24 view .LVU245
 863 0076 B342     		cmp	r3, r6
 864 0078 03D0     		beq	.L62
 865              	.L50:
 512:Middlewares/Third_Party/wolfSSL_wolfSSL_wolfSSL/wolfssl/wolfcrypt/src/random.c ****                 }
 866              		.loc 1 512 21 is_stmt 1 view .LVU246
 512:Middlewares/Third_Party/wolfSSL_wolfSSL_wolfSSL/wolfssl/wolfcrypt/src/random.c ****                 }
 867              		.loc 1 512 38 is_stmt 0 view .LVU247
 868 007a 0123     		movs	r3, #1
 869 007c 85F87630 		strb	r3, [r5, #118]
 505:Middlewares/Third_Party/wolfSSL_wolfSSL_wolfSSL/wolfssl/wolfcrypt/src/random.c ****                     return DRBG_CONT_FAILURE;
 870              		.loc 1 505 20 view .LVU248
 871 0080 37E0     		b	.L51
ARM GAS  /tmp/cc09iKDl.s 			page 37


 872              	.L62:
 510:Middlewares/Third_Party/wolfSSL_wolfSSL_wolfSSL/wolfssl/wolfcrypt/src/random.c ****                     }
 873              		.loc 1 510 25 is_stmt 1 view .LVU249
 510:Middlewares/Third_Party/wolfSSL_wolfSSL_wolfSSL/wolfssl/wolfcrypt/src/random.c ****                     }
 874              		.loc 1 510 28 is_stmt 0 view .LVU250
 875 0082 09F10109 		add	r9, r9, #1
 876              	.LVL98:
 510:Middlewares/Third_Party/wolfSSL_wolfSSL_wolfSSL/wolfssl/wolfcrypt/src/random.c ****                     }
 877              		.loc 1 510 28 view .LVU251
 878 0086 F8E7     		b	.L50
 879              	.L66:
 522:Middlewares/Third_Party/wolfSSL_wolfSSL_wolfSSL/wolfssl/wolfcrypt/src/random.c ****                     outSz -= OUTPUT_BLOCK_LEN;
 880              		.loc 1 522 21 is_stmt 1 view .LVU252
 881 0088 EC46     		mov	ip, sp
 882 008a BCE80F00 		ldmia	ip!, {r0, r1, r2, r3}
 883 008e 3860     		str	r0, [r7]	@ unaligned
 884              	.LVL99:
 522:Middlewares/Third_Party/wolfSSL_wolfSSL_wolfSSL/wolfssl/wolfcrypt/src/random.c ****                     outSz -= OUTPUT_BLOCK_LEN;
 885              		.loc 1 522 21 is_stmt 0 view .LVU253
 886 0090 7960     		str	r1, [r7, #4]	@ unaligned
 887 0092 BA60     		str	r2, [r7, #8]	@ unaligned
 888 0094 FB60     		str	r3, [r7, #12]	@ unaligned
 889 0096 BCE80F00 		ldmia	ip!, {r0, r1, r2, r3}
 890 009a 3861     		str	r0, [r7, #16]	@ unaligned
 891 009c 7961     		str	r1, [r7, #20]	@ unaligned
 892 009e BA61     		str	r2, [r7, #24]	@ unaligned
 893 00a0 FB61     		str	r3, [r7, #28]	@ unaligned
 523:Middlewares/Third_Party/wolfSSL_wolfSSL_wolfSSL/wolfssl/wolfcrypt/src/random.c ****                     out += OUTPUT_BLOCK_LEN;
 894              		.loc 1 523 21 is_stmt 1 view .LVU254
 523:Middlewares/Third_Party/wolfSSL_wolfSSL_wolfSSL/wolfssl/wolfcrypt/src/random.c ****                     out += OUTPUT_BLOCK_LEN;
 895              		.loc 1 523 27 is_stmt 0 view .LVU255
 896 00a2 A8F12008 		sub	r8, r8, #32
 897              	.LVL100:
 524:Middlewares/Third_Party/wolfSSL_wolfSSL_wolfSSL/wolfssl/wolfcrypt/src/random.c ****                     array_add_one(data, DRBG_SEED_LEN);
 898              		.loc 1 524 21 is_stmt 1 view .LVU256
 524:Middlewares/Third_Party/wolfSSL_wolfSSL_wolfSSL/wolfssl/wolfcrypt/src/random.c ****                     array_add_one(data, DRBG_SEED_LEN);
 899              		.loc 1 524 25 is_stmt 0 view .LVU257
 900 00a6 2037     		adds	r7, r7, #32
 901              	.LVL101:
 525:Middlewares/Third_Party/wolfSSL_wolfSSL_wolfSSL/wolfssl/wolfcrypt/src/random.c ****                 }
 902              		.loc 1 525 21 is_stmt 1 view .LVU258
 903              	.LBB58:
 904              	.LBI58:
 446:Middlewares/Third_Party/wolfSSL_wolfSSL_wolfSSL/wolfssl/wolfcrypt/src/random.c **** {
 905              		.loc 1 446 23 view .LVU259
 906              	.LBB59:
 448:Middlewares/Third_Party/wolfSSL_wolfSSL_wolfSSL/wolfssl/wolfcrypt/src/random.c **** 
 907              		.loc 1 448 5 view .LVU260
 450:Middlewares/Third_Party/wolfSSL_wolfSSL_wolfSSL/wolfssl/wolfcrypt/src/random.c ****     {
 908              		.loc 1 450 5 view .LVU261
 450:Middlewares/Third_Party/wolfSSL_wolfSSL_wolfSSL/wolfssl/wolfcrypt/src/random.c ****     {
 909              		.loc 1 450 12 is_stmt 0 view .LVU262
 910 00a8 3622     		movs	r2, #54
 911              	.LVL102:
 912              	.L54:
 450:Middlewares/Third_Party/wolfSSL_wolfSSL_wolfSSL/wolfssl/wolfcrypt/src/random.c ****     {
 913              		.loc 1 450 26 is_stmt 1 view .LVU263
ARM GAS  /tmp/cc09iKDl.s 			page 38


 450:Middlewares/Third_Party/wolfSSL_wolfSSL_wolfSSL/wolfssl/wolfcrypt/src/random.c ****     {
 914              		.loc 1 450 5 is_stmt 0 view .LVU264
 915 00aa 002A     		cmp	r2, #0
 916 00ac 07DB     		blt	.L52
 452:Middlewares/Third_Party/wolfSSL_wolfSSL_wolfSSL/wolfssl/wolfcrypt/src/random.c ****         if (data[i] != 0) break;
 917              		.loc 1 452 9 is_stmt 1 view .LVU265
 452:Middlewares/Third_Party/wolfSSL_wolfSSL_wolfSSL/wolfssl/wolfcrypt/src/random.c ****         if (data[i] != 0) break;
 918              		.loc 1 452 13 is_stmt 0 view .LVU266
 919 00ae 24A9     		add	r1, sp, #144
 920              	.LVL103:
 452:Middlewares/Third_Party/wolfSSL_wolfSSL_wolfSSL/wolfssl/wolfcrypt/src/random.c ****         if (data[i] != 0) break;
 921              		.loc 1 452 13 view .LVU267
 922 00b0 8B5C     		ldrb	r3, [r1, r2]	@ zero_extendqisi2
 452:Middlewares/Third_Party/wolfSSL_wolfSSL_wolfSSL/wolfssl/wolfcrypt/src/random.c ****         if (data[i] != 0) break;
 923              		.loc 1 452 16 view .LVU268
 924 00b2 0133     		adds	r3, r3, #1
 925 00b4 DBB2     		uxtb	r3, r3
 926 00b6 8B54     		strb	r3, [r1, r2]
 453:Middlewares/Third_Party/wolfSSL_wolfSSL_wolfSSL/wolfssl/wolfcrypt/src/random.c ****     }
 927              		.loc 1 453 9 is_stmt 1 view .LVU269
 453:Middlewares/Third_Party/wolfSSL_wolfSSL_wolfSSL/wolfssl/wolfcrypt/src/random.c ****     }
 928              		.loc 1 453 12 is_stmt 0 view .LVU270
 929 00b8 0BB9     		cbnz	r3, .L52
 450:Middlewares/Third_Party/wolfSSL_wolfSSL_wolfSSL/wolfssl/wolfcrypt/src/random.c ****     {
 930              		.loc 1 450 34 is_stmt 1 view .LVU271
 450:Middlewares/Third_Party/wolfSSL_wolfSSL_wolfSSL/wolfssl/wolfcrypt/src/random.c ****     {
 931              		.loc 1 450 35 is_stmt 0 view .LVU272
 932 00ba 013A     		subs	r2, r2, #1
 933              	.LVL104:
 450:Middlewares/Third_Party/wolfSSL_wolfSSL_wolfSSL/wolfssl/wolfcrypt/src/random.c ****     {
 934              		.loc 1 450 35 view .LVU273
 935 00bc F5E7     		b	.L54
 936              	.LVL105:
 937              	.L52:
 450:Middlewares/Third_Party/wolfSSL_wolfSSL_wolfSSL/wolfssl/wolfcrypt/src/random.c ****     {
 938              		.loc 1 450 35 view .LVU274
 939              	.LBE59:
 940              	.LBE58:
 486:Middlewares/Third_Party/wolfSSL_wolfSSL_wolfSSL/wolfssl/wolfcrypt/src/random.c **** #ifndef WOLFSSL_SMALL_STACK_CACHE
 941              		.loc 1 486 26 is_stmt 1 discriminator 2 view .LVU275
 486:Middlewares/Third_Party/wolfSSL_wolfSSL_wolfSSL/wolfssl/wolfcrypt/src/random.c **** #ifndef WOLFSSL_SMALL_STACK_CACHE
 942              		.loc 1 486 27 is_stmt 0 discriminator 2 view .LVU276
 943 00be 0136     		adds	r6, r6, #1
 944              	.LVL106:
 945              	.L44:
 486:Middlewares/Third_Party/wolfSSL_wolfSSL_wolfSSL/wolfssl/wolfcrypt/src/random.c **** #ifndef WOLFSSL_SMALL_STACK_CACHE
 946              		.loc 1 486 17 is_stmt 1 discriminator 1 view .LVU277
 486:Middlewares/Third_Party/wolfSSL_wolfSSL_wolfSSL/wolfssl/wolfcrypt/src/random.c **** #ifndef WOLFSSL_SMALL_STACK_CACHE
 947              		.loc 1 486 5 is_stmt 0 discriminator 1 view .LVU278
 948 00c0 4E45     		cmp	r6, r9
 949 00c2 26DA     		bge	.L47
 491:Middlewares/Third_Party/wolfSSL_wolfSSL_wolfSSL/wolfssl/wolfcrypt/src/random.c ****     #endif
 950              		.loc 1 491 9 is_stmt 1 view .LVU279
 491:Middlewares/Third_Party/wolfSSL_wolfSSL_wolfSSL/wolfssl/wolfcrypt/src/random.c ****     #endif
 951              		.loc 1 491 15 is_stmt 0 view .LVU280
 952 00c4 08A8     		add	r0, sp, #32
 953 00c6 FFF7FEFF 		bl	wc_InitSha256
ARM GAS  /tmp/cc09iKDl.s 			page 39


 954              	.LVL107:
 493:Middlewares/Third_Party/wolfSSL_wolfSSL_wolfSSL/wolfssl/wolfcrypt/src/random.c **** #endif
 955              		.loc 1 493 9 is_stmt 1 view .LVU281
 493:Middlewares/Third_Party/wolfSSL_wolfSSL_wolfSSL/wolfssl/wolfcrypt/src/random.c **** #endif
 956              		.loc 1 493 12 is_stmt 0 view .LVU282
 957 00ca 0446     		mov	r4, r0
 958 00cc 0028     		cmp	r0, #0
 959 00ce BFD0     		beq	.L63
 960              	.L45:
 496:Middlewares/Third_Party/wolfSSL_wolfSSL_wolfSSL/wolfssl/wolfcrypt/src/random.c ****             ret = wc_Sha256Final(sha, digest);
 961              		.loc 1 496 9 is_stmt 1 view .LVU283
 496:Middlewares/Third_Party/wolfSSL_wolfSSL_wolfSSL/wolfssl/wolfcrypt/src/random.c ****             ret = wc_Sha256Final(sha, digest);
 962              		.loc 1 496 12 is_stmt 0 view .LVU284
 963 00d0 002C     		cmp	r4, #0
 964 00d2 C4D0     		beq	.L64
 965              	.L46:
 499:Middlewares/Third_Party/wolfSSL_wolfSSL_wolfSSL/wolfssl/wolfcrypt/src/random.c **** #endif
 966              		.loc 1 499 9 is_stmt 1 view .LVU285
 967 00d4 08A8     		add	r0, sp, #32
 968              	.LVL108:
 499:Middlewares/Third_Party/wolfSSL_wolfSSL_wolfSSL/wolfssl/wolfcrypt/src/random.c **** #endif
 969              		.loc 1 499 9 is_stmt 0 view .LVU286
 970 00d6 FFF7FEFF 		bl	wc_Sha256Free
 971              	.LVL109:
 502:Middlewares/Third_Party/wolfSSL_wolfSSL_wolfSSL/wolfssl/wolfcrypt/src/random.c ****             XMEMCPY(&checkBlock, digest, sizeof(word32));
 972              		.loc 1 502 9 is_stmt 1 view .LVU287
 502:Middlewares/Third_Party/wolfSSL_wolfSSL_wolfSSL/wolfssl/wolfcrypt/src/random.c ****             XMEMCPY(&checkBlock, digest, sizeof(word32));
 973              		.loc 1 502 12 is_stmt 0 view .LVU288
 974 00da D4B9     		cbnz	r4, .L47
 503:Middlewares/Third_Party/wolfSSL_wolfSSL_wolfSSL/wolfssl/wolfcrypt/src/random.c ****             if (drbg->reseedCtr > 1 && checkBlock == drbg->lastBlock) {
 975              		.loc 1 503 13 is_stmt 1 view .LVU289
 976 00dc 009B     		ldr	r3, [sp]
 977              	.LVL110:
 504:Middlewares/Third_Party/wolfSSL_wolfSSL_wolfSSL/wolfssl/wolfcrypt/src/random.c ****                 if (drbg->matchCount == 1) {
 978              		.loc 1 504 13 view .LVU290
 504:Middlewares/Third_Party/wolfSSL_wolfSSL_wolfSSL/wolfssl/wolfcrypt/src/random.c ****                 if (drbg->matchCount == 1) {
 979              		.loc 1 504 21 is_stmt 0 view .LVU291
 980 00de 2A68     		ldr	r2, [r5]
 504:Middlewares/Third_Party/wolfSSL_wolfSSL_wolfSSL/wolfssl/wolfcrypt/src/random.c ****                 if (drbg->matchCount == 1) {
 981              		.loc 1 504 16 view .LVU292
 982 00e0 012A     		cmp	r2, #1
 983 00e2 02D9     		bls	.L48
 504:Middlewares/Third_Party/wolfSSL_wolfSSL_wolfSSL/wolfssl/wolfcrypt/src/random.c ****                 if (drbg->matchCount == 1) {
 984              		.loc 1 504 58 discriminator 1 view .LVU293
 985 00e4 6A68     		ldr	r2, [r5, #4]
 504:Middlewares/Third_Party/wolfSSL_wolfSSL_wolfSSL/wolfssl/wolfcrypt/src/random.c ****                 if (drbg->matchCount == 1) {
 986              		.loc 1 504 37 discriminator 1 view .LVU294
 987 00e6 9A42     		cmp	r2, r3
 988 00e8 BFD0     		beq	.L65
 989              	.L48:
 516:Middlewares/Third_Party/wolfSSL_wolfSSL_wolfSSL/wolfssl/wolfcrypt/src/random.c ****                 drbg->lastBlock = checkBlock;
 990              		.loc 1 516 17 is_stmt 1 view .LVU295
 516:Middlewares/Third_Party/wolfSSL_wolfSSL_wolfSSL/wolfssl/wolfcrypt/src/random.c ****                 drbg->lastBlock = checkBlock;
 991              		.loc 1 516 34 is_stmt 0 view .LVU296
 992 00ea 0022     		movs	r2, #0
 993 00ec 85F87620 		strb	r2, [r5, #118]
 517:Middlewares/Third_Party/wolfSSL_wolfSSL_wolfSSL/wolfssl/wolfcrypt/src/random.c ****             }
ARM GAS  /tmp/cc09iKDl.s 			page 40


 994              		.loc 1 517 17 is_stmt 1 view .LVU297
 517:Middlewares/Third_Party/wolfSSL_wolfSSL_wolfSSL/wolfssl/wolfcrypt/src/random.c ****             }
 995              		.loc 1 517 33 is_stmt 0 view .LVU298
 996 00f0 6B60     		str	r3, [r5, #4]
 997              	.LVL111:
 998              	.L51:
 520:Middlewares/Third_Party/wolfSSL_wolfSSL_wolfSSL/wolfssl/wolfcrypt/src/random.c ****                 if (outSz >= OUTPUT_BLOCK_LEN) {
 999              		.loc 1 520 13 is_stmt 1 view .LVU299
 520:Middlewares/Third_Party/wolfSSL_wolfSSL_wolfSSL/wolfssl/wolfcrypt/src/random.c ****                 if (outSz >= OUTPUT_BLOCK_LEN) {
 1000              		.loc 1 520 16 is_stmt 0 view .LVU300
 1001 00f2 002F     		cmp	r7, #0
 1002 00f4 E3D0     		beq	.L52
 520:Middlewares/Third_Party/wolfSSL_wolfSSL_wolfSSL/wolfssl/wolfcrypt/src/random.c ****                 if (outSz >= OUTPUT_BLOCK_LEN) {
 1003              		.loc 1 520 29 discriminator 1 view .LVU301
 1004 00f6 B8F1000F 		cmp	r8, #0
 1005 00fa E0D0     		beq	.L52
 521:Middlewares/Third_Party/wolfSSL_wolfSSL_wolfSSL/wolfssl/wolfcrypt/src/random.c ****                     XMEMCPY(out, digest, OUTPUT_BLOCK_LEN);
 1006              		.loc 1 521 17 is_stmt 1 view .LVU302
 521:Middlewares/Third_Party/wolfSSL_wolfSSL_wolfSSL/wolfssl/wolfcrypt/src/random.c ****                     XMEMCPY(out, digest, OUTPUT_BLOCK_LEN);
 1007              		.loc 1 521 20 is_stmt 0 view .LVU303
 1008 00fc B8F11F0F 		cmp	r8, #31
 1009 0100 C2D8     		bhi	.L66
 528:Middlewares/Third_Party/wolfSSL_wolfSSL_wolfSSL/wolfssl/wolfcrypt/src/random.c ****                     outSz = 0;
 1010              		.loc 1 528 21 is_stmt 1 view .LVU304
 1011 0102 4246     		mov	r2, r8
 1012 0104 6946     		mov	r1, sp
 1013 0106 3846     		mov	r0, r7
 1014 0108 FFF7FEFF 		bl	memcpy
 1015              	.LVL112:
 529:Middlewares/Third_Party/wolfSSL_wolfSSL_wolfSSL/wolfssl/wolfcrypt/src/random.c ****                 }
 1016              		.loc 1 529 21 view .LVU305
 529:Middlewares/Third_Party/wolfSSL_wolfSSL_wolfSSL/wolfssl/wolfcrypt/src/random.c ****                 }
 1017              		.loc 1 529 27 is_stmt 0 view .LVU306
 1018 010c 4FF00008 		mov	r8, #0
 1019 0110 D5E7     		b	.L52
 1020              	.LVL113:
 1021              	.L47:
 538:Middlewares/Third_Party/wolfSSL_wolfSSL_wolfSSL/wolfssl/wolfcrypt/src/random.c **** 
 1022              		.loc 1 538 5 is_stmt 1 view .LVU307
 1023              	.LBB60:
 1024              	.LBI60:
 272:Middlewares/Third_Party/wolfSSL_wolfSSL_wolfSSL/wolfssl/wolfcrypt/src/misc.c **** {
 1025              		.loc 2 272 26 view .LVU308
 1026              	.LBB61:
 274:Middlewares/Third_Party/wolfSSL_wolfSSL_wolfSSL/wolfssl/wolfcrypt/src/misc.c **** 
 1027              		.loc 2 274 5 view .LVU309
 1028              		.loc 2 292 5 view .LVU310
 274:Middlewares/Third_Party/wolfSSL_wolfSSL_wolfSSL/wolfssl/wolfcrypt/src/misc.c **** 
 1029              		.loc 2 274 20 is_stmt 0 view .LVU311
 1030 0112 24AB     		add	r3, sp, #144
 1031              	.LVL114:
 1032              		.loc 2 292 11 view .LVU312
 1033 0114 3722     		movs	r2, #55
 1034              	.LVL115:
 1035              	.L57:
 1036              		.loc 2 292 11 is_stmt 1 view .LVU313
 1037              		.loc 2 292 15 is_stmt 0 view .LVU314
ARM GAS  /tmp/cc09iKDl.s 			page 41


 1038 0116 511E     		subs	r1, r2, #1
 1039              	.LVL116:
 1040              		.loc 2 292 11 view .LVU315
 1041 0118 22B1     		cbz	r2, .L67
 1042              		.loc 2 292 19 is_stmt 1 view .LVU316
 1043              	.LVL117:
 1044              		.loc 2 292 24 is_stmt 0 view .LVU317
 1045 011a 0022     		movs	r2, #0
 1046 011c 03F8012B 		strb	r2, [r3], #1
 1047              	.LVL118:
 1048              		.loc 2 292 15 view .LVU318
 1049 0120 0A46     		mov	r2, r1
 1050 0122 F8E7     		b	.L57
 1051              	.L67:
 1052              	.LVL119:
 1053              		.loc 2 292 15 view .LVU319
 1054              	.LBE61:
 1055              	.LBE60:
 544:Middlewares/Third_Party/wolfSSL_wolfSSL_wolfSSL/wolfssl/wolfcrypt/src/random.c **** }
 1056              		.loc 1 544 5 is_stmt 1 view .LVU320
 544:Middlewares/Third_Party/wolfSSL_wolfSSL_wolfSSL/wolfssl/wolfcrypt/src/random.c **** }
 1057              		.loc 1 544 38 is_stmt 0 view .LVU321
 1058 0124 201E     		subs	r0, r4, #0
 1059 0126 18BF     		it	ne
 1060 0128 0120     		movne	r0, #1
 1061              	.L40:
 545:Middlewares/Third_Party/wolfSSL_wolfSSL_wolfSSL/wolfssl/wolfcrypt/src/random.c **** 
 1062              		.loc 1 545 1 view .LVU322
 1063 012a 33B0     		add	sp, sp, #204
 1064              	.LCFI13:
 1065              		.cfi_remember_state
 1066              		.cfi_def_cfa_offset 28
 1067              		@ sp needed
 1068 012c BDE8F083 		pop	{r4, r5, r6, r7, r8, r9, pc}
 1069              	.LVL120:
 1070              	.L60:
 1071              	.LCFI14:
 1072              		.cfi_restore_state
 506:Middlewares/Third_Party/wolfSSL_wolfSSL_wolfSSL/wolfssl/wolfcrypt/src/random.c ****                 }
 1073              		.loc 1 506 28 view .LVU323
 1074 0130 0320     		movs	r0, #3
 1075 0132 FAE7     		b	.L40
 1076              		.cfi_endproc
 1077              	.LFE179:
 1079              		.section	.text.Hash_DRBG_Generate,"ax",%progbits
 1080              		.align	1
 1081              		.syntax unified
 1082              		.thumb
 1083              		.thumb_func
 1084              		.fpu fpv4-sp-d16
 1086              	Hash_DRBG_Generate:
 1087              	.LVL121:
 1088              	.LFB181:
 570:Middlewares/Third_Party/wolfSSL_wolfSSL_wolfSSL/wolfssl/wolfcrypt/src/random.c ****     int ret;
 1089              		.loc 1 570 1 is_stmt 1 view -0
 1090              		.cfi_startproc
 1091              		@ args = 0, pretend = 0, frame = 152
ARM GAS  /tmp/cc09iKDl.s 			page 42


 1092              		@ frame_needed = 0, uses_anonymous_args = 0
 570:Middlewares/Third_Party/wolfSSL_wolfSSL_wolfSSL/wolfssl/wolfcrypt/src/random.c ****     int ret;
 1093              		.loc 1 570 1 is_stmt 0 view .LVU325
 1094 0000 70B5     		push	{r4, r5, r6, lr}
 1095              	.LCFI15:
 1096              		.cfi_def_cfa_offset 16
 1097              		.cfi_offset 4, -16
 1098              		.cfi_offset 5, -12
 1099              		.cfi_offset 6, -8
 1100              		.cfi_offset 14, -4
 1101 0002 A6B0     		sub	sp, sp, #152
 1102              	.LCFI16:
 1103              		.cfi_def_cfa_offset 168
 1104 0004 0646     		mov	r6, r0
 571:Middlewares/Third_Party/wolfSSL_wolfSSL_wolfSSL/wolfssl/wolfcrypt/src/random.c **** #ifdef WOLFSSL_SMALL_STACK_CACHE
 1105              		.loc 1 571 5 is_stmt 1 view .LVU326
 575:Middlewares/Third_Party/wolfSSL_wolfSSL_wolfSSL/wolfssl/wolfcrypt/src/random.c **** #endif
 1106              		.loc 1 575 5 view .LVU327
 577:Middlewares/Third_Party/wolfSSL_wolfSSL_wolfSSL/wolfssl/wolfcrypt/src/random.c ****     word32 reseedCtr;
 1107              		.loc 1 577 5 view .LVU328
 578:Middlewares/Third_Party/wolfSSL_wolfSSL_wolfSSL/wolfssl/wolfcrypt/src/random.c **** 
 1108              		.loc 1 578 5 view .LVU329
 580:Middlewares/Third_Party/wolfSSL_wolfSSL_wolfSSL/wolfssl/wolfcrypt/src/random.c ****         return DRBG_NEED_RESEED;
 1109              		.loc 1 580 5 view .LVU330
 580:Middlewares/Third_Party/wolfSSL_wolfSSL_wolfSSL/wolfssl/wolfcrypt/src/random.c ****         return DRBG_NEED_RESEED;
 1110              		.loc 1 580 13 is_stmt 0 view .LVU331
 1111 0006 0068     		ldr	r0, [r0]
 1112              	.LVL122:
 580:Middlewares/Third_Party/wolfSSL_wolfSSL_wolfSSL/wolfssl/wolfcrypt/src/random.c ****         return DRBG_NEED_RESEED;
 1113              		.loc 1 580 8 view .LVU332
 1114 0008 544B     		ldr	r3, .L99
 1115 000a 9842     		cmp	r0, r3
 1116 000c 00F0A380 		beq	.L91
 1117              	.LBB78:
 588:Middlewares/Third_Party/wolfSSL_wolfSSL_wolfSSL/wolfssl/wolfcrypt/src/random.c ****     #endif
 1118              		.loc 1 588 9 is_stmt 1 view .LVU333
 590:Middlewares/Third_Party/wolfSSL_wolfSSL_wolfSSL/wolfssl/wolfcrypt/src/random.c ****         reseedCtr = drbg->reseedCtr;
 1119              		.loc 1 590 9 view .LVU334
 590:Middlewares/Third_Party/wolfSSL_wolfSSL_wolfSSL/wolfssl/wolfcrypt/src/random.c ****         reseedCtr = drbg->reseedCtr;
 1120              		.loc 1 590 14 is_stmt 0 view .LVU335
 1121 0010 0323     		movs	r3, #3
 1122 0012 8DF82730 		strb	r3, [sp, #39]
 591:Middlewares/Third_Party/wolfSSL_wolfSSL_wolfSSL/wolfssl/wolfcrypt/src/random.c **** 
 1123              		.loc 1 591 9 is_stmt 1 view .LVU336
 591:Middlewares/Third_Party/wolfSSL_wolfSSL_wolfSSL/wolfssl/wolfcrypt/src/random.c **** 
 1124              		.loc 1 591 25 is_stmt 0 view .LVU337
 1125 0016 3446     		mov	r4, r6
 1126 0018 54F8083B 		ldr	r3, [r4], #8
 591:Middlewares/Third_Party/wolfSSL_wolfSSL_wolfSSL/wolfssl/wolfcrypt/src/random.c **** 
 1127              		.loc 1 591 19 view .LVU338
 1128 001c 0893     		str	r3, [sp, #32]
 593:Middlewares/Third_Party/wolfSSL_wolfSSL_wolfSSL/wolfssl/wolfcrypt/src/random.c ****         if (ret == DRBG_SUCCESS) {
 1129              		.loc 1 593 9 is_stmt 1 view .LVU339
 593:Middlewares/Third_Party/wolfSSL_wolfSSL_wolfSSL/wolfssl/wolfcrypt/src/random.c ****         if (ret == DRBG_SUCCESS) {
 1130              		.loc 1 593 15 is_stmt 0 view .LVU340
 1131 001e 2346     		mov	r3, r4
 1132 0020 3046     		mov	r0, r6
ARM GAS  /tmp/cc09iKDl.s 			page 43


 1133 0022 FFF7FEFF 		bl	Hash_gen
 1134              	.LVL123:
 594:Middlewares/Third_Party/wolfSSL_wolfSSL_wolfSSL/wolfssl/wolfcrypt/src/random.c **** #ifndef WOLFSSL_SMALL_STACK_CACHE
 1135              		.loc 1 594 9 is_stmt 1 view .LVU341
 594:Middlewares/Third_Party/wolfSSL_wolfSSL_wolfSSL/wolfssl/wolfcrypt/src/random.c **** #ifndef WOLFSSL_SMALL_STACK_CACHE
 1136              		.loc 1 594 12 is_stmt 0 view .LVU342
 1137 0026 0546     		mov	r5, r0
 1138 0028 10B1     		cbz	r0, .L94
 1139              	.LVL124:
 1140              	.L70:
 625:Middlewares/Third_Party/wolfSSL_wolfSSL_wolfSSL/wolfssl/wolfcrypt/src/random.c ****     #ifdef WC_ASYNC_ENABLE_SHA256
 1141              		.loc 1 625 9 is_stmt 1 view .LVU343
 1142              	.LBB79:
 1143              	.LBI79:
 272:Middlewares/Third_Party/wolfSSL_wolfSSL_wolfSSL/wolfssl/wolfcrypt/src/misc.c **** {
 1144              		.loc 2 272 26 view .LVU344
 1145              	.LBB80:
 274:Middlewares/Third_Party/wolfSSL_wolfSSL_wolfSSL/wolfssl/wolfcrypt/src/misc.c **** 
 1146              		.loc 2 274 5 view .LVU345
 1147              		.loc 2 292 5 view .LVU346
 274:Middlewares/Third_Party/wolfSSL_wolfSSL_wolfSSL/wolfssl/wolfcrypt/src/misc.c **** 
 1148              		.loc 2 274 20 is_stmt 0 view .LVU347
 1149 002a 6B46     		mov	r3, sp
 1150              		.loc 2 292 11 view .LVU348
 1151 002c 2022     		movs	r2, #32
 1152 002e 8AE0     		b	.L89
 1153              	.LVL125:
 1154              	.L94:
 1155              		.loc 2 292 11 view .LVU349
 1156              	.LBE80:
 1157              	.LBE79:
 599:Middlewares/Third_Party/wolfSSL_wolfSSL_wolfSSL/wolfssl/wolfcrypt/src/random.c ****         #endif
 1158              		.loc 1 599 13 is_stmt 1 view .LVU350
 599:Middlewares/Third_Party/wolfSSL_wolfSSL_wolfSSL/wolfssl/wolfcrypt/src/random.c ****         #endif
 1159              		.loc 1 599 19 is_stmt 0 view .LVU351
 1160 0030 0AA8     		add	r0, sp, #40
 1161              	.LVL126:
 599:Middlewares/Third_Party/wolfSSL_wolfSSL_wolfSSL/wolfssl/wolfcrypt/src/random.c ****         #endif
 1162              		.loc 1 599 19 view .LVU352
 1163 0032 FFF7FEFF 		bl	wc_InitSha256
 1164              	.LVL127:
 601:Middlewares/Third_Party/wolfSSL_wolfSSL_wolfSSL/wolfssl/wolfcrypt/src/random.c **** #endif
 1165              		.loc 1 601 13 is_stmt 1 view .LVU353
 601:Middlewares/Third_Party/wolfSSL_wolfSSL_wolfSSL/wolfssl/wolfcrypt/src/random.c **** #endif
 1166              		.loc 1 601 16 is_stmt 0 view .LVU354
 1167 0036 0546     		mov	r5, r0
 1168 0038 48B1     		cbz	r0, .L95
 1169              	.L71:
 604:Middlewares/Third_Party/wolfSSL_wolfSSL_wolfSSL/wolfssl/wolfcrypt/src/random.c ****                 ret = wc_Sha256Update(sha, drbg->V, sizeof(drbg->V));
 1170              		.loc 1 604 13 is_stmt 1 view .LVU355
 604:Middlewares/Third_Party/wolfSSL_wolfSSL_wolfSSL/wolfssl/wolfcrypt/src/random.c ****                 ret = wc_Sha256Update(sha, drbg->V, sizeof(drbg->V));
 1171              		.loc 1 604 16 is_stmt 0 view .LVU356
 1172 003a 85B1     		cbz	r5, .L96
 1173              	.L72:
 606:Middlewares/Third_Party/wolfSSL_wolfSSL_wolfSSL/wolfssl/wolfcrypt/src/random.c ****                 ret = wc_Sha256Final(sha, digest);
 1174              		.loc 1 606 13 is_stmt 1 view .LVU357
 606:Middlewares/Third_Party/wolfSSL_wolfSSL_wolfSSL/wolfssl/wolfcrypt/src/random.c ****                 ret = wc_Sha256Final(sha, digest);
ARM GAS  /tmp/cc09iKDl.s 			page 44


 1175              		.loc 1 606 16 is_stmt 0 view .LVU358
 1176 003c B5B1     		cbz	r5, .L97
 1177              	.L73:
 610:Middlewares/Third_Party/wolfSSL_wolfSSL_wolfSSL/wolfssl/wolfcrypt/src/random.c **** #endif
 1178              		.loc 1 610 13 is_stmt 1 view .LVU359
 1179 003e 0AA8     		add	r0, sp, #40
 1180              	.LVL128:
 610:Middlewares/Third_Party/wolfSSL_wolfSSL_wolfSSL/wolfssl/wolfcrypt/src/random.c **** #endif
 1181              		.loc 1 610 13 is_stmt 0 view .LVU360
 1182 0040 FFF7FEFF 		bl	wc_Sha256Free
 1183              	.LVL129:
 613:Middlewares/Third_Party/wolfSSL_wolfSSL_wolfSSL/wolfssl/wolfcrypt/src/random.c ****                 array_add(drbg->V, sizeof(drbg->V), digest, WC_SHA256_DIGEST_SIZE);
 1184              		.loc 1 613 13 is_stmt 1 view .LVU361
 613:Middlewares/Third_Party/wolfSSL_wolfSSL_wolfSSL/wolfssl/wolfcrypt/src/random.c ****                 array_add(drbg->V, sizeof(drbg->V), digest, WC_SHA256_DIGEST_SIZE);
 1185              		.loc 1 613 16 is_stmt 0 view .LVU362
 1186 0044 8DB3     		cbz	r5, .L98
 1187              	.L75:
 623:Middlewares/Third_Party/wolfSSL_wolfSSL_wolfSSL/wolfssl/wolfcrypt/src/random.c ****         }
 1188              		.loc 1 623 13 is_stmt 1 view .LVU363
 623:Middlewares/Third_Party/wolfSSL_wolfSSL_wolfSSL/wolfssl/wolfcrypt/src/random.c ****         }
 1189              		.loc 1 623 17 is_stmt 0 view .LVU364
 1190 0046 3368     		ldr	r3, [r6]
 623:Middlewares/Third_Party/wolfSSL_wolfSSL_wolfSSL/wolfssl/wolfcrypt/src/random.c ****         }
 1191              		.loc 1 623 28 view .LVU365
 1192 0048 0133     		adds	r3, r3, #1
 1193 004a 3360     		str	r3, [r6]
 1194 004c EDE7     		b	.L70
 1195              	.LVL130:
 1196              	.L95:
 603:Middlewares/Third_Party/wolfSSL_wolfSSL_wolfSSL/wolfssl/wolfcrypt/src/random.c ****             if (ret == 0)
 1197              		.loc 1 603 17 is_stmt 1 view .LVU366
 603:Middlewares/Third_Party/wolfSSL_wolfSSL_wolfSSL/wolfssl/wolfcrypt/src/random.c ****             if (ret == 0)
 1198              		.loc 1 603 23 is_stmt 0 view .LVU367
 1199 004e 0122     		movs	r2, #1
 1200 0050 0DF12701 		add	r1, sp, #39
 1201 0054 0AA8     		add	r0, sp, #40
 1202              	.LVL131:
 603:Middlewares/Third_Party/wolfSSL_wolfSSL_wolfSSL/wolfssl/wolfcrypt/src/random.c ****             if (ret == 0)
 1203              		.loc 1 603 23 view .LVU368
 1204 0056 FFF7FEFF 		bl	wc_Sha256Update
 1205              	.LVL132:
 1206 005a 0546     		mov	r5, r0
 1207              	.LVL133:
 603:Middlewares/Third_Party/wolfSSL_wolfSSL_wolfSSL/wolfssl/wolfcrypt/src/random.c ****             if (ret == 0)
 1208              		.loc 1 603 23 view .LVU369
 1209 005c EDE7     		b	.L71
 1210              	.L96:
 605:Middlewares/Third_Party/wolfSSL_wolfSSL_wolfSSL/wolfssl/wolfcrypt/src/random.c ****             if (ret == 0)
 1211              		.loc 1 605 17 is_stmt 1 view .LVU370
 605:Middlewares/Third_Party/wolfSSL_wolfSSL_wolfSSL/wolfssl/wolfcrypt/src/random.c ****             if (ret == 0)
 1212              		.loc 1 605 23 is_stmt 0 view .LVU371
 1213 005e 3722     		movs	r2, #55
 1214 0060 2146     		mov	r1, r4
 1215 0062 0AA8     		add	r0, sp, #40
 1216              	.LVL134:
 605:Middlewares/Third_Party/wolfSSL_wolfSSL_wolfSSL/wolfssl/wolfcrypt/src/random.c ****             if (ret == 0)
 1217              		.loc 1 605 23 view .LVU372
ARM GAS  /tmp/cc09iKDl.s 			page 45


 1218 0064 FFF7FEFF 		bl	wc_Sha256Update
 1219              	.LVL135:
 1220 0068 0546     		mov	r5, r0
 1221              	.LVL136:
 605:Middlewares/Third_Party/wolfSSL_wolfSSL_wolfSSL/wolfssl/wolfcrypt/src/random.c ****             if (ret == 0)
 1222              		.loc 1 605 23 view .LVU373
 1223 006a E7E7     		b	.L72
 1224              	.L97:
 607:Middlewares/Third_Party/wolfSSL_wolfSSL_wolfSSL/wolfssl/wolfcrypt/src/random.c **** 
 1225              		.loc 1 607 17 is_stmt 1 view .LVU374
 607:Middlewares/Third_Party/wolfSSL_wolfSSL_wolfSSL/wolfssl/wolfcrypt/src/random.c **** 
 1226              		.loc 1 607 23 is_stmt 0 view .LVU375
 1227 006c 6946     		mov	r1, sp
 1228 006e 0AA8     		add	r0, sp, #40
 1229              	.LVL137:
 607:Middlewares/Third_Party/wolfSSL_wolfSSL_wolfSSL/wolfssl/wolfcrypt/src/random.c **** 
 1230              		.loc 1 607 23 view .LVU376
 1231 0070 FFF7FEFF 		bl	wc_Sha256Final
 1232              	.LVL138:
 1233 0074 0546     		mov	r5, r0
 1234              	.LVL139:
 607:Middlewares/Third_Party/wolfSSL_wolfSSL_wolfSSL/wolfssl/wolfcrypt/src/random.c **** 
 1235              		.loc 1 607 23 view .LVU377
 1236 0076 E2E7     		b	.L73
 1237              	.LVL140:
 1238              	.L76:
 1239              	.LBB82:
 1240              	.LBB83:
 1241              	.LBB84:
 555:Middlewares/Third_Party/wolfSSL_wolfSSL_wolfSSL/wolfssl/wolfcrypt/src/random.c ****             d[dIdx] = (byte)carry;
 1242              		.loc 1 555 13 is_stmt 1 view .LVU378
 555:Middlewares/Third_Party/wolfSSL_wolfSSL_wolfSSL/wolfssl/wolfcrypt/src/random.c ****             d[dIdx] = (byte)carry;
 1243              		.loc 1 555 31 is_stmt 0 view .LVU379
 1244 0078 A05C     		ldrb	r0, [r4, r2]	@ zero_extendqisi2
 555:Middlewares/Third_Party/wolfSSL_wolfSSL_wolfSSL/wolfssl/wolfcrypt/src/random.c ****             d[dIdx] = (byte)carry;
 1245              		.loc 1 555 49 view .LVU380
 1246 007a 0DF1980C 		add	ip, sp, #152
 1247 007e 8C44     		add	ip, ip, r1
 1248 0080 1CF898CC 		ldrb	ip, [ip, #-152]	@ zero_extendqisi2
 555:Middlewares/Third_Party/wolfSSL_wolfSSL_wolfSSL/wolfssl/wolfcrypt/src/random.c ****             d[dIdx] = (byte)carry;
 1249              		.loc 1 555 38 view .LVU381
 1250 0084 6044     		add	r0, r0, ip
 555:Middlewares/Third_Party/wolfSSL_wolfSSL_wolfSSL/wolfssl/wolfcrypt/src/random.c ****             d[dIdx] = (byte)carry;
 1251              		.loc 1 555 19 view .LVU382
 1252 0086 0344     		add	r3, r3, r0
 1253              	.LVL141:
 556:Middlewares/Third_Party/wolfSSL_wolfSSL_wolfSSL/wolfssl/wolfcrypt/src/random.c ****             carry >>= 8;
 1254              		.loc 1 556 13 is_stmt 1 view .LVU383
 556:Middlewares/Third_Party/wolfSSL_wolfSSL_wolfSSL/wolfssl/wolfcrypt/src/random.c ****             carry >>= 8;
 1255              		.loc 1 556 21 is_stmt 0 view .LVU384
 1256 0088 A354     		strb	r3, [r4, r2]
 557:Middlewares/Third_Party/wolfSSL_wolfSSL_wolfSSL/wolfssl/wolfcrypt/src/random.c ****         }
 1257              		.loc 1 557 13 is_stmt 1 view .LVU385
 557:Middlewares/Third_Party/wolfSSL_wolfSSL_wolfSSL/wolfssl/wolfcrypt/src/random.c ****         }
 1258              		.loc 1 557 19 is_stmt 0 view .LVU386
 1259 008a C3F30F23 		ubfx	r3, r3, #8, #16
 1260              	.LVL142:
ARM GAS  /tmp/cc09iKDl.s 			page 46


 554:Middlewares/Third_Party/wolfSSL_wolfSSL_wolfSSL/wolfssl/wolfcrypt/src/random.c ****             carry += (word16)d[dIdx] + (word16)s[sIdx];
 1261              		.loc 1 554 59 is_stmt 1 view .LVU387
 554:Middlewares/Third_Party/wolfSSL_wolfSSL_wolfSSL/wolfssl/wolfcrypt/src/random.c ****             carry += (word16)d[dIdx] + (word16)s[sIdx];
 1262              		.loc 1 554 63 is_stmt 0 view .LVU388
 1263 008e 013A     		subs	r2, r2, #1
 1264              	.LVL143:
 554:Middlewares/Third_Party/wolfSSL_wolfSSL_wolfSSL/wolfssl/wolfcrypt/src/random.c ****             carry += (word16)d[dIdx] + (word16)s[sIdx];
 1265              		.loc 1 554 71 view .LVU389
 1266 0090 0139     		subs	r1, r1, #1
 1267              	.LVL144:
 1268              	.L74:
 554:Middlewares/Third_Party/wolfSSL_wolfSSL_wolfSSL/wolfssl/wolfcrypt/src/random.c ****             carry += (word16)d[dIdx] + (word16)s[sIdx];
 1269              		.loc 1 554 48 is_stmt 1 view .LVU390
 554:Middlewares/Third_Party/wolfSSL_wolfSSL_wolfSSL/wolfssl/wolfcrypt/src/random.c ****             carry += (word16)d[dIdx] + (word16)s[sIdx];
 1270              		.loc 1 554 9 is_stmt 0 view .LVU391
 1271 0092 0029     		cmp	r1, #0
 1272 0094 F0DA     		bge	.L76
 1273              	.LVL145:
 1274              	.L77:
 560:Middlewares/Third_Party/wolfSSL_wolfSSL_wolfSSL/wolfssl/wolfcrypt/src/random.c ****             carry += (word16)d[dIdx];
 1275              		.loc 1 560 16 is_stmt 1 view .LVU392
 560:Middlewares/Third_Party/wolfSSL_wolfSSL_wolfSSL/wolfssl/wolfcrypt/src/random.c ****             carry += (word16)d[dIdx];
 1276              		.loc 1 560 9 is_stmt 0 view .LVU393
 1277 0096 63B1     		cbz	r3, .L78
 560:Middlewares/Third_Party/wolfSSL_wolfSSL_wolfSSL/wolfssl/wolfcrypt/src/random.c ****             carry += (word16)d[dIdx];
 1278              		.loc 1 560 27 view .LVU394
 1279 0098 002A     		cmp	r2, #0
 1280 009a 0ADB     		blt	.L78
 561:Middlewares/Third_Party/wolfSSL_wolfSSL_wolfSSL/wolfssl/wolfcrypt/src/random.c ****             d[dIdx] = (byte)carry;
 1281              		.loc 1 561 13 is_stmt 1 view .LVU395
 561:Middlewares/Third_Party/wolfSSL_wolfSSL_wolfSSL/wolfssl/wolfcrypt/src/random.c ****             d[dIdx] = (byte)carry;
 1282              		.loc 1 561 31 is_stmt 0 view .LVU396
 1283 009c A15C     		ldrb	r1, [r4, r2]	@ zero_extendqisi2
 561:Middlewares/Third_Party/wolfSSL_wolfSSL_wolfSSL/wolfssl/wolfcrypt/src/random.c ****             d[dIdx] = (byte)carry;
 1284              		.loc 1 561 19 view .LVU397
 1285 009e 0B44     		add	r3, r3, r1
 1286              	.LVL146:
 562:Middlewares/Third_Party/wolfSSL_wolfSSL_wolfSSL/wolfssl/wolfcrypt/src/random.c ****             carry >>= 8;
 1287              		.loc 1 562 13 is_stmt 1 view .LVU398
 562:Middlewares/Third_Party/wolfSSL_wolfSSL_wolfSSL/wolfssl/wolfcrypt/src/random.c ****             carry >>= 8;
 1288              		.loc 1 562 21 is_stmt 0 view .LVU399
 1289 00a0 A354     		strb	r3, [r4, r2]
 563:Middlewares/Third_Party/wolfSSL_wolfSSL_wolfSSL/wolfssl/wolfcrypt/src/random.c ****         }
 1290              		.loc 1 563 13 is_stmt 1 view .LVU400
 563:Middlewares/Third_Party/wolfSSL_wolfSSL_wolfSSL/wolfssl/wolfcrypt/src/random.c ****         }
 1291              		.loc 1 563 19 is_stmt 0 view .LVU401
 1292 00a2 C3F30723 		ubfx	r3, r3, #8, #8
 1293              	.LVL147:
 560:Middlewares/Third_Party/wolfSSL_wolfSSL_wolfSSL/wolfssl/wolfcrypt/src/random.c ****             carry += (word16)d[dIdx];
 1294              		.loc 1 560 41 is_stmt 1 view .LVU402
 560:Middlewares/Third_Party/wolfSSL_wolfSSL_wolfSSL/wolfssl/wolfcrypt/src/random.c ****             carry += (word16)d[dIdx];
 1295              		.loc 1 560 45 is_stmt 0 view .LVU403
 1296 00a6 013A     		subs	r2, r2, #1
 1297              	.LVL148:
 560:Middlewares/Third_Party/wolfSSL_wolfSSL_wolfSSL/wolfssl/wolfcrypt/src/random.c ****             carry += (word16)d[dIdx];
 1298              		.loc 1 560 45 view .LVU404
 1299 00a8 F5E7     		b	.L77
ARM GAS  /tmp/cc09iKDl.s 			page 47


 1300              	.LVL149:
 1301              	.L98:
 554:Middlewares/Third_Party/wolfSSL_wolfSSL_wolfSSL/wolfssl/wolfcrypt/src/random.c ****             carry += (word16)d[dIdx] + (word16)s[sIdx];
 1302              		.loc 1 554 36 view .LVU405
 1303 00aa 3622     		movs	r2, #54
 554:Middlewares/Third_Party/wolfSSL_wolfSSL_wolfSSL/wolfssl/wolfcrypt/src/random.c ****             carry += (word16)d[dIdx] + (word16)s[sIdx];
 1304              		.loc 1 554 19 view .LVU406
 1305 00ac 1F21     		movs	r1, #31
 1306              	.LBE84:
 549:Middlewares/Third_Party/wolfSSL_wolfSSL_wolfSSL/wolfssl/wolfcrypt/src/random.c **** 
 1307              		.loc 1 549 12 view .LVU407
 1308 00ae 0023     		movs	r3, #0
 1309 00b0 EFE7     		b	.L74
 1310              	.LVL150:
 1311              	.L78:
 549:Middlewares/Third_Party/wolfSSL_wolfSSL_wolfSSL/wolfssl/wolfcrypt/src/random.c **** 
 1312              		.loc 1 549 12 view .LVU408
 1313              	.LBE83:
 1314              	.LBE82:
 615:Middlewares/Third_Party/wolfSSL_wolfSSL_wolfSSL/wolfssl/wolfcrypt/src/random.c ****             #ifdef LITTLE_ENDIAN_ORDER
 1315              		.loc 1 615 17 is_stmt 1 view .LVU409
 615:Middlewares/Third_Party/wolfSSL_wolfSSL_wolfSSL/wolfssl/wolfcrypt/src/random.c ****             #ifdef LITTLE_ENDIAN_ORDER
 1316              		.loc 1 615 57 is_stmt 0 view .LVU410
 1317 00b2 06F13F0E 		add	lr, r6, #63
 1318              	.LVL151:
 1319              	.LBB85:
 1320              	.LBI85:
 547:Middlewares/Third_Party/wolfSSL_wolfSSL_wolfSSL/wolfssl/wolfcrypt/src/random.c **** {
 1321              		.loc 1 547 23 is_stmt 1 view .LVU411
 1322              	.LBB86:
 549:Middlewares/Third_Party/wolfSSL_wolfSSL_wolfSSL/wolfssl/wolfcrypt/src/random.c **** 
 1323              		.loc 1 549 5 view .LVU412
 551:Middlewares/Third_Party/wolfSSL_wolfSSL_wolfSSL/wolfssl/wolfcrypt/src/random.c ****         int sIdx, dIdx;
 1324              		.loc 1 551 5 view .LVU413
 1325              	.LBB87:
 552:Middlewares/Third_Party/wolfSSL_wolfSSL_wolfSSL/wolfssl/wolfcrypt/src/random.c **** 
 1326              		.loc 1 552 9 view .LVU414
 554:Middlewares/Third_Party/wolfSSL_wolfSSL_wolfSSL/wolfssl/wolfcrypt/src/random.c ****             carry += (word16)d[dIdx] + (word16)s[sIdx];
 1327              		.loc 1 554 9 view .LVU415
 554:Middlewares/Third_Party/wolfSSL_wolfSSL_wolfSSL/wolfssl/wolfcrypt/src/random.c ****             carry += (word16)d[dIdx] + (word16)s[sIdx];
 1328              		.loc 1 554 36 is_stmt 0 view .LVU416
 1329 00b6 3622     		movs	r2, #54
 554:Middlewares/Third_Party/wolfSSL_wolfSSL_wolfSSL/wolfssl/wolfcrypt/src/random.c ****             carry += (word16)d[dIdx] + (word16)s[sIdx];
 1330              		.loc 1 554 19 view .LVU417
 1331 00b8 1146     		mov	r1, r2
 1332              	.LBE87:
 549:Middlewares/Third_Party/wolfSSL_wolfSSL_wolfSSL/wolfssl/wolfcrypt/src/random.c **** 
 1333              		.loc 1 549 12 view .LVU418
 1334 00ba 0023     		movs	r3, #0
 1335              	.LBB88:
 554:Middlewares/Third_Party/wolfSSL_wolfSSL_wolfSSL/wolfssl/wolfcrypt/src/random.c ****             carry += (word16)d[dIdx] + (word16)s[sIdx];
 1336              		.loc 1 554 9 view .LVU419
 1337 00bc 09E0     		b	.L80
 1338              	.LVL152:
 1339              	.L81:
 555:Middlewares/Third_Party/wolfSSL_wolfSSL_wolfSSL/wolfssl/wolfcrypt/src/random.c ****             d[dIdx] = (byte)carry;
 1340              		.loc 1 555 13 is_stmt 1 view .LVU420
ARM GAS  /tmp/cc09iKDl.s 			page 48


 555:Middlewares/Third_Party/wolfSSL_wolfSSL_wolfSSL/wolfssl/wolfcrypt/src/random.c ****             d[dIdx] = (byte)carry;
 1341              		.loc 1 555 31 is_stmt 0 view .LVU421
 1342 00be A05C     		ldrb	r0, [r4, r2]	@ zero_extendqisi2
 555:Middlewares/Third_Party/wolfSSL_wolfSSL_wolfSSL/wolfssl/wolfcrypt/src/random.c ****             d[dIdx] = (byte)carry;
 1343              		.loc 1 555 49 view .LVU422
 1344 00c0 1EF801C0 		ldrb	ip, [lr, r1]	@ zero_extendqisi2
 555:Middlewares/Third_Party/wolfSSL_wolfSSL_wolfSSL/wolfssl/wolfcrypt/src/random.c ****             d[dIdx] = (byte)carry;
 1345              		.loc 1 555 38 view .LVU423
 1346 00c4 6044     		add	r0, r0, ip
 555:Middlewares/Third_Party/wolfSSL_wolfSSL_wolfSSL/wolfssl/wolfcrypt/src/random.c ****             d[dIdx] = (byte)carry;
 1347              		.loc 1 555 19 view .LVU424
 1348 00c6 0344     		add	r3, r3, r0
 1349              	.LVL153:
 556:Middlewares/Third_Party/wolfSSL_wolfSSL_wolfSSL/wolfssl/wolfcrypt/src/random.c ****             carry >>= 8;
 1350              		.loc 1 556 13 is_stmt 1 view .LVU425
 556:Middlewares/Third_Party/wolfSSL_wolfSSL_wolfSSL/wolfssl/wolfcrypt/src/random.c ****             carry >>= 8;
 1351              		.loc 1 556 21 is_stmt 0 view .LVU426
 1352 00c8 A354     		strb	r3, [r4, r2]
 557:Middlewares/Third_Party/wolfSSL_wolfSSL_wolfSSL/wolfssl/wolfcrypt/src/random.c ****         }
 1353              		.loc 1 557 13 is_stmt 1 view .LVU427
 557:Middlewares/Third_Party/wolfSSL_wolfSSL_wolfSSL/wolfssl/wolfcrypt/src/random.c ****         }
 1354              		.loc 1 557 19 is_stmt 0 view .LVU428
 1355 00ca C3F30F23 		ubfx	r3, r3, #8, #16
 1356              	.LVL154:
 554:Middlewares/Third_Party/wolfSSL_wolfSSL_wolfSSL/wolfssl/wolfcrypt/src/random.c ****             carry += (word16)d[dIdx] + (word16)s[sIdx];
 1357              		.loc 1 554 59 is_stmt 1 view .LVU429
 554:Middlewares/Third_Party/wolfSSL_wolfSSL_wolfSSL/wolfssl/wolfcrypt/src/random.c ****             carry += (word16)d[dIdx] + (word16)s[sIdx];
 1358              		.loc 1 554 63 is_stmt 0 view .LVU430
 1359 00ce 013A     		subs	r2, r2, #1
 1360              	.LVL155:
 554:Middlewares/Third_Party/wolfSSL_wolfSSL_wolfSSL/wolfssl/wolfcrypt/src/random.c ****             carry += (word16)d[dIdx] + (word16)s[sIdx];
 1361              		.loc 1 554 71 view .LVU431
 1362 00d0 0139     		subs	r1, r1, #1
 1363              	.LVL156:
 1364              	.L80:
 554:Middlewares/Third_Party/wolfSSL_wolfSSL_wolfSSL/wolfssl/wolfcrypt/src/random.c ****             carry += (word16)d[dIdx] + (word16)s[sIdx];
 1365              		.loc 1 554 48 is_stmt 1 view .LVU432
 554:Middlewares/Third_Party/wolfSSL_wolfSSL_wolfSSL/wolfssl/wolfcrypt/src/random.c ****             carry += (word16)d[dIdx] + (word16)s[sIdx];
 1366              		.loc 1 554 9 is_stmt 0 view .LVU433
 1367 00d2 0029     		cmp	r1, #0
 1368 00d4 F3DA     		bge	.L81
 1369 00d6 05E0     		b	.L82
 1370              	.LVL157:
 1371              	.L84:
 561:Middlewares/Third_Party/wolfSSL_wolfSSL_wolfSSL/wolfssl/wolfcrypt/src/random.c ****             d[dIdx] = (byte)carry;
 1372              		.loc 1 561 13 is_stmt 1 view .LVU434
 561:Middlewares/Third_Party/wolfSSL_wolfSSL_wolfSSL/wolfssl/wolfcrypt/src/random.c ****             d[dIdx] = (byte)carry;
 1373              		.loc 1 561 31 is_stmt 0 view .LVU435
 1374 00d8 A15C     		ldrb	r1, [r4, r2]	@ zero_extendqisi2
 561:Middlewares/Third_Party/wolfSSL_wolfSSL_wolfSSL/wolfssl/wolfcrypt/src/random.c ****             d[dIdx] = (byte)carry;
 1375              		.loc 1 561 19 view .LVU436
 1376 00da 0B44     		add	r3, r3, r1
 1377              	.LVL158:
 562:Middlewares/Third_Party/wolfSSL_wolfSSL_wolfSSL/wolfssl/wolfcrypt/src/random.c ****             carry >>= 8;
 1378              		.loc 1 562 13 is_stmt 1 view .LVU437
 562:Middlewares/Third_Party/wolfSSL_wolfSSL_wolfSSL/wolfssl/wolfcrypt/src/random.c ****             carry >>= 8;
 1379              		.loc 1 562 21 is_stmt 0 view .LVU438
ARM GAS  /tmp/cc09iKDl.s 			page 49


 1380 00dc A354     		strb	r3, [r4, r2]
 563:Middlewares/Third_Party/wolfSSL_wolfSSL_wolfSSL/wolfssl/wolfcrypt/src/random.c ****         }
 1381              		.loc 1 563 13 is_stmt 1 view .LVU439
 563:Middlewares/Third_Party/wolfSSL_wolfSSL_wolfSSL/wolfssl/wolfcrypt/src/random.c ****         }
 1382              		.loc 1 563 19 is_stmt 0 view .LVU440
 1383 00de C3F30723 		ubfx	r3, r3, #8, #8
 1384              	.LVL159:
 560:Middlewares/Third_Party/wolfSSL_wolfSSL_wolfSSL/wolfssl/wolfcrypt/src/random.c ****             carry += (word16)d[dIdx];
 1385              		.loc 1 560 41 is_stmt 1 view .LVU441
 560:Middlewares/Third_Party/wolfSSL_wolfSSL_wolfSSL/wolfssl/wolfcrypt/src/random.c ****             carry += (word16)d[dIdx];
 1386              		.loc 1 560 45 is_stmt 0 view .LVU442
 1387 00e2 013A     		subs	r2, r2, #1
 1388              	.LVL160:
 1389              	.L82:
 560:Middlewares/Third_Party/wolfSSL_wolfSSL_wolfSSL/wolfssl/wolfcrypt/src/random.c ****             carry += (word16)d[dIdx];
 1390              		.loc 1 560 16 is_stmt 1 view .LVU443
 560:Middlewares/Third_Party/wolfSSL_wolfSSL_wolfSSL/wolfssl/wolfcrypt/src/random.c ****             carry += (word16)d[dIdx];
 1391              		.loc 1 560 9 is_stmt 0 view .LVU444
 1392 00e4 0BB1     		cbz	r3, .L83
 560:Middlewares/Third_Party/wolfSSL_wolfSSL_wolfSSL/wolfssl/wolfcrypt/src/random.c ****             carry += (word16)d[dIdx];
 1393              		.loc 1 560 27 view .LVU445
 1394 00e6 002A     		cmp	r2, #0
 1395 00e8 F6DA     		bge	.L84
 1396              	.L83:
 1397              	.LVL161:
 560:Middlewares/Third_Party/wolfSSL_wolfSSL_wolfSSL/wolfssl/wolfcrypt/src/random.c ****             carry += (word16)d[dIdx];
 1398              		.loc 1 560 27 view .LVU446
 1399              	.LBE88:
 1400              	.LBE86:
 1401              	.LBE85:
 617:Middlewares/Third_Party/wolfSSL_wolfSSL_wolfSSL/wolfssl/wolfcrypt/src/random.c ****             #endif
 1402              		.loc 1 617 17 is_stmt 1 view .LVU447
 617:Middlewares/Third_Party/wolfSSL_wolfSSL_wolfSSL/wolfssl/wolfcrypt/src/random.c ****             #endif
 1403              		.loc 1 617 29 is_stmt 0 view .LVU448
 1404 00ea 089A     		ldr	r2, [sp, #32]
 1405              	.LVL162:
 1406              	.LBB89:
 1407              	.LBI89:
 118:Middlewares/Third_Party/wolfSSL_wolfSSL_wolfSSL/wolfssl/wolfcrypt/src/misc.c **** {
 1408              		.loc 2 118 28 is_stmt 1 view .LVU449
 1409              	.LBB90:
 152:Middlewares/Third_Party/wolfSSL_wolfSSL_wolfSSL/wolfssl/wolfcrypt/src/misc.c ****     return rotlFixed(value, 16U);
 1410              		.loc 2 152 5 view .LVU450
 152:Middlewares/Third_Party/wolfSSL_wolfSSL_wolfSSL/wolfssl/wolfcrypt/src/misc.c ****     return rotlFixed(value, 16U);
 1411              		.loc 2 152 35 is_stmt 0 view .LVU451
 1412 00ec 130A     		lsrs	r3, r2, #8
 1413 00ee 03F0FF13 		and	r3, r3, #16711935
 152:Middlewares/Third_Party/wolfSSL_wolfSSL_wolfSSL/wolfssl/wolfcrypt/src/misc.c ****     return rotlFixed(value, 16U);
 1414              		.loc 2 152 65 view .LVU452
 1415 00f2 1202     		lsls	r2, r2, #8
 1416              	.LVL163:
 152:Middlewares/Third_Party/wolfSSL_wolfSSL_wolfSSL/wolfssl/wolfcrypt/src/misc.c ****     return rotlFixed(value, 16U);
 1417              		.loc 2 152 65 view .LVU453
 1418 00f4 02F0FF22 		and	r2, r2, #-16711936
 152:Middlewares/Third_Party/wolfSSL_wolfSSL_wolfSSL/wolfssl/wolfcrypt/src/misc.c ****     return rotlFixed(value, 16U);
 1419              		.loc 2 152 11 view .LVU454
 1420 00f8 1343     		orrs	r3, r3, r2
ARM GAS  /tmp/cc09iKDl.s 			page 50


 1421              	.LVL164:
 153:Middlewares/Third_Party/wolfSSL_wolfSSL_wolfSSL/wolfssl/wolfcrypt/src/misc.c **** #endif
 1422              		.loc 2 153 5 is_stmt 1 view .LVU455
 1423              	.LBB91:
 1424              	.LBI91:
  87:Middlewares/Third_Party/wolfSSL_wolfSSL_wolfSSL/wolfssl/wolfcrypt/src/misc.c ****     {
 1425              		.loc 2 87 32 view .LVU456
 1426              	.LBB92:
  89:Middlewares/Third_Party/wolfSSL_wolfSSL_wolfSSL/wolfssl/wolfcrypt/src/misc.c ****     }
 1427              		.loc 2 89 9 view .LVU457
  89:Middlewares/Third_Party/wolfSSL_wolfSSL_wolfSSL/wolfssl/wolfcrypt/src/misc.c ****     }
 1428              		.loc 2 89 25 is_stmt 0 view .LVU458
 1429 00fa 4FEA3343 		ror	r3, r3, #16
 1430              	.LVL165:
  89:Middlewares/Third_Party/wolfSSL_wolfSSL_wolfSSL/wolfssl/wolfcrypt/src/misc.c ****     }
 1431              		.loc 2 89 25 view .LVU459
 1432              	.LBE92:
 1433              	.LBE91:
 1434              	.LBE90:
 1435              	.LBE89:
 617:Middlewares/Third_Party/wolfSSL_wolfSSL_wolfSSL/wolfssl/wolfcrypt/src/random.c ****             #endif
 1436              		.loc 1 617 27 view .LVU460
 1437 00fe 0893     		str	r3, [sp, #32]
 619:Middlewares/Third_Party/wolfSSL_wolfSSL_wolfSSL/wolfssl/wolfcrypt/src/random.c ****                                           (byte*)&reseedCtr, sizeof(reseedCtr));
 1438              		.loc 1 619 17 is_stmt 1 view .LVU461
 1439              	.LVL166:
 1440              	.LBB93:
 1441              	.LBI93:
 547:Middlewares/Third_Party/wolfSSL_wolfSSL_wolfSSL/wolfssl/wolfcrypt/src/random.c **** {
 1442              		.loc 1 547 23 view .LVU462
 1443              	.LBB94:
 549:Middlewares/Third_Party/wolfSSL_wolfSSL_wolfSSL/wolfssl/wolfcrypt/src/random.c **** 
 1444              		.loc 1 549 5 view .LVU463
 551:Middlewares/Third_Party/wolfSSL_wolfSSL_wolfSSL/wolfssl/wolfcrypt/src/random.c ****         int sIdx, dIdx;
 1445              		.loc 1 551 5 view .LVU464
 1446              	.LBB95:
 552:Middlewares/Third_Party/wolfSSL_wolfSSL_wolfSSL/wolfssl/wolfcrypt/src/random.c **** 
 1447              		.loc 1 552 9 view .LVU465
 554:Middlewares/Third_Party/wolfSSL_wolfSSL_wolfSSL/wolfssl/wolfcrypt/src/random.c ****             carry += (word16)d[dIdx] + (word16)s[sIdx];
 1448              		.loc 1 554 9 view .LVU466
 554:Middlewares/Third_Party/wolfSSL_wolfSSL_wolfSSL/wolfssl/wolfcrypt/src/random.c ****             carry += (word16)d[dIdx] + (word16)s[sIdx];
 1449              		.loc 1 554 36 is_stmt 0 view .LVU467
 1450 0100 3622     		movs	r2, #54
 554:Middlewares/Third_Party/wolfSSL_wolfSSL_wolfSSL/wolfssl/wolfcrypt/src/random.c ****             carry += (word16)d[dIdx] + (word16)s[sIdx];
 1451              		.loc 1 554 19 view .LVU468
 1452 0102 0321     		movs	r1, #3
 1453              	.LBE95:
 549:Middlewares/Third_Party/wolfSSL_wolfSSL_wolfSSL/wolfssl/wolfcrypt/src/random.c **** 
 1454              		.loc 1 549 12 view .LVU469
 1455 0104 0023     		movs	r3, #0
 1456              	.LBB96:
 554:Middlewares/Third_Party/wolfSSL_wolfSSL_wolfSSL/wolfssl/wolfcrypt/src/random.c ****             carry += (word16)d[dIdx] + (word16)s[sIdx];
 1457              		.loc 1 554 9 view .LVU470
 1458 0106 0CE0     		b	.L85
 1459              	.LVL167:
 1460              	.L86:
 555:Middlewares/Third_Party/wolfSSL_wolfSSL_wolfSSL/wolfssl/wolfcrypt/src/random.c ****             d[dIdx] = (byte)carry;
ARM GAS  /tmp/cc09iKDl.s 			page 51


 1461              		.loc 1 555 13 is_stmt 1 view .LVU471
 555:Middlewares/Third_Party/wolfSSL_wolfSSL_wolfSSL/wolfssl/wolfcrypt/src/random.c ****             d[dIdx] = (byte)carry;
 1462              		.loc 1 555 31 is_stmt 0 view .LVU472
 1463 0108 A05C     		ldrb	r0, [r4, r2]	@ zero_extendqisi2
 555:Middlewares/Third_Party/wolfSSL_wolfSSL_wolfSSL/wolfssl/wolfcrypt/src/random.c ****             d[dIdx] = (byte)carry;
 1464              		.loc 1 555 49 view .LVU473
 1465 010a 0DF1980C 		add	ip, sp, #152
 1466 010e 8C44     		add	ip, ip, r1
 1467 0110 1CF878CC 		ldrb	ip, [ip, #-120]	@ zero_extendqisi2
 555:Middlewares/Third_Party/wolfSSL_wolfSSL_wolfSSL/wolfssl/wolfcrypt/src/random.c ****             d[dIdx] = (byte)carry;
 1468              		.loc 1 555 38 view .LVU474
 1469 0114 6044     		add	r0, r0, ip
 555:Middlewares/Third_Party/wolfSSL_wolfSSL_wolfSSL/wolfssl/wolfcrypt/src/random.c ****             d[dIdx] = (byte)carry;
 1470              		.loc 1 555 19 view .LVU475
 1471 0116 0344     		add	r3, r3, r0
 1472              	.LVL168:
 556:Middlewares/Third_Party/wolfSSL_wolfSSL_wolfSSL/wolfssl/wolfcrypt/src/random.c ****             carry >>= 8;
 1473              		.loc 1 556 13 is_stmt 1 view .LVU476
 556:Middlewares/Third_Party/wolfSSL_wolfSSL_wolfSSL/wolfssl/wolfcrypt/src/random.c ****             carry >>= 8;
 1474              		.loc 1 556 21 is_stmt 0 view .LVU477
 1475 0118 A354     		strb	r3, [r4, r2]
 557:Middlewares/Third_Party/wolfSSL_wolfSSL_wolfSSL/wolfssl/wolfcrypt/src/random.c ****         }
 1476              		.loc 1 557 13 is_stmt 1 view .LVU478
 557:Middlewares/Third_Party/wolfSSL_wolfSSL_wolfSSL/wolfssl/wolfcrypt/src/random.c ****         }
 1477              		.loc 1 557 19 is_stmt 0 view .LVU479
 1478 011a C3F30F23 		ubfx	r3, r3, #8, #16
 1479              	.LVL169:
 554:Middlewares/Third_Party/wolfSSL_wolfSSL_wolfSSL/wolfssl/wolfcrypt/src/random.c ****             carry += (word16)d[dIdx] + (word16)s[sIdx];
 1480              		.loc 1 554 59 is_stmt 1 view .LVU480
 554:Middlewares/Third_Party/wolfSSL_wolfSSL_wolfSSL/wolfssl/wolfcrypt/src/random.c ****             carry += (word16)d[dIdx] + (word16)s[sIdx];
 1481              		.loc 1 554 63 is_stmt 0 view .LVU481
 1482 011e 013A     		subs	r2, r2, #1
 1483              	.LVL170:
 554:Middlewares/Third_Party/wolfSSL_wolfSSL_wolfSSL/wolfssl/wolfcrypt/src/random.c ****             carry += (word16)d[dIdx] + (word16)s[sIdx];
 1484              		.loc 1 554 71 view .LVU482
 1485 0120 0139     		subs	r1, r1, #1
 1486              	.LVL171:
 1487              	.L85:
 554:Middlewares/Third_Party/wolfSSL_wolfSSL_wolfSSL/wolfssl/wolfcrypt/src/random.c ****             carry += (word16)d[dIdx] + (word16)s[sIdx];
 1488              		.loc 1 554 48 is_stmt 1 view .LVU483
 554:Middlewares/Third_Party/wolfSSL_wolfSSL_wolfSSL/wolfssl/wolfcrypt/src/random.c ****             carry += (word16)d[dIdx] + (word16)s[sIdx];
 1489              		.loc 1 554 9 is_stmt 0 view .LVU484
 1490 0122 0029     		cmp	r1, #0
 1491 0124 F0DA     		bge	.L86
 1492 0126 05E0     		b	.L87
 1493              	.LVL172:
 1494              	.L88:
 561:Middlewares/Third_Party/wolfSSL_wolfSSL_wolfSSL/wolfssl/wolfcrypt/src/random.c ****             d[dIdx] = (byte)carry;
 1495              		.loc 1 561 13 is_stmt 1 view .LVU485
 561:Middlewares/Third_Party/wolfSSL_wolfSSL_wolfSSL/wolfssl/wolfcrypt/src/random.c ****             d[dIdx] = (byte)carry;
 1496              		.loc 1 561 31 is_stmt 0 view .LVU486
 1497 0128 A15C     		ldrb	r1, [r4, r2]	@ zero_extendqisi2
 561:Middlewares/Third_Party/wolfSSL_wolfSSL_wolfSSL/wolfssl/wolfcrypt/src/random.c ****             d[dIdx] = (byte)carry;
 1498              		.loc 1 561 19 view .LVU487
 1499 012a 0B44     		add	r3, r3, r1
 1500              	.LVL173:
 562:Middlewares/Third_Party/wolfSSL_wolfSSL_wolfSSL/wolfssl/wolfcrypt/src/random.c ****             carry >>= 8;
ARM GAS  /tmp/cc09iKDl.s 			page 52


 1501              		.loc 1 562 13 is_stmt 1 view .LVU488
 562:Middlewares/Third_Party/wolfSSL_wolfSSL_wolfSSL/wolfssl/wolfcrypt/src/random.c ****             carry >>= 8;
 1502              		.loc 1 562 21 is_stmt 0 view .LVU489
 1503 012c A354     		strb	r3, [r4, r2]
 563:Middlewares/Third_Party/wolfSSL_wolfSSL_wolfSSL/wolfssl/wolfcrypt/src/random.c ****         }
 1504              		.loc 1 563 13 is_stmt 1 view .LVU490
 563:Middlewares/Third_Party/wolfSSL_wolfSSL_wolfSSL/wolfssl/wolfcrypt/src/random.c ****         }
 1505              		.loc 1 563 19 is_stmt 0 view .LVU491
 1506 012e C3F30723 		ubfx	r3, r3, #8, #8
 1507              	.LVL174:
 560:Middlewares/Third_Party/wolfSSL_wolfSSL_wolfSSL/wolfssl/wolfcrypt/src/random.c ****             carry += (word16)d[dIdx];
 1508              		.loc 1 560 41 is_stmt 1 view .LVU492
 560:Middlewares/Third_Party/wolfSSL_wolfSSL_wolfSSL/wolfssl/wolfcrypt/src/random.c ****             carry += (word16)d[dIdx];
 1509              		.loc 1 560 45 is_stmt 0 view .LVU493
 1510 0132 013A     		subs	r2, r2, #1
 1511              	.LVL175:
 1512              	.L87:
 560:Middlewares/Third_Party/wolfSSL_wolfSSL_wolfSSL/wolfssl/wolfcrypt/src/random.c ****             carry += (word16)d[dIdx];
 1513              		.loc 1 560 16 is_stmt 1 view .LVU494
 560:Middlewares/Third_Party/wolfSSL_wolfSSL_wolfSSL/wolfssl/wolfcrypt/src/random.c ****             carry += (word16)d[dIdx];
 1514              		.loc 1 560 9 is_stmt 0 view .LVU495
 1515 0134 002B     		cmp	r3, #0
 1516 0136 86D0     		beq	.L75
 560:Middlewares/Third_Party/wolfSSL_wolfSSL_wolfSSL/wolfssl/wolfcrypt/src/random.c ****             carry += (word16)d[dIdx];
 1517              		.loc 1 560 27 view .LVU496
 1518 0138 002A     		cmp	r2, #0
 1519 013a F5DA     		bge	.L88
 1520 013c 83E7     		b	.L75
 1521              	.LVL176:
 1522              	.L90:
 560:Middlewares/Third_Party/wolfSSL_wolfSSL_wolfSSL/wolfssl/wolfcrypt/src/random.c ****             carry += (word16)d[dIdx];
 1523              		.loc 1 560 27 view .LVU497
 1524              	.LBE96:
 1525              	.LBE94:
 1526              	.LBE93:
 1527              	.LBB97:
 1528              	.LBB81:
 1529              		.loc 2 292 19 is_stmt 1 view .LVU498
 1530              		.loc 2 292 24 is_stmt 0 view .LVU499
 1531 013e 0022     		movs	r2, #0
 1532 0140 03F8012B 		strb	r2, [r3], #1
 1533              	.LVL177:
 1534              		.loc 2 292 15 view .LVU500
 1535 0144 0A46     		mov	r2, r1
 1536              	.LVL178:
 1537              	.L89:
 1538              		.loc 2 292 11 is_stmt 1 view .LVU501
 1539              		.loc 2 292 15 is_stmt 0 view .LVU502
 1540 0146 511E     		subs	r1, r2, #1
 1541              	.LVL179:
 1542              		.loc 2 292 11 view .LVU503
 1543 0148 002A     		cmp	r2, #0
 1544 014a F8D1     		bne	.L90
 1545              	.LVL180:
 1546              		.loc 2 292 11 view .LVU504
 1547              	.LBE81:
 1548              	.LBE97:
ARM GAS  /tmp/cc09iKDl.s 			page 53


 1549              	.LBE78:
 631:Middlewares/Third_Party/wolfSSL_wolfSSL_wolfSSL/wolfssl/wolfcrypt/src/random.c **** }
 1550              		.loc 1 631 5 is_stmt 1 view .LVU505
 631:Middlewares/Third_Party/wolfSSL_wolfSSL_wolfSSL/wolfssl/wolfcrypt/src/random.c **** }
 1551              		.loc 1 631 38 is_stmt 0 view .LVU506
 1552 014c 281E     		subs	r0, r5, #0
 1553 014e 18BF     		it	ne
 1554 0150 0120     		movne	r0, #1
 1555              	.LVL181:
 1556              	.L68:
 632:Middlewares/Third_Party/wolfSSL_wolfSSL_wolfSSL/wolfssl/wolfcrypt/src/random.c **** 
 1557              		.loc 1 632 1 view .LVU507
 1558 0152 26B0     		add	sp, sp, #152
 1559              	.LCFI17:
 1560              		.cfi_remember_state
 1561              		.cfi_def_cfa_offset 16
 1562              		@ sp needed
 1563 0154 70BD     		pop	{r4, r5, r6, pc}
 1564              	.LVL182:
 1565              	.L91:
 1566              	.LCFI18:
 1567              		.cfi_restore_state
 581:Middlewares/Third_Party/wolfSSL_wolfSSL_wolfSSL/wolfssl/wolfcrypt/src/random.c ****     } else {
 1568              		.loc 1 581 16 view .LVU508
 1569 0156 0220     		movs	r0, #2
 1570 0158 FBE7     		b	.L68
 1571              	.L100:
 1572 015a 00BF     		.align	2
 1573              	.L99:
 1574 015c 40420F00 		.word	1000000
 1575              		.cfi_endproc
 1576              	.LFE181:
 1578              		.section	.text.wc_RNG_DRBG_Reseed,"ax",%progbits
 1579              		.align	1
 1580              		.global	wc_RNG_DRBG_Reseed
 1581              		.syntax unified
 1582              		.thumb
 1583              		.thumb_func
 1584              		.fpu fpv4-sp-d16
 1586              	wc_RNG_DRBG_Reseed:
 1587              	.LVL183:
 1588              	.LFB177:
 438:Middlewares/Third_Party/wolfSSL_wolfSSL_wolfSSL/wolfssl/wolfcrypt/src/random.c ****     if (rng == NULL || seed == NULL) {
 1589              		.loc 1 438 1 is_stmt 1 view -0
 1590              		.cfi_startproc
 1591              		@ args = 0, pretend = 0, frame = 0
 1592              		@ frame_needed = 0, uses_anonymous_args = 0
 439:Middlewares/Third_Party/wolfSSL_wolfSSL_wolfSSL/wolfssl/wolfcrypt/src/random.c ****         return BAD_FUNC_ARG;
 1593              		.loc 1 439 5 view .LVU510
 439:Middlewares/Third_Party/wolfSSL_wolfSSL_wolfSSL/wolfssl/wolfcrypt/src/random.c ****         return BAD_FUNC_ARG;
 1594              		.loc 1 439 8 is_stmt 0 view .LVU511
 1595 0000 28B1     		cbz	r0, .L103
 438:Middlewares/Third_Party/wolfSSL_wolfSSL_wolfSSL/wolfssl/wolfcrypt/src/random.c ****     if (rng == NULL || seed == NULL) {
 1596              		.loc 1 438 1 discriminator 1 view .LVU512
 1597 0002 08B5     		push	{r3, lr}
 1598              	.LCFI19:
 1599              		.cfi_def_cfa_offset 8
ARM GAS  /tmp/cc09iKDl.s 			page 54


 1600              		.cfi_offset 3, -8
 1601              		.cfi_offset 14, -4
 439:Middlewares/Third_Party/wolfSSL_wolfSSL_wolfSSL/wolfssl/wolfcrypt/src/random.c ****         return BAD_FUNC_ARG;
 1602              		.loc 1 439 21 discriminator 1 view .LVU513
 1603 0004 31B1     		cbz	r1, .L104
 443:Middlewares/Third_Party/wolfSSL_wolfSSL_wolfSSL/wolfssl/wolfcrypt/src/random.c **** }
 1604              		.loc 1 443 5 is_stmt 1 view .LVU514
 443:Middlewares/Third_Party/wolfSSL_wolfSSL_wolfSSL/wolfssl/wolfcrypt/src/random.c **** }
 1605              		.loc 1 443 12 is_stmt 0 view .LVU515
 1606 0006 8068     		ldr	r0, [r0, #8]
 1607              	.LVL184:
 443:Middlewares/Third_Party/wolfSSL_wolfSSL_wolfSSL/wolfssl/wolfcrypt/src/random.c **** }
 1608              		.loc 1 443 12 view .LVU516
 1609 0008 FFF7FEFF 		bl	Hash_DRBG_Reseed
 1610              	.LVL185:
 1611              	.L101:
 444:Middlewares/Third_Party/wolfSSL_wolfSSL_wolfSSL/wolfssl/wolfcrypt/src/random.c **** 
 1612              		.loc 1 444 1 view .LVU517
 1613 000c 08BD     		pop	{r3, pc}
 1614              	.LVL186:
 1615              	.L103:
 1616              	.LCFI20:
 1617              		.cfi_def_cfa_offset 0
 1618              		.cfi_restore 3
 1619              		.cfi_restore 14
 440:Middlewares/Third_Party/wolfSSL_wolfSSL_wolfSSL/wolfssl/wolfcrypt/src/random.c ****     }
 1620              		.loc 1 440 16 view .LVU518
 1621 000e 6FF0AC00 		mvn	r0, #172
 1622              	.LVL187:
 444:Middlewares/Third_Party/wolfSSL_wolfSSL_wolfSSL/wolfssl/wolfcrypt/src/random.c **** 
 1623              		.loc 1 444 1 view .LVU519
 1624 0012 7047     		bx	lr
 1625              	.LVL188:
 1626              	.L104:
 1627              	.LCFI21:
 1628              		.cfi_def_cfa_offset 8
 1629              		.cfi_offset 3, -8
 1630              		.cfi_offset 14, -4
 440:Middlewares/Third_Party/wolfSSL_wolfSSL_wolfSSL/wolfssl/wolfcrypt/src/random.c ****     }
 1631              		.loc 1 440 16 view .LVU520
 1632 0014 6FF0AC00 		mvn	r0, #172
 1633              	.LVL189:
 440:Middlewares/Third_Party/wolfSSL_wolfSSL_wolfSSL/wolfssl/wolfcrypt/src/random.c ****     }
 1634              		.loc 1 440 16 view .LVU521
 1635 0018 F8E7     		b	.L101
 1636              		.cfi_endproc
 1637              	.LFE177:
 1639              		.section	.text.wc_RNG_TestSeed,"ax",%progbits
 1640              		.align	1
 1641              		.global	wc_RNG_TestSeed
 1642              		.syntax unified
 1643              		.thumb
 1644              		.thumb_func
 1645              		.fpu fpv4-sp-d16
 1647              	wc_RNG_TestSeed:
 1648              	.LVL190:
 1649              	.LFB184:
ARM GAS  /tmp/cc09iKDl.s 			page 55


 692:Middlewares/Third_Party/wolfSSL_wolfSSL_wolfSSL/wolfssl/wolfcrypt/src/random.c **** 
 693:Middlewares/Third_Party/wolfSSL_wolfSSL_wolfSSL/wolfssl/wolfcrypt/src/random.c **** 
 694:Middlewares/Third_Party/wolfSSL_wolfSSL_wolfSSL/wolfssl/wolfcrypt/src/random.c **** int wc_RNG_TestSeed(const byte* seed, word32 seedSz)
 695:Middlewares/Third_Party/wolfSSL_wolfSSL_wolfSSL/wolfssl/wolfcrypt/src/random.c **** {
 1650              		.loc 1 695 1 is_stmt 1 view -0
 1651              		.cfi_startproc
 1652              		@ args = 0, pretend = 0, frame = 0
 1653              		@ frame_needed = 0, uses_anonymous_args = 0
 1654              		.loc 1 695 1 is_stmt 0 view .LVU523
 1655 0000 2DE9F041 		push	{r4, r5, r6, r7, r8, lr}
 1656              	.LCFI22:
 1657              		.cfi_def_cfa_offset 24
 1658              		.cfi_offset 4, -24
 1659              		.cfi_offset 5, -20
 1660              		.cfi_offset 6, -16
 1661              		.cfi_offset 7, -12
 1662              		.cfi_offset 8, -8
 1663              		.cfi_offset 14, -4
 1664 0004 8446     		mov	ip, r0
 1665 0006 0F46     		mov	r7, r1
 696:Middlewares/Third_Party/wolfSSL_wolfSSL_wolfSSL/wolfssl/wolfcrypt/src/random.c ****     int ret = 0;
 1666              		.loc 1 696 5 is_stmt 1 view .LVU524
 1667              	.LVL191:
 697:Middlewares/Third_Party/wolfSSL_wolfSSL_wolfSSL/wolfssl/wolfcrypt/src/random.c **** 
 698:Middlewares/Third_Party/wolfSSL_wolfSSL_wolfSSL/wolfssl/wolfcrypt/src/random.c ****     /* Check the seed for duplicate words. */
 699:Middlewares/Third_Party/wolfSSL_wolfSSL_wolfSSL/wolfssl/wolfcrypt/src/random.c ****     word32 seedIdx = 0;
 1668              		.loc 1 699 5 view .LVU525
 700:Middlewares/Third_Party/wolfSSL_wolfSSL_wolfSSL/wolfssl/wolfcrypt/src/random.c ****     word32 scratchSz = min(SEED_BLOCK_SZ, seedSz - SEED_BLOCK_SZ);
 1669              		.loc 1 700 5 view .LVU526
 1670              		.loc 1 700 24 is_stmt 0 view .LVU527
 1671 0008 A1F10408 		sub	r8, r1, #4
 1672              	.LVL192:
 1673              	.LBB98:
 1674              	.LBI98:
 293:Middlewares/Third_Party/wolfSSL_wolfSSL_wolfSSL/wolfssl/wolfcrypt/src/misc.c **** }
 294:Middlewares/Third_Party/wolfSSL_wolfSSL_wolfSSL/wolfssl/wolfcrypt/src/misc.c **** #endif
 295:Middlewares/Third_Party/wolfSSL_wolfSSL_wolfSSL/wolfssl/wolfcrypt/src/misc.c **** 
 296:Middlewares/Third_Party/wolfSSL_wolfSSL_wolfSSL/wolfssl/wolfcrypt/src/misc.c **** 
 297:Middlewares/Third_Party/wolfSSL_wolfSSL_wolfSSL/wolfssl/wolfcrypt/src/misc.c **** #ifndef WOLFSSL_NO_CONST_CMP
 298:Middlewares/Third_Party/wolfSSL_wolfSSL_wolfSSL/wolfssl/wolfcrypt/src/misc.c **** /* check all length bytes for equality, return 0 on success */
 299:Middlewares/Third_Party/wolfSSL_wolfSSL_wolfSSL/wolfssl/wolfcrypt/src/misc.c **** WC_STATIC WC_INLINE int ConstantCompare(const byte* a, const byte* b, int length)
 300:Middlewares/Third_Party/wolfSSL_wolfSSL_wolfSSL/wolfssl/wolfcrypt/src/misc.c **** {
 301:Middlewares/Third_Party/wolfSSL_wolfSSL_wolfSSL/wolfssl/wolfcrypt/src/misc.c ****     int i;
 302:Middlewares/Third_Party/wolfSSL_wolfSSL_wolfSSL/wolfssl/wolfcrypt/src/misc.c ****     int compareSum = 0;
 303:Middlewares/Third_Party/wolfSSL_wolfSSL_wolfSSL/wolfssl/wolfcrypt/src/misc.c **** 
 304:Middlewares/Third_Party/wolfSSL_wolfSSL_wolfSSL/wolfssl/wolfcrypt/src/misc.c ****     for (i = 0; i < length; i++) {
 305:Middlewares/Third_Party/wolfSSL_wolfSSL_wolfSSL/wolfssl/wolfcrypt/src/misc.c ****         compareSum |= a[i] ^ b[i];
 306:Middlewares/Third_Party/wolfSSL_wolfSSL_wolfSSL/wolfssl/wolfcrypt/src/misc.c ****     }
 307:Middlewares/Third_Party/wolfSSL_wolfSSL_wolfSSL/wolfssl/wolfcrypt/src/misc.c **** 
 308:Middlewares/Third_Party/wolfSSL_wolfSSL_wolfSSL/wolfssl/wolfcrypt/src/misc.c ****     return compareSum;
 309:Middlewares/Third_Party/wolfSSL_wolfSSL_wolfSSL/wolfssl/wolfcrypt/src/misc.c **** }
 310:Middlewares/Third_Party/wolfSSL_wolfSSL_wolfSSL/wolfssl/wolfcrypt/src/misc.c **** #endif
 311:Middlewares/Third_Party/wolfSSL_wolfSSL_wolfSSL/wolfssl/wolfcrypt/src/misc.c **** 
 312:Middlewares/Third_Party/wolfSSL_wolfSSL_wolfSSL/wolfssl/wolfcrypt/src/misc.c **** 
 313:Middlewares/Third_Party/wolfSSL_wolfSSL_wolfSSL/wolfssl/wolfcrypt/src/misc.c **** #ifndef WOLFSSL_HAVE_MIN
 314:Middlewares/Third_Party/wolfSSL_wolfSSL_wolfSSL/wolfssl/wolfcrypt/src/misc.c ****     #define WOLFSSL_HAVE_MIN
 315:Middlewares/Third_Party/wolfSSL_wolfSSL_wolfSSL/wolfssl/wolfcrypt/src/misc.c ****     #if defined(HAVE_FIPS) && !defined(min) /* so ifdef check passes */
ARM GAS  /tmp/cc09iKDl.s 			page 56


 316:Middlewares/Third_Party/wolfSSL_wolfSSL_wolfSSL/wolfssl/wolfcrypt/src/misc.c ****         #define min min
 317:Middlewares/Third_Party/wolfSSL_wolfSSL_wolfSSL/wolfssl/wolfcrypt/src/misc.c ****     #endif
 318:Middlewares/Third_Party/wolfSSL_wolfSSL_wolfSSL/wolfssl/wolfcrypt/src/misc.c ****     /* returns the smaller of a and b */
 319:Middlewares/Third_Party/wolfSSL_wolfSSL_wolfSSL/wolfssl/wolfcrypt/src/misc.c ****     WC_STATIC WC_INLINE word32 min(word32 a, word32 b)
 1675              		.loc 2 319 32 is_stmt 1 view .LVU528
 1676              	.LBB99:
 320:Middlewares/Third_Party/wolfSSL_wolfSSL_wolfSSL/wolfssl/wolfcrypt/src/misc.c ****     {
 321:Middlewares/Third_Party/wolfSSL_wolfSSL_wolfSSL/wolfssl/wolfcrypt/src/misc.c ****         return a > b ? b : a;
 1677              		.loc 2 321 9 view .LVU529
 1678              		.loc 2 321 26 is_stmt 0 view .LVU530
 1679 000c 4446     		mov	r4, r8
 1680 000e 042C     		cmp	r4, #4
 1681 0010 28BF     		it	cs
 1682 0012 0424     		movcs	r4, #4
 1683              	.LVL193:
 1684              		.loc 2 321 26 view .LVU531
 1685              	.LBE99:
 1686              	.LBE98:
 701:Middlewares/Third_Party/wolfSSL_wolfSSL_wolfSSL/wolfssl/wolfcrypt/src/random.c **** 
 702:Middlewares/Third_Party/wolfSSL_wolfSSL_wolfSSL/wolfssl/wolfcrypt/src/random.c ****     while (seedIdx < seedSz - SEED_BLOCK_SZ) {
 1687              		.loc 1 702 5 is_stmt 1 view .LVU532
 699:Middlewares/Third_Party/wolfSSL_wolfSSL_wolfSSL/wolfssl/wolfcrypt/src/random.c ****     word32 scratchSz = min(SEED_BLOCK_SZ, seedSz - SEED_BLOCK_SZ);
 1688              		.loc 1 699 12 is_stmt 0 view .LVU533
 1689 0014 0025     		movs	r5, #0
 696:Middlewares/Third_Party/wolfSSL_wolfSSL_wolfSSL/wolfssl/wolfcrypt/src/random.c **** 
 1690              		.loc 1 696 9 view .LVU534
 1691 0016 2846     		mov	r0, r5
 1692              	.LVL194:
 1693              		.loc 1 702 11 view .LVU535
 1694 0018 13E0     		b	.L110
 1695              	.LVL195:
 1696              	.L112:
 1697              	.LBB100:
 1698              	.LBB101:
 305:Middlewares/Third_Party/wolfSSL_wolfSSL_wolfSSL/wolfssl/wolfcrypt/src/misc.c ****     }
 1699              		.loc 2 305 9 is_stmt 1 view .LVU536
 305:Middlewares/Third_Party/wolfSSL_wolfSSL_wolfSSL/wolfssl/wolfcrypt/src/misc.c ****     }
 1700              		.loc 2 305 24 is_stmt 0 view .LVU537
 1701 001a 0CEB0502 		add	r2, ip, r5
 1702 001e D25C     		ldrb	r2, [r2, r3]	@ zero_extendqisi2
 305:Middlewares/Third_Party/wolfSSL_wolfSSL_wolfSSL/wolfssl/wolfcrypt/src/misc.c ****     }
 1703              		.loc 2 305 31 view .LVU538
 1704 0020 0CEB060E 		add	lr, ip, r6
 1705 0024 1EF803E0 		ldrb	lr, [lr, r3]	@ zero_extendqisi2
 305:Middlewares/Third_Party/wolfSSL_wolfSSL_wolfSSL/wolfssl/wolfcrypt/src/misc.c ****     }
 1706              		.loc 2 305 28 view .LVU539
 1707 0028 82EA0E02 		eor	r2, r2, lr
 305:Middlewares/Third_Party/wolfSSL_wolfSSL_wolfSSL/wolfssl/wolfcrypt/src/misc.c ****     }
 1708              		.loc 2 305 20 view .LVU540
 1709 002c 1143     		orrs	r1, r1, r2
 1710              	.LVL196:
 304:Middlewares/Third_Party/wolfSSL_wolfSSL_wolfSSL/wolfssl/wolfcrypt/src/misc.c ****         compareSum |= a[i] ^ b[i];
 1711              		.loc 2 304 29 is_stmt 1 view .LVU541
 304:Middlewares/Third_Party/wolfSSL_wolfSSL_wolfSSL/wolfssl/wolfcrypt/src/misc.c ****         compareSum |= a[i] ^ b[i];
 1712              		.loc 2 304 30 is_stmt 0 view .LVU542
 1713 002e 0133     		adds	r3, r3, #1
 1714              	.LVL197:
ARM GAS  /tmp/cc09iKDl.s 			page 57


 1715              	.L111:
 304:Middlewares/Third_Party/wolfSSL_wolfSSL_wolfSSL/wolfssl/wolfcrypt/src/misc.c ****         compareSum |= a[i] ^ b[i];
 1716              		.loc 2 304 17 is_stmt 1 view .LVU543
 304:Middlewares/Third_Party/wolfSSL_wolfSSL_wolfSSL/wolfssl/wolfcrypt/src/misc.c ****         compareSum |= a[i] ^ b[i];
 1717              		.loc 2 304 5 is_stmt 0 view .LVU544
 1718 0030 9C42     		cmp	r4, r3
 1719 0032 F2DC     		bgt	.L112
 308:Middlewares/Third_Party/wolfSSL_wolfSSL_wolfSSL/wolfssl/wolfcrypt/src/misc.c **** }
 1720              		.loc 2 308 5 is_stmt 1 view .LVU545
 1721              	.LVL198:
 308:Middlewares/Third_Party/wolfSSL_wolfSSL_wolfSSL/wolfssl/wolfcrypt/src/misc.c **** }
 1722              		.loc 2 308 5 is_stmt 0 view .LVU546
 1723              	.LBE101:
 1724              	.LBE100:
 703:Middlewares/Third_Party/wolfSSL_wolfSSL_wolfSSL/wolfssl/wolfcrypt/src/random.c ****         if (ConstantCompare(seed + seedIdx,
 1725              		.loc 1 703 12 view .LVU547
 1726 0034 01B9     		cbnz	r1, .L113
 704:Middlewares/Third_Party/wolfSSL_wolfSSL_wolfSSL/wolfssl/wolfcrypt/src/random.c ****                             seed + seedIdx + scratchSz,
 705:Middlewares/Third_Party/wolfSSL_wolfSSL_wolfSSL/wolfssl/wolfcrypt/src/random.c ****                             scratchSz) == 0) {
 706:Middlewares/Third_Party/wolfSSL_wolfSSL_wolfSSL/wolfssl/wolfcrypt/src/random.c **** 
 707:Middlewares/Third_Party/wolfSSL_wolfSSL_wolfSSL/wolfssl/wolfcrypt/src/random.c ****             ret = DRBG_CONT_FAILURE;
 1727              		.loc 1 707 17 view .LVU548
 1728 0036 0320     		movs	r0, #3
 1729              	.LVL199:
 1730              	.L113:
 708:Middlewares/Third_Party/wolfSSL_wolfSSL_wolfSSL/wolfssl/wolfcrypt/src/random.c ****         }
 709:Middlewares/Third_Party/wolfSSL_wolfSSL_wolfSSL/wolfssl/wolfcrypt/src/random.c ****         seedIdx += SEED_BLOCK_SZ;
 1731              		.loc 1 709 9 is_stmt 1 view .LVU549
 1732              		.loc 1 709 17 is_stmt 0 view .LVU550
 1733 0038 0435     		adds	r5, r5, #4
 1734              	.LVL200:
 710:Middlewares/Third_Party/wolfSSL_wolfSSL_wolfSSL/wolfssl/wolfcrypt/src/random.c ****         scratchSz = min(SEED_BLOCK_SZ, (seedSz - seedIdx));
 1735              		.loc 1 710 9 is_stmt 1 view .LVU551
 1736              		.loc 1 710 21 is_stmt 0 view .LVU552
 1737 003a 7C1B     		subs	r4, r7, r5
 1738              	.LVL201:
 1739              	.LBB103:
 1740              	.LBI103:
 319:Middlewares/Third_Party/wolfSSL_wolfSSL_wolfSSL/wolfssl/wolfcrypt/src/misc.c ****     {
 1741              		.loc 2 319 32 is_stmt 1 view .LVU553
 1742              	.LBB104:
 1743              		.loc 2 321 9 view .LVU554
 1744              		.loc 2 321 26 is_stmt 0 view .LVU555
 1745 003c 042C     		cmp	r4, #4
 1746 003e 28BF     		it	cs
 1747 0040 0424     		movcs	r4, #4
 1748              	.LVL202:
 1749              	.L110:
 1750              		.loc 2 321 26 view .LVU556
 1751              	.LBE104:
 1752              	.LBE103:
 702:Middlewares/Third_Party/wolfSSL_wolfSSL_wolfSSL/wolfssl/wolfcrypt/src/random.c ****         if (ConstantCompare(seed + seedIdx,
 1753              		.loc 1 702 11 is_stmt 1 view .LVU557
 1754 0042 A845     		cmp	r8, r5
 1755 0044 03D9     		bls	.L117
 703:Middlewares/Third_Party/wolfSSL_wolfSSL_wolfSSL/wolfssl/wolfcrypt/src/random.c ****                             seed + seedIdx + scratchSz,
 1756              		.loc 1 703 9 view .LVU558
ARM GAS  /tmp/cc09iKDl.s 			page 58


 704:Middlewares/Third_Party/wolfSSL_wolfSSL_wolfSSL/wolfssl/wolfcrypt/src/random.c ****                             scratchSz) == 0) {
 1757              		.loc 1 704 44 is_stmt 0 view .LVU559
 1758 0046 2E19     		adds	r6, r5, r4
 1759              	.LVL203:
 1760              	.LBB105:
 1761              	.LBI100:
 299:Middlewares/Third_Party/wolfSSL_wolfSSL_wolfSSL/wolfssl/wolfcrypt/src/misc.c **** {
 1762              		.loc 2 299 25 is_stmt 1 view .LVU560
 1763              	.LBB102:
 301:Middlewares/Third_Party/wolfSSL_wolfSSL_wolfSSL/wolfssl/wolfcrypt/src/misc.c ****     int compareSum = 0;
 1764              		.loc 2 301 5 view .LVU561
 302:Middlewares/Third_Party/wolfSSL_wolfSSL_wolfSSL/wolfssl/wolfcrypt/src/misc.c **** 
 1765              		.loc 2 302 5 view .LVU562
 304:Middlewares/Third_Party/wolfSSL_wolfSSL_wolfSSL/wolfssl/wolfcrypt/src/misc.c ****         compareSum |= a[i] ^ b[i];
 1766              		.loc 2 304 5 view .LVU563
 302:Middlewares/Third_Party/wolfSSL_wolfSSL_wolfSSL/wolfssl/wolfcrypt/src/misc.c **** 
 1767              		.loc 2 302 9 is_stmt 0 view .LVU564
 1768 0048 0021     		movs	r1, #0
 304:Middlewares/Third_Party/wolfSSL_wolfSSL_wolfSSL/wolfssl/wolfcrypt/src/misc.c ****         compareSum |= a[i] ^ b[i];
 1769              		.loc 2 304 12 view .LVU565
 1770 004a 0B46     		mov	r3, r1
 304:Middlewares/Third_Party/wolfSSL_wolfSSL_wolfSSL/wolfssl/wolfcrypt/src/misc.c ****         compareSum |= a[i] ^ b[i];
 1771              		.loc 2 304 5 view .LVU566
 1772 004c F0E7     		b	.L111
 1773              	.LVL204:
 1774              	.L117:
 304:Middlewares/Third_Party/wolfSSL_wolfSSL_wolfSSL/wolfssl/wolfcrypt/src/misc.c ****         compareSum |= a[i] ^ b[i];
 1775              		.loc 2 304 5 view .LVU567
 1776              	.LBE102:
 1777              	.LBE105:
 711:Middlewares/Third_Party/wolfSSL_wolfSSL_wolfSSL/wolfssl/wolfcrypt/src/random.c ****     }
 712:Middlewares/Third_Party/wolfSSL_wolfSSL_wolfSSL/wolfssl/wolfcrypt/src/random.c **** 
 713:Middlewares/Third_Party/wolfSSL_wolfSSL_wolfSSL/wolfssl/wolfcrypt/src/random.c ****     return ret;
 1778              		.loc 1 713 5 is_stmt 1 view .LVU568
 714:Middlewares/Third_Party/wolfSSL_wolfSSL_wolfSSL/wolfssl/wolfcrypt/src/random.c **** }
 1779              		.loc 1 714 1 is_stmt 0 view .LVU569
 1780 004e BDE8F081 		pop	{r4, r5, r6, r7, r8, pc}
 1781              		.loc 1 714 1 view .LVU570
 1782              		.cfi_endproc
 1783              	.LFE184:
 1785              		.section	.text.wc_FreeRng,"ax",%progbits
 1786              		.align	1
 1787              		.global	wc_FreeRng
 1788              		.syntax unified
 1789              		.thumb
 1790              		.thumb_func
 1791              		.fpu fpv4-sp-d16
 1793              	wc_FreeRng:
 1794              	.LVL205:
 1795              	.LFB194:
 715:Middlewares/Third_Party/wolfSSL_wolfSSL_wolfSSL/wolfssl/wolfcrypt/src/random.c **** #endif /* HAVE_HASHDRBG */
 716:Middlewares/Third_Party/wolfSSL_wolfSSL_wolfSSL/wolfssl/wolfcrypt/src/random.c **** /* End NIST DRBG Code */
 717:Middlewares/Third_Party/wolfSSL_wolfSSL_wolfSSL/wolfssl/wolfcrypt/src/random.c **** 
 718:Middlewares/Third_Party/wolfSSL_wolfSSL_wolfSSL/wolfssl/wolfcrypt/src/random.c **** 
 719:Middlewares/Third_Party/wolfSSL_wolfSSL_wolfSSL/wolfssl/wolfcrypt/src/random.c **** static int _InitRng(WC_RNG* rng, byte* nonce, word32 nonceSz,
 720:Middlewares/Third_Party/wolfSSL_wolfSSL_wolfSSL/wolfssl/wolfcrypt/src/random.c ****                     void* heap, int devId)
 721:Middlewares/Third_Party/wolfSSL_wolfSSL_wolfSSL/wolfssl/wolfcrypt/src/random.c **** {
ARM GAS  /tmp/cc09iKDl.s 			page 59


 722:Middlewares/Third_Party/wolfSSL_wolfSSL_wolfSSL/wolfssl/wolfcrypt/src/random.c ****     int ret = 0;
 723:Middlewares/Third_Party/wolfSSL_wolfSSL_wolfSSL/wolfssl/wolfcrypt/src/random.c **** #ifdef HAVE_HASHDRBG
 724:Middlewares/Third_Party/wolfSSL_wolfSSL_wolfSSL/wolfssl/wolfcrypt/src/random.c ****     word32 seedSz = SEED_SZ + SEED_BLOCK_SZ;
 725:Middlewares/Third_Party/wolfSSL_wolfSSL_wolfSSL/wolfssl/wolfcrypt/src/random.c **** #endif
 726:Middlewares/Third_Party/wolfSSL_wolfSSL_wolfSSL/wolfssl/wolfcrypt/src/random.c **** 
 727:Middlewares/Third_Party/wolfSSL_wolfSSL_wolfSSL/wolfssl/wolfcrypt/src/random.c ****     (void)nonce;
 728:Middlewares/Third_Party/wolfSSL_wolfSSL_wolfSSL/wolfssl/wolfcrypt/src/random.c ****     (void)nonceSz;
 729:Middlewares/Third_Party/wolfSSL_wolfSSL_wolfSSL/wolfssl/wolfcrypt/src/random.c **** 
 730:Middlewares/Third_Party/wolfSSL_wolfSSL_wolfSSL/wolfssl/wolfcrypt/src/random.c ****     if (rng == NULL)
 731:Middlewares/Third_Party/wolfSSL_wolfSSL_wolfSSL/wolfssl/wolfcrypt/src/random.c ****         return BAD_FUNC_ARG;
 732:Middlewares/Third_Party/wolfSSL_wolfSSL_wolfSSL/wolfssl/wolfcrypt/src/random.c ****     if (nonce == NULL && nonceSz != 0)
 733:Middlewares/Third_Party/wolfSSL_wolfSSL_wolfSSL/wolfssl/wolfcrypt/src/random.c ****         return BAD_FUNC_ARG;
 734:Middlewares/Third_Party/wolfSSL_wolfSSL_wolfSSL/wolfssl/wolfcrypt/src/random.c **** 
 735:Middlewares/Third_Party/wolfSSL_wolfSSL_wolfSSL/wolfssl/wolfcrypt/src/random.c **** #ifdef WOLFSSL_HEAP_TEST
 736:Middlewares/Third_Party/wolfSSL_wolfSSL_wolfSSL/wolfssl/wolfcrypt/src/random.c ****     rng->heap = (void*)WOLFSSL_HEAP_TEST;
 737:Middlewares/Third_Party/wolfSSL_wolfSSL_wolfSSL/wolfssl/wolfcrypt/src/random.c ****     (void)heap;
 738:Middlewares/Third_Party/wolfSSL_wolfSSL_wolfSSL/wolfssl/wolfcrypt/src/random.c **** #else
 739:Middlewares/Third_Party/wolfSSL_wolfSSL_wolfSSL/wolfssl/wolfcrypt/src/random.c ****     rng->heap = heap;
 740:Middlewares/Third_Party/wolfSSL_wolfSSL_wolfSSL/wolfssl/wolfcrypt/src/random.c **** #endif
 741:Middlewares/Third_Party/wolfSSL_wolfSSL_wolfSSL/wolfssl/wolfcrypt/src/random.c **** #if defined(WOLFSSL_ASYNC_CRYPT) || defined(WOLF_CRYPTO_CB)
 742:Middlewares/Third_Party/wolfSSL_wolfSSL_wolfSSL/wolfssl/wolfcrypt/src/random.c ****     rng->devId = devId;
 743:Middlewares/Third_Party/wolfSSL_wolfSSL_wolfSSL/wolfssl/wolfcrypt/src/random.c ****     #if defined(WOLF_CRYPTO_CB)
 744:Middlewares/Third_Party/wolfSSL_wolfSSL_wolfSSL/wolfssl/wolfcrypt/src/random.c ****         rng->seed.devId = devId;
 745:Middlewares/Third_Party/wolfSSL_wolfSSL_wolfSSL/wolfssl/wolfcrypt/src/random.c ****     #endif
 746:Middlewares/Third_Party/wolfSSL_wolfSSL_wolfSSL/wolfssl/wolfcrypt/src/random.c **** #else
 747:Middlewares/Third_Party/wolfSSL_wolfSSL_wolfSSL/wolfssl/wolfcrypt/src/random.c ****     (void)devId;
 748:Middlewares/Third_Party/wolfSSL_wolfSSL_wolfSSL/wolfssl/wolfcrypt/src/random.c **** #endif
 749:Middlewares/Third_Party/wolfSSL_wolfSSL_wolfSSL/wolfssl/wolfcrypt/src/random.c **** 
 750:Middlewares/Third_Party/wolfSSL_wolfSSL_wolfSSL/wolfssl/wolfcrypt/src/random.c **** #ifdef HAVE_HASHDRBG
 751:Middlewares/Third_Party/wolfSSL_wolfSSL_wolfSSL/wolfssl/wolfcrypt/src/random.c ****     /* init the DBRG to known values */
 752:Middlewares/Third_Party/wolfSSL_wolfSSL_wolfSSL/wolfssl/wolfcrypt/src/random.c ****     rng->drbg = NULL;
 753:Middlewares/Third_Party/wolfSSL_wolfSSL_wolfSSL/wolfssl/wolfcrypt/src/random.c ****     rng->status = DRBG_NOT_INIT;
 754:Middlewares/Third_Party/wolfSSL_wolfSSL_wolfSSL/wolfssl/wolfcrypt/src/random.c **** #endif
 755:Middlewares/Third_Party/wolfSSL_wolfSSL_wolfSSL/wolfssl/wolfcrypt/src/random.c **** 
 756:Middlewares/Third_Party/wolfSSL_wolfSSL_wolfSSL/wolfssl/wolfcrypt/src/random.c **** #if defined(HAVE_INTEL_RDSEED) || defined(HAVE_INTEL_RDRAND)
 757:Middlewares/Third_Party/wolfSSL_wolfSSL_wolfSSL/wolfssl/wolfcrypt/src/random.c ****     /* init the intel RD seed and/or rand */
 758:Middlewares/Third_Party/wolfSSL_wolfSSL_wolfSSL/wolfssl/wolfcrypt/src/random.c ****     wc_InitRng_IntelRD();
 759:Middlewares/Third_Party/wolfSSL_wolfSSL_wolfSSL/wolfssl/wolfcrypt/src/random.c **** #endif
 760:Middlewares/Third_Party/wolfSSL_wolfSSL_wolfSSL/wolfssl/wolfcrypt/src/random.c **** 
 761:Middlewares/Third_Party/wolfSSL_wolfSSL_wolfSSL/wolfssl/wolfcrypt/src/random.c ****     /* configure async RNG source if available */
 762:Middlewares/Third_Party/wolfSSL_wolfSSL_wolfSSL/wolfssl/wolfcrypt/src/random.c **** #ifdef WOLFSSL_ASYNC_CRYPT
 763:Middlewares/Third_Party/wolfSSL_wolfSSL_wolfSSL/wolfssl/wolfcrypt/src/random.c ****     ret = wolfAsync_DevCtxInit(&rng->asyncDev, WOLFSSL_ASYNC_MARKER_RNG,
 764:Middlewares/Third_Party/wolfSSL_wolfSSL_wolfSSL/wolfssl/wolfcrypt/src/random.c ****                                                         rng->heap, rng->devId);
 765:Middlewares/Third_Party/wolfSSL_wolfSSL_wolfSSL/wolfssl/wolfcrypt/src/random.c ****     if (ret != 0)
 766:Middlewares/Third_Party/wolfSSL_wolfSSL_wolfSSL/wolfssl/wolfcrypt/src/random.c ****         return ret;
 767:Middlewares/Third_Party/wolfSSL_wolfSSL_wolfSSL/wolfssl/wolfcrypt/src/random.c **** #endif
 768:Middlewares/Third_Party/wolfSSL_wolfSSL_wolfSSL/wolfssl/wolfcrypt/src/random.c **** 
 769:Middlewares/Third_Party/wolfSSL_wolfSSL_wolfSSL/wolfssl/wolfcrypt/src/random.c **** #ifdef HAVE_INTEL_RDRAND
 770:Middlewares/Third_Party/wolfSSL_wolfSSL_wolfSSL/wolfssl/wolfcrypt/src/random.c ****     /* if CPU supports RDRAND, use it directly and by-pass DRBG init */
 771:Middlewares/Third_Party/wolfSSL_wolfSSL_wolfSSL/wolfssl/wolfcrypt/src/random.c ****     if (IS_INTEL_RDRAND(intel_flags))
 772:Middlewares/Third_Party/wolfSSL_wolfSSL_wolfSSL/wolfssl/wolfcrypt/src/random.c ****         return 0;
 773:Middlewares/Third_Party/wolfSSL_wolfSSL_wolfSSL/wolfssl/wolfcrypt/src/random.c **** #endif
 774:Middlewares/Third_Party/wolfSSL_wolfSSL_wolfSSL/wolfssl/wolfcrypt/src/random.c **** 
 775:Middlewares/Third_Party/wolfSSL_wolfSSL_wolfSSL/wolfssl/wolfcrypt/src/random.c **** #ifdef CUSTOM_RAND_GENERATE_BLOCK
 776:Middlewares/Third_Party/wolfSSL_wolfSSL_wolfSSL/wolfssl/wolfcrypt/src/random.c ****     ret = 0; /* success */
 777:Middlewares/Third_Party/wolfSSL_wolfSSL_wolfSSL/wolfssl/wolfcrypt/src/random.c **** #else
 778:Middlewares/Third_Party/wolfSSL_wolfSSL_wolfSSL/wolfssl/wolfcrypt/src/random.c **** #ifdef HAVE_HASHDRBG
ARM GAS  /tmp/cc09iKDl.s 			page 60


 779:Middlewares/Third_Party/wolfSSL_wolfSSL_wolfSSL/wolfssl/wolfcrypt/src/random.c ****     if (nonceSz == 0)
 780:Middlewares/Third_Party/wolfSSL_wolfSSL_wolfSSL/wolfssl/wolfcrypt/src/random.c ****         seedSz = MAX_SEED_SZ;
 781:Middlewares/Third_Party/wolfSSL_wolfSSL_wolfSSL/wolfssl/wolfcrypt/src/random.c **** 
 782:Middlewares/Third_Party/wolfSSL_wolfSSL_wolfSSL/wolfssl/wolfcrypt/src/random.c ****     if (wc_RNG_HealthTestLocal(0) == 0) {
 783:Middlewares/Third_Party/wolfSSL_wolfSSL_wolfSSL/wolfssl/wolfcrypt/src/random.c ****     #ifdef WC_ASYNC_ENABLE_SHA256
 784:Middlewares/Third_Party/wolfSSL_wolfSSL_wolfSSL/wolfssl/wolfcrypt/src/random.c ****         DECLARE_VAR(seed, byte, MAX_SEED_SZ, rng->heap);
 785:Middlewares/Third_Party/wolfSSL_wolfSSL_wolfSSL/wolfssl/wolfcrypt/src/random.c ****         if (seed == NULL)
 786:Middlewares/Third_Party/wolfSSL_wolfSSL_wolfSSL/wolfssl/wolfcrypt/src/random.c ****             return MEMORY_E;
 787:Middlewares/Third_Party/wolfSSL_wolfSSL_wolfSSL/wolfssl/wolfcrypt/src/random.c ****     #else
 788:Middlewares/Third_Party/wolfSSL_wolfSSL_wolfSSL/wolfssl/wolfcrypt/src/random.c ****         byte seed[MAX_SEED_SZ];
 789:Middlewares/Third_Party/wolfSSL_wolfSSL_wolfSSL/wolfssl/wolfcrypt/src/random.c ****     #endif
 790:Middlewares/Third_Party/wolfSSL_wolfSSL_wolfSSL/wolfssl/wolfcrypt/src/random.c **** 
 791:Middlewares/Third_Party/wolfSSL_wolfSSL_wolfSSL/wolfssl/wolfcrypt/src/random.c **** #if !defined(WOLFSSL_NO_MALLOC) || defined(WOLFSSL_STATIC_MEMORY)
 792:Middlewares/Third_Party/wolfSSL_wolfSSL_wolfSSL/wolfssl/wolfcrypt/src/random.c ****         rng->drbg =
 793:Middlewares/Third_Party/wolfSSL_wolfSSL_wolfSSL/wolfssl/wolfcrypt/src/random.c ****                 (struct DRBG*)XMALLOC(sizeof(DRBG_internal), rng->heap,
 794:Middlewares/Third_Party/wolfSSL_wolfSSL_wolfSSL/wolfssl/wolfcrypt/src/random.c ****                                                           DYNAMIC_TYPE_RNG);
 795:Middlewares/Third_Party/wolfSSL_wolfSSL_wolfSSL/wolfssl/wolfcrypt/src/random.c ****         if (rng->drbg == NULL) {
 796:Middlewares/Third_Party/wolfSSL_wolfSSL_wolfSSL/wolfssl/wolfcrypt/src/random.c ****             ret = MEMORY_E;
 797:Middlewares/Third_Party/wolfSSL_wolfSSL_wolfSSL/wolfssl/wolfcrypt/src/random.c ****             rng->status = DRBG_FAILED;
 798:Middlewares/Third_Party/wolfSSL_wolfSSL_wolfSSL/wolfssl/wolfcrypt/src/random.c ****         }
 799:Middlewares/Third_Party/wolfSSL_wolfSSL_wolfSSL/wolfssl/wolfcrypt/src/random.c **** #else
 800:Middlewares/Third_Party/wolfSSL_wolfSSL_wolfSSL/wolfssl/wolfcrypt/src/random.c ****         rng->drbg = (struct DRBG*)&rng->drbg_data;
 801:Middlewares/Third_Party/wolfSSL_wolfSSL_wolfSSL/wolfssl/wolfcrypt/src/random.c **** #endif
 802:Middlewares/Third_Party/wolfSSL_wolfSSL_wolfSSL/wolfssl/wolfcrypt/src/random.c ****         if (ret == 0) {
 803:Middlewares/Third_Party/wolfSSL_wolfSSL_wolfSSL/wolfssl/wolfcrypt/src/random.c ****             ret = wc_GenerateSeed(&rng->seed, seed, seedSz);
 804:Middlewares/Third_Party/wolfSSL_wolfSSL_wolfSSL/wolfssl/wolfcrypt/src/random.c ****             if (ret == 0)
 805:Middlewares/Third_Party/wolfSSL_wolfSSL_wolfSSL/wolfssl/wolfcrypt/src/random.c ****                 ret = wc_RNG_TestSeed(seed, seedSz);
 806:Middlewares/Third_Party/wolfSSL_wolfSSL_wolfSSL/wolfssl/wolfcrypt/src/random.c ****             else {
 807:Middlewares/Third_Party/wolfSSL_wolfSSL_wolfSSL/wolfssl/wolfcrypt/src/random.c ****                 ret = DRBG_FAILURE;
 808:Middlewares/Third_Party/wolfSSL_wolfSSL_wolfSSL/wolfssl/wolfcrypt/src/random.c ****                 rng->status = DRBG_FAILED;
 809:Middlewares/Third_Party/wolfSSL_wolfSSL_wolfSSL/wolfssl/wolfcrypt/src/random.c ****             }
 810:Middlewares/Third_Party/wolfSSL_wolfSSL_wolfSSL/wolfssl/wolfcrypt/src/random.c **** 
 811:Middlewares/Third_Party/wolfSSL_wolfSSL_wolfSSL/wolfssl/wolfcrypt/src/random.c ****             if (ret == DRBG_SUCCESS)
 812:Middlewares/Third_Party/wolfSSL_wolfSSL_wolfSSL/wolfssl/wolfcrypt/src/random.c **** 	      ret = Hash_DRBG_Instantiate((DRBG_internal *)rng->drbg,
 813:Middlewares/Third_Party/wolfSSL_wolfSSL_wolfSSL/wolfssl/wolfcrypt/src/random.c ****                             seed + SEED_BLOCK_SZ, seedSz - SEED_BLOCK_SZ,
 814:Middlewares/Third_Party/wolfSSL_wolfSSL_wolfSSL/wolfssl/wolfcrypt/src/random.c ****                             nonce, nonceSz, rng->heap, devId);
 815:Middlewares/Third_Party/wolfSSL_wolfSSL_wolfSSL/wolfssl/wolfcrypt/src/random.c **** 
 816:Middlewares/Third_Party/wolfSSL_wolfSSL_wolfSSL/wolfssl/wolfcrypt/src/random.c ****             if (ret != DRBG_SUCCESS) {
 817:Middlewares/Third_Party/wolfSSL_wolfSSL_wolfSSL/wolfssl/wolfcrypt/src/random.c ****             #if !defined(WOLFSSL_NO_MALLOC) || defined(WOLFSSL_STATIC_MEMORY)
 818:Middlewares/Third_Party/wolfSSL_wolfSSL_wolfSSL/wolfssl/wolfcrypt/src/random.c ****                 XFREE(rng->drbg, rng->heap, DYNAMIC_TYPE_RNG);
 819:Middlewares/Third_Party/wolfSSL_wolfSSL_wolfSSL/wolfssl/wolfcrypt/src/random.c ****             #endif
 820:Middlewares/Third_Party/wolfSSL_wolfSSL_wolfSSL/wolfssl/wolfcrypt/src/random.c ****                 rng->drbg = NULL;
 821:Middlewares/Third_Party/wolfSSL_wolfSSL_wolfSSL/wolfssl/wolfcrypt/src/random.c ****             }
 822:Middlewares/Third_Party/wolfSSL_wolfSSL_wolfSSL/wolfssl/wolfcrypt/src/random.c ****         }
 823:Middlewares/Third_Party/wolfSSL_wolfSSL_wolfSSL/wolfssl/wolfcrypt/src/random.c **** 
 824:Middlewares/Third_Party/wolfSSL_wolfSSL_wolfSSL/wolfssl/wolfcrypt/src/random.c ****         ForceZero(seed, seedSz);
 825:Middlewares/Third_Party/wolfSSL_wolfSSL_wolfSSL/wolfssl/wolfcrypt/src/random.c ****     #ifdef WC_ASYNC_ENABLE_SHA256
 826:Middlewares/Third_Party/wolfSSL_wolfSSL_wolfSSL/wolfssl/wolfcrypt/src/random.c ****         FREE_VAR(seed, rng->heap);
 827:Middlewares/Third_Party/wolfSSL_wolfSSL_wolfSSL/wolfssl/wolfcrypt/src/random.c ****     #endif
 828:Middlewares/Third_Party/wolfSSL_wolfSSL_wolfSSL/wolfssl/wolfcrypt/src/random.c ****     }
 829:Middlewares/Third_Party/wolfSSL_wolfSSL_wolfSSL/wolfssl/wolfcrypt/src/random.c ****     else
 830:Middlewares/Third_Party/wolfSSL_wolfSSL_wolfSSL/wolfssl/wolfcrypt/src/random.c ****         ret = DRBG_CONT_FAILURE;
 831:Middlewares/Third_Party/wolfSSL_wolfSSL_wolfSSL/wolfssl/wolfcrypt/src/random.c **** 
 832:Middlewares/Third_Party/wolfSSL_wolfSSL_wolfSSL/wolfssl/wolfcrypt/src/random.c ****     if (ret == DRBG_SUCCESS) {
 833:Middlewares/Third_Party/wolfSSL_wolfSSL_wolfSSL/wolfssl/wolfcrypt/src/random.c ****         rng->status = DRBG_OK;
 834:Middlewares/Third_Party/wolfSSL_wolfSSL_wolfSSL/wolfssl/wolfcrypt/src/random.c ****         ret = 0;
 835:Middlewares/Third_Party/wolfSSL_wolfSSL_wolfSSL/wolfssl/wolfcrypt/src/random.c ****     }
ARM GAS  /tmp/cc09iKDl.s 			page 61


 836:Middlewares/Third_Party/wolfSSL_wolfSSL_wolfSSL/wolfssl/wolfcrypt/src/random.c ****     else if (ret == DRBG_CONT_FAILURE) {
 837:Middlewares/Third_Party/wolfSSL_wolfSSL_wolfSSL/wolfssl/wolfcrypt/src/random.c ****         rng->status = DRBG_CONT_FAILED;
 838:Middlewares/Third_Party/wolfSSL_wolfSSL_wolfSSL/wolfssl/wolfcrypt/src/random.c ****         ret = DRBG_CONT_FIPS_E;
 839:Middlewares/Third_Party/wolfSSL_wolfSSL_wolfSSL/wolfssl/wolfcrypt/src/random.c ****     }
 840:Middlewares/Third_Party/wolfSSL_wolfSSL_wolfSSL/wolfssl/wolfcrypt/src/random.c ****     else if (ret == DRBG_FAILURE) {
 841:Middlewares/Third_Party/wolfSSL_wolfSSL_wolfSSL/wolfssl/wolfcrypt/src/random.c ****         rng->status = DRBG_FAILED;
 842:Middlewares/Third_Party/wolfSSL_wolfSSL_wolfSSL/wolfssl/wolfcrypt/src/random.c ****         ret = RNG_FAILURE_E;
 843:Middlewares/Third_Party/wolfSSL_wolfSSL_wolfSSL/wolfssl/wolfcrypt/src/random.c ****     }
 844:Middlewares/Third_Party/wolfSSL_wolfSSL_wolfSSL/wolfssl/wolfcrypt/src/random.c ****     else {
 845:Middlewares/Third_Party/wolfSSL_wolfSSL_wolfSSL/wolfssl/wolfcrypt/src/random.c ****         rng->status = DRBG_FAILED;
 846:Middlewares/Third_Party/wolfSSL_wolfSSL_wolfSSL/wolfssl/wolfcrypt/src/random.c ****     }
 847:Middlewares/Third_Party/wolfSSL_wolfSSL_wolfSSL/wolfssl/wolfcrypt/src/random.c **** #endif /* HAVE_HASHDRBG */
 848:Middlewares/Third_Party/wolfSSL_wolfSSL_wolfSSL/wolfssl/wolfcrypt/src/random.c **** #endif /* CUSTOM_RAND_GENERATE_BLOCK */
 849:Middlewares/Third_Party/wolfSSL_wolfSSL_wolfSSL/wolfssl/wolfcrypt/src/random.c **** 
 850:Middlewares/Third_Party/wolfSSL_wolfSSL_wolfSSL/wolfssl/wolfcrypt/src/random.c ****     return ret;
 851:Middlewares/Third_Party/wolfSSL_wolfSSL_wolfSSL/wolfssl/wolfcrypt/src/random.c **** }
 852:Middlewares/Third_Party/wolfSSL_wolfSSL_wolfSSL/wolfssl/wolfcrypt/src/random.c **** 
 853:Middlewares/Third_Party/wolfSSL_wolfSSL_wolfSSL/wolfssl/wolfcrypt/src/random.c **** 
 854:Middlewares/Third_Party/wolfSSL_wolfSSL_wolfSSL/wolfssl/wolfcrypt/src/random.c **** WOLFSSL_ABI
 855:Middlewares/Third_Party/wolfSSL_wolfSSL_wolfSSL/wolfssl/wolfcrypt/src/random.c **** WC_RNG* wc_rng_new(byte* nonce, word32 nonceSz, void* heap)
 856:Middlewares/Third_Party/wolfSSL_wolfSSL_wolfSSL/wolfssl/wolfcrypt/src/random.c **** {
 857:Middlewares/Third_Party/wolfSSL_wolfSSL_wolfSSL/wolfssl/wolfcrypt/src/random.c ****     WC_RNG* rng;
 858:Middlewares/Third_Party/wolfSSL_wolfSSL_wolfSSL/wolfssl/wolfcrypt/src/random.c **** 
 859:Middlewares/Third_Party/wolfSSL_wolfSSL_wolfSSL/wolfssl/wolfcrypt/src/random.c ****     rng = (WC_RNG*)XMALLOC(sizeof(WC_RNG), heap, DYNAMIC_TYPE_RNG);
 860:Middlewares/Third_Party/wolfSSL_wolfSSL_wolfSSL/wolfssl/wolfcrypt/src/random.c ****     if (rng) {
 861:Middlewares/Third_Party/wolfSSL_wolfSSL_wolfSSL/wolfssl/wolfcrypt/src/random.c ****         int error = _InitRng(rng, nonce, nonceSz, heap, INVALID_DEVID) != 0;
 862:Middlewares/Third_Party/wolfSSL_wolfSSL_wolfSSL/wolfssl/wolfcrypt/src/random.c ****         if (error) {
 863:Middlewares/Third_Party/wolfSSL_wolfSSL_wolfSSL/wolfssl/wolfcrypt/src/random.c ****             XFREE(rng, heap, DYNAMIC_TYPE_RNG);
 864:Middlewares/Third_Party/wolfSSL_wolfSSL_wolfSSL/wolfssl/wolfcrypt/src/random.c ****             rng = NULL;
 865:Middlewares/Third_Party/wolfSSL_wolfSSL_wolfSSL/wolfssl/wolfcrypt/src/random.c ****         }
 866:Middlewares/Third_Party/wolfSSL_wolfSSL_wolfSSL/wolfssl/wolfcrypt/src/random.c ****     }
 867:Middlewares/Third_Party/wolfSSL_wolfSSL_wolfSSL/wolfssl/wolfcrypt/src/random.c **** 
 868:Middlewares/Third_Party/wolfSSL_wolfSSL_wolfSSL/wolfssl/wolfcrypt/src/random.c ****     return rng;
 869:Middlewares/Third_Party/wolfSSL_wolfSSL_wolfSSL/wolfssl/wolfcrypt/src/random.c **** }
 870:Middlewares/Third_Party/wolfSSL_wolfSSL_wolfSSL/wolfssl/wolfcrypt/src/random.c **** 
 871:Middlewares/Third_Party/wolfSSL_wolfSSL_wolfSSL/wolfssl/wolfcrypt/src/random.c **** 
 872:Middlewares/Third_Party/wolfSSL_wolfSSL_wolfSSL/wolfssl/wolfcrypt/src/random.c **** WOLFSSL_ABI
 873:Middlewares/Third_Party/wolfSSL_wolfSSL_wolfSSL/wolfssl/wolfcrypt/src/random.c **** void wc_rng_free(WC_RNG* rng)
 874:Middlewares/Third_Party/wolfSSL_wolfSSL_wolfSSL/wolfssl/wolfcrypt/src/random.c **** {
 875:Middlewares/Third_Party/wolfSSL_wolfSSL_wolfSSL/wolfssl/wolfcrypt/src/random.c ****     if (rng) {
 876:Middlewares/Third_Party/wolfSSL_wolfSSL_wolfSSL/wolfssl/wolfcrypt/src/random.c ****         void* heap = rng->heap;
 877:Middlewares/Third_Party/wolfSSL_wolfSSL_wolfSSL/wolfssl/wolfcrypt/src/random.c **** 
 878:Middlewares/Third_Party/wolfSSL_wolfSSL_wolfSSL/wolfssl/wolfcrypt/src/random.c ****         wc_FreeRng(rng);
 879:Middlewares/Third_Party/wolfSSL_wolfSSL_wolfSSL/wolfssl/wolfcrypt/src/random.c ****         ForceZero(rng, sizeof(WC_RNG));
 880:Middlewares/Third_Party/wolfSSL_wolfSSL_wolfSSL/wolfssl/wolfcrypt/src/random.c ****         XFREE(rng, heap, DYNAMIC_TYPE_RNG);
 881:Middlewares/Third_Party/wolfSSL_wolfSSL_wolfSSL/wolfssl/wolfcrypt/src/random.c ****         (void)heap;
 882:Middlewares/Third_Party/wolfSSL_wolfSSL_wolfSSL/wolfssl/wolfcrypt/src/random.c ****     }
 883:Middlewares/Third_Party/wolfSSL_wolfSSL_wolfSSL/wolfssl/wolfcrypt/src/random.c **** }
 884:Middlewares/Third_Party/wolfSSL_wolfSSL_wolfSSL/wolfssl/wolfcrypt/src/random.c **** 
 885:Middlewares/Third_Party/wolfSSL_wolfSSL_wolfSSL/wolfssl/wolfcrypt/src/random.c **** 
 886:Middlewares/Third_Party/wolfSSL_wolfSSL_wolfSSL/wolfssl/wolfcrypt/src/random.c **** int wc_InitRng(WC_RNG* rng)
 887:Middlewares/Third_Party/wolfSSL_wolfSSL_wolfSSL/wolfssl/wolfcrypt/src/random.c **** {
 888:Middlewares/Third_Party/wolfSSL_wolfSSL_wolfSSL/wolfssl/wolfcrypt/src/random.c ****     return _InitRng(rng, NULL, 0, NULL, INVALID_DEVID);
 889:Middlewares/Third_Party/wolfSSL_wolfSSL_wolfSSL/wolfssl/wolfcrypt/src/random.c **** }
 890:Middlewares/Third_Party/wolfSSL_wolfSSL_wolfSSL/wolfssl/wolfcrypt/src/random.c **** 
 891:Middlewares/Third_Party/wolfSSL_wolfSSL_wolfSSL/wolfssl/wolfcrypt/src/random.c **** 
 892:Middlewares/Third_Party/wolfSSL_wolfSSL_wolfSSL/wolfssl/wolfcrypt/src/random.c **** int wc_InitRng_ex(WC_RNG* rng, void* heap, int devId)
ARM GAS  /tmp/cc09iKDl.s 			page 62


 893:Middlewares/Third_Party/wolfSSL_wolfSSL_wolfSSL/wolfssl/wolfcrypt/src/random.c **** {
 894:Middlewares/Third_Party/wolfSSL_wolfSSL_wolfSSL/wolfssl/wolfcrypt/src/random.c ****     return _InitRng(rng, NULL, 0, heap, devId);
 895:Middlewares/Third_Party/wolfSSL_wolfSSL_wolfSSL/wolfssl/wolfcrypt/src/random.c **** }
 896:Middlewares/Third_Party/wolfSSL_wolfSSL_wolfSSL/wolfssl/wolfcrypt/src/random.c **** 
 897:Middlewares/Third_Party/wolfSSL_wolfSSL_wolfSSL/wolfssl/wolfcrypt/src/random.c **** 
 898:Middlewares/Third_Party/wolfSSL_wolfSSL_wolfSSL/wolfssl/wolfcrypt/src/random.c **** int wc_InitRngNonce(WC_RNG* rng, byte* nonce, word32 nonceSz)
 899:Middlewares/Third_Party/wolfSSL_wolfSSL_wolfSSL/wolfssl/wolfcrypt/src/random.c **** {
 900:Middlewares/Third_Party/wolfSSL_wolfSSL_wolfSSL/wolfssl/wolfcrypt/src/random.c ****     return _InitRng(rng, nonce, nonceSz, NULL, INVALID_DEVID);
 901:Middlewares/Third_Party/wolfSSL_wolfSSL_wolfSSL/wolfssl/wolfcrypt/src/random.c **** }
 902:Middlewares/Third_Party/wolfSSL_wolfSSL_wolfSSL/wolfssl/wolfcrypt/src/random.c **** 
 903:Middlewares/Third_Party/wolfSSL_wolfSSL_wolfSSL/wolfssl/wolfcrypt/src/random.c **** 
 904:Middlewares/Third_Party/wolfSSL_wolfSSL_wolfSSL/wolfssl/wolfcrypt/src/random.c **** int wc_InitRngNonce_ex(WC_RNG* rng, byte* nonce, word32 nonceSz,
 905:Middlewares/Third_Party/wolfSSL_wolfSSL_wolfSSL/wolfssl/wolfcrypt/src/random.c ****                        void* heap, int devId)
 906:Middlewares/Third_Party/wolfSSL_wolfSSL_wolfSSL/wolfssl/wolfcrypt/src/random.c **** {
 907:Middlewares/Third_Party/wolfSSL_wolfSSL_wolfSSL/wolfssl/wolfcrypt/src/random.c ****     return _InitRng(rng, nonce, nonceSz, heap, devId);
 908:Middlewares/Third_Party/wolfSSL_wolfSSL_wolfSSL/wolfssl/wolfcrypt/src/random.c **** }
 909:Middlewares/Third_Party/wolfSSL_wolfSSL_wolfSSL/wolfssl/wolfcrypt/src/random.c **** 
 910:Middlewares/Third_Party/wolfSSL_wolfSSL_wolfSSL/wolfssl/wolfcrypt/src/random.c **** 
 911:Middlewares/Third_Party/wolfSSL_wolfSSL_wolfSSL/wolfssl/wolfcrypt/src/random.c **** /* place a generated block in output */
 912:Middlewares/Third_Party/wolfSSL_wolfSSL_wolfSSL/wolfssl/wolfcrypt/src/random.c **** WOLFSSL_ABI
 913:Middlewares/Third_Party/wolfSSL_wolfSSL_wolfSSL/wolfssl/wolfcrypt/src/random.c **** int wc_RNG_GenerateBlock(WC_RNG* rng, byte* output, word32 sz)
 914:Middlewares/Third_Party/wolfSSL_wolfSSL_wolfSSL/wolfssl/wolfcrypt/src/random.c **** {
 915:Middlewares/Third_Party/wolfSSL_wolfSSL_wolfSSL/wolfssl/wolfcrypt/src/random.c ****     int ret;
 916:Middlewares/Third_Party/wolfSSL_wolfSSL_wolfSSL/wolfssl/wolfcrypt/src/random.c **** 
 917:Middlewares/Third_Party/wolfSSL_wolfSSL_wolfSSL/wolfssl/wolfcrypt/src/random.c ****     if (rng == NULL || output == NULL)
 918:Middlewares/Third_Party/wolfSSL_wolfSSL_wolfSSL/wolfssl/wolfcrypt/src/random.c ****         return BAD_FUNC_ARG;
 919:Middlewares/Third_Party/wolfSSL_wolfSSL_wolfSSL/wolfssl/wolfcrypt/src/random.c **** 
 920:Middlewares/Third_Party/wolfSSL_wolfSSL_wolfSSL/wolfssl/wolfcrypt/src/random.c ****     if (sz == 0)
 921:Middlewares/Third_Party/wolfSSL_wolfSSL_wolfSSL/wolfssl/wolfcrypt/src/random.c ****         return 0; 
 922:Middlewares/Third_Party/wolfSSL_wolfSSL_wolfSSL/wolfssl/wolfcrypt/src/random.c **** 
 923:Middlewares/Third_Party/wolfSSL_wolfSSL_wolfSSL/wolfssl/wolfcrypt/src/random.c **** #ifdef WOLF_CRYPTO_CB
 924:Middlewares/Third_Party/wolfSSL_wolfSSL_wolfSSL/wolfssl/wolfcrypt/src/random.c ****     if (rng->devId != INVALID_DEVID) {
 925:Middlewares/Third_Party/wolfSSL_wolfSSL_wolfSSL/wolfssl/wolfcrypt/src/random.c ****         ret = wc_CryptoCb_RandomBlock(rng, output, sz);
 926:Middlewares/Third_Party/wolfSSL_wolfSSL_wolfSSL/wolfssl/wolfcrypt/src/random.c ****         if (ret != CRYPTOCB_UNAVAILABLE)
 927:Middlewares/Third_Party/wolfSSL_wolfSSL_wolfSSL/wolfssl/wolfcrypt/src/random.c ****             return ret;
 928:Middlewares/Third_Party/wolfSSL_wolfSSL_wolfSSL/wolfssl/wolfcrypt/src/random.c ****         /* fall-through when unavailable */
 929:Middlewares/Third_Party/wolfSSL_wolfSSL_wolfSSL/wolfssl/wolfcrypt/src/random.c ****     }
 930:Middlewares/Third_Party/wolfSSL_wolfSSL_wolfSSL/wolfssl/wolfcrypt/src/random.c **** #endif
 931:Middlewares/Third_Party/wolfSSL_wolfSSL_wolfSSL/wolfssl/wolfcrypt/src/random.c **** 
 932:Middlewares/Third_Party/wolfSSL_wolfSSL_wolfSSL/wolfssl/wolfcrypt/src/random.c **** #ifdef HAVE_INTEL_RDRAND
 933:Middlewares/Third_Party/wolfSSL_wolfSSL_wolfSSL/wolfssl/wolfcrypt/src/random.c ****     if (IS_INTEL_RDRAND(intel_flags))
 934:Middlewares/Third_Party/wolfSSL_wolfSSL_wolfSSL/wolfssl/wolfcrypt/src/random.c ****         return wc_GenerateRand_IntelRD(NULL, output, sz);
 935:Middlewares/Third_Party/wolfSSL_wolfSSL_wolfSSL/wolfssl/wolfcrypt/src/random.c **** #endif
 936:Middlewares/Third_Party/wolfSSL_wolfSSL_wolfSSL/wolfssl/wolfcrypt/src/random.c **** 
 937:Middlewares/Third_Party/wolfSSL_wolfSSL_wolfSSL/wolfssl/wolfcrypt/src/random.c **** #if defined(WOLFSSL_SILABS_SE_ACCEL) && defined(WOLFSSL_SILABS_TRNG)
 938:Middlewares/Third_Party/wolfSSL_wolfSSL_wolfSSL/wolfssl/wolfcrypt/src/random.c ****     return silabs_GenerateRand(output, sz);
 939:Middlewares/Third_Party/wolfSSL_wolfSSL_wolfSSL/wolfssl/wolfcrypt/src/random.c **** #endif
 940:Middlewares/Third_Party/wolfSSL_wolfSSL_wolfSSL/wolfssl/wolfcrypt/src/random.c **** 
 941:Middlewares/Third_Party/wolfSSL_wolfSSL_wolfSSL/wolfssl/wolfcrypt/src/random.c **** #if defined(WOLFSSL_ASYNC_CRYPT)
 942:Middlewares/Third_Party/wolfSSL_wolfSSL_wolfSSL/wolfssl/wolfcrypt/src/random.c ****     if (rng->asyncDev.marker == WOLFSSL_ASYNC_MARKER_RNG) {
 943:Middlewares/Third_Party/wolfSSL_wolfSSL_wolfSSL/wolfssl/wolfcrypt/src/random.c ****         /* these are blocking */
 944:Middlewares/Third_Party/wolfSSL_wolfSSL_wolfSSL/wolfssl/wolfcrypt/src/random.c ****     #ifdef HAVE_CAVIUM
 945:Middlewares/Third_Party/wolfSSL_wolfSSL_wolfSSL/wolfssl/wolfcrypt/src/random.c ****         return NitroxRngGenerateBlock(rng, output, sz);
 946:Middlewares/Third_Party/wolfSSL_wolfSSL_wolfSSL/wolfssl/wolfcrypt/src/random.c ****     #elif defined(HAVE_INTEL_QA) && defined(QAT_ENABLE_RNG)
 947:Middlewares/Third_Party/wolfSSL_wolfSSL_wolfSSL/wolfssl/wolfcrypt/src/random.c ****         return IntelQaDrbg(&rng->asyncDev, output, sz);
 948:Middlewares/Third_Party/wolfSSL_wolfSSL_wolfSSL/wolfssl/wolfcrypt/src/random.c ****     #else
 949:Middlewares/Third_Party/wolfSSL_wolfSSL_wolfSSL/wolfssl/wolfcrypt/src/random.c ****         /* simulator not supported */
ARM GAS  /tmp/cc09iKDl.s 			page 63


 950:Middlewares/Third_Party/wolfSSL_wolfSSL_wolfSSL/wolfssl/wolfcrypt/src/random.c ****     #endif
 951:Middlewares/Third_Party/wolfSSL_wolfSSL_wolfSSL/wolfssl/wolfcrypt/src/random.c ****     }
 952:Middlewares/Third_Party/wolfSSL_wolfSSL_wolfSSL/wolfssl/wolfcrypt/src/random.c **** #endif
 953:Middlewares/Third_Party/wolfSSL_wolfSSL_wolfSSL/wolfssl/wolfcrypt/src/random.c **** 
 954:Middlewares/Third_Party/wolfSSL_wolfSSL_wolfSSL/wolfssl/wolfcrypt/src/random.c **** #ifdef CUSTOM_RAND_GENERATE_BLOCK
 955:Middlewares/Third_Party/wolfSSL_wolfSSL_wolfSSL/wolfssl/wolfcrypt/src/random.c ****     XMEMSET(output, 0, sz);
 956:Middlewares/Third_Party/wolfSSL_wolfSSL_wolfSSL/wolfssl/wolfcrypt/src/random.c ****     ret = CUSTOM_RAND_GENERATE_BLOCK(output, sz);
 957:Middlewares/Third_Party/wolfSSL_wolfSSL_wolfSSL/wolfssl/wolfcrypt/src/random.c **** #else
 958:Middlewares/Third_Party/wolfSSL_wolfSSL_wolfSSL/wolfssl/wolfcrypt/src/random.c **** 
 959:Middlewares/Third_Party/wolfSSL_wolfSSL_wolfSSL/wolfssl/wolfcrypt/src/random.c **** #ifdef HAVE_HASHDRBG
 960:Middlewares/Third_Party/wolfSSL_wolfSSL_wolfSSL/wolfssl/wolfcrypt/src/random.c ****     if (sz > RNG_MAX_BLOCK_LEN)
 961:Middlewares/Third_Party/wolfSSL_wolfSSL_wolfSSL/wolfssl/wolfcrypt/src/random.c ****         return BAD_FUNC_ARG;
 962:Middlewares/Third_Party/wolfSSL_wolfSSL_wolfSSL/wolfssl/wolfcrypt/src/random.c **** 
 963:Middlewares/Third_Party/wolfSSL_wolfSSL_wolfSSL/wolfssl/wolfcrypt/src/random.c ****     if (rng->status != DRBG_OK)
 964:Middlewares/Third_Party/wolfSSL_wolfSSL_wolfSSL/wolfssl/wolfcrypt/src/random.c ****         return RNG_FAILURE_E;
 965:Middlewares/Third_Party/wolfSSL_wolfSSL_wolfSSL/wolfssl/wolfcrypt/src/random.c **** 
 966:Middlewares/Third_Party/wolfSSL_wolfSSL_wolfSSL/wolfssl/wolfcrypt/src/random.c ****     ret = Hash_DRBG_Generate((DRBG_internal *)rng->drbg, output, sz);
 967:Middlewares/Third_Party/wolfSSL_wolfSSL_wolfSSL/wolfssl/wolfcrypt/src/random.c ****     if (ret == DRBG_NEED_RESEED) {
 968:Middlewares/Third_Party/wolfSSL_wolfSSL_wolfSSL/wolfssl/wolfcrypt/src/random.c ****         if (wc_RNG_HealthTestLocal(1) == 0) {
 969:Middlewares/Third_Party/wolfSSL_wolfSSL_wolfSSL/wolfssl/wolfcrypt/src/random.c ****             byte newSeed[SEED_SZ + SEED_BLOCK_SZ];
 970:Middlewares/Third_Party/wolfSSL_wolfSSL_wolfSSL/wolfssl/wolfcrypt/src/random.c **** 
 971:Middlewares/Third_Party/wolfSSL_wolfSSL_wolfSSL/wolfssl/wolfcrypt/src/random.c ****             ret = wc_GenerateSeed(&rng->seed, newSeed,
 972:Middlewares/Third_Party/wolfSSL_wolfSSL_wolfSSL/wolfssl/wolfcrypt/src/random.c ****                                   SEED_SZ + SEED_BLOCK_SZ);
 973:Middlewares/Third_Party/wolfSSL_wolfSSL_wolfSSL/wolfssl/wolfcrypt/src/random.c ****             if (ret != 0)
 974:Middlewares/Third_Party/wolfSSL_wolfSSL_wolfSSL/wolfssl/wolfcrypt/src/random.c ****                 ret = DRBG_FAILURE;
 975:Middlewares/Third_Party/wolfSSL_wolfSSL_wolfSSL/wolfssl/wolfcrypt/src/random.c ****             else
 976:Middlewares/Third_Party/wolfSSL_wolfSSL_wolfSSL/wolfssl/wolfcrypt/src/random.c ****                 ret = wc_RNG_TestSeed(newSeed, SEED_SZ + SEED_BLOCK_SZ);
 977:Middlewares/Third_Party/wolfSSL_wolfSSL_wolfSSL/wolfssl/wolfcrypt/src/random.c **** 
 978:Middlewares/Third_Party/wolfSSL_wolfSSL_wolfSSL/wolfssl/wolfcrypt/src/random.c ****             if (ret == DRBG_SUCCESS)
 979:Middlewares/Third_Party/wolfSSL_wolfSSL_wolfSSL/wolfssl/wolfcrypt/src/random.c **** 	      ret = Hash_DRBG_Reseed((DRBG_internal *)rng->drbg, newSeed + SEED_BLOCK_SZ,
 980:Middlewares/Third_Party/wolfSSL_wolfSSL_wolfSSL/wolfssl/wolfcrypt/src/random.c ****                                        SEED_SZ);
 981:Middlewares/Third_Party/wolfSSL_wolfSSL_wolfSSL/wolfssl/wolfcrypt/src/random.c ****             if (ret == DRBG_SUCCESS)
 982:Middlewares/Third_Party/wolfSSL_wolfSSL_wolfSSL/wolfssl/wolfcrypt/src/random.c **** 	      ret = Hash_DRBG_Generate((DRBG_internal *)rng->drbg, output, sz);
 983:Middlewares/Third_Party/wolfSSL_wolfSSL_wolfSSL/wolfssl/wolfcrypt/src/random.c **** 
 984:Middlewares/Third_Party/wolfSSL_wolfSSL_wolfSSL/wolfssl/wolfcrypt/src/random.c ****             ForceZero(newSeed, sizeof(newSeed));
 985:Middlewares/Third_Party/wolfSSL_wolfSSL_wolfSSL/wolfssl/wolfcrypt/src/random.c ****         }
 986:Middlewares/Third_Party/wolfSSL_wolfSSL_wolfSSL/wolfssl/wolfcrypt/src/random.c ****         else
 987:Middlewares/Third_Party/wolfSSL_wolfSSL_wolfSSL/wolfssl/wolfcrypt/src/random.c ****             ret = DRBG_CONT_FAILURE;
 988:Middlewares/Third_Party/wolfSSL_wolfSSL_wolfSSL/wolfssl/wolfcrypt/src/random.c ****     }
 989:Middlewares/Third_Party/wolfSSL_wolfSSL_wolfSSL/wolfssl/wolfcrypt/src/random.c **** 
 990:Middlewares/Third_Party/wolfSSL_wolfSSL_wolfSSL/wolfssl/wolfcrypt/src/random.c ****     if (ret == DRBG_SUCCESS) {
 991:Middlewares/Third_Party/wolfSSL_wolfSSL_wolfSSL/wolfssl/wolfcrypt/src/random.c ****         ret = 0;
 992:Middlewares/Third_Party/wolfSSL_wolfSSL_wolfSSL/wolfssl/wolfcrypt/src/random.c ****     }
 993:Middlewares/Third_Party/wolfSSL_wolfSSL_wolfSSL/wolfssl/wolfcrypt/src/random.c ****     else if (ret == DRBG_CONT_FAILURE) {
 994:Middlewares/Third_Party/wolfSSL_wolfSSL_wolfSSL/wolfssl/wolfcrypt/src/random.c ****         ret = DRBG_CONT_FIPS_E;
 995:Middlewares/Third_Party/wolfSSL_wolfSSL_wolfSSL/wolfssl/wolfcrypt/src/random.c ****         rng->status = DRBG_CONT_FAILED;
 996:Middlewares/Third_Party/wolfSSL_wolfSSL_wolfSSL/wolfssl/wolfcrypt/src/random.c ****     }
 997:Middlewares/Third_Party/wolfSSL_wolfSSL_wolfSSL/wolfssl/wolfcrypt/src/random.c ****     else {
 998:Middlewares/Third_Party/wolfSSL_wolfSSL_wolfSSL/wolfssl/wolfcrypt/src/random.c ****         ret = RNG_FAILURE_E;
 999:Middlewares/Third_Party/wolfSSL_wolfSSL_wolfSSL/wolfssl/wolfcrypt/src/random.c ****         rng->status = DRBG_FAILED;
1000:Middlewares/Third_Party/wolfSSL_wolfSSL_wolfSSL/wolfssl/wolfcrypt/src/random.c ****     }
1001:Middlewares/Third_Party/wolfSSL_wolfSSL_wolfSSL/wolfssl/wolfcrypt/src/random.c **** #else
1002:Middlewares/Third_Party/wolfSSL_wolfSSL_wolfSSL/wolfssl/wolfcrypt/src/random.c **** 
1003:Middlewares/Third_Party/wolfSSL_wolfSSL_wolfSSL/wolfssl/wolfcrypt/src/random.c ****     /* if we get here then there is an RNG configuration error */
1004:Middlewares/Third_Party/wolfSSL_wolfSSL_wolfSSL/wolfssl/wolfcrypt/src/random.c ****     ret = RNG_FAILURE_E;
1005:Middlewares/Third_Party/wolfSSL_wolfSSL_wolfSSL/wolfssl/wolfcrypt/src/random.c **** 
1006:Middlewares/Third_Party/wolfSSL_wolfSSL_wolfSSL/wolfssl/wolfcrypt/src/random.c **** #endif /* HAVE_HASHDRBG */
ARM GAS  /tmp/cc09iKDl.s 			page 64


1007:Middlewares/Third_Party/wolfSSL_wolfSSL_wolfSSL/wolfssl/wolfcrypt/src/random.c **** #endif /* CUSTOM_RAND_GENERATE_BLOCK */
1008:Middlewares/Third_Party/wolfSSL_wolfSSL_wolfSSL/wolfssl/wolfcrypt/src/random.c **** 
1009:Middlewares/Third_Party/wolfSSL_wolfSSL_wolfSSL/wolfssl/wolfcrypt/src/random.c ****     return ret;
1010:Middlewares/Third_Party/wolfSSL_wolfSSL_wolfSSL/wolfssl/wolfcrypt/src/random.c **** }
1011:Middlewares/Third_Party/wolfSSL_wolfSSL_wolfSSL/wolfssl/wolfcrypt/src/random.c **** 
1012:Middlewares/Third_Party/wolfSSL_wolfSSL_wolfSSL/wolfssl/wolfcrypt/src/random.c **** 
1013:Middlewares/Third_Party/wolfSSL_wolfSSL_wolfSSL/wolfssl/wolfcrypt/src/random.c **** int wc_RNG_GenerateByte(WC_RNG* rng, byte* b)
1014:Middlewares/Third_Party/wolfSSL_wolfSSL_wolfSSL/wolfssl/wolfcrypt/src/random.c **** {
1015:Middlewares/Third_Party/wolfSSL_wolfSSL_wolfSSL/wolfssl/wolfcrypt/src/random.c ****     return wc_RNG_GenerateBlock(rng, b, 1);
1016:Middlewares/Third_Party/wolfSSL_wolfSSL_wolfSSL/wolfssl/wolfcrypt/src/random.c **** }
1017:Middlewares/Third_Party/wolfSSL_wolfSSL_wolfSSL/wolfssl/wolfcrypt/src/random.c **** 
1018:Middlewares/Third_Party/wolfSSL_wolfSSL_wolfSSL/wolfssl/wolfcrypt/src/random.c **** 
1019:Middlewares/Third_Party/wolfSSL_wolfSSL_wolfSSL/wolfssl/wolfcrypt/src/random.c **** int wc_FreeRng(WC_RNG* rng)
1020:Middlewares/Third_Party/wolfSSL_wolfSSL_wolfSSL/wolfssl/wolfcrypt/src/random.c **** {
 1796              		.loc 1 1020 1 is_stmt 1 view -0
 1797              		.cfi_startproc
 1798              		@ args = 0, pretend = 0, frame = 0
 1799              		@ frame_needed = 0, uses_anonymous_args = 0
 1800              		.loc 1 1020 1 is_stmt 0 view .LVU572
 1801 0000 38B5     		push	{r3, r4, r5, lr}
 1802              	.LCFI23:
 1803              		.cfi_def_cfa_offset 16
 1804              		.cfi_offset 3, -16
 1805              		.cfi_offset 4, -12
 1806              		.cfi_offset 5, -8
 1807              		.cfi_offset 14, -4
1021:Middlewares/Third_Party/wolfSSL_wolfSSL_wolfSSL/wolfssl/wolfcrypt/src/random.c ****     int ret = 0;
 1808              		.loc 1 1021 5 is_stmt 1 view .LVU573
 1809              	.LVL206:
1022:Middlewares/Third_Party/wolfSSL_wolfSSL_wolfSSL/wolfssl/wolfcrypt/src/random.c **** 
1023:Middlewares/Third_Party/wolfSSL_wolfSSL_wolfSSL/wolfssl/wolfcrypt/src/random.c ****     if (rng == NULL)
 1810              		.loc 1 1023 5 view .LVU574
 1811              		.loc 1 1023 8 is_stmt 0 view .LVU575
 1812 0002 98B1     		cbz	r0, .L122
 1813 0004 0446     		mov	r4, r0
1024:Middlewares/Third_Party/wolfSSL_wolfSSL_wolfSSL/wolfssl/wolfcrypt/src/random.c ****         return BAD_FUNC_ARG;
1025:Middlewares/Third_Party/wolfSSL_wolfSSL_wolfSSL/wolfssl/wolfcrypt/src/random.c **** 
1026:Middlewares/Third_Party/wolfSSL_wolfSSL_wolfSSL/wolfssl/wolfcrypt/src/random.c **** #if defined(WOLFSSL_ASYNC_CRYPT)
1027:Middlewares/Third_Party/wolfSSL_wolfSSL_wolfSSL/wolfssl/wolfcrypt/src/random.c ****     wolfAsync_DevCtxFree(&rng->asyncDev, WOLFSSL_ASYNC_MARKER_RNG);
1028:Middlewares/Third_Party/wolfSSL_wolfSSL_wolfSSL/wolfssl/wolfcrypt/src/random.c **** #endif
1029:Middlewares/Third_Party/wolfSSL_wolfSSL_wolfSSL/wolfssl/wolfcrypt/src/random.c **** 
1030:Middlewares/Third_Party/wolfSSL_wolfSSL_wolfSSL/wolfssl/wolfcrypt/src/random.c **** #ifdef HAVE_HASHDRBG
1031:Middlewares/Third_Party/wolfSSL_wolfSSL_wolfSSL/wolfssl/wolfcrypt/src/random.c ****     if (rng->drbg != NULL) {
 1814              		.loc 1 1031 5 is_stmt 1 view .LVU576
 1815              		.loc 1 1031 12 is_stmt 0 view .LVU577
 1816 0006 8068     		ldr	r0, [r0, #8]
 1817              	.LVL207:
 1818              		.loc 1 1031 8 view .LVU578
 1819 0008 70B1     		cbz	r0, .L123
1032:Middlewares/Third_Party/wolfSSL_wolfSSL_wolfSSL/wolfssl/wolfcrypt/src/random.c ****       if (Hash_DRBG_Uninstantiate((DRBG_internal *)rng->drbg) != DRBG_SUCCESS)
 1820              		.loc 1 1032 7 is_stmt 1 view .LVU579
 1821              		.loc 1 1032 11 is_stmt 0 view .LVU580
 1822 000a FFF7FEFF 		bl	Hash_DRBG_Uninstantiate
 1823              	.LVL208:
 1824              		.loc 1 1032 10 view .LVU581
 1825 000e 0546     		mov	r5, r0
 1826 0010 08B1     		cbz	r0, .L121
ARM GAS  /tmp/cc09iKDl.s 			page 65


1033:Middlewares/Third_Party/wolfSSL_wolfSSL_wolfSSL/wolfssl/wolfcrypt/src/random.c ****             ret = RNG_FAILURE_E;
 1827              		.loc 1 1033 17 view .LVU582
 1828 0012 6FF0C605 		mvn	r5, #198
 1829              	.L121:
 1830              	.LVL209:
1034:Middlewares/Third_Party/wolfSSL_wolfSSL_wolfSSL/wolfssl/wolfcrypt/src/random.c **** 
1035:Middlewares/Third_Party/wolfSSL_wolfSSL_wolfSSL/wolfssl/wolfcrypt/src/random.c ****     #if !defined(WOLFSSL_NO_MALLOC) || defined(WOLFSSL_STATIC_MEMORY)
1036:Middlewares/Third_Party/wolfSSL_wolfSSL_wolfSSL/wolfssl/wolfcrypt/src/random.c ****         XFREE(rng->drbg, rng->heap, DYNAMIC_TYPE_RNG);
 1831              		.loc 1 1036 9 is_stmt 1 view .LVU583
 1832 0016 A068     		ldr	r0, [r4, #8]
 1833 0018 FFF7FEFF 		bl	vPortFree
 1834              	.LVL210:
1037:Middlewares/Third_Party/wolfSSL_wolfSSL_wolfSSL/wolfssl/wolfcrypt/src/random.c ****     #endif
1038:Middlewares/Third_Party/wolfSSL_wolfSSL_wolfSSL/wolfssl/wolfcrypt/src/random.c ****         rng->drbg = NULL;
 1835              		.loc 1 1038 9 view .LVU584
 1836              		.loc 1 1038 19 is_stmt 0 view .LVU585
 1837 001c 0023     		movs	r3, #0
 1838 001e A360     		str	r3, [r4, #8]
 1839              	.LVL211:
 1840              	.L120:
1039:Middlewares/Third_Party/wolfSSL_wolfSSL_wolfSSL/wolfssl/wolfcrypt/src/random.c ****     }
1040:Middlewares/Third_Party/wolfSSL_wolfSSL_wolfSSL/wolfssl/wolfcrypt/src/random.c **** 
1041:Middlewares/Third_Party/wolfSSL_wolfSSL_wolfSSL/wolfssl/wolfcrypt/src/random.c ****     rng->status = DRBG_NOT_INIT;
 1841              		.loc 1 1041 5 is_stmt 1 view .LVU586
 1842              		.loc 1 1041 17 is_stmt 0 view .LVU587
 1843 0020 0023     		movs	r3, #0
 1844 0022 2373     		strb	r3, [r4, #12]
1042:Middlewares/Third_Party/wolfSSL_wolfSSL_wolfSSL/wolfssl/wolfcrypt/src/random.c **** #endif /* HAVE_HASHDRBG */
1043:Middlewares/Third_Party/wolfSSL_wolfSSL_wolfSSL/wolfssl/wolfcrypt/src/random.c **** 
1044:Middlewares/Third_Party/wolfSSL_wolfSSL_wolfSSL/wolfssl/wolfcrypt/src/random.c ****     return ret;
 1845              		.loc 1 1044 5 is_stmt 1 view .LVU588
 1846              	.LVL212:
 1847              	.L118:
1045:Middlewares/Third_Party/wolfSSL_wolfSSL_wolfSSL/wolfssl/wolfcrypt/src/random.c **** }
 1848              		.loc 1 1045 1 is_stmt 0 view .LVU589
 1849 0024 2846     		mov	r0, r5
 1850 0026 38BD     		pop	{r3, r4, r5, pc}
 1851              	.LVL213:
 1852              	.L123:
1021:Middlewares/Third_Party/wolfSSL_wolfSSL_wolfSSL/wolfssl/wolfcrypt/src/random.c **** 
 1853              		.loc 1 1021 9 view .LVU590
 1854 0028 0025     		movs	r5, #0
 1855 002a F9E7     		b	.L120
 1856              	.LVL214:
 1857              	.L122:
1024:Middlewares/Third_Party/wolfSSL_wolfSSL_wolfSSL/wolfssl/wolfcrypt/src/random.c **** 
 1858              		.loc 1 1024 16 view .LVU591
 1859 002c 6FF0AC05 		mvn	r5, #172
 1860 0030 F8E7     		b	.L118
 1861              		.cfi_endproc
 1862              	.LFE194:
 1864              		.section	.text.wc_rng_free,"ax",%progbits
 1865              		.align	1
 1866              		.global	wc_rng_free
 1867              		.syntax unified
 1868              		.thumb
 1869              		.thumb_func
ARM GAS  /tmp/cc09iKDl.s 			page 66


 1870              		.fpu fpv4-sp-d16
 1872              	wc_rng_free:
 1873              	.LVL215:
 1874              	.LFB187:
 874:Middlewares/Third_Party/wolfSSL_wolfSSL_wolfSSL/wolfssl/wolfcrypt/src/random.c ****     if (rng) {
 1875              		.loc 1 874 1 is_stmt 1 view -0
 1876              		.cfi_startproc
 1877              		@ args = 0, pretend = 0, frame = 0
 1878              		@ frame_needed = 0, uses_anonymous_args = 0
 875:Middlewares/Third_Party/wolfSSL_wolfSSL_wolfSSL/wolfssl/wolfcrypt/src/random.c ****         void* heap = rng->heap;
 1879              		.loc 1 875 5 view .LVU593
 875:Middlewares/Third_Party/wolfSSL_wolfSSL_wolfSSL/wolfssl/wolfcrypt/src/random.c ****         void* heap = rng->heap;
 1880              		.loc 1 875 8 is_stmt 0 view .LVU594
 1881 0000 88B1     		cbz	r0, .L131
 874:Middlewares/Third_Party/wolfSSL_wolfSSL_wolfSSL/wolfssl/wolfcrypt/src/random.c ****     if (rng) {
 1882              		.loc 1 874 1 view .LVU595
 1883 0002 10B5     		push	{r4, lr}
 1884              	.LCFI24:
 1885              		.cfi_def_cfa_offset 8
 1886              		.cfi_offset 4, -8
 1887              		.cfi_offset 14, -4
 1888 0004 0446     		mov	r4, r0
 1889              	.LBB106:
 876:Middlewares/Third_Party/wolfSSL_wolfSSL_wolfSSL/wolfssl/wolfcrypt/src/random.c **** 
 1890              		.loc 1 876 9 is_stmt 1 view .LVU596
 1891              	.LVL216:
 878:Middlewares/Third_Party/wolfSSL_wolfSSL_wolfSSL/wolfssl/wolfcrypt/src/random.c ****         ForceZero(rng, sizeof(WC_RNG));
 1892              		.loc 1 878 9 view .LVU597
 1893 0006 FFF7FEFF 		bl	wc_FreeRng
 1894              	.LVL217:
 879:Middlewares/Third_Party/wolfSSL_wolfSSL_wolfSSL/wolfssl/wolfcrypt/src/random.c ****         XFREE(rng, heap, DYNAMIC_TYPE_RNG);
 1895              		.loc 1 879 9 view .LVU598
 1896              	.LBB107:
 1897              	.LBI107:
 272:Middlewares/Third_Party/wolfSSL_wolfSSL_wolfSSL/wolfssl/wolfcrypt/src/misc.c **** {
 1898              		.loc 2 272 26 view .LVU599
 1899              	.LBB108:
 274:Middlewares/Third_Party/wolfSSL_wolfSSL_wolfSSL/wolfssl/wolfcrypt/src/misc.c **** 
 1900              		.loc 2 274 5 view .LVU600
 292:Middlewares/Third_Party/wolfSSL_wolfSSL_wolfSSL/wolfssl/wolfcrypt/src/misc.c **** }
 1901              		.loc 2 292 5 view .LVU601
 274:Middlewares/Third_Party/wolfSSL_wolfSSL_wolfSSL/wolfssl/wolfcrypt/src/misc.c **** 
 1902              		.loc 2 274 20 is_stmt 0 view .LVU602
 1903 000a 2346     		mov	r3, r4
 292:Middlewares/Third_Party/wolfSSL_wolfSSL_wolfSSL/wolfssl/wolfcrypt/src/misc.c **** }
 1904              		.loc 2 292 11 view .LVU603
 1905 000c 1022     		movs	r2, #16
 1906 000e 03E0     		b	.L128
 1907              	.LVL218:
 1908              	.L129:
 292:Middlewares/Third_Party/wolfSSL_wolfSSL_wolfSSL/wolfssl/wolfcrypt/src/misc.c **** }
 1909              		.loc 2 292 19 is_stmt 1 view .LVU604
 292:Middlewares/Third_Party/wolfSSL_wolfSSL_wolfSSL/wolfssl/wolfcrypt/src/misc.c **** }
 1910              		.loc 2 292 24 is_stmt 0 view .LVU605
 1911 0010 0022     		movs	r2, #0
 1912 0012 03F8012B 		strb	r2, [r3], #1
 1913              	.LVL219:
ARM GAS  /tmp/cc09iKDl.s 			page 67


 292:Middlewares/Third_Party/wolfSSL_wolfSSL_wolfSSL/wolfssl/wolfcrypt/src/misc.c **** }
 1914              		.loc 2 292 15 view .LVU606
 1915 0016 0A46     		mov	r2, r1
 1916              	.LVL220:
 1917              	.L128:
 292:Middlewares/Third_Party/wolfSSL_wolfSSL_wolfSSL/wolfssl/wolfcrypt/src/misc.c **** }
 1918              		.loc 2 292 11 is_stmt 1 view .LVU607
 292:Middlewares/Third_Party/wolfSSL_wolfSSL_wolfSSL/wolfssl/wolfcrypt/src/misc.c **** }
 1919              		.loc 2 292 15 is_stmt 0 view .LVU608
 1920 0018 511E     		subs	r1, r2, #1
 1921              	.LVL221:
 292:Middlewares/Third_Party/wolfSSL_wolfSSL_wolfSSL/wolfssl/wolfcrypt/src/misc.c **** }
 1922              		.loc 2 292 11 view .LVU609
 1923 001a 002A     		cmp	r2, #0
 1924 001c F8D1     		bne	.L129
 1925              	.LVL222:
 292:Middlewares/Third_Party/wolfSSL_wolfSSL_wolfSSL/wolfssl/wolfcrypt/src/misc.c **** }
 1926              		.loc 2 292 11 view .LVU610
 1927              	.LBE108:
 1928              	.LBE107:
 880:Middlewares/Third_Party/wolfSSL_wolfSSL_wolfSSL/wolfssl/wolfcrypt/src/random.c ****         (void)heap;
 1929              		.loc 1 880 9 is_stmt 1 view .LVU611
 1930 001e 2046     		mov	r0, r4
 1931 0020 FFF7FEFF 		bl	vPortFree
 1932              	.LVL223:
 881:Middlewares/Third_Party/wolfSSL_wolfSSL_wolfSSL/wolfssl/wolfcrypt/src/random.c ****     }
 1933              		.loc 1 881 9 view .LVU612
 1934              	.LBE106:
 883:Middlewares/Third_Party/wolfSSL_wolfSSL_wolfSSL/wolfssl/wolfcrypt/src/random.c **** 
 1935              		.loc 1 883 1 is_stmt 0 view .LVU613
 1936 0024 10BD     		pop	{r4, pc}
 1937              	.LVL224:
 1938              	.L131:
 1939              	.LCFI25:
 1940              		.cfi_def_cfa_offset 0
 1941              		.cfi_restore 4
 1942              		.cfi_restore 14
 883:Middlewares/Third_Party/wolfSSL_wolfSSL_wolfSSL/wolfssl/wolfcrypt/src/random.c **** 
 1943              		.loc 1 883 1 view .LVU614
 1944 0026 7047     		bx	lr
 1945              		.cfi_endproc
 1946              	.LFE187:
 1948              		.section	.text.wc_RNG_HealthTest_ex,"ax",%progbits
 1949              		.align	1
 1950              		.global	wc_RNG_HealthTest_ex
 1951              		.syntax unified
 1952              		.thumb
 1953              		.thumb_func
 1954              		.fpu fpv4-sp-d16
 1956              	wc_RNG_HealthTest_ex:
 1957              	.LVL225:
 1958              	.LFB196:
1046:Middlewares/Third_Party/wolfSSL_wolfSSL_wolfSSL/wolfssl/wolfcrypt/src/random.c **** 
1047:Middlewares/Third_Party/wolfSSL_wolfSSL_wolfSSL/wolfssl/wolfcrypt/src/random.c **** #ifdef HAVE_HASHDRBG
1048:Middlewares/Third_Party/wolfSSL_wolfSSL_wolfSSL/wolfssl/wolfcrypt/src/random.c **** int wc_RNG_HealthTest(int reseed, const byte* seedA, word32 seedASz,
1049:Middlewares/Third_Party/wolfSSL_wolfSSL_wolfSSL/wolfssl/wolfcrypt/src/random.c ****                                   const byte* seedB, word32 seedBSz,
1050:Middlewares/Third_Party/wolfSSL_wolfSSL_wolfSSL/wolfssl/wolfcrypt/src/random.c ****                                   byte* output, word32 outputSz)
ARM GAS  /tmp/cc09iKDl.s 			page 68


1051:Middlewares/Third_Party/wolfSSL_wolfSSL_wolfSSL/wolfssl/wolfcrypt/src/random.c **** {
1052:Middlewares/Third_Party/wolfSSL_wolfSSL_wolfSSL/wolfssl/wolfcrypt/src/random.c ****     return wc_RNG_HealthTest_ex(reseed, NULL, 0,
1053:Middlewares/Third_Party/wolfSSL_wolfSSL_wolfSSL/wolfssl/wolfcrypt/src/random.c ****                                 seedA, seedASz, seedB, seedBSz,
1054:Middlewares/Third_Party/wolfSSL_wolfSSL_wolfSSL/wolfssl/wolfcrypt/src/random.c ****                                 output, outputSz,
1055:Middlewares/Third_Party/wolfSSL_wolfSSL_wolfSSL/wolfssl/wolfcrypt/src/random.c ****                                 NULL, INVALID_DEVID);
1056:Middlewares/Third_Party/wolfSSL_wolfSSL_wolfSSL/wolfssl/wolfcrypt/src/random.c **** }
1057:Middlewares/Third_Party/wolfSSL_wolfSSL_wolfSSL/wolfssl/wolfcrypt/src/random.c **** 
1058:Middlewares/Third_Party/wolfSSL_wolfSSL_wolfSSL/wolfssl/wolfcrypt/src/random.c **** 
1059:Middlewares/Third_Party/wolfSSL_wolfSSL_wolfSSL/wolfssl/wolfcrypt/src/random.c **** int wc_RNG_HealthTest_ex(int reseed, const byte* nonce, word32 nonceSz,
1060:Middlewares/Third_Party/wolfSSL_wolfSSL_wolfSSL/wolfssl/wolfcrypt/src/random.c ****                                   const byte* seedA, word32 seedASz,
1061:Middlewares/Third_Party/wolfSSL_wolfSSL_wolfSSL/wolfssl/wolfcrypt/src/random.c ****                                   const byte* seedB, word32 seedBSz,
1062:Middlewares/Third_Party/wolfSSL_wolfSSL_wolfSSL/wolfssl/wolfcrypt/src/random.c ****                                   byte* output, word32 outputSz,
1063:Middlewares/Third_Party/wolfSSL_wolfSSL_wolfSSL/wolfssl/wolfcrypt/src/random.c ****                                   void* heap, int devId)
1064:Middlewares/Third_Party/wolfSSL_wolfSSL_wolfSSL/wolfssl/wolfcrypt/src/random.c **** {
 1959              		.loc 1 1064 1 is_stmt 1 view -0
 1960              		.cfi_startproc
 1961              		@ args = 28, pretend = 0, frame = 0
 1962              		@ frame_needed = 0, uses_anonymous_args = 0
 1963              		.loc 1 1064 1 is_stmt 0 view .LVU616
 1964 0000 2DE9F047 		push	{r4, r5, r6, r7, r8, r9, r10, lr}
 1965              	.LCFI26:
 1966              		.cfi_def_cfa_offset 32
 1967              		.cfi_offset 4, -32
 1968              		.cfi_offset 5, -28
 1969              		.cfi_offset 6, -24
 1970              		.cfi_offset 7, -20
 1971              		.cfi_offset 8, -16
 1972              		.cfi_offset 9, -12
 1973              		.cfi_offset 10, -8
 1974              		.cfi_offset 14, -4
 1975 0004 84B0     		sub	sp, sp, #16
 1976              	.LCFI27:
 1977              		.cfi_def_cfa_offset 48
 1978 0006 DDF83C80 		ldr	r8, [sp, #60]
 1979 000a DDF84090 		ldr	r9, [sp, #64]
1065:Middlewares/Third_Party/wolfSSL_wolfSSL_wolfSSL/wolfssl/wolfcrypt/src/random.c ****     int ret = -1;
 1980              		.loc 1 1065 5 is_stmt 1 view .LVU617
 1981              	.LVL226:
1066:Middlewares/Third_Party/wolfSSL_wolfSSL_wolfSSL/wolfssl/wolfcrypt/src/random.c ****     DRBG_internal* drbg;
 1982              		.loc 1 1066 5 view .LVU618
1067:Middlewares/Third_Party/wolfSSL_wolfSSL_wolfSSL/wolfssl/wolfcrypt/src/random.c **** #ifndef WOLFSSL_SMALL_STACK
1068:Middlewares/Third_Party/wolfSSL_wolfSSL_wolfSSL/wolfssl/wolfcrypt/src/random.c ****     DRBG_internal  drbg_var;
1069:Middlewares/Third_Party/wolfSSL_wolfSSL_wolfSSL/wolfssl/wolfcrypt/src/random.c **** #endif
1070:Middlewares/Third_Party/wolfSSL_wolfSSL_wolfSSL/wolfssl/wolfcrypt/src/random.c **** 
1071:Middlewares/Third_Party/wolfSSL_wolfSSL_wolfSSL/wolfssl/wolfcrypt/src/random.c ****     if (seedA == NULL || output == NULL) {
 1983              		.loc 1 1071 5 view .LVU619
 1984              		.loc 1 1071 8 is_stmt 0 view .LVU620
 1985 000e 002B     		cmp	r3, #0
 1986 0010 4AD0     		beq	.L140
 1987 0012 0546     		mov	r5, r0
 1988 0014 0E46     		mov	r6, r1
 1989 0016 1746     		mov	r7, r2
 1990 0018 9A46     		mov	r10, r3
 1991              		.loc 1 1071 23 discriminator 1 view .LVU621
 1992 001a B8F1000F 		cmp	r8, #0
 1993 001e 46D0     		beq	.L141
1072:Middlewares/Third_Party/wolfSSL_wolfSSL_wolfSSL/wolfssl/wolfcrypt/src/random.c ****         return BAD_FUNC_ARG;
ARM GAS  /tmp/cc09iKDl.s 			page 69


1073:Middlewares/Third_Party/wolfSSL_wolfSSL_wolfSSL/wolfssl/wolfcrypt/src/random.c ****     }
1074:Middlewares/Third_Party/wolfSSL_wolfSSL_wolfSSL/wolfssl/wolfcrypt/src/random.c **** 
1075:Middlewares/Third_Party/wolfSSL_wolfSSL_wolfSSL/wolfssl/wolfcrypt/src/random.c ****     if (reseed != 0 && seedB == NULL) {
 1994              		.loc 1 1075 5 is_stmt 1 view .LVU622
 1995              		.loc 1 1075 8 is_stmt 0 view .LVU623
 1996 0020 10B1     		cbz	r0, .L136
 1997              		.loc 1 1075 21 discriminator 1 view .LVU624
 1998 0022 0D9B     		ldr	r3, [sp, #52]
 1999              	.LVL227:
 2000              		.loc 1 1075 21 discriminator 1 view .LVU625
 2001 0024 002B     		cmp	r3, #0
 2002 0026 45D0     		beq	.L142
 2003              	.L136:
1076:Middlewares/Third_Party/wolfSSL_wolfSSL_wolfSSL/wolfssl/wolfcrypt/src/random.c ****         return BAD_FUNC_ARG;
1077:Middlewares/Third_Party/wolfSSL_wolfSSL_wolfSSL/wolfssl/wolfcrypt/src/random.c ****     }
1078:Middlewares/Third_Party/wolfSSL_wolfSSL_wolfSSL/wolfssl/wolfcrypt/src/random.c **** 
1079:Middlewares/Third_Party/wolfSSL_wolfSSL_wolfSSL/wolfssl/wolfcrypt/src/random.c ****     if (outputSz != RNG_HEALTH_TEST_CHECK_SIZE) {
 2004              		.loc 1 1079 5 is_stmt 1 view .LVU626
 2005              		.loc 1 1079 8 is_stmt 0 view .LVU627
 2006 0028 B9F1800F 		cmp	r9, #128
 2007 002c 45D1     		bne	.L143
1080:Middlewares/Third_Party/wolfSSL_wolfSSL_wolfSSL/wolfssl/wolfcrypt/src/random.c ****         return ret;
1081:Middlewares/Third_Party/wolfSSL_wolfSSL_wolfSSL/wolfssl/wolfcrypt/src/random.c ****     }
1082:Middlewares/Third_Party/wolfSSL_wolfSSL_wolfSSL/wolfssl/wolfcrypt/src/random.c **** 
1083:Middlewares/Third_Party/wolfSSL_wolfSSL_wolfSSL/wolfssl/wolfcrypt/src/random.c **** #ifdef WOLFSSL_SMALL_STACK
1084:Middlewares/Third_Party/wolfSSL_wolfSSL_wolfSSL/wolfssl/wolfcrypt/src/random.c ****     drbg = (DRBG_internal*)XMALLOC(sizeof(DRBG_internal), NULL, DYNAMIC_TYPE_RNG);
 2008              		.loc 1 1084 5 is_stmt 1 view .LVU628
 2009              		.loc 1 1084 28 is_stmt 0 view .LVU629
 2010 002e 7820     		movs	r0, #120
 2011              	.LVL228:
 2012              		.loc 1 1084 28 view .LVU630
 2013 0030 FFF7FEFF 		bl	pvPortMalloc
 2014              	.LVL229:
1085:Middlewares/Third_Party/wolfSSL_wolfSSL_wolfSSL/wolfssl/wolfcrypt/src/random.c ****     if (drbg == NULL) {
 2015              		.loc 1 1085 5 is_stmt 1 view .LVU631
 2016              		.loc 1 1085 8 is_stmt 0 view .LVU632
 2017 0034 0446     		mov	r4, r0
 2018 0036 0028     		cmp	r0, #0
 2019 0038 42D0     		beq	.L144
1086:Middlewares/Third_Party/wolfSSL_wolfSSL_wolfSSL/wolfssl/wolfcrypt/src/random.c ****         return MEMORY_E;
1087:Middlewares/Third_Party/wolfSSL_wolfSSL_wolfSSL/wolfssl/wolfcrypt/src/random.c ****     }
1088:Middlewares/Third_Party/wolfSSL_wolfSSL_wolfSSL/wolfssl/wolfcrypt/src/random.c **** #else
1089:Middlewares/Third_Party/wolfSSL_wolfSSL_wolfSSL/wolfssl/wolfcrypt/src/random.c ****     drbg = &drbg_var;
1090:Middlewares/Third_Party/wolfSSL_wolfSSL_wolfSSL/wolfssl/wolfcrypt/src/random.c **** #endif
1091:Middlewares/Third_Party/wolfSSL_wolfSSL_wolfSSL/wolfssl/wolfcrypt/src/random.c **** 
1092:Middlewares/Third_Party/wolfSSL_wolfSSL_wolfSSL/wolfssl/wolfcrypt/src/random.c ****     if (Hash_DRBG_Instantiate(drbg, seedA, seedASz, nonce, nonceSz,
 2020              		.loc 1 1092 5 is_stmt 1 view .LVU633
 2021              		.loc 1 1092 9 is_stmt 0 view .LVU634
 2022 003a 129B     		ldr	r3, [sp, #72]
 2023 003c 0293     		str	r3, [sp, #8]
 2024 003e 119B     		ldr	r3, [sp, #68]
 2025 0040 0193     		str	r3, [sp, #4]
 2026 0042 0097     		str	r7, [sp]
 2027 0044 3346     		mov	r3, r6
 2028 0046 0C9A     		ldr	r2, [sp, #48]
 2029 0048 5146     		mov	r1, r10
 2030 004a FFF7FEFF 		bl	Hash_DRBG_Instantiate
ARM GAS  /tmp/cc09iKDl.s 			page 70


 2031              	.LVL230:
 2032              		.loc 1 1092 8 view .LVU635
 2033 004e C8B9     		cbnz	r0, .L145
1093:Middlewares/Third_Party/wolfSSL_wolfSSL_wolfSSL/wolfssl/wolfcrypt/src/random.c ****                               heap, devId) != 0) {
1094:Middlewares/Third_Party/wolfSSL_wolfSSL_wolfSSL/wolfssl/wolfcrypt/src/random.c ****         goto exit_rng_ht;
1095:Middlewares/Third_Party/wolfSSL_wolfSSL_wolfSSL/wolfssl/wolfcrypt/src/random.c ****     }
1096:Middlewares/Third_Party/wolfSSL_wolfSSL_wolfSSL/wolfssl/wolfcrypt/src/random.c **** 
1097:Middlewares/Third_Party/wolfSSL_wolfSSL_wolfSSL/wolfssl/wolfcrypt/src/random.c ****     if (reseed) {
 2034              		.loc 1 1097 5 is_stmt 1 view .LVU636
 2035              		.loc 1 1097 8 is_stmt 0 view .LVU637
 2036 0050 2DB1     		cbz	r5, .L138
1098:Middlewares/Third_Party/wolfSSL_wolfSSL_wolfSSL/wolfssl/wolfcrypt/src/random.c ****         if (Hash_DRBG_Reseed(drbg, seedB, seedBSz) != 0) {
 2037              		.loc 1 1098 9 is_stmt 1 view .LVU638
 2038              		.loc 1 1098 13 is_stmt 0 view .LVU639
 2039 0052 0E9A     		ldr	r2, [sp, #56]
 2040 0054 0D99     		ldr	r1, [sp, #52]
 2041 0056 2046     		mov	r0, r4
 2042 0058 FFF7FEFF 		bl	Hash_DRBG_Reseed
 2043              	.LVL231:
 2044              		.loc 1 1098 12 view .LVU640
 2045 005c 08BB     		cbnz	r0, .L146
 2046              	.L138:
1099:Middlewares/Third_Party/wolfSSL_wolfSSL_wolfSSL/wolfssl/wolfcrypt/src/random.c ****             goto exit_rng_ht;
1100:Middlewares/Third_Party/wolfSSL_wolfSSL_wolfSSL/wolfssl/wolfcrypt/src/random.c ****         }
1101:Middlewares/Third_Party/wolfSSL_wolfSSL_wolfSSL/wolfssl/wolfcrypt/src/random.c ****     }
1102:Middlewares/Third_Party/wolfSSL_wolfSSL_wolfSSL/wolfssl/wolfcrypt/src/random.c **** 
1103:Middlewares/Third_Party/wolfSSL_wolfSSL_wolfSSL/wolfssl/wolfcrypt/src/random.c ****     /* This call to generate is prescribed by the NIST DRBGVS
1104:Middlewares/Third_Party/wolfSSL_wolfSSL_wolfSSL/wolfssl/wolfcrypt/src/random.c ****      * procedure. The results are thrown away. The known
1105:Middlewares/Third_Party/wolfSSL_wolfSSL_wolfSSL/wolfssl/wolfcrypt/src/random.c ****      * answer test checks the second block of DRBG out of
1106:Middlewares/Third_Party/wolfSSL_wolfSSL_wolfSSL/wolfssl/wolfcrypt/src/random.c ****      * the generator to ensure the internal state is updated
1107:Middlewares/Third_Party/wolfSSL_wolfSSL_wolfSSL/wolfssl/wolfcrypt/src/random.c ****      * as expected. */
1108:Middlewares/Third_Party/wolfSSL_wolfSSL_wolfSSL/wolfssl/wolfcrypt/src/random.c ****     if (Hash_DRBG_Generate(drbg, output, outputSz) != 0) {
 2047              		.loc 1 1108 5 is_stmt 1 view .LVU641
 2048              		.loc 1 1108 9 is_stmt 0 view .LVU642
 2049 005e 4A46     		mov	r2, r9
 2050 0060 4146     		mov	r1, r8
 2051 0062 2046     		mov	r0, r4
 2052 0064 FFF7FEFF 		bl	Hash_DRBG_Generate
 2053              	.LVL232:
 2054              		.loc 1 1108 8 view .LVU643
 2055 0068 10B1     		cbz	r0, .L151
1065:Middlewares/Third_Party/wolfSSL_wolfSSL_wolfSSL/wolfssl/wolfcrypt/src/random.c ****     DRBG_internal* drbg;
 2056              		.loc 1 1065 9 view .LVU644
 2057 006a 4FF0FF35 		mov	r5, #-1
 2058              	.LVL233:
1065:Middlewares/Third_Party/wolfSSL_wolfSSL_wolfSSL/wolfssl/wolfcrypt/src/random.c ****     DRBG_internal* drbg;
 2059              		.loc 1 1065 9 view .LVU645
 2060 006e 0BE0     		b	.L137
 2061              	.LVL234:
 2062              	.L151:
1109:Middlewares/Third_Party/wolfSSL_wolfSSL_wolfSSL/wolfssl/wolfcrypt/src/random.c ****         goto exit_rng_ht;
1110:Middlewares/Third_Party/wolfSSL_wolfSSL_wolfSSL/wolfssl/wolfcrypt/src/random.c ****     }
1111:Middlewares/Third_Party/wolfSSL_wolfSSL_wolfSSL/wolfssl/wolfcrypt/src/random.c **** 
1112:Middlewares/Third_Party/wolfSSL_wolfSSL_wolfSSL/wolfssl/wolfcrypt/src/random.c ****     if (Hash_DRBG_Generate(drbg, output, outputSz) != 0) {
 2063              		.loc 1 1112 5 is_stmt 1 view .LVU646
 2064              		.loc 1 1112 9 is_stmt 0 view .LVU647
 2065 0070 4A46     		mov	r2, r9
ARM GAS  /tmp/cc09iKDl.s 			page 71


 2066 0072 4146     		mov	r1, r8
 2067 0074 2046     		mov	r0, r4
 2068 0076 FFF7FEFF 		bl	Hash_DRBG_Generate
 2069              	.LVL235:
 2070              		.loc 1 1112 8 view .LVU648
 2071 007a 0546     		mov	r5, r0
 2072              	.LVL236:
 2073              		.loc 1 1112 8 view .LVU649
 2074 007c 20B1     		cbz	r0, .L137
1065:Middlewares/Third_Party/wolfSSL_wolfSSL_wolfSSL/wolfssl/wolfcrypt/src/random.c ****     DRBG_internal* drbg;
 2075              		.loc 1 1065 9 view .LVU650
 2076 007e 4FF0FF35 		mov	r5, #-1
 2077 0082 01E0     		b	.L137
 2078              	.LVL237:
 2079              	.L145:
1065:Middlewares/Third_Party/wolfSSL_wolfSSL_wolfSSL/wolfssl/wolfcrypt/src/random.c ****     DRBG_internal* drbg;
 2080              		.loc 1 1065 9 view .LVU651
 2081 0084 4FF0FF35 		mov	r5, #-1
 2082              	.LVL238:
 2083              	.L137:
1113:Middlewares/Third_Party/wolfSSL_wolfSSL_wolfSSL/wolfssl/wolfcrypt/src/random.c ****         goto exit_rng_ht;
1114:Middlewares/Third_Party/wolfSSL_wolfSSL_wolfSSL/wolfssl/wolfcrypt/src/random.c ****     }
1115:Middlewares/Third_Party/wolfSSL_wolfSSL_wolfSSL/wolfssl/wolfcrypt/src/random.c **** 
1116:Middlewares/Third_Party/wolfSSL_wolfSSL_wolfSSL/wolfssl/wolfcrypt/src/random.c ****     /* Mark success */
1117:Middlewares/Third_Party/wolfSSL_wolfSSL_wolfSSL/wolfssl/wolfcrypt/src/random.c ****     ret = 0;
1118:Middlewares/Third_Party/wolfSSL_wolfSSL_wolfSSL/wolfssl/wolfcrypt/src/random.c **** 
1119:Middlewares/Third_Party/wolfSSL_wolfSSL_wolfSSL/wolfssl/wolfcrypt/src/random.c **** exit_rng_ht:
1120:Middlewares/Third_Party/wolfSSL_wolfSSL_wolfSSL/wolfssl/wolfcrypt/src/random.c **** 
1121:Middlewares/Third_Party/wolfSSL_wolfSSL_wolfSSL/wolfssl/wolfcrypt/src/random.c ****     /* This is safe to call even if Hash_DRBG_Instantiate fails */
1122:Middlewares/Third_Party/wolfSSL_wolfSSL_wolfSSL/wolfssl/wolfcrypt/src/random.c ****     if (Hash_DRBG_Uninstantiate(drbg) != 0) {
 2084              		.loc 1 1122 5 is_stmt 1 view .LVU652
 2085              		.loc 1 1122 9 is_stmt 0 view .LVU653
 2086 0088 2046     		mov	r0, r4
 2087 008a FFF7FEFF 		bl	Hash_DRBG_Uninstantiate
 2088              	.LVL239:
 2089              		.loc 1 1122 8 view .LVU654
 2090 008e 08B1     		cbz	r0, .L139
1123:Middlewares/Third_Party/wolfSSL_wolfSSL_wolfSSL/wolfssl/wolfcrypt/src/random.c ****         ret = -1;
 2091              		.loc 1 1123 13 view .LVU655
 2092 0090 4FF0FF35 		mov	r5, #-1
 2093              	.LVL240:
 2094              	.L139:
1124:Middlewares/Third_Party/wolfSSL_wolfSSL_wolfSSL/wolfssl/wolfcrypt/src/random.c ****     }
1125:Middlewares/Third_Party/wolfSSL_wolfSSL_wolfSSL/wolfssl/wolfcrypt/src/random.c **** 
1126:Middlewares/Third_Party/wolfSSL_wolfSSL_wolfSSL/wolfssl/wolfcrypt/src/random.c **** #ifdef WOLFSSL_SMALL_STACK
1127:Middlewares/Third_Party/wolfSSL_wolfSSL_wolfSSL/wolfssl/wolfcrypt/src/random.c ****     XFREE(drbg, NULL, DYNAMIC_TYPE_RNG);
 2095              		.loc 1 1127 5 is_stmt 1 view .LVU656
 2096 0094 2046     		mov	r0, r4
 2097 0096 FFF7FEFF 		bl	vPortFree
 2098              	.LVL241:
1128:Middlewares/Third_Party/wolfSSL_wolfSSL_wolfSSL/wolfssl/wolfcrypt/src/random.c **** #endif
1129:Middlewares/Third_Party/wolfSSL_wolfSSL_wolfSSL/wolfssl/wolfcrypt/src/random.c **** 
1130:Middlewares/Third_Party/wolfSSL_wolfSSL_wolfSSL/wolfssl/wolfcrypt/src/random.c ****     return ret;
 2099              		.loc 1 1130 5 view .LVU657
 2100              	.L134:
1131:Middlewares/Third_Party/wolfSSL_wolfSSL_wolfSSL/wolfssl/wolfcrypt/src/random.c **** }
 2101              		.loc 1 1131 1 is_stmt 0 view .LVU658
ARM GAS  /tmp/cc09iKDl.s 			page 72


 2102 009a 2846     		mov	r0, r5
 2103 009c 04B0     		add	sp, sp, #16
 2104              	.LCFI28:
 2105              		.cfi_remember_state
 2106              		.cfi_def_cfa_offset 32
 2107              		@ sp needed
 2108 009e BDE8F087 		pop	{r4, r5, r6, r7, r8, r9, r10, pc}
 2109              	.LVL242:
 2110              	.L146:
 2111              	.LCFI29:
 2112              		.cfi_restore_state
1065:Middlewares/Third_Party/wolfSSL_wolfSSL_wolfSSL/wolfssl/wolfcrypt/src/random.c ****     DRBG_internal* drbg;
 2113              		.loc 1 1065 9 view .LVU659
 2114 00a2 4FF0FF35 		mov	r5, #-1
 2115              	.LVL243:
1065:Middlewares/Third_Party/wolfSSL_wolfSSL_wolfSSL/wolfssl/wolfcrypt/src/random.c ****     DRBG_internal* drbg;
 2116              		.loc 1 1065 9 view .LVU660
 2117 00a6 EFE7     		b	.L137
 2118              	.LVL244:
 2119              	.L140:
1072:Middlewares/Third_Party/wolfSSL_wolfSSL_wolfSSL/wolfssl/wolfcrypt/src/random.c ****     }
 2120              		.loc 1 1072 16 view .LVU661
 2121 00a8 6FF0AC05 		mvn	r5, #172
 2122 00ac F5E7     		b	.L134
 2123              	.L141:
1072:Middlewares/Third_Party/wolfSSL_wolfSSL_wolfSSL/wolfssl/wolfcrypt/src/random.c ****     }
 2124              		.loc 1 1072 16 view .LVU662
 2125 00ae 6FF0AC05 		mvn	r5, #172
 2126 00b2 F2E7     		b	.L134
 2127              	.LVL245:
 2128              	.L142:
1076:Middlewares/Third_Party/wolfSSL_wolfSSL_wolfSSL/wolfssl/wolfcrypt/src/random.c ****     }
 2129              		.loc 1 1076 16 view .LVU663
 2130 00b4 6FF0AC05 		mvn	r5, #172
 2131 00b8 EFE7     		b	.L134
 2132              	.L143:
1080:Middlewares/Third_Party/wolfSSL_wolfSSL_wolfSSL/wolfssl/wolfcrypt/src/random.c ****     }
 2133              		.loc 1 1080 16 view .LVU664
 2134 00ba 4FF0FF35 		mov	r5, #-1
 2135 00be ECE7     		b	.L134
 2136              	.LVL246:
 2137              	.L144:
1086:Middlewares/Third_Party/wolfSSL_wolfSSL_wolfSSL/wolfssl/wolfcrypt/src/random.c ****     }
 2138              		.loc 1 1086 16 view .LVU665
 2139 00c0 6FF07C05 		mvn	r5, #124
 2140              	.LVL247:
1086:Middlewares/Third_Party/wolfSSL_wolfSSL_wolfSSL/wolfssl/wolfcrypt/src/random.c ****     }
 2141              		.loc 1 1086 16 view .LVU666
 2142 00c4 E9E7     		b	.L134
 2143              		.cfi_endproc
 2144              	.LFE196:
 2146              		.section	.text.wc_RNG_HealthTest,"ax",%progbits
 2147              		.align	1
 2148              		.global	wc_RNG_HealthTest
 2149              		.syntax unified
 2150              		.thumb
 2151              		.thumb_func
ARM GAS  /tmp/cc09iKDl.s 			page 73


 2152              		.fpu fpv4-sp-d16
 2154              	wc_RNG_HealthTest:
 2155              	.LVL248:
 2156              	.LFB195:
1051:Middlewares/Third_Party/wolfSSL_wolfSSL_wolfSSL/wolfssl/wolfcrypt/src/random.c ****     return wc_RNG_HealthTest_ex(reseed, NULL, 0,
 2157              		.loc 1 1051 1 is_stmt 1 view -0
 2158              		.cfi_startproc
 2159              		@ args = 12, pretend = 0, frame = 0
 2160              		@ frame_needed = 0, uses_anonymous_args = 0
1051:Middlewares/Third_Party/wolfSSL_wolfSSL_wolfSSL/wolfssl/wolfcrypt/src/random.c ****     return wc_RNG_HealthTest_ex(reseed, NULL, 0,
 2161              		.loc 1 1051 1 is_stmt 0 view .LVU668
 2162 0000 10B5     		push	{r4, lr}
 2163              	.LCFI30:
 2164              		.cfi_def_cfa_offset 8
 2165              		.cfi_offset 4, -8
 2166              		.cfi_offset 14, -4
 2167 0002 88B0     		sub	sp, sp, #32
 2168              	.LCFI31:
 2169              		.cfi_def_cfa_offset 40
 2170 0004 8C46     		mov	ip, r1
1052:Middlewares/Third_Party/wolfSSL_wolfSSL_wolfSSL/wolfssl/wolfcrypt/src/random.c ****                                 seedA, seedASz, seedB, seedBSz,
 2171              		.loc 1 1052 5 is_stmt 1 view .LVU669
1052:Middlewares/Third_Party/wolfSSL_wolfSSL_wolfSSL/wolfssl/wolfcrypt/src/random.c ****                                 seedA, seedASz, seedB, seedBSz,
 2172              		.loc 1 1052 12 is_stmt 0 view .LVU670
 2173 0006 6FF00101 		mvn	r1, #1
 2174              	.LVL249:
1052:Middlewares/Third_Party/wolfSSL_wolfSSL_wolfSSL/wolfssl/wolfcrypt/src/random.c ****                                 seedA, seedASz, seedB, seedBSz,
 2175              		.loc 1 1052 12 view .LVU671
 2176 000a 0691     		str	r1, [sp, #24]
 2177 000c 0021     		movs	r1, #0
 2178 000e 0591     		str	r1, [sp, #20]
 2179 0010 0C9C     		ldr	r4, [sp, #48]
 2180 0012 0494     		str	r4, [sp, #16]
 2181 0014 0B9C     		ldr	r4, [sp, #44]
 2182 0016 0394     		str	r4, [sp, #12]
 2183 0018 0A9C     		ldr	r4, [sp, #40]
 2184 001a 0294     		str	r4, [sp, #8]
 2185 001c 0193     		str	r3, [sp, #4]
 2186 001e 0092     		str	r2, [sp]
 2187 0020 6346     		mov	r3, ip
 2188              	.LVL250:
1052:Middlewares/Third_Party/wolfSSL_wolfSSL_wolfSSL/wolfssl/wolfcrypt/src/random.c ****                                 seedA, seedASz, seedB, seedBSz,
 2189              		.loc 1 1052 12 view .LVU672
 2190 0022 0A46     		mov	r2, r1
 2191              	.LVL251:
1052:Middlewares/Third_Party/wolfSSL_wolfSSL_wolfSSL/wolfssl/wolfcrypt/src/random.c ****                                 seedA, seedASz, seedB, seedBSz,
 2192              		.loc 1 1052 12 view .LVU673
 2193 0024 FFF7FEFF 		bl	wc_RNG_HealthTest_ex
 2194              	.LVL252:
1056:Middlewares/Third_Party/wolfSSL_wolfSSL_wolfSSL/wolfssl/wolfcrypt/src/random.c **** 
 2195              		.loc 1 1056 1 view .LVU674
 2196 0028 08B0     		add	sp, sp, #32
 2197              	.LCFI32:
 2198              		.cfi_def_cfa_offset 8
 2199              		@ sp needed
 2200 002a 10BD     		pop	{r4, pc}
1056:Middlewares/Third_Party/wolfSSL_wolfSSL_wolfSSL/wolfssl/wolfcrypt/src/random.c **** 
ARM GAS  /tmp/cc09iKDl.s 			page 74


 2201              		.loc 1 1056 1 view .LVU675
 2202              		.cfi_endproc
 2203              	.LFE195:
 2205              		.section	.text.wc_RNG_HealthTestLocal,"ax",%progbits
 2206              		.align	1
 2207              		.syntax unified
 2208              		.thumb
 2209              		.thumb_func
 2210              		.fpu fpv4-sp-d16
 2212              	wc_RNG_HealthTestLocal:
 2213              	.LVL253:
 2214              	.LFB197:
1132:Middlewares/Third_Party/wolfSSL_wolfSSL_wolfSSL/wolfssl/wolfcrypt/src/random.c **** 
1133:Middlewares/Third_Party/wolfSSL_wolfSSL_wolfSSL/wolfssl/wolfcrypt/src/random.c **** 
1134:Middlewares/Third_Party/wolfSSL_wolfSSL_wolfSSL/wolfssl/wolfcrypt/src/random.c **** const FLASH_QUALIFIER byte seedA_data[] = {
1135:Middlewares/Third_Party/wolfSSL_wolfSSL_wolfSSL/wolfssl/wolfcrypt/src/random.c ****     0x63, 0x36, 0x33, 0x77, 0xe4, 0x1e, 0x86, 0x46, 0x8d, 0xeb, 0x0a, 0xb4,
1136:Middlewares/Third_Party/wolfSSL_wolfSSL_wolfSSL/wolfssl/wolfcrypt/src/random.c ****     0xa8, 0xed, 0x68, 0x3f, 0x6a, 0x13, 0x4e, 0x47, 0xe0, 0x14, 0xc7, 0x00,
1137:Middlewares/Third_Party/wolfSSL_wolfSSL_wolfSSL/wolfssl/wolfcrypt/src/random.c ****     0x45, 0x4e, 0x81, 0xe9, 0x53, 0x58, 0xa5, 0x69, 0x80, 0x8a, 0xa3, 0x8f,
1138:Middlewares/Third_Party/wolfSSL_wolfSSL_wolfSSL/wolfssl/wolfcrypt/src/random.c ****     0x2a, 0x72, 0xa6, 0x23, 0x59, 0x91, 0x5a, 0x9f, 0x8a, 0x04, 0xca, 0x68
1139:Middlewares/Third_Party/wolfSSL_wolfSSL_wolfSSL/wolfssl/wolfcrypt/src/random.c **** };
1140:Middlewares/Third_Party/wolfSSL_wolfSSL_wolfSSL/wolfssl/wolfcrypt/src/random.c **** 
1141:Middlewares/Third_Party/wolfSSL_wolfSSL_wolfSSL/wolfssl/wolfcrypt/src/random.c **** const FLASH_QUALIFIER byte reseedSeedA_data[] = {
1142:Middlewares/Third_Party/wolfSSL_wolfSSL_wolfSSL/wolfssl/wolfcrypt/src/random.c ****     0xe6, 0x2b, 0x8a, 0x8e, 0xe8, 0xf1, 0x41, 0xb6, 0x98, 0x05, 0x66, 0xe3,
1143:Middlewares/Third_Party/wolfSSL_wolfSSL_wolfSSL/wolfssl/wolfcrypt/src/random.c ****     0xbf, 0xe3, 0xc0, 0x49, 0x03, 0xda, 0xd4, 0xac, 0x2c, 0xdf, 0x9f, 0x22,
1144:Middlewares/Third_Party/wolfSSL_wolfSSL_wolfSSL/wolfssl/wolfcrypt/src/random.c ****     0x80, 0x01, 0x0a, 0x67, 0x39, 0xbc, 0x83, 0xd3
1145:Middlewares/Third_Party/wolfSSL_wolfSSL_wolfSSL/wolfssl/wolfcrypt/src/random.c **** };
1146:Middlewares/Third_Party/wolfSSL_wolfSSL_wolfSSL/wolfssl/wolfcrypt/src/random.c **** 
1147:Middlewares/Third_Party/wolfSSL_wolfSSL_wolfSSL/wolfssl/wolfcrypt/src/random.c **** const FLASH_QUALIFIER byte outputA_data[] = {
1148:Middlewares/Third_Party/wolfSSL_wolfSSL_wolfSSL/wolfssl/wolfcrypt/src/random.c ****     0x04, 0xee, 0xc6, 0x3b, 0xb2, 0x31, 0xdf, 0x2c, 0x63, 0x0a, 0x1a, 0xfb,
1149:Middlewares/Third_Party/wolfSSL_wolfSSL_wolfSSL/wolfssl/wolfcrypt/src/random.c ****     0xe7, 0x24, 0x94, 0x9d, 0x00, 0x5a, 0x58, 0x78, 0x51, 0xe1, 0xaa, 0x79,
1150:Middlewares/Third_Party/wolfSSL_wolfSSL_wolfSSL/wolfssl/wolfcrypt/src/random.c ****     0x5e, 0x47, 0x73, 0x47, 0xc8, 0xb0, 0x56, 0x62, 0x1c, 0x18, 0xbd, 0xdc,
1151:Middlewares/Third_Party/wolfSSL_wolfSSL_wolfSSL/wolfssl/wolfcrypt/src/random.c ****     0xdd, 0x8d, 0x99, 0xfc, 0x5f, 0xc2, 0xb9, 0x20, 0x53, 0xd8, 0xcf, 0xac,
1152:Middlewares/Third_Party/wolfSSL_wolfSSL_wolfSSL/wolfssl/wolfcrypt/src/random.c ****     0xfb, 0x0b, 0xb8, 0x83, 0x12, 0x05, 0xfa, 0xd1, 0xdd, 0xd6, 0xc0, 0x71,
1153:Middlewares/Third_Party/wolfSSL_wolfSSL_wolfSSL/wolfssl/wolfcrypt/src/random.c ****     0x31, 0x8a, 0x60, 0x18, 0xf0, 0x3b, 0x73, 0xf5, 0xed, 0xe4, 0xd4, 0xd0,
1154:Middlewares/Third_Party/wolfSSL_wolfSSL_wolfSSL/wolfssl/wolfcrypt/src/random.c ****     0x71, 0xf9, 0xde, 0x03, 0xfd, 0x7a, 0xea, 0x10, 0x5d, 0x92, 0x99, 0xb8,
1155:Middlewares/Third_Party/wolfSSL_wolfSSL_wolfSSL/wolfssl/wolfcrypt/src/random.c ****     0xaf, 0x99, 0xaa, 0x07, 0x5b, 0xdb, 0x4d, 0xb9, 0xaa, 0x28, 0xc1, 0x8d,
1156:Middlewares/Third_Party/wolfSSL_wolfSSL_wolfSSL/wolfssl/wolfcrypt/src/random.c ****     0x17, 0x4b, 0x56, 0xee, 0x2a, 0x01, 0x4d, 0x09, 0x88, 0x96, 0xff, 0x22,
1157:Middlewares/Third_Party/wolfSSL_wolfSSL_wolfSSL/wolfssl/wolfcrypt/src/random.c ****     0x82, 0xc9, 0x55, 0xa8, 0x19, 0x69, 0xe0, 0x69, 0xfa, 0x8c, 0xe0, 0x07,
1158:Middlewares/Third_Party/wolfSSL_wolfSSL_wolfSSL/wolfssl/wolfcrypt/src/random.c ****     0xa1, 0x80, 0x18, 0x3a, 0x07, 0xdf, 0xae, 0x17
1159:Middlewares/Third_Party/wolfSSL_wolfSSL_wolfSSL/wolfssl/wolfcrypt/src/random.c **** };
1160:Middlewares/Third_Party/wolfSSL_wolfSSL_wolfSSL/wolfssl/wolfcrypt/src/random.c **** 
1161:Middlewares/Third_Party/wolfSSL_wolfSSL_wolfSSL/wolfssl/wolfcrypt/src/random.c **** const FLASH_QUALIFIER byte seedB_data[] = {
1162:Middlewares/Third_Party/wolfSSL_wolfSSL_wolfSSL/wolfssl/wolfcrypt/src/random.c ****     0xa6, 0x5a, 0xd0, 0xf3, 0x45, 0xdb, 0x4e, 0x0e, 0xff, 0xe8, 0x75, 0xc3,
1163:Middlewares/Third_Party/wolfSSL_wolfSSL_wolfSSL/wolfssl/wolfcrypt/src/random.c ****     0xa2, 0xe7, 0x1f, 0x42, 0xc7, 0x12, 0x9d, 0x62, 0x0f, 0xf5, 0xc1, 0x19,
1164:Middlewares/Third_Party/wolfSSL_wolfSSL_wolfSSL/wolfssl/wolfcrypt/src/random.c ****     0xa9, 0xef, 0x55, 0xf0, 0x51, 0x85, 0xe0, 0xfb, /* nonce next */
1165:Middlewares/Third_Party/wolfSSL_wolfSSL_wolfSSL/wolfssl/wolfcrypt/src/random.c ****     0x85, 0x81, 0xf9, 0x31, 0x75, 0x17, 0x27, 0x6e, 0x06, 0xe9, 0x60, 0x7d,
1166:Middlewares/Third_Party/wolfSSL_wolfSSL_wolfSSL/wolfssl/wolfcrypt/src/random.c ****     0xdb, 0xcb, 0xcc, 0x2e
1167:Middlewares/Third_Party/wolfSSL_wolfSSL_wolfSSL/wolfssl/wolfcrypt/src/random.c **** };
1168:Middlewares/Third_Party/wolfSSL_wolfSSL_wolfSSL/wolfssl/wolfcrypt/src/random.c **** 
1169:Middlewares/Third_Party/wolfSSL_wolfSSL_wolfSSL/wolfssl/wolfcrypt/src/random.c **** const FLASH_QUALIFIER byte outputB_data[] = {
1170:Middlewares/Third_Party/wolfSSL_wolfSSL_wolfSSL/wolfssl/wolfcrypt/src/random.c ****     0xd3, 0xe1, 0x60, 0xc3, 0x5b, 0x99, 0xf3, 0x40, 0xb2, 0x62, 0x82, 0x64,
1171:Middlewares/Third_Party/wolfSSL_wolfSSL_wolfSSL/wolfssl/wolfcrypt/src/random.c ****     0xd1, 0x75, 0x10, 0x60, 0xe0, 0x04, 0x5d, 0xa3, 0x83, 0xff, 0x57, 0xa5,
1172:Middlewares/Third_Party/wolfSSL_wolfSSL_wolfSSL/wolfssl/wolfcrypt/src/random.c ****     0x7d, 0x73, 0xa6, 0x73, 0xd2, 0xb8, 0xd8, 0x0d, 0xaa, 0xf6, 0xa6, 0xc3,
1173:Middlewares/Third_Party/wolfSSL_wolfSSL_wolfSSL/wolfssl/wolfcrypt/src/random.c ****     0x5a, 0x91, 0xbb, 0x45, 0x79, 0xd7, 0x3f, 0xd0, 0xc8, 0xfe, 0xd1, 0x11,
1174:Middlewares/Third_Party/wolfSSL_wolfSSL_wolfSSL/wolfssl/wolfcrypt/src/random.c ****     0xb0, 0x39, 0x13, 0x06, 0x82, 0x8a, 0xdf, 0xed, 0x52, 0x8f, 0x01, 0x81,
1175:Middlewares/Third_Party/wolfSSL_wolfSSL_wolfSSL/wolfssl/wolfcrypt/src/random.c ****     0x21, 0xb3, 0xfe, 0xbd, 0xc3, 0x43, 0xe7, 0x97, 0xb8, 0x7d, 0xbb, 0x63,
1176:Middlewares/Third_Party/wolfSSL_wolfSSL_wolfSSL/wolfssl/wolfcrypt/src/random.c ****     0xdb, 0x13, 0x33, 0xde, 0xd9, 0xd1, 0xec, 0xe1, 0x77, 0xcf, 0xa6, 0xb7,
ARM GAS  /tmp/cc09iKDl.s 			page 75


1177:Middlewares/Third_Party/wolfSSL_wolfSSL_wolfSSL/wolfssl/wolfcrypt/src/random.c ****     0x1f, 0xe8, 0xab, 0x1d, 0xa4, 0x66, 0x24, 0xed, 0x64, 0x15, 0xe5, 0x1c,
1178:Middlewares/Third_Party/wolfSSL_wolfSSL_wolfSSL/wolfssl/wolfcrypt/src/random.c ****     0xcd, 0xe2, 0xc7, 0xca, 0x86, 0xe2, 0x83, 0x99, 0x0e, 0xea, 0xeb, 0x91,
1179:Middlewares/Third_Party/wolfSSL_wolfSSL_wolfSSL/wolfssl/wolfcrypt/src/random.c ****     0x12, 0x04, 0x15, 0x52, 0x8b, 0x22, 0x95, 0x91, 0x02, 0x81, 0xb0, 0x2d,
1180:Middlewares/Third_Party/wolfSSL_wolfSSL_wolfSSL/wolfssl/wolfcrypt/src/random.c ****     0xd4, 0x31, 0xf4, 0xc9, 0xf7, 0x04, 0x27, 0xdf
1181:Middlewares/Third_Party/wolfSSL_wolfSSL_wolfSSL/wolfssl/wolfcrypt/src/random.c **** };
1182:Middlewares/Third_Party/wolfSSL_wolfSSL_wolfSSL/wolfssl/wolfcrypt/src/random.c **** 
1183:Middlewares/Third_Party/wolfSSL_wolfSSL_wolfSSL/wolfssl/wolfcrypt/src/random.c **** 
1184:Middlewares/Third_Party/wolfSSL_wolfSSL_wolfSSL/wolfssl/wolfcrypt/src/random.c **** static int wc_RNG_HealthTestLocal(int reseed)
1185:Middlewares/Third_Party/wolfSSL_wolfSSL_wolfSSL/wolfssl/wolfcrypt/src/random.c **** {
 2215              		.loc 1 1185 1 is_stmt 1 view -0
 2216              		.cfi_startproc
 2217              		@ args = 0, pretend = 0, frame = 0
 2218              		@ frame_needed = 0, uses_anonymous_args = 0
 2219              		.loc 1 1185 1 is_stmt 0 view .LVU677
 2220 0000 30B5     		push	{r4, r5, lr}
 2221              	.LCFI33:
 2222              		.cfi_def_cfa_offset 12
 2223              		.cfi_offset 4, -12
 2224              		.cfi_offset 5, -8
 2225              		.cfi_offset 14, -4
 2226 0002 89B0     		sub	sp, sp, #36
 2227              	.LCFI34:
 2228              		.cfi_def_cfa_offset 48
 2229 0004 0546     		mov	r5, r0
1186:Middlewares/Third_Party/wolfSSL_wolfSSL_wolfSSL/wolfssl/wolfcrypt/src/random.c ****     int ret = 0;
 2230              		.loc 1 1186 5 is_stmt 1 view .LVU678
 2231              	.LVL254:
1187:Middlewares/Third_Party/wolfSSL_wolfSSL_wolfSSL/wolfssl/wolfcrypt/src/random.c **** #ifdef WOLFSSL_SMALL_STACK
1188:Middlewares/Third_Party/wolfSSL_wolfSSL_wolfSSL/wolfssl/wolfcrypt/src/random.c ****     byte* check;
 2232              		.loc 1 1188 5 view .LVU679
1189:Middlewares/Third_Party/wolfSSL_wolfSSL_wolfSSL/wolfssl/wolfcrypt/src/random.c **** #else
1190:Middlewares/Third_Party/wolfSSL_wolfSSL_wolfSSL/wolfssl/wolfcrypt/src/random.c ****     byte  check[RNG_HEALTH_TEST_CHECK_SIZE];
1191:Middlewares/Third_Party/wolfSSL_wolfSSL_wolfSSL/wolfssl/wolfcrypt/src/random.c **** #endif
1192:Middlewares/Third_Party/wolfSSL_wolfSSL_wolfSSL/wolfssl/wolfcrypt/src/random.c **** 
1193:Middlewares/Third_Party/wolfSSL_wolfSSL_wolfSSL/wolfssl/wolfcrypt/src/random.c **** #ifdef WOLFSSL_SMALL_STACK
1194:Middlewares/Third_Party/wolfSSL_wolfSSL_wolfSSL/wolfssl/wolfcrypt/src/random.c ****     check = (byte*)XMALLOC(RNG_HEALTH_TEST_CHECK_SIZE, NULL,
 2233              		.loc 1 1194 5 view .LVU680
 2234              		.loc 1 1194 20 is_stmt 0 view .LVU681
 2235 0006 8020     		movs	r0, #128
 2236              	.LVL255:
 2237              		.loc 1 1194 20 view .LVU682
 2238 0008 FFF7FEFF 		bl	pvPortMalloc
 2239              	.LVL256:
1195:Middlewares/Third_Party/wolfSSL_wolfSSL_wolfSSL/wolfssl/wolfcrypt/src/random.c ****                            DYNAMIC_TYPE_TMP_BUFFER);
1196:Middlewares/Third_Party/wolfSSL_wolfSSL_wolfSSL/wolfssl/wolfcrypt/src/random.c ****     if (check == NULL) {
 2240              		.loc 1 1196 5 is_stmt 1 view .LVU683
 2241              		.loc 1 1196 8 is_stmt 0 view .LVU684
 2242 000c 0028     		cmp	r0, #0
 2243 000e 65D0     		beq	.L165
 2244 0010 0446     		mov	r4, r0
1197:Middlewares/Third_Party/wolfSSL_wolfSSL_wolfSSL/wolfssl/wolfcrypt/src/random.c ****         return MEMORY_E;
1198:Middlewares/Third_Party/wolfSSL_wolfSSL_wolfSSL/wolfssl/wolfcrypt/src/random.c ****     }
1199:Middlewares/Third_Party/wolfSSL_wolfSSL_wolfSSL/wolfssl/wolfcrypt/src/random.c **** #endif
1200:Middlewares/Third_Party/wolfSSL_wolfSSL_wolfSSL/wolfssl/wolfcrypt/src/random.c **** 
1201:Middlewares/Third_Party/wolfSSL_wolfSSL_wolfSSL/wolfssl/wolfcrypt/src/random.c ****     if (reseed) {
 2245              		.loc 1 1201 5 is_stmt 1 view .LVU685
 2246              		.loc 1 1201 8 is_stmt 0 view .LVU686
ARM GAS  /tmp/cc09iKDl.s 			page 76


 2247 0012 DDB1     		cbz	r5, .L156
 2248              	.LBB109:
1202:Middlewares/Third_Party/wolfSSL_wolfSSL_wolfSSL/wolfssl/wolfcrypt/src/random.c **** #ifdef WOLFSSL_USE_FLASHMEM
1203:Middlewares/Third_Party/wolfSSL_wolfSSL_wolfSSL/wolfssl/wolfcrypt/src/random.c ****         byte* seedA = (byte*)XMALLOC(sizeof(seedA_data), NULL,
1204:Middlewares/Third_Party/wolfSSL_wolfSSL_wolfSSL/wolfssl/wolfcrypt/src/random.c ****                              DYNAMIC_TYPE_TMP_BUFFER);
1205:Middlewares/Third_Party/wolfSSL_wolfSSL_wolfSSL/wolfssl/wolfcrypt/src/random.c ****         byte* reseedSeedA = (byte*)XMALLOC(sizeof(reseedSeedA_data), NULL,
1206:Middlewares/Third_Party/wolfSSL_wolfSSL_wolfSSL/wolfssl/wolfcrypt/src/random.c ****                              DYNAMIC_TYPE_TMP_BUFFER);
1207:Middlewares/Third_Party/wolfSSL_wolfSSL_wolfSSL/wolfssl/wolfcrypt/src/random.c ****         byte* outputA = (byte*)XMALLOC(sizeof(outputA_data), NULL,
1208:Middlewares/Third_Party/wolfSSL_wolfSSL_wolfSSL/wolfssl/wolfcrypt/src/random.c ****                              DYNAMIC_TYPE_TMP_BUFFER);
1209:Middlewares/Third_Party/wolfSSL_wolfSSL_wolfSSL/wolfssl/wolfcrypt/src/random.c **** 
1210:Middlewares/Third_Party/wolfSSL_wolfSSL_wolfSSL/wolfssl/wolfcrypt/src/random.c ****         if (!seedA || !reseedSeedA || !outputA) {
1211:Middlewares/Third_Party/wolfSSL_wolfSSL_wolfSSL/wolfssl/wolfcrypt/src/random.c ****             XFREE(seedA, NULL, DYNAMIC_TYPE_TMP_BUFFER);
1212:Middlewares/Third_Party/wolfSSL_wolfSSL_wolfSSL/wolfssl/wolfcrypt/src/random.c ****             XFREE(reseedSeedA, NULL, DYNAMIC_TYPE_TMP_BUFFER);
1213:Middlewares/Third_Party/wolfSSL_wolfSSL_wolfSSL/wolfssl/wolfcrypt/src/random.c ****             XFREE(outputA, NULL, DYNAMIC_TYPE_TMP_BUFFER);
1214:Middlewares/Third_Party/wolfSSL_wolfSSL_wolfSSL/wolfssl/wolfcrypt/src/random.c ****             ret = MEMORY_E;
1215:Middlewares/Third_Party/wolfSSL_wolfSSL_wolfSSL/wolfssl/wolfcrypt/src/random.c ****         }
1216:Middlewares/Third_Party/wolfSSL_wolfSSL_wolfSSL/wolfssl/wolfcrypt/src/random.c ****         else {
1217:Middlewares/Third_Party/wolfSSL_wolfSSL_wolfSSL/wolfssl/wolfcrypt/src/random.c ****             XMEMCPY_P(seedA, seedA_data, sizeof(seedA_data));
1218:Middlewares/Third_Party/wolfSSL_wolfSSL_wolfSSL/wolfssl/wolfcrypt/src/random.c ****             XMEMCPY_P(reseedSeedA, reseedSeedA_data, sizeof(reseedSeedA_data));
1219:Middlewares/Third_Party/wolfSSL_wolfSSL_wolfSSL/wolfssl/wolfcrypt/src/random.c ****             XMEMCPY_P(outputA, outputA_data, sizeof(outputA_data));
1220:Middlewares/Third_Party/wolfSSL_wolfSSL_wolfSSL/wolfssl/wolfcrypt/src/random.c **** #else
1221:Middlewares/Third_Party/wolfSSL_wolfSSL_wolfSSL/wolfssl/wolfcrypt/src/random.c ****         const byte* seedA = seedA_data;
 2249              		.loc 1 1221 9 is_stmt 1 view .LVU687
1222:Middlewares/Third_Party/wolfSSL_wolfSSL_wolfSSL/wolfssl/wolfcrypt/src/random.c ****         const byte* reseedSeedA = reseedSeedA_data;
 2250              		.loc 1 1222 9 view .LVU688
1223:Middlewares/Third_Party/wolfSSL_wolfSSL_wolfSSL/wolfssl/wolfcrypt/src/random.c ****         const byte* outputA = outputA_data;
 2251              		.loc 1 1223 9 view .LVU689
1224:Middlewares/Third_Party/wolfSSL_wolfSSL_wolfSSL/wolfssl/wolfcrypt/src/random.c **** #endif
1225:Middlewares/Third_Party/wolfSSL_wolfSSL_wolfSSL/wolfssl/wolfcrypt/src/random.c ****         ret = wc_RNG_HealthTest(1, seedA, sizeof(seedA_data),
 2252              		.loc 1 1225 9 view .LVU690
 2253              		.loc 1 1225 15 is_stmt 0 view .LVU691
 2254 0014 8023     		movs	r3, #128
 2255 0016 0293     		str	r3, [sp, #8]
 2256 0018 0190     		str	r0, [sp, #4]
 2257 001a 2023     		movs	r3, #32
 2258 001c 0093     		str	r3, [sp]
 2259 001e 314B     		ldr	r3, .L174
 2260 0020 3022     		movs	r2, #48
 2261 0022 3149     		ldr	r1, .L174+4
 2262 0024 0120     		movs	r0, #1
 2263              	.LVL257:
 2264              		.loc 1 1225 15 view .LVU692
 2265 0026 FFF7FEFF 		bl	wc_RNG_HealthTest
 2266              	.LVL258:
1226:Middlewares/Third_Party/wolfSSL_wolfSSL_wolfSSL/wolfssl/wolfcrypt/src/random.c ****                                 reseedSeedA, sizeof(reseedSeedA_data),
1227:Middlewares/Third_Party/wolfSSL_wolfSSL_wolfSSL/wolfssl/wolfcrypt/src/random.c ****                                 check, RNG_HEALTH_TEST_CHECK_SIZE);
1228:Middlewares/Third_Party/wolfSSL_wolfSSL_wolfSSL/wolfssl/wolfcrypt/src/random.c ****         if (ret == 0) {
 2267              		.loc 1 1228 9 is_stmt 1 view .LVU693
 2268              		.loc 1 1228 12 is_stmt 0 view .LVU694
 2269 002a 0546     		mov	r5, r0
 2270              	.LVL259:
 2271              		.loc 1 1228 12 view .LVU695
 2272 002c D8B9     		cbnz	r0, .L158
 2273              	.LBB110:
 2274              	.LBB111:
 302:Middlewares/Third_Party/wolfSSL_wolfSSL_wolfSSL/wolfssl/wolfcrypt/src/misc.c **** 
 2275              		.loc 2 302 9 view .LVU696
ARM GAS  /tmp/cc09iKDl.s 			page 77


 2276 002e 0146     		mov	r1, r0
 304:Middlewares/Third_Party/wolfSSL_wolfSSL_wolfSSL/wolfssl/wolfcrypt/src/misc.c ****         compareSum |= a[i] ^ b[i];
 2277              		.loc 2 304 12 view .LVU697
 2278 0030 0346     		mov	r3, r0
 2279 0032 05E0     		b	.L157
 2280              	.LVL260:
 2281              	.L159:
 305:Middlewares/Third_Party/wolfSSL_wolfSSL_wolfSSL/wolfssl/wolfcrypt/src/misc.c ****     }
 2282              		.loc 2 305 9 is_stmt 1 view .LVU698
 305:Middlewares/Third_Party/wolfSSL_wolfSSL_wolfSSL/wolfssl/wolfcrypt/src/misc.c ****     }
 2283              		.loc 2 305 24 is_stmt 0 view .LVU699
 2284 0034 E25C     		ldrb	r2, [r4, r3]	@ zero_extendqisi2
 305:Middlewares/Third_Party/wolfSSL_wolfSSL_wolfSSL/wolfssl/wolfcrypt/src/misc.c ****     }
 2285              		.loc 2 305 31 view .LVU700
 2286 0036 2D48     		ldr	r0, .L174+8
 2287 0038 C05C     		ldrb	r0, [r0, r3]	@ zero_extendqisi2
 305:Middlewares/Third_Party/wolfSSL_wolfSSL_wolfSSL/wolfssl/wolfcrypt/src/misc.c ****     }
 2288              		.loc 2 305 28 view .LVU701
 2289 003a 4240     		eors	r2, r2, r0
 305:Middlewares/Third_Party/wolfSSL_wolfSSL_wolfSSL/wolfssl/wolfcrypt/src/misc.c ****     }
 2290              		.loc 2 305 20 view .LVU702
 2291 003c 1143     		orrs	r1, r1, r2
 2292              	.LVL261:
 304:Middlewares/Third_Party/wolfSSL_wolfSSL_wolfSSL/wolfssl/wolfcrypt/src/misc.c ****         compareSum |= a[i] ^ b[i];
 2293              		.loc 2 304 29 is_stmt 1 view .LVU703
 304:Middlewares/Third_Party/wolfSSL_wolfSSL_wolfSSL/wolfssl/wolfcrypt/src/misc.c ****         compareSum |= a[i] ^ b[i];
 2294              		.loc 2 304 30 is_stmt 0 view .LVU704
 2295 003e 0133     		adds	r3, r3, #1
 2296              	.LVL262:
 2297              	.L157:
 304:Middlewares/Third_Party/wolfSSL_wolfSSL_wolfSSL/wolfssl/wolfcrypt/src/misc.c ****         compareSum |= a[i] ^ b[i];
 2298              		.loc 2 304 17 is_stmt 1 view .LVU705
 304:Middlewares/Third_Party/wolfSSL_wolfSSL_wolfSSL/wolfssl/wolfcrypt/src/misc.c ****         compareSum |= a[i] ^ b[i];
 2299              		.loc 2 304 5 is_stmt 0 view .LVU706
 2300 0040 7F2B     		cmp	r3, #127
 2301 0042 F7DD     		ble	.L159
 308:Middlewares/Third_Party/wolfSSL_wolfSSL_wolfSSL/wolfssl/wolfcrypt/src/misc.c **** }
 2302              		.loc 2 308 5 is_stmt 1 view .LVU707
 2303              	.LVL263:
 308:Middlewares/Third_Party/wolfSSL_wolfSSL_wolfSSL/wolfssl/wolfcrypt/src/misc.c **** }
 2304              		.loc 2 308 5 is_stmt 0 view .LVU708
 2305              	.LBE111:
 2306              	.LBE110:
1229:Middlewares/Third_Party/wolfSSL_wolfSSL_wolfSSL/wolfssl/wolfcrypt/src/random.c ****             if (ConstantCompare(check, outputA,
 2307              		.loc 1 1229 16 view .LVU709
 2308 0044 79B1     		cbz	r1, .L158
1230:Middlewares/Third_Party/wolfSSL_wolfSSL_wolfSSL/wolfssl/wolfcrypt/src/random.c ****                                 RNG_HEALTH_TEST_CHECK_SIZE) != 0)
1231:Middlewares/Third_Party/wolfSSL_wolfSSL_wolfSSL/wolfssl/wolfcrypt/src/random.c ****                 ret = -1;
 2309              		.loc 1 1231 21 view .LVU710
 2310 0046 4FF0FF35 		mov	r5, #-1
 2311              	.LVL264:
 2312              		.loc 1 1231 21 view .LVU711
 2313 004a 0CE0     		b	.L158
 2314              	.LVL265:
 2315              	.L156:
 2316              		.loc 1 1231 21 view .LVU712
 2317              	.LBE109:
ARM GAS  /tmp/cc09iKDl.s 			page 78


 2318              	.LBB112:
1232:Middlewares/Third_Party/wolfSSL_wolfSSL_wolfSSL/wolfssl/wolfcrypt/src/random.c ****         }
1233:Middlewares/Third_Party/wolfSSL_wolfSSL_wolfSSL/wolfssl/wolfcrypt/src/random.c **** 
1234:Middlewares/Third_Party/wolfSSL_wolfSSL_wolfSSL/wolfssl/wolfcrypt/src/random.c **** #ifdef WOLFSSL_USE_FLASHMEM
1235:Middlewares/Third_Party/wolfSSL_wolfSSL_wolfSSL/wolfssl/wolfcrypt/src/random.c ****             XFREE(seedA, NULL, DYNAMIC_TYPE_TMP_BUFFER);
1236:Middlewares/Third_Party/wolfSSL_wolfSSL_wolfSSL/wolfssl/wolfcrypt/src/random.c ****             XFREE(reseedSeedA, NULL, DYNAMIC_TYPE_TMP_BUFFER);
1237:Middlewares/Third_Party/wolfSSL_wolfSSL_wolfSSL/wolfssl/wolfcrypt/src/random.c ****             XFREE(outputA, NULL, DYNAMIC_TYPE_TMP_BUFFER);
1238:Middlewares/Third_Party/wolfSSL_wolfSSL_wolfSSL/wolfssl/wolfcrypt/src/random.c ****         }
1239:Middlewares/Third_Party/wolfSSL_wolfSSL_wolfSSL/wolfssl/wolfcrypt/src/random.c **** #endif
1240:Middlewares/Third_Party/wolfSSL_wolfSSL_wolfSSL/wolfssl/wolfcrypt/src/random.c ****     }
1241:Middlewares/Third_Party/wolfSSL_wolfSSL_wolfSSL/wolfssl/wolfcrypt/src/random.c ****     else {
1242:Middlewares/Third_Party/wolfSSL_wolfSSL_wolfSSL/wolfssl/wolfcrypt/src/random.c **** #ifdef WOLFSSL_USE_FLASHMEM
1243:Middlewares/Third_Party/wolfSSL_wolfSSL_wolfSSL/wolfssl/wolfcrypt/src/random.c ****         byte* seedB = (byte*)XMALLOC(sizeof(seedB_data), NULL,
1244:Middlewares/Third_Party/wolfSSL_wolfSSL_wolfSSL/wolfssl/wolfcrypt/src/random.c ****                              DYNAMIC_TYPE_TMP_BUFFER);
1245:Middlewares/Third_Party/wolfSSL_wolfSSL_wolfSSL/wolfssl/wolfcrypt/src/random.c ****         byte* outputB = (byte*)XMALLOC(sizeof(outputB_data), NULL,
1246:Middlewares/Third_Party/wolfSSL_wolfSSL_wolfSSL/wolfssl/wolfcrypt/src/random.c ****                                DYNAMIC_TYPE_TMP_BUFFER);
1247:Middlewares/Third_Party/wolfSSL_wolfSSL_wolfSSL/wolfssl/wolfcrypt/src/random.c **** 
1248:Middlewares/Third_Party/wolfSSL_wolfSSL_wolfSSL/wolfssl/wolfcrypt/src/random.c ****         if (!seedB || !outputB) {
1249:Middlewares/Third_Party/wolfSSL_wolfSSL_wolfSSL/wolfssl/wolfcrypt/src/random.c ****             XFREE(seedB, NULL, DYNAMIC_TYPE_TMP_BUFFER);
1250:Middlewares/Third_Party/wolfSSL_wolfSSL_wolfSSL/wolfssl/wolfcrypt/src/random.c ****             XFREE(outputB, NULL, DYNAMIC_TYPE_TMP_BUFFER);
1251:Middlewares/Third_Party/wolfSSL_wolfSSL_wolfSSL/wolfssl/wolfcrypt/src/random.c ****             ret = MEMORY_E;
1252:Middlewares/Third_Party/wolfSSL_wolfSSL_wolfSSL/wolfssl/wolfcrypt/src/random.c ****         }
1253:Middlewares/Third_Party/wolfSSL_wolfSSL_wolfSSL/wolfssl/wolfcrypt/src/random.c ****         else {
1254:Middlewares/Third_Party/wolfSSL_wolfSSL_wolfSSL/wolfssl/wolfcrypt/src/random.c ****             XMEMCPY_P(seedB, seedB_data, sizeof(seedB_data));
1255:Middlewares/Third_Party/wolfSSL_wolfSSL_wolfSSL/wolfssl/wolfcrypt/src/random.c ****             XMEMCPY_P(outputB, outputB_data, sizeof(outputB_data));
1256:Middlewares/Third_Party/wolfSSL_wolfSSL_wolfSSL/wolfssl/wolfcrypt/src/random.c **** #else
1257:Middlewares/Third_Party/wolfSSL_wolfSSL_wolfSSL/wolfssl/wolfcrypt/src/random.c ****         const byte* seedB = seedB_data;
 2319              		.loc 1 1257 9 is_stmt 1 view .LVU713
1258:Middlewares/Third_Party/wolfSSL_wolfSSL_wolfSSL/wolfssl/wolfcrypt/src/random.c ****         const byte* outputB = outputB_data;
 2320              		.loc 1 1258 9 view .LVU714
1259:Middlewares/Third_Party/wolfSSL_wolfSSL_wolfSSL/wolfssl/wolfcrypt/src/random.c **** #endif
1260:Middlewares/Third_Party/wolfSSL_wolfSSL_wolfSSL/wolfssl/wolfcrypt/src/random.c ****         ret = wc_RNG_HealthTest(0, seedB, sizeof(seedB_data),
 2321              		.loc 1 1260 9 view .LVU715
 2322              		.loc 1 1260 15 is_stmt 0 view .LVU716
 2323 004c 8023     		movs	r3, #128
 2324 004e 0293     		str	r3, [sp, #8]
 2325 0050 0190     		str	r0, [sp, #4]
 2326 0052 0020     		movs	r0, #0
 2327              	.LVL266:
 2328              		.loc 1 1260 15 view .LVU717
 2329 0054 0090     		str	r0, [sp]
 2330 0056 0346     		mov	r3, r0
 2331 0058 3022     		movs	r2, #48
 2332 005a 2549     		ldr	r1, .L174+12
 2333 005c FFF7FEFF 		bl	wc_RNG_HealthTest
 2334              	.LVL267:
1261:Middlewares/Third_Party/wolfSSL_wolfSSL_wolfSSL/wolfssl/wolfcrypt/src/random.c ****                                 NULL, 0,
1262:Middlewares/Third_Party/wolfSSL_wolfSSL_wolfSSL/wolfssl/wolfcrypt/src/random.c ****                                 check, RNG_HEALTH_TEST_CHECK_SIZE);
1263:Middlewares/Third_Party/wolfSSL_wolfSSL_wolfSSL/wolfssl/wolfcrypt/src/random.c ****         if (ret == 0) {
 2335              		.loc 1 1263 9 is_stmt 1 view .LVU718
 2336              		.loc 1 1263 12 is_stmt 0 view .LVU719
 2337 0060 0546     		mov	r5, r0
 2338              	.LVL268:
 2339              		.loc 1 1263 12 view .LVU720
 2340 0062 98B1     		cbz	r0, .L168
 2341              	.LVL269:
 2342              	.L161:
ARM GAS  /tmp/cc09iKDl.s 			page 79


1264:Middlewares/Third_Party/wolfSSL_wolfSSL_wolfSSL/wolfssl/wolfcrypt/src/random.c ****             if (ConstantCompare(check, outputB,
1265:Middlewares/Third_Party/wolfSSL_wolfSSL_wolfSSL/wolfssl/wolfcrypt/src/random.c ****                                 RNG_HEALTH_TEST_CHECK_SIZE) != 0)
1266:Middlewares/Third_Party/wolfSSL_wolfSSL_wolfSSL/wolfssl/wolfcrypt/src/random.c ****                 ret = -1;
1267:Middlewares/Third_Party/wolfSSL_wolfSSL_wolfSSL/wolfssl/wolfcrypt/src/random.c ****         }
1268:Middlewares/Third_Party/wolfSSL_wolfSSL_wolfSSL/wolfssl/wolfcrypt/src/random.c **** 
1269:Middlewares/Third_Party/wolfSSL_wolfSSL_wolfSSL/wolfssl/wolfcrypt/src/random.c ****         /* The previous test cases use a large seed instead of a seed and nonce.
1270:Middlewares/Third_Party/wolfSSL_wolfSSL_wolfSSL/wolfssl/wolfcrypt/src/random.c ****          * seedB is actually from a test case with a seed and nonce, and
1271:Middlewares/Third_Party/wolfSSL_wolfSSL_wolfSSL/wolfssl/wolfcrypt/src/random.c ****          * just concatenates them. The pivot point between seed and nonce is
1272:Middlewares/Third_Party/wolfSSL_wolfSSL_wolfSSL/wolfssl/wolfcrypt/src/random.c ****          * byte 32, feed them into the health test separately. */
1273:Middlewares/Third_Party/wolfSSL_wolfSSL_wolfSSL/wolfssl/wolfcrypt/src/random.c ****         if (ret == 0) {
 2343              		.loc 1 1273 9 is_stmt 1 view .LVU721
 2344              		.loc 1 1273 12 is_stmt 0 view .LVU722
 2345 0064 ADB1     		cbz	r5, .L173
 2346              	.LVL270:
 2347              	.L158:
 2348              		.loc 1 1273 12 view .LVU723
 2349              	.LBE112:
1274:Middlewares/Third_Party/wolfSSL_wolfSSL_wolfSSL/wolfssl/wolfcrypt/src/random.c ****             ret = wc_RNG_HealthTest_ex(0,
1275:Middlewares/Third_Party/wolfSSL_wolfSSL_wolfSSL/wolfssl/wolfcrypt/src/random.c ****                                     seedB + 32, sizeof(seedB_data) - 32,
1276:Middlewares/Third_Party/wolfSSL_wolfSSL_wolfSSL/wolfssl/wolfcrypt/src/random.c ****                                     seedB, 32,
1277:Middlewares/Third_Party/wolfSSL_wolfSSL_wolfSSL/wolfssl/wolfcrypt/src/random.c ****                                     NULL, 0,
1278:Middlewares/Third_Party/wolfSSL_wolfSSL_wolfSSL/wolfssl/wolfcrypt/src/random.c ****                                     check, RNG_HEALTH_TEST_CHECK_SIZE,
1279:Middlewares/Third_Party/wolfSSL_wolfSSL_wolfSSL/wolfssl/wolfcrypt/src/random.c ****                                     NULL, INVALID_DEVID);
1280:Middlewares/Third_Party/wolfSSL_wolfSSL_wolfSSL/wolfssl/wolfcrypt/src/random.c ****             if (ret == 0) {
1281:Middlewares/Third_Party/wolfSSL_wolfSSL_wolfSSL/wolfssl/wolfcrypt/src/random.c ****                 if (ConstantCompare(check, outputB, sizeof(outputB_data)) != 0)
1282:Middlewares/Third_Party/wolfSSL_wolfSSL_wolfSSL/wolfssl/wolfcrypt/src/random.c ****                     ret = -1;
1283:Middlewares/Third_Party/wolfSSL_wolfSSL_wolfSSL/wolfssl/wolfcrypt/src/random.c ****             }
1284:Middlewares/Third_Party/wolfSSL_wolfSSL_wolfSSL/wolfssl/wolfcrypt/src/random.c ****         }
1285:Middlewares/Third_Party/wolfSSL_wolfSSL_wolfSSL/wolfssl/wolfcrypt/src/random.c **** 
1286:Middlewares/Third_Party/wolfSSL_wolfSSL_wolfSSL/wolfssl/wolfcrypt/src/random.c **** #ifdef WOLFSSL_USE_FLASHMEM
1287:Middlewares/Third_Party/wolfSSL_wolfSSL_wolfSSL/wolfssl/wolfcrypt/src/random.c ****             XFREE(seedB, NULL, DYNAMIC_TYPE_TMP_BUFFER);
1288:Middlewares/Third_Party/wolfSSL_wolfSSL_wolfSSL/wolfssl/wolfcrypt/src/random.c ****             XFREE(outputB, NULL, DYNAMIC_TYPE_TMP_BUFFER);
1289:Middlewares/Third_Party/wolfSSL_wolfSSL_wolfSSL/wolfssl/wolfcrypt/src/random.c ****         }
1290:Middlewares/Third_Party/wolfSSL_wolfSSL_wolfSSL/wolfssl/wolfcrypt/src/random.c **** #endif
1291:Middlewares/Third_Party/wolfSSL_wolfSSL_wolfSSL/wolfssl/wolfcrypt/src/random.c ****     }
1292:Middlewares/Third_Party/wolfSSL_wolfSSL_wolfSSL/wolfssl/wolfcrypt/src/random.c **** 
1293:Middlewares/Third_Party/wolfSSL_wolfSSL_wolfSSL/wolfssl/wolfcrypt/src/random.c **** #ifdef WOLFSSL_SMALL_STACK
1294:Middlewares/Third_Party/wolfSSL_wolfSSL_wolfSSL/wolfssl/wolfcrypt/src/random.c ****     XFREE(check, NULL, DYNAMIC_TYPE_TMP_BUFFER);
 2350              		.loc 1 1294 5 is_stmt 1 view .LVU724
 2351 0066 2046     		mov	r0, r4
 2352 0068 FFF7FEFF 		bl	vPortFree
 2353              	.LVL271:
1295:Middlewares/Third_Party/wolfSSL_wolfSSL_wolfSSL/wolfssl/wolfcrypt/src/random.c **** #endif
1296:Middlewares/Third_Party/wolfSSL_wolfSSL_wolfSSL/wolfssl/wolfcrypt/src/random.c **** 
1297:Middlewares/Third_Party/wolfSSL_wolfSSL_wolfSSL/wolfssl/wolfcrypt/src/random.c ****     return ret;
 2354              		.loc 1 1297 5 view .LVU725
 2355              	.L154:
1298:Middlewares/Third_Party/wolfSSL_wolfSSL_wolfSSL/wolfssl/wolfcrypt/src/random.c **** }
 2356              		.loc 1 1298 1 is_stmt 0 view .LVU726
 2357 006c 2846     		mov	r0, r5
 2358 006e 09B0     		add	sp, sp, #36
 2359              	.LCFI35:
 2360              		.cfi_remember_state
 2361              		.cfi_def_cfa_offset 12
 2362              		@ sp needed
 2363 0070 30BD     		pop	{r4, r5, pc}
 2364              	.LVL272:
ARM GAS  /tmp/cc09iKDl.s 			page 80


 2365              	.L162:
 2366              	.LCFI36:
 2367              		.cfi_restore_state
 2368              	.LBB119:
 2369              	.LBB113:
 2370              	.LBB114:
 305:Middlewares/Third_Party/wolfSSL_wolfSSL_wolfSSL/wolfssl/wolfcrypt/src/misc.c ****     }
 2371              		.loc 2 305 9 is_stmt 1 view .LVU727
 305:Middlewares/Third_Party/wolfSSL_wolfSSL_wolfSSL/wolfssl/wolfcrypt/src/misc.c ****     }
 2372              		.loc 2 305 24 is_stmt 0 view .LVU728
 2373 0072 E25C     		ldrb	r2, [r4, r3]	@ zero_extendqisi2
 305:Middlewares/Third_Party/wolfSSL_wolfSSL_wolfSSL/wolfssl/wolfcrypt/src/misc.c ****     }
 2374              		.loc 2 305 31 view .LVU729
 2375 0074 1F48     		ldr	r0, .L174+16
 2376 0076 C05C     		ldrb	r0, [r0, r3]	@ zero_extendqisi2
 305:Middlewares/Third_Party/wolfSSL_wolfSSL_wolfSSL/wolfssl/wolfcrypt/src/misc.c ****     }
 2377              		.loc 2 305 28 view .LVU730
 2378 0078 4240     		eors	r2, r2, r0
 305:Middlewares/Third_Party/wolfSSL_wolfSSL_wolfSSL/wolfssl/wolfcrypt/src/misc.c ****     }
 2379              		.loc 2 305 20 view .LVU731
 2380 007a 1143     		orrs	r1, r1, r2
 2381              	.LVL273:
 304:Middlewares/Third_Party/wolfSSL_wolfSSL_wolfSSL/wolfssl/wolfcrypt/src/misc.c ****         compareSum |= a[i] ^ b[i];
 2382              		.loc 2 304 29 is_stmt 1 view .LVU732
 304:Middlewares/Third_Party/wolfSSL_wolfSSL_wolfSSL/wolfssl/wolfcrypt/src/misc.c ****         compareSum |= a[i] ^ b[i];
 2383              		.loc 2 304 30 is_stmt 0 view .LVU733
 2384 007c 0133     		adds	r3, r3, #1
 2385              	.LVL274:
 2386              	.L160:
 304:Middlewares/Third_Party/wolfSSL_wolfSSL_wolfSSL/wolfssl/wolfcrypt/src/misc.c ****         compareSum |= a[i] ^ b[i];
 2387              		.loc 2 304 17 is_stmt 1 view .LVU734
 304:Middlewares/Third_Party/wolfSSL_wolfSSL_wolfSSL/wolfssl/wolfcrypt/src/misc.c ****         compareSum |= a[i] ^ b[i];
 2388              		.loc 2 304 5 is_stmt 0 view .LVU735
 2389 007e 7F2B     		cmp	r3, #127
 2390 0080 F7DD     		ble	.L162
 308:Middlewares/Third_Party/wolfSSL_wolfSSL_wolfSSL/wolfssl/wolfcrypt/src/misc.c **** }
 2391              		.loc 2 308 5 is_stmt 1 view .LVU736
 2392              	.LVL275:
 308:Middlewares/Third_Party/wolfSSL_wolfSSL_wolfSSL/wolfssl/wolfcrypt/src/misc.c **** }
 2393              		.loc 2 308 5 is_stmt 0 view .LVU737
 2394              	.LBE114:
 2395              	.LBE113:
1264:Middlewares/Third_Party/wolfSSL_wolfSSL_wolfSSL/wolfssl/wolfcrypt/src/random.c ****                                 RNG_HEALTH_TEST_CHECK_SIZE) != 0)
 2396              		.loc 1 1264 16 view .LVU738
 2397 0082 0029     		cmp	r1, #0
 2398 0084 EED0     		beq	.L161
1266:Middlewares/Third_Party/wolfSSL_wolfSSL_wolfSSL/wolfssl/wolfcrypt/src/random.c ****         }
 2399              		.loc 1 1266 21 view .LVU739
 2400 0086 4FF0FF35 		mov	r5, #-1
 2401              	.LVL276:
1266:Middlewares/Third_Party/wolfSSL_wolfSSL_wolfSSL/wolfssl/wolfcrypt/src/random.c ****         }
 2402              		.loc 1 1266 21 view .LVU740
 2403 008a ECE7     		b	.L158
 2404              	.LVL277:
 2405              	.L168:
 2406              	.LBB116:
 2407              	.LBB115:
ARM GAS  /tmp/cc09iKDl.s 			page 81


 302:Middlewares/Third_Party/wolfSSL_wolfSSL_wolfSSL/wolfssl/wolfcrypt/src/misc.c **** 
 2408              		.loc 2 302 9 view .LVU741
 2409 008c 0146     		mov	r1, r0
 304:Middlewares/Third_Party/wolfSSL_wolfSSL_wolfSSL/wolfssl/wolfcrypt/src/misc.c ****         compareSum |= a[i] ^ b[i];
 2410              		.loc 2 304 12 view .LVU742
 2411 008e 0346     		mov	r3, r0
 2412 0090 F5E7     		b	.L160
 2413              	.LVL278:
 2414              	.L173:
 304:Middlewares/Third_Party/wolfSSL_wolfSSL_wolfSSL/wolfssl/wolfcrypt/src/misc.c ****         compareSum |= a[i] ^ b[i];
 2415              		.loc 2 304 12 view .LVU743
 2416              	.LBE115:
 2417              	.LBE116:
1274:Middlewares/Third_Party/wolfSSL_wolfSSL_wolfSSL/wolfssl/wolfcrypt/src/random.c ****                                     seedB + 32, sizeof(seedB_data) - 32,
 2418              		.loc 1 1274 13 is_stmt 1 view .LVU744
1274:Middlewares/Third_Party/wolfSSL_wolfSSL_wolfSSL/wolfssl/wolfcrypt/src/random.c ****                                     seedB + 32, sizeof(seedB_data) - 32,
 2419              		.loc 1 1274 19 is_stmt 0 view .LVU745
 2420 0092 174B     		ldr	r3, .L174+12
 2421 0094 6FF00102 		mvn	r2, #1
 2422 0098 0692     		str	r2, [sp, #24]
 2423 009a 0020     		movs	r0, #0
 2424 009c 0590     		str	r0, [sp, #20]
 2425 009e 8022     		movs	r2, #128
 2426 00a0 0492     		str	r2, [sp, #16]
 2427 00a2 0394     		str	r4, [sp, #12]
 2428 00a4 0290     		str	r0, [sp, #8]
 2429 00a6 0190     		str	r0, [sp, #4]
 2430 00a8 2022     		movs	r2, #32
 2431 00aa 0092     		str	r2, [sp]
 2432 00ac 1022     		movs	r2, #16
 2433 00ae 03F12001 		add	r1, r3, #32
 2434 00b2 FFF7FEFF 		bl	wc_RNG_HealthTest_ex
 2435              	.LVL279:
1280:Middlewares/Third_Party/wolfSSL_wolfSSL_wolfSSL/wolfssl/wolfcrypt/src/random.c ****                 if (ConstantCompare(check, outputB, sizeof(outputB_data)) != 0)
 2436              		.loc 1 1280 13 is_stmt 1 view .LVU746
1280:Middlewares/Third_Party/wolfSSL_wolfSSL_wolfSSL/wolfssl/wolfcrypt/src/random.c ****                 if (ConstantCompare(check, outputB, sizeof(outputB_data)) != 0)
 2437              		.loc 1 1280 16 is_stmt 0 view .LVU747
 2438 00b6 0546     		mov	r5, r0
 2439 00b8 0028     		cmp	r0, #0
 2440 00ba D4D1     		bne	.L158
 2441              	.LBB117:
 2442              	.LBB118:
 302:Middlewares/Third_Party/wolfSSL_wolfSSL_wolfSSL/wolfssl/wolfcrypt/src/misc.c **** 
 2443              		.loc 2 302 9 view .LVU748
 2444 00bc 0146     		mov	r1, r0
 304:Middlewares/Third_Party/wolfSSL_wolfSSL_wolfSSL/wolfssl/wolfcrypt/src/misc.c ****         compareSum |= a[i] ^ b[i];
 2445              		.loc 2 304 12 view .LVU749
 2446 00be 0346     		mov	r3, r0
 2447 00c0 05E0     		b	.L163
 2448              	.LVL280:
 2449              	.L164:
 305:Middlewares/Third_Party/wolfSSL_wolfSSL_wolfSSL/wolfssl/wolfcrypt/src/misc.c ****     }
 2450              		.loc 2 305 9 is_stmt 1 view .LVU750
 305:Middlewares/Third_Party/wolfSSL_wolfSSL_wolfSSL/wolfssl/wolfcrypt/src/misc.c ****     }
 2451              		.loc 2 305 24 is_stmt 0 view .LVU751
 2452 00c2 E25C     		ldrb	r2, [r4, r3]	@ zero_extendqisi2
 305:Middlewares/Third_Party/wolfSSL_wolfSSL_wolfSSL/wolfssl/wolfcrypt/src/misc.c ****     }
ARM GAS  /tmp/cc09iKDl.s 			page 82


 2453              		.loc 2 305 31 view .LVU752
 2454 00c4 0B48     		ldr	r0, .L174+16
 2455 00c6 C05C     		ldrb	r0, [r0, r3]	@ zero_extendqisi2
 305:Middlewares/Third_Party/wolfSSL_wolfSSL_wolfSSL/wolfssl/wolfcrypt/src/misc.c ****     }
 2456              		.loc 2 305 28 view .LVU753
 2457 00c8 4240     		eors	r2, r2, r0
 305:Middlewares/Third_Party/wolfSSL_wolfSSL_wolfSSL/wolfssl/wolfcrypt/src/misc.c ****     }
 2458              		.loc 2 305 20 view .LVU754
 2459 00ca 1143     		orrs	r1, r1, r2
 2460              	.LVL281:
 304:Middlewares/Third_Party/wolfSSL_wolfSSL_wolfSSL/wolfssl/wolfcrypt/src/misc.c ****         compareSum |= a[i] ^ b[i];
 2461              		.loc 2 304 29 is_stmt 1 view .LVU755
 304:Middlewares/Third_Party/wolfSSL_wolfSSL_wolfSSL/wolfssl/wolfcrypt/src/misc.c ****         compareSum |= a[i] ^ b[i];
 2462              		.loc 2 304 30 is_stmt 0 view .LVU756
 2463 00cc 0133     		adds	r3, r3, #1
 2464              	.LVL282:
 2465              	.L163:
 304:Middlewares/Third_Party/wolfSSL_wolfSSL_wolfSSL/wolfssl/wolfcrypt/src/misc.c ****         compareSum |= a[i] ^ b[i];
 2466              		.loc 2 304 17 is_stmt 1 view .LVU757
 304:Middlewares/Third_Party/wolfSSL_wolfSSL_wolfSSL/wolfssl/wolfcrypt/src/misc.c ****         compareSum |= a[i] ^ b[i];
 2467              		.loc 2 304 5 is_stmt 0 view .LVU758
 2468 00ce 7F2B     		cmp	r3, #127
 2469 00d0 F7DD     		ble	.L164
 308:Middlewares/Third_Party/wolfSSL_wolfSSL_wolfSSL/wolfssl/wolfcrypt/src/misc.c **** }
 2470              		.loc 2 308 5 is_stmt 1 view .LVU759
 2471              	.LVL283:
 308:Middlewares/Third_Party/wolfSSL_wolfSSL_wolfSSL/wolfssl/wolfcrypt/src/misc.c **** }
 2472              		.loc 2 308 5 is_stmt 0 view .LVU760
 2473              	.LBE118:
 2474              	.LBE117:
1281:Middlewares/Third_Party/wolfSSL_wolfSSL_wolfSSL/wolfssl/wolfcrypt/src/random.c ****                     ret = -1;
 2475              		.loc 1 1281 20 view .LVU761
 2476 00d2 0029     		cmp	r1, #0
 2477 00d4 C7D0     		beq	.L158
1282:Middlewares/Third_Party/wolfSSL_wolfSSL_wolfSSL/wolfssl/wolfcrypt/src/random.c ****             }
 2478              		.loc 1 1282 25 view .LVU762
 2479 00d6 4FF0FF35 		mov	r5, #-1
 2480              	.LVL284:
1282:Middlewares/Third_Party/wolfSSL_wolfSSL_wolfSSL/wolfssl/wolfcrypt/src/random.c ****             }
 2481              		.loc 1 1282 25 view .LVU763
 2482 00da C4E7     		b	.L158
 2483              	.LVL285:
 2484              	.L165:
1282:Middlewares/Third_Party/wolfSSL_wolfSSL_wolfSSL/wolfssl/wolfcrypt/src/random.c ****             }
 2485              		.loc 1 1282 25 view .LVU764
 2486              	.LBE119:
1197:Middlewares/Third_Party/wolfSSL_wolfSSL_wolfSSL/wolfssl/wolfcrypt/src/random.c ****     }
 2487              		.loc 1 1197 16 view .LVU765
 2488 00dc 6FF07C05 		mvn	r5, #124
 2489              	.LVL286:
1197:Middlewares/Third_Party/wolfSSL_wolfSSL_wolfSSL/wolfssl/wolfcrypt/src/random.c ****     }
 2490              		.loc 1 1197 16 view .LVU766
 2491 00e0 C4E7     		b	.L154
 2492              	.L175:
 2493 00e2 00BF     		.align	2
 2494              	.L174:
 2495 00e4 00000000 		.word	.LANCHOR0
ARM GAS  /tmp/cc09iKDl.s 			page 83


 2496 00e8 00000000 		.word	.LANCHOR1
 2497 00ec 00000000 		.word	.LANCHOR2
 2498 00f0 00000000 		.word	.LANCHOR3
 2499 00f4 00000000 		.word	.LANCHOR4
 2500              		.cfi_endproc
 2501              	.LFE197:
 2503              		.section	.text.wc_GenerateSeed,"ax",%progbits
 2504              		.align	1
 2505              		.global	wc_GenerateSeed
 2506              		.syntax unified
 2507              		.thumb
 2508              		.thumb_func
 2509              		.fpu fpv4-sp-d16
 2511              	wc_GenerateSeed:
 2512              	.LVL287:
 2513              	.LFB198:
1299:Middlewares/Third_Party/wolfSSL_wolfSSL_wolfSSL/wolfssl/wolfcrypt/src/random.c **** 
1300:Middlewares/Third_Party/wolfSSL_wolfSSL_wolfSSL/wolfssl/wolfcrypt/src/random.c **** #endif /* HAVE_HASHDRBG */
1301:Middlewares/Third_Party/wolfSSL_wolfSSL_wolfSSL/wolfssl/wolfcrypt/src/random.c **** 
1302:Middlewares/Third_Party/wolfSSL_wolfSSL_wolfSSL/wolfssl/wolfcrypt/src/random.c **** 
1303:Middlewares/Third_Party/wolfSSL_wolfSSL_wolfSSL/wolfssl/wolfcrypt/src/random.c **** #ifdef HAVE_WNR
1304:Middlewares/Third_Party/wolfSSL_wolfSSL_wolfSSL/wolfssl/wolfcrypt/src/random.c **** 
1305:Middlewares/Third_Party/wolfSSL_wolfSSL_wolfSSL/wolfssl/wolfcrypt/src/random.c **** /*
1306:Middlewares/Third_Party/wolfSSL_wolfSSL_wolfSSL/wolfssl/wolfcrypt/src/random.c ****  * Init global Whitewood netRandom context
1307:Middlewares/Third_Party/wolfSSL_wolfSSL_wolfSSL/wolfssl/wolfcrypt/src/random.c ****  * Returns 0 on success, negative on error
1308:Middlewares/Third_Party/wolfSSL_wolfSSL_wolfSSL/wolfssl/wolfcrypt/src/random.c ****  */
1309:Middlewares/Third_Party/wolfSSL_wolfSSL_wolfSSL/wolfssl/wolfcrypt/src/random.c **** int wc_InitNetRandom(const char* configFile, wnr_hmac_key hmac_cb, int timeout)
1310:Middlewares/Third_Party/wolfSSL_wolfSSL_wolfSSL/wolfssl/wolfcrypt/src/random.c **** {
1311:Middlewares/Third_Party/wolfSSL_wolfSSL_wolfSSL/wolfssl/wolfcrypt/src/random.c ****     if (configFile == NULL || timeout < 0)
1312:Middlewares/Third_Party/wolfSSL_wolfSSL_wolfSSL/wolfssl/wolfcrypt/src/random.c ****         return BAD_FUNC_ARG;
1313:Middlewares/Third_Party/wolfSSL_wolfSSL_wolfSSL/wolfssl/wolfcrypt/src/random.c **** 
1314:Middlewares/Third_Party/wolfSSL_wolfSSL_wolfSSL/wolfssl/wolfcrypt/src/random.c ****     if (wnr_mutex_init > 0) {
1315:Middlewares/Third_Party/wolfSSL_wolfSSL_wolfSSL/wolfssl/wolfcrypt/src/random.c ****         WOLFSSL_MSG("netRandom context already created, skipping");
1316:Middlewares/Third_Party/wolfSSL_wolfSSL_wolfSSL/wolfssl/wolfcrypt/src/random.c ****         return 0;
1317:Middlewares/Third_Party/wolfSSL_wolfSSL_wolfSSL/wolfssl/wolfcrypt/src/random.c ****     }
1318:Middlewares/Third_Party/wolfSSL_wolfSSL_wolfSSL/wolfssl/wolfcrypt/src/random.c **** 
1319:Middlewares/Third_Party/wolfSSL_wolfSSL_wolfSSL/wolfssl/wolfcrypt/src/random.c ****     if (wc_InitMutex(&wnr_mutex) != 0) {
1320:Middlewares/Third_Party/wolfSSL_wolfSSL_wolfSSL/wolfssl/wolfcrypt/src/random.c ****         WOLFSSL_MSG("Bad Init Mutex wnr_mutex");
1321:Middlewares/Third_Party/wolfSSL_wolfSSL_wolfSSL/wolfssl/wolfcrypt/src/random.c ****         return BAD_MUTEX_E;
1322:Middlewares/Third_Party/wolfSSL_wolfSSL_wolfSSL/wolfssl/wolfcrypt/src/random.c ****     }
1323:Middlewares/Third_Party/wolfSSL_wolfSSL_wolfSSL/wolfssl/wolfcrypt/src/random.c ****     wnr_mutex_init = 1;
1324:Middlewares/Third_Party/wolfSSL_wolfSSL_wolfSSL/wolfssl/wolfcrypt/src/random.c **** 
1325:Middlewares/Third_Party/wolfSSL_wolfSSL_wolfSSL/wolfssl/wolfcrypt/src/random.c ****     if (wc_LockMutex(&wnr_mutex) != 0) {
1326:Middlewares/Third_Party/wolfSSL_wolfSSL_wolfSSL/wolfssl/wolfcrypt/src/random.c ****         WOLFSSL_MSG("Bad Lock Mutex wnr_mutex");
1327:Middlewares/Third_Party/wolfSSL_wolfSSL_wolfSSL/wolfssl/wolfcrypt/src/random.c ****         return BAD_MUTEX_E;
1328:Middlewares/Third_Party/wolfSSL_wolfSSL_wolfSSL/wolfssl/wolfcrypt/src/random.c ****     }
1329:Middlewares/Third_Party/wolfSSL_wolfSSL_wolfSSL/wolfssl/wolfcrypt/src/random.c **** 
1330:Middlewares/Third_Party/wolfSSL_wolfSSL_wolfSSL/wolfssl/wolfcrypt/src/random.c ****     /* store entropy timeout */
1331:Middlewares/Third_Party/wolfSSL_wolfSSL_wolfSSL/wolfssl/wolfcrypt/src/random.c ****     wnr_timeout = timeout;
1332:Middlewares/Third_Party/wolfSSL_wolfSSL_wolfSSL/wolfssl/wolfcrypt/src/random.c **** 
1333:Middlewares/Third_Party/wolfSSL_wolfSSL_wolfSSL/wolfssl/wolfcrypt/src/random.c ****     /* create global wnr_context struct */
1334:Middlewares/Third_Party/wolfSSL_wolfSSL_wolfSSL/wolfssl/wolfcrypt/src/random.c ****     if (wnr_create(&wnr_ctx) != WNR_ERROR_NONE) {
1335:Middlewares/Third_Party/wolfSSL_wolfSSL_wolfSSL/wolfssl/wolfcrypt/src/random.c ****         WOLFSSL_MSG("Error creating global netRandom context");
1336:Middlewares/Third_Party/wolfSSL_wolfSSL_wolfSSL/wolfssl/wolfcrypt/src/random.c ****         return RNG_FAILURE_E;
1337:Middlewares/Third_Party/wolfSSL_wolfSSL_wolfSSL/wolfssl/wolfcrypt/src/random.c ****     }
1338:Middlewares/Third_Party/wolfSSL_wolfSSL_wolfSSL/wolfssl/wolfcrypt/src/random.c **** 
1339:Middlewares/Third_Party/wolfSSL_wolfSSL_wolfSSL/wolfssl/wolfcrypt/src/random.c ****     /* load config file */
ARM GAS  /tmp/cc09iKDl.s 			page 84


1340:Middlewares/Third_Party/wolfSSL_wolfSSL_wolfSSL/wolfssl/wolfcrypt/src/random.c ****     if (wnr_config_loadf(wnr_ctx, (char*)configFile) != WNR_ERROR_NONE) {
1341:Middlewares/Third_Party/wolfSSL_wolfSSL_wolfSSL/wolfssl/wolfcrypt/src/random.c ****         WOLFSSL_MSG("Error loading config file into netRandom context");
1342:Middlewares/Third_Party/wolfSSL_wolfSSL_wolfSSL/wolfssl/wolfcrypt/src/random.c ****         wnr_destroy(wnr_ctx);
1343:Middlewares/Third_Party/wolfSSL_wolfSSL_wolfSSL/wolfssl/wolfcrypt/src/random.c ****         wnr_ctx = NULL;
1344:Middlewares/Third_Party/wolfSSL_wolfSSL_wolfSSL/wolfssl/wolfcrypt/src/random.c ****         return RNG_FAILURE_E;
1345:Middlewares/Third_Party/wolfSSL_wolfSSL_wolfSSL/wolfssl/wolfcrypt/src/random.c ****     }
1346:Middlewares/Third_Party/wolfSSL_wolfSSL_wolfSSL/wolfssl/wolfcrypt/src/random.c **** 
1347:Middlewares/Third_Party/wolfSSL_wolfSSL_wolfSSL/wolfssl/wolfcrypt/src/random.c ****     /* create/init polling mechanism */
1348:Middlewares/Third_Party/wolfSSL_wolfSSL_wolfSSL/wolfssl/wolfcrypt/src/random.c ****     if (wnr_poll_create() != WNR_ERROR_NONE) {
1349:Middlewares/Third_Party/wolfSSL_wolfSSL_wolfSSL/wolfssl/wolfcrypt/src/random.c ****         printf("ERROR: wnr_poll_create() failed\n");
1350:Middlewares/Third_Party/wolfSSL_wolfSSL_wolfSSL/wolfssl/wolfcrypt/src/random.c ****         WOLFSSL_MSG("Error initializing netRandom polling mechanism");
1351:Middlewares/Third_Party/wolfSSL_wolfSSL_wolfSSL/wolfssl/wolfcrypt/src/random.c ****         wnr_destroy(wnr_ctx);
1352:Middlewares/Third_Party/wolfSSL_wolfSSL_wolfSSL/wolfssl/wolfcrypt/src/random.c ****         wnr_ctx = NULL;
1353:Middlewares/Third_Party/wolfSSL_wolfSSL_wolfSSL/wolfssl/wolfcrypt/src/random.c ****         return RNG_FAILURE_E;
1354:Middlewares/Third_Party/wolfSSL_wolfSSL_wolfSSL/wolfssl/wolfcrypt/src/random.c ****     }
1355:Middlewares/Third_Party/wolfSSL_wolfSSL_wolfSSL/wolfssl/wolfcrypt/src/random.c **** 
1356:Middlewares/Third_Party/wolfSSL_wolfSSL_wolfSSL/wolfssl/wolfcrypt/src/random.c ****     /* validate config, set HMAC callback (optional) */
1357:Middlewares/Third_Party/wolfSSL_wolfSSL_wolfSSL/wolfssl/wolfcrypt/src/random.c ****     if (wnr_setup(wnr_ctx, hmac_cb) != WNR_ERROR_NONE) {
1358:Middlewares/Third_Party/wolfSSL_wolfSSL_wolfSSL/wolfssl/wolfcrypt/src/random.c ****         WOLFSSL_MSG("Error setting up netRandom context");
1359:Middlewares/Third_Party/wolfSSL_wolfSSL_wolfSSL/wolfssl/wolfcrypt/src/random.c ****         wnr_destroy(wnr_ctx);
1360:Middlewares/Third_Party/wolfSSL_wolfSSL_wolfSSL/wolfssl/wolfcrypt/src/random.c ****         wnr_ctx = NULL;
1361:Middlewares/Third_Party/wolfSSL_wolfSSL_wolfSSL/wolfssl/wolfcrypt/src/random.c ****         wnr_poll_destroy();
1362:Middlewares/Third_Party/wolfSSL_wolfSSL_wolfSSL/wolfssl/wolfcrypt/src/random.c ****         return RNG_FAILURE_E;
1363:Middlewares/Third_Party/wolfSSL_wolfSSL_wolfSSL/wolfssl/wolfcrypt/src/random.c ****     }
1364:Middlewares/Third_Party/wolfSSL_wolfSSL_wolfSSL/wolfssl/wolfcrypt/src/random.c **** 
1365:Middlewares/Third_Party/wolfSSL_wolfSSL_wolfSSL/wolfssl/wolfcrypt/src/random.c ****     wc_UnLockMutex(&wnr_mutex);
1366:Middlewares/Third_Party/wolfSSL_wolfSSL_wolfSSL/wolfssl/wolfcrypt/src/random.c **** 
1367:Middlewares/Third_Party/wolfSSL_wolfSSL_wolfSSL/wolfssl/wolfcrypt/src/random.c ****     return 0;
1368:Middlewares/Third_Party/wolfSSL_wolfSSL_wolfSSL/wolfssl/wolfcrypt/src/random.c **** }
1369:Middlewares/Third_Party/wolfSSL_wolfSSL_wolfSSL/wolfssl/wolfcrypt/src/random.c **** 
1370:Middlewares/Third_Party/wolfSSL_wolfSSL_wolfSSL/wolfssl/wolfcrypt/src/random.c **** /*
1371:Middlewares/Third_Party/wolfSSL_wolfSSL_wolfSSL/wolfssl/wolfcrypt/src/random.c ****  * Free global Whitewood netRandom context
1372:Middlewares/Third_Party/wolfSSL_wolfSSL_wolfSSL/wolfssl/wolfcrypt/src/random.c ****  * Returns 0 on success, negative on error
1373:Middlewares/Third_Party/wolfSSL_wolfSSL_wolfSSL/wolfssl/wolfcrypt/src/random.c ****  */
1374:Middlewares/Third_Party/wolfSSL_wolfSSL_wolfSSL/wolfssl/wolfcrypt/src/random.c **** int wc_FreeNetRandom(void)
1375:Middlewares/Third_Party/wolfSSL_wolfSSL_wolfSSL/wolfssl/wolfcrypt/src/random.c **** {
1376:Middlewares/Third_Party/wolfSSL_wolfSSL_wolfSSL/wolfssl/wolfcrypt/src/random.c ****     if (wnr_mutex_init > 0) {
1377:Middlewares/Third_Party/wolfSSL_wolfSSL_wolfSSL/wolfssl/wolfcrypt/src/random.c **** 
1378:Middlewares/Third_Party/wolfSSL_wolfSSL_wolfSSL/wolfssl/wolfcrypt/src/random.c ****         if (wc_LockMutex(&wnr_mutex) != 0) {
1379:Middlewares/Third_Party/wolfSSL_wolfSSL_wolfSSL/wolfssl/wolfcrypt/src/random.c ****             WOLFSSL_MSG("Bad Lock Mutex wnr_mutex");
1380:Middlewares/Third_Party/wolfSSL_wolfSSL_wolfSSL/wolfssl/wolfcrypt/src/random.c ****             return BAD_MUTEX_E;
1381:Middlewares/Third_Party/wolfSSL_wolfSSL_wolfSSL/wolfssl/wolfcrypt/src/random.c ****         }
1382:Middlewares/Third_Party/wolfSSL_wolfSSL_wolfSSL/wolfssl/wolfcrypt/src/random.c **** 
1383:Middlewares/Third_Party/wolfSSL_wolfSSL_wolfSSL/wolfssl/wolfcrypt/src/random.c ****         if (wnr_ctx != NULL) {
1384:Middlewares/Third_Party/wolfSSL_wolfSSL_wolfSSL/wolfssl/wolfcrypt/src/random.c ****             wnr_destroy(wnr_ctx);
1385:Middlewares/Third_Party/wolfSSL_wolfSSL_wolfSSL/wolfssl/wolfcrypt/src/random.c ****             wnr_ctx = NULL;
1386:Middlewares/Third_Party/wolfSSL_wolfSSL_wolfSSL/wolfssl/wolfcrypt/src/random.c ****         }
1387:Middlewares/Third_Party/wolfSSL_wolfSSL_wolfSSL/wolfssl/wolfcrypt/src/random.c ****         wnr_poll_destroy();
1388:Middlewares/Third_Party/wolfSSL_wolfSSL_wolfSSL/wolfssl/wolfcrypt/src/random.c **** 
1389:Middlewares/Third_Party/wolfSSL_wolfSSL_wolfSSL/wolfssl/wolfcrypt/src/random.c ****         wc_UnLockMutex(&wnr_mutex);
1390:Middlewares/Third_Party/wolfSSL_wolfSSL_wolfSSL/wolfssl/wolfcrypt/src/random.c **** 
1391:Middlewares/Third_Party/wolfSSL_wolfSSL_wolfSSL/wolfssl/wolfcrypt/src/random.c ****         wc_FreeMutex(&wnr_mutex);
1392:Middlewares/Third_Party/wolfSSL_wolfSSL_wolfSSL/wolfssl/wolfcrypt/src/random.c ****         wnr_mutex_init = 0;
1393:Middlewares/Third_Party/wolfSSL_wolfSSL_wolfSSL/wolfssl/wolfcrypt/src/random.c ****     }
1394:Middlewares/Third_Party/wolfSSL_wolfSSL_wolfSSL/wolfssl/wolfcrypt/src/random.c **** 
1395:Middlewares/Third_Party/wolfSSL_wolfSSL_wolfSSL/wolfssl/wolfcrypt/src/random.c ****     return 0;
1396:Middlewares/Third_Party/wolfSSL_wolfSSL_wolfSSL/wolfssl/wolfcrypt/src/random.c **** }
ARM GAS  /tmp/cc09iKDl.s 			page 85


1397:Middlewares/Third_Party/wolfSSL_wolfSSL_wolfSSL/wolfssl/wolfcrypt/src/random.c **** 
1398:Middlewares/Third_Party/wolfSSL_wolfSSL_wolfSSL/wolfssl/wolfcrypt/src/random.c **** #endif /* HAVE_WNR */
1399:Middlewares/Third_Party/wolfSSL_wolfSSL_wolfSSL/wolfssl/wolfcrypt/src/random.c **** 
1400:Middlewares/Third_Party/wolfSSL_wolfSSL_wolfSSL/wolfssl/wolfcrypt/src/random.c **** 
1401:Middlewares/Third_Party/wolfSSL_wolfSSL_wolfSSL/wolfssl/wolfcrypt/src/random.c **** #if defined(HAVE_INTEL_RDRAND) || defined(HAVE_INTEL_RDSEED)
1402:Middlewares/Third_Party/wolfSSL_wolfSSL_wolfSSL/wolfssl/wolfcrypt/src/random.c **** 
1403:Middlewares/Third_Party/wolfSSL_wolfSSL_wolfSSL/wolfssl/wolfcrypt/src/random.c **** #ifdef WOLFSSL_ASYNC_CRYPT
1404:Middlewares/Third_Party/wolfSSL_wolfSSL_wolfSSL/wolfssl/wolfcrypt/src/random.c ****     /* need more retries if multiple cores */
1405:Middlewares/Third_Party/wolfSSL_wolfSSL_wolfSSL/wolfssl/wolfcrypt/src/random.c ****     #define INTELRD_RETRY (32 * 8)
1406:Middlewares/Third_Party/wolfSSL_wolfSSL_wolfSSL/wolfssl/wolfcrypt/src/random.c **** #else
1407:Middlewares/Third_Party/wolfSSL_wolfSSL_wolfSSL/wolfssl/wolfcrypt/src/random.c ****     #define INTELRD_RETRY 32
1408:Middlewares/Third_Party/wolfSSL_wolfSSL_wolfSSL/wolfssl/wolfcrypt/src/random.c **** #endif
1409:Middlewares/Third_Party/wolfSSL_wolfSSL_wolfSSL/wolfssl/wolfcrypt/src/random.c **** 
1410:Middlewares/Third_Party/wolfSSL_wolfSSL_wolfSSL/wolfssl/wolfcrypt/src/random.c **** #ifdef HAVE_INTEL_RDSEED
1411:Middlewares/Third_Party/wolfSSL_wolfSSL_wolfSSL/wolfssl/wolfcrypt/src/random.c **** 
1412:Middlewares/Third_Party/wolfSSL_wolfSSL_wolfSSL/wolfssl/wolfcrypt/src/random.c **** #ifndef USE_INTEL_INTRINSICS
1413:Middlewares/Third_Party/wolfSSL_wolfSSL_wolfSSL/wolfssl/wolfcrypt/src/random.c **** 
1414:Middlewares/Third_Party/wolfSSL_wolfSSL_wolfSSL/wolfssl/wolfcrypt/src/random.c ****     /* return 0 on success */
1415:Middlewares/Third_Party/wolfSSL_wolfSSL_wolfSSL/wolfssl/wolfcrypt/src/random.c ****     static WC_INLINE int IntelRDseed64(word64* seed)
1416:Middlewares/Third_Party/wolfSSL_wolfSSL_wolfSSL/wolfssl/wolfcrypt/src/random.c ****     {
1417:Middlewares/Third_Party/wolfSSL_wolfSSL_wolfSSL/wolfssl/wolfcrypt/src/random.c ****         unsigned char ok;
1418:Middlewares/Third_Party/wolfSSL_wolfSSL_wolfSSL/wolfssl/wolfcrypt/src/random.c **** 
1419:Middlewares/Third_Party/wolfSSL_wolfSSL_wolfSSL/wolfssl/wolfcrypt/src/random.c ****         __asm__ volatile("rdseed %0; setc %1":"=r"(*seed), "=qm"(ok));
1420:Middlewares/Third_Party/wolfSSL_wolfSSL_wolfSSL/wolfssl/wolfcrypt/src/random.c ****         return (ok) ? 0 : -1;
1421:Middlewares/Third_Party/wolfSSL_wolfSSL_wolfSSL/wolfssl/wolfcrypt/src/random.c ****     }
1422:Middlewares/Third_Party/wolfSSL_wolfSSL_wolfSSL/wolfssl/wolfcrypt/src/random.c **** 
1423:Middlewares/Third_Party/wolfSSL_wolfSSL_wolfSSL/wolfssl/wolfcrypt/src/random.c **** #else /* USE_INTEL_INTRINSICS */
1424:Middlewares/Third_Party/wolfSSL_wolfSSL_wolfSSL/wolfssl/wolfcrypt/src/random.c ****     /* The compiler Visual Studio uses does not allow inline assembly.
1425:Middlewares/Third_Party/wolfSSL_wolfSSL_wolfSSL/wolfssl/wolfcrypt/src/random.c ****      * It does allow for Intel intrinsic functions. */
1426:Middlewares/Third_Party/wolfSSL_wolfSSL_wolfSSL/wolfssl/wolfcrypt/src/random.c **** 
1427:Middlewares/Third_Party/wolfSSL_wolfSSL_wolfSSL/wolfssl/wolfcrypt/src/random.c ****     /* return 0 on success */
1428:Middlewares/Third_Party/wolfSSL_wolfSSL_wolfSSL/wolfssl/wolfcrypt/src/random.c **** # ifdef __GNUC__
1429:Middlewares/Third_Party/wolfSSL_wolfSSL_wolfSSL/wolfssl/wolfcrypt/src/random.c ****     __attribute__((target("rdseed")))
1430:Middlewares/Third_Party/wolfSSL_wolfSSL_wolfSSL/wolfssl/wolfcrypt/src/random.c **** # endif
1431:Middlewares/Third_Party/wolfSSL_wolfSSL_wolfSSL/wolfssl/wolfcrypt/src/random.c ****     static WC_INLINE int IntelRDseed64(word64* seed)
1432:Middlewares/Third_Party/wolfSSL_wolfSSL_wolfSSL/wolfssl/wolfcrypt/src/random.c ****     {
1433:Middlewares/Third_Party/wolfSSL_wolfSSL_wolfSSL/wolfssl/wolfcrypt/src/random.c ****         int ok;
1434:Middlewares/Third_Party/wolfSSL_wolfSSL_wolfSSL/wolfssl/wolfcrypt/src/random.c **** 
1435:Middlewares/Third_Party/wolfSSL_wolfSSL_wolfSSL/wolfssl/wolfcrypt/src/random.c ****         ok = _rdseed64_step((unsigned long long*) seed);
1436:Middlewares/Third_Party/wolfSSL_wolfSSL_wolfSSL/wolfssl/wolfcrypt/src/random.c ****         return (ok) ? 0 : -1;
1437:Middlewares/Third_Party/wolfSSL_wolfSSL_wolfSSL/wolfssl/wolfcrypt/src/random.c ****     }
1438:Middlewares/Third_Party/wolfSSL_wolfSSL_wolfSSL/wolfssl/wolfcrypt/src/random.c **** 
1439:Middlewares/Third_Party/wolfSSL_wolfSSL_wolfSSL/wolfssl/wolfcrypt/src/random.c **** #endif /* USE_INTEL_INTRINSICS */
1440:Middlewares/Third_Party/wolfSSL_wolfSSL_wolfSSL/wolfssl/wolfcrypt/src/random.c **** 
1441:Middlewares/Third_Party/wolfSSL_wolfSSL_wolfSSL/wolfssl/wolfcrypt/src/random.c **** /* return 0 on success */
1442:Middlewares/Third_Party/wolfSSL_wolfSSL_wolfSSL/wolfssl/wolfcrypt/src/random.c **** static WC_INLINE int IntelRDseed64_r(word64* rnd)
1443:Middlewares/Third_Party/wolfSSL_wolfSSL_wolfSSL/wolfssl/wolfcrypt/src/random.c **** {
1444:Middlewares/Third_Party/wolfSSL_wolfSSL_wolfSSL/wolfssl/wolfcrypt/src/random.c ****     int i;
1445:Middlewares/Third_Party/wolfSSL_wolfSSL_wolfSSL/wolfssl/wolfcrypt/src/random.c ****     for (i = 0; i < INTELRD_RETRY; i++) {
1446:Middlewares/Third_Party/wolfSSL_wolfSSL_wolfSSL/wolfssl/wolfcrypt/src/random.c ****         if (IntelRDseed64(rnd) == 0)
1447:Middlewares/Third_Party/wolfSSL_wolfSSL_wolfSSL/wolfssl/wolfcrypt/src/random.c ****             return 0;
1448:Middlewares/Third_Party/wolfSSL_wolfSSL_wolfSSL/wolfssl/wolfcrypt/src/random.c ****     }
1449:Middlewares/Third_Party/wolfSSL_wolfSSL_wolfSSL/wolfssl/wolfcrypt/src/random.c ****     return -1;
1450:Middlewares/Third_Party/wolfSSL_wolfSSL_wolfSSL/wolfssl/wolfcrypt/src/random.c **** }
1451:Middlewares/Third_Party/wolfSSL_wolfSSL_wolfSSL/wolfssl/wolfcrypt/src/random.c **** 
1452:Middlewares/Third_Party/wolfSSL_wolfSSL_wolfSSL/wolfssl/wolfcrypt/src/random.c **** #ifndef WOLFSSL_LINUXKM
1453:Middlewares/Third_Party/wolfSSL_wolfSSL_wolfSSL/wolfssl/wolfcrypt/src/random.c **** /* return 0 on success */
ARM GAS  /tmp/cc09iKDl.s 			page 86


1454:Middlewares/Third_Party/wolfSSL_wolfSSL_wolfSSL/wolfssl/wolfcrypt/src/random.c **** static int wc_GenerateSeed_IntelRD(OS_Seed* os, byte* output, word32 sz)
1455:Middlewares/Third_Party/wolfSSL_wolfSSL_wolfSSL/wolfssl/wolfcrypt/src/random.c **** {
1456:Middlewares/Third_Party/wolfSSL_wolfSSL_wolfSSL/wolfssl/wolfcrypt/src/random.c ****     int ret;
1457:Middlewares/Third_Party/wolfSSL_wolfSSL_wolfSSL/wolfssl/wolfcrypt/src/random.c ****     word64 rndTmp;
1458:Middlewares/Third_Party/wolfSSL_wolfSSL_wolfSSL/wolfssl/wolfcrypt/src/random.c **** 
1459:Middlewares/Third_Party/wolfSSL_wolfSSL_wolfSSL/wolfssl/wolfcrypt/src/random.c ****     (void)os;
1460:Middlewares/Third_Party/wolfSSL_wolfSSL_wolfSSL/wolfssl/wolfcrypt/src/random.c **** 
1461:Middlewares/Third_Party/wolfSSL_wolfSSL_wolfSSL/wolfssl/wolfcrypt/src/random.c ****     if (!IS_INTEL_RDSEED(intel_flags))
1462:Middlewares/Third_Party/wolfSSL_wolfSSL_wolfSSL/wolfssl/wolfcrypt/src/random.c ****         return -1;
1463:Middlewares/Third_Party/wolfSSL_wolfSSL_wolfSSL/wolfssl/wolfcrypt/src/random.c **** 
1464:Middlewares/Third_Party/wolfSSL_wolfSSL_wolfSSL/wolfssl/wolfcrypt/src/random.c ****     for (; (sz / sizeof(word64)) > 0; sz -= sizeof(word64),
1465:Middlewares/Third_Party/wolfSSL_wolfSSL_wolfSSL/wolfssl/wolfcrypt/src/random.c ****                                                     output += sizeof(word64)) {
1466:Middlewares/Third_Party/wolfSSL_wolfSSL_wolfSSL/wolfssl/wolfcrypt/src/random.c ****         ret = IntelRDseed64_r((word64*)output);
1467:Middlewares/Third_Party/wolfSSL_wolfSSL_wolfSSL/wolfssl/wolfcrypt/src/random.c ****         if (ret != 0)
1468:Middlewares/Third_Party/wolfSSL_wolfSSL_wolfSSL/wolfssl/wolfcrypt/src/random.c ****             return ret;
1469:Middlewares/Third_Party/wolfSSL_wolfSSL_wolfSSL/wolfssl/wolfcrypt/src/random.c ****     }
1470:Middlewares/Third_Party/wolfSSL_wolfSSL_wolfSSL/wolfssl/wolfcrypt/src/random.c ****     if (sz == 0)
1471:Middlewares/Third_Party/wolfSSL_wolfSSL_wolfSSL/wolfssl/wolfcrypt/src/random.c ****         return 0;
1472:Middlewares/Third_Party/wolfSSL_wolfSSL_wolfSSL/wolfssl/wolfcrypt/src/random.c **** 
1473:Middlewares/Third_Party/wolfSSL_wolfSSL_wolfSSL/wolfssl/wolfcrypt/src/random.c ****     /* handle unaligned remainder */
1474:Middlewares/Third_Party/wolfSSL_wolfSSL_wolfSSL/wolfssl/wolfcrypt/src/random.c ****     ret = IntelRDseed64_r(&rndTmp);
1475:Middlewares/Third_Party/wolfSSL_wolfSSL_wolfSSL/wolfssl/wolfcrypt/src/random.c ****     if (ret != 0)
1476:Middlewares/Third_Party/wolfSSL_wolfSSL_wolfSSL/wolfssl/wolfcrypt/src/random.c ****         return ret;
1477:Middlewares/Third_Party/wolfSSL_wolfSSL_wolfSSL/wolfssl/wolfcrypt/src/random.c **** 
1478:Middlewares/Third_Party/wolfSSL_wolfSSL_wolfSSL/wolfssl/wolfcrypt/src/random.c ****     XMEMCPY(output, &rndTmp, sz);
1479:Middlewares/Third_Party/wolfSSL_wolfSSL_wolfSSL/wolfssl/wolfcrypt/src/random.c ****     ForceZero(&rndTmp, sizeof(rndTmp));
1480:Middlewares/Third_Party/wolfSSL_wolfSSL_wolfSSL/wolfssl/wolfcrypt/src/random.c **** 
1481:Middlewares/Third_Party/wolfSSL_wolfSSL_wolfSSL/wolfssl/wolfcrypt/src/random.c ****     return 0;
1482:Middlewares/Third_Party/wolfSSL_wolfSSL_wolfSSL/wolfssl/wolfcrypt/src/random.c **** }
1483:Middlewares/Third_Party/wolfSSL_wolfSSL_wolfSSL/wolfssl/wolfcrypt/src/random.c **** #endif
1484:Middlewares/Third_Party/wolfSSL_wolfSSL_wolfSSL/wolfssl/wolfcrypt/src/random.c **** 
1485:Middlewares/Third_Party/wolfSSL_wolfSSL_wolfSSL/wolfssl/wolfcrypt/src/random.c **** #endif /* HAVE_INTEL_RDSEED */
1486:Middlewares/Third_Party/wolfSSL_wolfSSL_wolfSSL/wolfssl/wolfcrypt/src/random.c **** 
1487:Middlewares/Third_Party/wolfSSL_wolfSSL_wolfSSL/wolfssl/wolfcrypt/src/random.c **** #ifdef HAVE_INTEL_RDRAND
1488:Middlewares/Third_Party/wolfSSL_wolfSSL_wolfSSL/wolfssl/wolfcrypt/src/random.c **** 
1489:Middlewares/Third_Party/wolfSSL_wolfSSL_wolfSSL/wolfssl/wolfcrypt/src/random.c **** #ifndef USE_INTEL_INTRINSICS
1490:Middlewares/Third_Party/wolfSSL_wolfSSL_wolfSSL/wolfssl/wolfcrypt/src/random.c **** 
1491:Middlewares/Third_Party/wolfSSL_wolfSSL_wolfSSL/wolfssl/wolfcrypt/src/random.c **** /* return 0 on success */
1492:Middlewares/Third_Party/wolfSSL_wolfSSL_wolfSSL/wolfssl/wolfcrypt/src/random.c **** static WC_INLINE int IntelRDrand64(word64 *rnd)
1493:Middlewares/Third_Party/wolfSSL_wolfSSL_wolfSSL/wolfssl/wolfcrypt/src/random.c **** {
1494:Middlewares/Third_Party/wolfSSL_wolfSSL_wolfSSL/wolfssl/wolfcrypt/src/random.c ****     unsigned char ok;
1495:Middlewares/Third_Party/wolfSSL_wolfSSL_wolfSSL/wolfssl/wolfcrypt/src/random.c **** 
1496:Middlewares/Third_Party/wolfSSL_wolfSSL_wolfSSL/wolfssl/wolfcrypt/src/random.c ****     __asm__ volatile("rdrand %0; setc %1":"=r"(*rnd), "=qm"(ok));
1497:Middlewares/Third_Party/wolfSSL_wolfSSL_wolfSSL/wolfssl/wolfcrypt/src/random.c **** 
1498:Middlewares/Third_Party/wolfSSL_wolfSSL_wolfSSL/wolfssl/wolfcrypt/src/random.c ****     return (ok) ? 0 : -1;
1499:Middlewares/Third_Party/wolfSSL_wolfSSL_wolfSSL/wolfssl/wolfcrypt/src/random.c **** }
1500:Middlewares/Third_Party/wolfSSL_wolfSSL_wolfSSL/wolfssl/wolfcrypt/src/random.c **** 
1501:Middlewares/Third_Party/wolfSSL_wolfSSL_wolfSSL/wolfssl/wolfcrypt/src/random.c **** #else /* USE_INTEL_INTRINSICS */
1502:Middlewares/Third_Party/wolfSSL_wolfSSL_wolfSSL/wolfssl/wolfcrypt/src/random.c ****     /* The compiler Visual Studio uses does not allow inline assembly.
1503:Middlewares/Third_Party/wolfSSL_wolfSSL_wolfSSL/wolfssl/wolfcrypt/src/random.c ****      * It does allow for Intel intrinsic functions. */
1504:Middlewares/Third_Party/wolfSSL_wolfSSL_wolfSSL/wolfssl/wolfcrypt/src/random.c **** 
1505:Middlewares/Third_Party/wolfSSL_wolfSSL_wolfSSL/wolfssl/wolfcrypt/src/random.c **** /* return 0 on success */
1506:Middlewares/Third_Party/wolfSSL_wolfSSL_wolfSSL/wolfssl/wolfcrypt/src/random.c **** # ifdef __GNUC__
1507:Middlewares/Third_Party/wolfSSL_wolfSSL_wolfSSL/wolfssl/wolfcrypt/src/random.c **** __attribute__((target("rdrnd")))
1508:Middlewares/Third_Party/wolfSSL_wolfSSL_wolfSSL/wolfssl/wolfcrypt/src/random.c **** # endif
1509:Middlewares/Third_Party/wolfSSL_wolfSSL_wolfSSL/wolfssl/wolfcrypt/src/random.c **** static WC_INLINE int IntelRDrand64(word64 *rnd)
1510:Middlewares/Third_Party/wolfSSL_wolfSSL_wolfSSL/wolfssl/wolfcrypt/src/random.c **** {
ARM GAS  /tmp/cc09iKDl.s 			page 87


1511:Middlewares/Third_Party/wolfSSL_wolfSSL_wolfSSL/wolfssl/wolfcrypt/src/random.c ****     int ok;
1512:Middlewares/Third_Party/wolfSSL_wolfSSL_wolfSSL/wolfssl/wolfcrypt/src/random.c **** 
1513:Middlewares/Third_Party/wolfSSL_wolfSSL_wolfSSL/wolfssl/wolfcrypt/src/random.c ****     ok = _rdrand64_step((unsigned long long*) rnd);
1514:Middlewares/Third_Party/wolfSSL_wolfSSL_wolfSSL/wolfssl/wolfcrypt/src/random.c **** 
1515:Middlewares/Third_Party/wolfSSL_wolfSSL_wolfSSL/wolfssl/wolfcrypt/src/random.c ****     return (ok) ? 0 : -1;
1516:Middlewares/Third_Party/wolfSSL_wolfSSL_wolfSSL/wolfssl/wolfcrypt/src/random.c **** }
1517:Middlewares/Third_Party/wolfSSL_wolfSSL_wolfSSL/wolfssl/wolfcrypt/src/random.c **** 
1518:Middlewares/Third_Party/wolfSSL_wolfSSL_wolfSSL/wolfssl/wolfcrypt/src/random.c **** #endif /* USE_INTEL_INTRINSICS */
1519:Middlewares/Third_Party/wolfSSL_wolfSSL_wolfSSL/wolfssl/wolfcrypt/src/random.c **** 
1520:Middlewares/Third_Party/wolfSSL_wolfSSL_wolfSSL/wolfssl/wolfcrypt/src/random.c **** /* return 0 on success */
1521:Middlewares/Third_Party/wolfSSL_wolfSSL_wolfSSL/wolfssl/wolfcrypt/src/random.c **** static WC_INLINE int IntelRDrand64_r(word64 *rnd)
1522:Middlewares/Third_Party/wolfSSL_wolfSSL_wolfSSL/wolfssl/wolfcrypt/src/random.c **** {
1523:Middlewares/Third_Party/wolfSSL_wolfSSL_wolfSSL/wolfssl/wolfcrypt/src/random.c ****     int i;
1524:Middlewares/Third_Party/wolfSSL_wolfSSL_wolfSSL/wolfssl/wolfcrypt/src/random.c ****     for (i = 0; i < INTELRD_RETRY; i++) {
1525:Middlewares/Third_Party/wolfSSL_wolfSSL_wolfSSL/wolfssl/wolfcrypt/src/random.c ****         if (IntelRDrand64(rnd) == 0)
1526:Middlewares/Third_Party/wolfSSL_wolfSSL_wolfSSL/wolfssl/wolfcrypt/src/random.c ****             return 0;
1527:Middlewares/Third_Party/wolfSSL_wolfSSL_wolfSSL/wolfssl/wolfcrypt/src/random.c ****     }
1528:Middlewares/Third_Party/wolfSSL_wolfSSL_wolfSSL/wolfssl/wolfcrypt/src/random.c ****     return -1;
1529:Middlewares/Third_Party/wolfSSL_wolfSSL_wolfSSL/wolfssl/wolfcrypt/src/random.c **** }
1530:Middlewares/Third_Party/wolfSSL_wolfSSL_wolfSSL/wolfssl/wolfcrypt/src/random.c **** 
1531:Middlewares/Third_Party/wolfSSL_wolfSSL_wolfSSL/wolfssl/wolfcrypt/src/random.c **** /* return 0 on success */
1532:Middlewares/Third_Party/wolfSSL_wolfSSL_wolfSSL/wolfssl/wolfcrypt/src/random.c **** static int wc_GenerateRand_IntelRD(OS_Seed* os, byte* output, word32 sz)
1533:Middlewares/Third_Party/wolfSSL_wolfSSL_wolfSSL/wolfssl/wolfcrypt/src/random.c **** {
1534:Middlewares/Third_Party/wolfSSL_wolfSSL_wolfSSL/wolfssl/wolfcrypt/src/random.c ****     int ret;
1535:Middlewares/Third_Party/wolfSSL_wolfSSL_wolfSSL/wolfssl/wolfcrypt/src/random.c ****     word64 rndTmp;
1536:Middlewares/Third_Party/wolfSSL_wolfSSL_wolfSSL/wolfssl/wolfcrypt/src/random.c **** 
1537:Middlewares/Third_Party/wolfSSL_wolfSSL_wolfSSL/wolfssl/wolfcrypt/src/random.c ****     (void)os;
1538:Middlewares/Third_Party/wolfSSL_wolfSSL_wolfSSL/wolfssl/wolfcrypt/src/random.c **** 
1539:Middlewares/Third_Party/wolfSSL_wolfSSL_wolfSSL/wolfssl/wolfcrypt/src/random.c ****     if (!IS_INTEL_RDRAND(intel_flags))
1540:Middlewares/Third_Party/wolfSSL_wolfSSL_wolfSSL/wolfssl/wolfcrypt/src/random.c ****         return -1;
1541:Middlewares/Third_Party/wolfSSL_wolfSSL_wolfSSL/wolfssl/wolfcrypt/src/random.c **** 
1542:Middlewares/Third_Party/wolfSSL_wolfSSL_wolfSSL/wolfssl/wolfcrypt/src/random.c ****     for (; (sz / sizeof(word64)) > 0; sz -= sizeof(word64),
1543:Middlewares/Third_Party/wolfSSL_wolfSSL_wolfSSL/wolfssl/wolfcrypt/src/random.c ****                                                     output += sizeof(word64)) {
1544:Middlewares/Third_Party/wolfSSL_wolfSSL_wolfSSL/wolfssl/wolfcrypt/src/random.c ****         ret = IntelRDrand64_r((word64 *)output);
1545:Middlewares/Third_Party/wolfSSL_wolfSSL_wolfSSL/wolfssl/wolfcrypt/src/random.c ****         if (ret != 0)
1546:Middlewares/Third_Party/wolfSSL_wolfSSL_wolfSSL/wolfssl/wolfcrypt/src/random.c ****             return ret;
1547:Middlewares/Third_Party/wolfSSL_wolfSSL_wolfSSL/wolfssl/wolfcrypt/src/random.c ****     }
1548:Middlewares/Third_Party/wolfSSL_wolfSSL_wolfSSL/wolfssl/wolfcrypt/src/random.c ****     if (sz == 0)
1549:Middlewares/Third_Party/wolfSSL_wolfSSL_wolfSSL/wolfssl/wolfcrypt/src/random.c ****         return 0;
1550:Middlewares/Third_Party/wolfSSL_wolfSSL_wolfSSL/wolfssl/wolfcrypt/src/random.c **** 
1551:Middlewares/Third_Party/wolfSSL_wolfSSL_wolfSSL/wolfssl/wolfcrypt/src/random.c ****     /* handle unaligned remainder */
1552:Middlewares/Third_Party/wolfSSL_wolfSSL_wolfSSL/wolfssl/wolfcrypt/src/random.c ****     ret = IntelRDrand64_r(&rndTmp);
1553:Middlewares/Third_Party/wolfSSL_wolfSSL_wolfSSL/wolfssl/wolfcrypt/src/random.c ****     if (ret != 0)
1554:Middlewares/Third_Party/wolfSSL_wolfSSL_wolfSSL/wolfssl/wolfcrypt/src/random.c ****         return ret;
1555:Middlewares/Third_Party/wolfSSL_wolfSSL_wolfSSL/wolfssl/wolfcrypt/src/random.c **** 
1556:Middlewares/Third_Party/wolfSSL_wolfSSL_wolfSSL/wolfssl/wolfcrypt/src/random.c ****     XMEMCPY(output, &rndTmp, sz);
1557:Middlewares/Third_Party/wolfSSL_wolfSSL_wolfSSL/wolfssl/wolfcrypt/src/random.c **** 
1558:Middlewares/Third_Party/wolfSSL_wolfSSL_wolfSSL/wolfssl/wolfcrypt/src/random.c ****     return 0;
1559:Middlewares/Third_Party/wolfSSL_wolfSSL_wolfSSL/wolfssl/wolfcrypt/src/random.c **** }
1560:Middlewares/Third_Party/wolfSSL_wolfSSL_wolfSSL/wolfssl/wolfcrypt/src/random.c **** 
1561:Middlewares/Third_Party/wolfSSL_wolfSSL_wolfSSL/wolfssl/wolfcrypt/src/random.c **** #endif /* HAVE_INTEL_RDRAND */
1562:Middlewares/Third_Party/wolfSSL_wolfSSL_wolfSSL/wolfssl/wolfcrypt/src/random.c **** #endif /* HAVE_INTEL_RDRAND || HAVE_INTEL_RDSEED */
1563:Middlewares/Third_Party/wolfSSL_wolfSSL_wolfSSL/wolfssl/wolfcrypt/src/random.c **** 
1564:Middlewares/Third_Party/wolfSSL_wolfSSL_wolfSSL/wolfssl/wolfcrypt/src/random.c **** 
1565:Middlewares/Third_Party/wolfSSL_wolfSSL_wolfSSL/wolfssl/wolfcrypt/src/random.c **** /* Begin wc_GenerateSeed Implementations */
1566:Middlewares/Third_Party/wolfSSL_wolfSSL_wolfSSL/wolfssl/wolfcrypt/src/random.c **** #if defined(CUSTOM_RAND_GENERATE_SEED)
1567:Middlewares/Third_Party/wolfSSL_wolfSSL_wolfSSL/wolfssl/wolfcrypt/src/random.c **** 
ARM GAS  /tmp/cc09iKDl.s 			page 88


1568:Middlewares/Third_Party/wolfSSL_wolfSSL_wolfSSL/wolfssl/wolfcrypt/src/random.c ****     /* Implement your own random generation function
1569:Middlewares/Third_Party/wolfSSL_wolfSSL_wolfSSL/wolfssl/wolfcrypt/src/random.c ****      * Return 0 to indicate success
1570:Middlewares/Third_Party/wolfSSL_wolfSSL_wolfSSL/wolfssl/wolfcrypt/src/random.c ****      * int rand_gen_seed(byte* output, word32 sz);
1571:Middlewares/Third_Party/wolfSSL_wolfSSL_wolfSSL/wolfssl/wolfcrypt/src/random.c ****      * #define CUSTOM_RAND_GENERATE_SEED  rand_gen_seed */
1572:Middlewares/Third_Party/wolfSSL_wolfSSL_wolfSSL/wolfssl/wolfcrypt/src/random.c **** 
1573:Middlewares/Third_Party/wolfSSL_wolfSSL_wolfSSL/wolfssl/wolfcrypt/src/random.c ****     int wc_GenerateSeed(OS_Seed* os, byte* output, word32 sz)
1574:Middlewares/Third_Party/wolfSSL_wolfSSL_wolfSSL/wolfssl/wolfcrypt/src/random.c ****     {
1575:Middlewares/Third_Party/wolfSSL_wolfSSL_wolfSSL/wolfssl/wolfcrypt/src/random.c ****         (void)os; /* Suppress unused arg warning */
1576:Middlewares/Third_Party/wolfSSL_wolfSSL_wolfSSL/wolfssl/wolfcrypt/src/random.c ****         return CUSTOM_RAND_GENERATE_SEED(output, sz);
1577:Middlewares/Third_Party/wolfSSL_wolfSSL_wolfSSL/wolfssl/wolfcrypt/src/random.c ****     }
1578:Middlewares/Third_Party/wolfSSL_wolfSSL_wolfSSL/wolfssl/wolfcrypt/src/random.c **** 
1579:Middlewares/Third_Party/wolfSSL_wolfSSL_wolfSSL/wolfssl/wolfcrypt/src/random.c **** #elif defined(CUSTOM_RAND_GENERATE_SEED_OS)
1580:Middlewares/Third_Party/wolfSSL_wolfSSL_wolfSSL/wolfssl/wolfcrypt/src/random.c **** 
1581:Middlewares/Third_Party/wolfSSL_wolfSSL_wolfSSL/wolfssl/wolfcrypt/src/random.c ****     /* Implement your own random generation function,
1582:Middlewares/Third_Party/wolfSSL_wolfSSL_wolfSSL/wolfssl/wolfcrypt/src/random.c ****      *  which includes OS_Seed.
1583:Middlewares/Third_Party/wolfSSL_wolfSSL_wolfSSL/wolfssl/wolfcrypt/src/random.c ****      * Return 0 to indicate success
1584:Middlewares/Third_Party/wolfSSL_wolfSSL_wolfSSL/wolfssl/wolfcrypt/src/random.c ****      * int rand_gen_seed(OS_Seed* os, byte* output, word32 sz);
1585:Middlewares/Third_Party/wolfSSL_wolfSSL_wolfSSL/wolfssl/wolfcrypt/src/random.c ****      * #define CUSTOM_RAND_GENERATE_SEED_OS  rand_gen_seed */
1586:Middlewares/Third_Party/wolfSSL_wolfSSL_wolfSSL/wolfssl/wolfcrypt/src/random.c **** 
1587:Middlewares/Third_Party/wolfSSL_wolfSSL_wolfSSL/wolfssl/wolfcrypt/src/random.c ****     int wc_GenerateSeed(OS_Seed* os, byte* output, word32 sz)
1588:Middlewares/Third_Party/wolfSSL_wolfSSL_wolfSSL/wolfssl/wolfcrypt/src/random.c ****     {
1589:Middlewares/Third_Party/wolfSSL_wolfSSL_wolfSSL/wolfssl/wolfcrypt/src/random.c ****         return CUSTOM_RAND_GENERATE_SEED_OS(os, output, sz);
1590:Middlewares/Third_Party/wolfSSL_wolfSSL_wolfSSL/wolfssl/wolfcrypt/src/random.c ****     }
1591:Middlewares/Third_Party/wolfSSL_wolfSSL_wolfSSL/wolfssl/wolfcrypt/src/random.c **** 
1592:Middlewares/Third_Party/wolfSSL_wolfSSL_wolfSSL/wolfssl/wolfcrypt/src/random.c **** #elif defined(CUSTOM_RAND_GENERATE)
1593:Middlewares/Third_Party/wolfSSL_wolfSSL_wolfSSL/wolfssl/wolfcrypt/src/random.c **** 
1594:Middlewares/Third_Party/wolfSSL_wolfSSL_wolfSSL/wolfssl/wolfcrypt/src/random.c ****    /* Implement your own random generation function
1595:Middlewares/Third_Party/wolfSSL_wolfSSL_wolfSSL/wolfssl/wolfcrypt/src/random.c ****     * word32 rand_gen(void);
1596:Middlewares/Third_Party/wolfSSL_wolfSSL_wolfSSL/wolfssl/wolfcrypt/src/random.c ****     * #define CUSTOM_RAND_GENERATE  rand_gen  */
1597:Middlewares/Third_Party/wolfSSL_wolfSSL_wolfSSL/wolfssl/wolfcrypt/src/random.c **** 
1598:Middlewares/Third_Party/wolfSSL_wolfSSL_wolfSSL/wolfssl/wolfcrypt/src/random.c ****     int wc_GenerateSeed(OS_Seed* os, byte* output, word32 sz)
1599:Middlewares/Third_Party/wolfSSL_wolfSSL_wolfSSL/wolfssl/wolfcrypt/src/random.c ****     {
1600:Middlewares/Third_Party/wolfSSL_wolfSSL_wolfSSL/wolfssl/wolfcrypt/src/random.c ****         word32 i = 0;
1601:Middlewares/Third_Party/wolfSSL_wolfSSL_wolfSSL/wolfssl/wolfcrypt/src/random.c **** 
1602:Middlewares/Third_Party/wolfSSL_wolfSSL_wolfSSL/wolfssl/wolfcrypt/src/random.c ****         (void)os;
1603:Middlewares/Third_Party/wolfSSL_wolfSSL_wolfSSL/wolfssl/wolfcrypt/src/random.c **** 
1604:Middlewares/Third_Party/wolfSSL_wolfSSL_wolfSSL/wolfssl/wolfcrypt/src/random.c ****         while (i < sz)
1605:Middlewares/Third_Party/wolfSSL_wolfSSL_wolfSSL/wolfssl/wolfcrypt/src/random.c ****         {
1606:Middlewares/Third_Party/wolfSSL_wolfSSL_wolfSSL/wolfssl/wolfcrypt/src/random.c ****             /* If not aligned or there is odd/remainder */
1607:Middlewares/Third_Party/wolfSSL_wolfSSL_wolfSSL/wolfssl/wolfcrypt/src/random.c ****             if( (i + sizeof(CUSTOM_RAND_TYPE)) > sz ||
1608:Middlewares/Third_Party/wolfSSL_wolfSSL_wolfSSL/wolfssl/wolfcrypt/src/random.c ****                 ((wolfssl_word)&output[i] % sizeof(CUSTOM_RAND_TYPE)) != 0
1609:Middlewares/Third_Party/wolfSSL_wolfSSL_wolfSSL/wolfssl/wolfcrypt/src/random.c ****             ) {
1610:Middlewares/Third_Party/wolfSSL_wolfSSL_wolfSSL/wolfssl/wolfcrypt/src/random.c ****                 /* Single byte at a time */
1611:Middlewares/Third_Party/wolfSSL_wolfSSL_wolfSSL/wolfssl/wolfcrypt/src/random.c ****                 output[i++] = (byte)CUSTOM_RAND_GENERATE();
1612:Middlewares/Third_Party/wolfSSL_wolfSSL_wolfSSL/wolfssl/wolfcrypt/src/random.c ****             }
1613:Middlewares/Third_Party/wolfSSL_wolfSSL_wolfSSL/wolfssl/wolfcrypt/src/random.c ****             else {
1614:Middlewares/Third_Party/wolfSSL_wolfSSL_wolfSSL/wolfssl/wolfcrypt/src/random.c ****                 /* Use native 8, 16, 32 or 64 copy instruction */
1615:Middlewares/Third_Party/wolfSSL_wolfSSL_wolfSSL/wolfssl/wolfcrypt/src/random.c ****                 *((CUSTOM_RAND_TYPE*)&output[i]) = CUSTOM_RAND_GENERATE();
1616:Middlewares/Third_Party/wolfSSL_wolfSSL_wolfSSL/wolfssl/wolfcrypt/src/random.c ****                 i += sizeof(CUSTOM_RAND_TYPE);
1617:Middlewares/Third_Party/wolfSSL_wolfSSL_wolfSSL/wolfssl/wolfcrypt/src/random.c ****             }
1618:Middlewares/Third_Party/wolfSSL_wolfSSL_wolfSSL/wolfssl/wolfcrypt/src/random.c ****         }
1619:Middlewares/Third_Party/wolfSSL_wolfSSL_wolfSSL/wolfssl/wolfcrypt/src/random.c **** 
1620:Middlewares/Third_Party/wolfSSL_wolfSSL_wolfSSL/wolfssl/wolfcrypt/src/random.c ****         return 0;
1621:Middlewares/Third_Party/wolfSSL_wolfSSL_wolfSSL/wolfssl/wolfcrypt/src/random.c ****     }
1622:Middlewares/Third_Party/wolfSSL_wolfSSL_wolfSSL/wolfssl/wolfcrypt/src/random.c **** 
1623:Middlewares/Third_Party/wolfSSL_wolfSSL_wolfSSL/wolfssl/wolfcrypt/src/random.c **** #elif defined(WOLFSSL_SGX)
1624:Middlewares/Third_Party/wolfSSL_wolfSSL_wolfSSL/wolfssl/wolfcrypt/src/random.c **** 
ARM GAS  /tmp/cc09iKDl.s 			page 89


1625:Middlewares/Third_Party/wolfSSL_wolfSSL_wolfSSL/wolfssl/wolfcrypt/src/random.c **** int wc_GenerateSeed(OS_Seed* os, byte* output, word32 sz)
1626:Middlewares/Third_Party/wolfSSL_wolfSSL_wolfSSL/wolfssl/wolfcrypt/src/random.c **** {
1627:Middlewares/Third_Party/wolfSSL_wolfSSL_wolfSSL/wolfssl/wolfcrypt/src/random.c ****     int ret = !SGX_SUCCESS;
1628:Middlewares/Third_Party/wolfSSL_wolfSSL_wolfSSL/wolfssl/wolfcrypt/src/random.c **** 	int i, read_max = 10;
1629:Middlewares/Third_Party/wolfSSL_wolfSSL_wolfSSL/wolfssl/wolfcrypt/src/random.c **** 
1630:Middlewares/Third_Party/wolfSSL_wolfSSL_wolfSSL/wolfssl/wolfcrypt/src/random.c **** 	for (i = 0; i < read_max && ret != SGX_SUCCESS; i++) {
1631:Middlewares/Third_Party/wolfSSL_wolfSSL_wolfSSL/wolfssl/wolfcrypt/src/random.c **** 		ret = sgx_read_rand(output, sz);
1632:Middlewares/Third_Party/wolfSSL_wolfSSL_wolfSSL/wolfssl/wolfcrypt/src/random.c **** 	}
1633:Middlewares/Third_Party/wolfSSL_wolfSSL_wolfSSL/wolfssl/wolfcrypt/src/random.c **** 
1634:Middlewares/Third_Party/wolfSSL_wolfSSL_wolfSSL/wolfssl/wolfcrypt/src/random.c **** 	(void)os;
1635:Middlewares/Third_Party/wolfSSL_wolfSSL_wolfSSL/wolfssl/wolfcrypt/src/random.c **** 	return (ret == SGX_SUCCESS) ? 0 : 1;
1636:Middlewares/Third_Party/wolfSSL_wolfSSL_wolfSSL/wolfssl/wolfcrypt/src/random.c **** }
1637:Middlewares/Third_Party/wolfSSL_wolfSSL_wolfSSL/wolfssl/wolfcrypt/src/random.c **** 
1638:Middlewares/Third_Party/wolfSSL_wolfSSL_wolfSSL/wolfssl/wolfcrypt/src/random.c **** #elif defined(USE_WINDOWS_API)
1639:Middlewares/Third_Party/wolfSSL_wolfSSL_wolfSSL/wolfssl/wolfcrypt/src/random.c **** 
1640:Middlewares/Third_Party/wolfSSL_wolfSSL_wolfSSL/wolfssl/wolfcrypt/src/random.c **** int wc_GenerateSeed(OS_Seed* os, byte* output, word32 sz)
1641:Middlewares/Third_Party/wolfSSL_wolfSSL_wolfSSL/wolfssl/wolfcrypt/src/random.c **** {
1642:Middlewares/Third_Party/wolfSSL_wolfSSL_wolfSSL/wolfssl/wolfcrypt/src/random.c **** #ifdef WOLF_CRYPTO_CB
1643:Middlewares/Third_Party/wolfSSL_wolfSSL_wolfSSL/wolfssl/wolfcrypt/src/random.c ****     int ret;
1644:Middlewares/Third_Party/wolfSSL_wolfSSL_wolfSSL/wolfssl/wolfcrypt/src/random.c **** 
1645:Middlewares/Third_Party/wolfSSL_wolfSSL_wolfSSL/wolfssl/wolfcrypt/src/random.c ****     if (os != NULL && os->devId != INVALID_DEVID) {
1646:Middlewares/Third_Party/wolfSSL_wolfSSL_wolfSSL/wolfssl/wolfcrypt/src/random.c ****         ret = wc_CryptoCb_RandomSeed(os, output, sz);
1647:Middlewares/Third_Party/wolfSSL_wolfSSL_wolfSSL/wolfssl/wolfcrypt/src/random.c ****         if (ret != CRYPTOCB_UNAVAILABLE)
1648:Middlewares/Third_Party/wolfSSL_wolfSSL_wolfSSL/wolfssl/wolfcrypt/src/random.c ****             return ret;
1649:Middlewares/Third_Party/wolfSSL_wolfSSL_wolfSSL/wolfssl/wolfcrypt/src/random.c ****         /* fall-through when unavailable */
1650:Middlewares/Third_Party/wolfSSL_wolfSSL_wolfSSL/wolfssl/wolfcrypt/src/random.c ****     }
1651:Middlewares/Third_Party/wolfSSL_wolfSSL_wolfSSL/wolfssl/wolfcrypt/src/random.c **** #endif
1652:Middlewares/Third_Party/wolfSSL_wolfSSL_wolfSSL/wolfssl/wolfcrypt/src/random.c **** 
1653:Middlewares/Third_Party/wolfSSL_wolfSSL_wolfSSL/wolfssl/wolfcrypt/src/random.c ****     #ifdef HAVE_INTEL_RDSEED
1654:Middlewares/Third_Party/wolfSSL_wolfSSL_wolfSSL/wolfssl/wolfcrypt/src/random.c ****         if (IS_INTEL_RDSEED(intel_flags)) {
1655:Middlewares/Third_Party/wolfSSL_wolfSSL_wolfSSL/wolfssl/wolfcrypt/src/random.c ****              if (!wc_GenerateSeed_IntelRD(NULL, output, sz)) {
1656:Middlewares/Third_Party/wolfSSL_wolfSSL_wolfSSL/wolfssl/wolfcrypt/src/random.c ****                  /* success, we're done */
1657:Middlewares/Third_Party/wolfSSL_wolfSSL_wolfSSL/wolfssl/wolfcrypt/src/random.c ****                  return 0;
1658:Middlewares/Third_Party/wolfSSL_wolfSSL_wolfSSL/wolfssl/wolfcrypt/src/random.c ****              }
1659:Middlewares/Third_Party/wolfSSL_wolfSSL_wolfSSL/wolfssl/wolfcrypt/src/random.c ****         #ifdef FORCE_FAILURE_RDSEED
1660:Middlewares/Third_Party/wolfSSL_wolfSSL_wolfSSL/wolfssl/wolfcrypt/src/random.c ****              /* don't fall back to CryptoAPI */
1661:Middlewares/Third_Party/wolfSSL_wolfSSL_wolfSSL/wolfssl/wolfcrypt/src/random.c ****              return READ_RAN_E;
1662:Middlewares/Third_Party/wolfSSL_wolfSSL_wolfSSL/wolfssl/wolfcrypt/src/random.c ****         #endif
1663:Middlewares/Third_Party/wolfSSL_wolfSSL_wolfSSL/wolfssl/wolfcrypt/src/random.c ****         }
1664:Middlewares/Third_Party/wolfSSL_wolfSSL_wolfSSL/wolfssl/wolfcrypt/src/random.c ****     #endif /* HAVE_INTEL_RDSEED */
1665:Middlewares/Third_Party/wolfSSL_wolfSSL_wolfSSL/wolfssl/wolfcrypt/src/random.c **** 
1666:Middlewares/Third_Party/wolfSSL_wolfSSL_wolfSSL/wolfssl/wolfcrypt/src/random.c ****     if(!CryptAcquireContext(&os->handle, 0, 0, PROV_RSA_FULL,
1667:Middlewares/Third_Party/wolfSSL_wolfSSL_wolfSSL/wolfssl/wolfcrypt/src/random.c ****                             CRYPT_VERIFYCONTEXT))
1668:Middlewares/Third_Party/wolfSSL_wolfSSL_wolfSSL/wolfssl/wolfcrypt/src/random.c ****         return WINCRYPT_E;
1669:Middlewares/Third_Party/wolfSSL_wolfSSL_wolfSSL/wolfssl/wolfcrypt/src/random.c **** 
1670:Middlewares/Third_Party/wolfSSL_wolfSSL_wolfSSL/wolfssl/wolfcrypt/src/random.c ****     if (!CryptGenRandom(os->handle, sz, output))
1671:Middlewares/Third_Party/wolfSSL_wolfSSL_wolfSSL/wolfssl/wolfcrypt/src/random.c ****         return CRYPTGEN_E;
1672:Middlewares/Third_Party/wolfSSL_wolfSSL_wolfSSL/wolfssl/wolfcrypt/src/random.c **** 
1673:Middlewares/Third_Party/wolfSSL_wolfSSL_wolfSSL/wolfssl/wolfcrypt/src/random.c ****     CryptReleaseContext(os->handle, 0);
1674:Middlewares/Third_Party/wolfSSL_wolfSSL_wolfSSL/wolfssl/wolfcrypt/src/random.c **** 
1675:Middlewares/Third_Party/wolfSSL_wolfSSL_wolfSSL/wolfssl/wolfcrypt/src/random.c ****     return 0;
1676:Middlewares/Third_Party/wolfSSL_wolfSSL_wolfSSL/wolfssl/wolfcrypt/src/random.c **** }
1677:Middlewares/Third_Party/wolfSSL_wolfSSL_wolfSSL/wolfssl/wolfcrypt/src/random.c **** 
1678:Middlewares/Third_Party/wolfSSL_wolfSSL_wolfSSL/wolfssl/wolfcrypt/src/random.c **** 
1679:Middlewares/Third_Party/wolfSSL_wolfSSL_wolfSSL/wolfssl/wolfcrypt/src/random.c **** #elif defined(HAVE_RTP_SYS) || defined(EBSNET)
1680:Middlewares/Third_Party/wolfSSL_wolfSSL_wolfSSL/wolfssl/wolfcrypt/src/random.c **** 
1681:Middlewares/Third_Party/wolfSSL_wolfSSL_wolfSSL/wolfssl/wolfcrypt/src/random.c **** #include "rtprand.h"   /* rtp_rand () */
ARM GAS  /tmp/cc09iKDl.s 			page 90


1682:Middlewares/Third_Party/wolfSSL_wolfSSL_wolfSSL/wolfssl/wolfcrypt/src/random.c **** #include "rtptime.h"   /* rtp_get_system_msec() */
1683:Middlewares/Third_Party/wolfSSL_wolfSSL_wolfSSL/wolfssl/wolfcrypt/src/random.c **** 
1684:Middlewares/Third_Party/wolfSSL_wolfSSL_wolfSSL/wolfssl/wolfcrypt/src/random.c **** int wc_GenerateSeed(OS_Seed* os, byte* output, word32 sz)
1685:Middlewares/Third_Party/wolfSSL_wolfSSL_wolfSSL/wolfssl/wolfcrypt/src/random.c **** {
1686:Middlewares/Third_Party/wolfSSL_wolfSSL_wolfSSL/wolfssl/wolfcrypt/src/random.c ****     word32 i;
1687:Middlewares/Third_Party/wolfSSL_wolfSSL_wolfSSL/wolfssl/wolfcrypt/src/random.c **** 
1688:Middlewares/Third_Party/wolfSSL_wolfSSL_wolfSSL/wolfssl/wolfcrypt/src/random.c ****     rtp_srand(rtp_get_system_msec());
1689:Middlewares/Third_Party/wolfSSL_wolfSSL_wolfSSL/wolfssl/wolfcrypt/src/random.c ****     for (i = 0; i < sz; i++ ) {
1690:Middlewares/Third_Party/wolfSSL_wolfSSL_wolfSSL/wolfssl/wolfcrypt/src/random.c ****         output[i] = rtp_rand() % 256;
1691:Middlewares/Third_Party/wolfSSL_wolfSSL_wolfSSL/wolfssl/wolfcrypt/src/random.c ****     }
1692:Middlewares/Third_Party/wolfSSL_wolfSSL_wolfSSL/wolfssl/wolfcrypt/src/random.c **** 
1693:Middlewares/Third_Party/wolfSSL_wolfSSL_wolfSSL/wolfssl/wolfcrypt/src/random.c ****     return 0;
1694:Middlewares/Third_Party/wolfSSL_wolfSSL_wolfSSL/wolfssl/wolfcrypt/src/random.c **** }
1695:Middlewares/Third_Party/wolfSSL_wolfSSL_wolfSSL/wolfssl/wolfcrypt/src/random.c **** 
1696:Middlewares/Third_Party/wolfSSL_wolfSSL_wolfSSL/wolfssl/wolfcrypt/src/random.c **** #elif (defined(WOLFSSL_ATMEL) || defined(WOLFSSL_ATECC_RNG)) && \
1697:Middlewares/Third_Party/wolfSSL_wolfSSL_wolfSSL/wolfssl/wolfcrypt/src/random.c ****       !defined(WOLFSSL_PIC32MZ_RNG)
1698:Middlewares/Third_Party/wolfSSL_wolfSSL_wolfSSL/wolfssl/wolfcrypt/src/random.c ****     /* enable ATECC RNG unless using PIC32MZ one instead */
1699:Middlewares/Third_Party/wolfSSL_wolfSSL_wolfSSL/wolfssl/wolfcrypt/src/random.c ****     #include <wolfssl/wolfcrypt/port/atmel/atmel.h>
1700:Middlewares/Third_Party/wolfSSL_wolfSSL_wolfSSL/wolfssl/wolfcrypt/src/random.c **** 
1701:Middlewares/Third_Party/wolfSSL_wolfSSL_wolfSSL/wolfssl/wolfcrypt/src/random.c ****     int wc_GenerateSeed(OS_Seed* os, byte* output, word32 sz)
1702:Middlewares/Third_Party/wolfSSL_wolfSSL_wolfSSL/wolfssl/wolfcrypt/src/random.c ****     {
1703:Middlewares/Third_Party/wolfSSL_wolfSSL_wolfSSL/wolfssl/wolfcrypt/src/random.c ****         int ret = 0;
1704:Middlewares/Third_Party/wolfSSL_wolfSSL_wolfSSL/wolfssl/wolfcrypt/src/random.c **** 
1705:Middlewares/Third_Party/wolfSSL_wolfSSL_wolfSSL/wolfssl/wolfcrypt/src/random.c ****         (void)os;
1706:Middlewares/Third_Party/wolfSSL_wolfSSL_wolfSSL/wolfssl/wolfcrypt/src/random.c ****         if (output == NULL) {
1707:Middlewares/Third_Party/wolfSSL_wolfSSL_wolfSSL/wolfssl/wolfcrypt/src/random.c ****             return BUFFER_E;
1708:Middlewares/Third_Party/wolfSSL_wolfSSL_wolfSSL/wolfssl/wolfcrypt/src/random.c ****         }
1709:Middlewares/Third_Party/wolfSSL_wolfSSL_wolfSSL/wolfssl/wolfcrypt/src/random.c **** 
1710:Middlewares/Third_Party/wolfSSL_wolfSSL_wolfSSL/wolfssl/wolfcrypt/src/random.c ****         ret = atmel_get_random_number(sz, output);
1711:Middlewares/Third_Party/wolfSSL_wolfSSL_wolfSSL/wolfssl/wolfcrypt/src/random.c **** 
1712:Middlewares/Third_Party/wolfSSL_wolfSSL_wolfSSL/wolfssl/wolfcrypt/src/random.c ****         return ret;
1713:Middlewares/Third_Party/wolfSSL_wolfSSL_wolfSSL/wolfssl/wolfcrypt/src/random.c ****     }
1714:Middlewares/Third_Party/wolfSSL_wolfSSL_wolfSSL/wolfssl/wolfcrypt/src/random.c **** 
1715:Middlewares/Third_Party/wolfSSL_wolfSSL_wolfSSL/wolfssl/wolfcrypt/src/random.c **** #elif defined(MICROCHIP_PIC32)
1716:Middlewares/Third_Party/wolfSSL_wolfSSL_wolfSSL/wolfssl/wolfcrypt/src/random.c **** 
1717:Middlewares/Third_Party/wolfSSL_wolfSSL_wolfSSL/wolfssl/wolfcrypt/src/random.c ****     #ifdef MICROCHIP_MPLAB_HARMONY
1718:Middlewares/Third_Party/wolfSSL_wolfSSL_wolfSSL/wolfssl/wolfcrypt/src/random.c ****         #ifdef MICROCHIP_MPLAB_HARMONY_3
1719:Middlewares/Third_Party/wolfSSL_wolfSSL_wolfSSL/wolfssl/wolfcrypt/src/random.c ****             #include "system/time/sys_time.h"
1720:Middlewares/Third_Party/wolfSSL_wolfSSL_wolfSSL/wolfssl/wolfcrypt/src/random.c ****             #define PIC32_SEED_COUNT SYS_TIME_CounterGet
1721:Middlewares/Third_Party/wolfSSL_wolfSSL_wolfSSL/wolfssl/wolfcrypt/src/random.c ****         #else
1722:Middlewares/Third_Party/wolfSSL_wolfSSL_wolfSSL/wolfssl/wolfcrypt/src/random.c ****             #define PIC32_SEED_COUNT _CP0_GET_COUNT
1723:Middlewares/Third_Party/wolfSSL_wolfSSL_wolfSSL/wolfssl/wolfcrypt/src/random.c ****         #endif
1724:Middlewares/Third_Party/wolfSSL_wolfSSL_wolfSSL/wolfssl/wolfcrypt/src/random.c ****     #else
1725:Middlewares/Third_Party/wolfSSL_wolfSSL_wolfSSL/wolfssl/wolfcrypt/src/random.c ****         #if !defined(WOLFSSL_MICROCHIP_PIC32MZ)
1726:Middlewares/Third_Party/wolfSSL_wolfSSL_wolfSSL/wolfssl/wolfcrypt/src/random.c ****             #include <peripheral/timer.h>
1727:Middlewares/Third_Party/wolfSSL_wolfSSL_wolfSSL/wolfssl/wolfcrypt/src/random.c ****         #endif
1728:Middlewares/Third_Party/wolfSSL_wolfSSL_wolfSSL/wolfssl/wolfcrypt/src/random.c ****         extern word32 ReadCoreTimer(void);
1729:Middlewares/Third_Party/wolfSSL_wolfSSL_wolfSSL/wolfssl/wolfcrypt/src/random.c ****         #define PIC32_SEED_COUNT ReadCoreTimer
1730:Middlewares/Third_Party/wolfSSL_wolfSSL_wolfSSL/wolfssl/wolfcrypt/src/random.c ****     #endif
1731:Middlewares/Third_Party/wolfSSL_wolfSSL_wolfSSL/wolfssl/wolfcrypt/src/random.c **** 
1732:Middlewares/Third_Party/wolfSSL_wolfSSL_wolfSSL/wolfssl/wolfcrypt/src/random.c ****     #ifdef WOLFSSL_PIC32MZ_RNG
1733:Middlewares/Third_Party/wolfSSL_wolfSSL_wolfSSL/wolfssl/wolfcrypt/src/random.c ****         #include "xc.h"
1734:Middlewares/Third_Party/wolfSSL_wolfSSL_wolfSSL/wolfssl/wolfcrypt/src/random.c ****         int wc_GenerateSeed(OS_Seed* os, byte* output, word32 sz)
1735:Middlewares/Third_Party/wolfSSL_wolfSSL_wolfSSL/wolfssl/wolfcrypt/src/random.c ****         {
1736:Middlewares/Third_Party/wolfSSL_wolfSSL_wolfSSL/wolfssl/wolfcrypt/src/random.c ****             int i;
1737:Middlewares/Third_Party/wolfSSL_wolfSSL_wolfSSL/wolfssl/wolfcrypt/src/random.c ****             byte rnd[8];
1738:Middlewares/Third_Party/wolfSSL_wolfSSL_wolfSSL/wolfssl/wolfcrypt/src/random.c ****             word32 *rnd32 = (word32 *)rnd;
ARM GAS  /tmp/cc09iKDl.s 			page 91


1739:Middlewares/Third_Party/wolfSSL_wolfSSL_wolfSSL/wolfssl/wolfcrypt/src/random.c ****             word32 size = sz;
1740:Middlewares/Third_Party/wolfSSL_wolfSSL_wolfSSL/wolfssl/wolfcrypt/src/random.c ****             byte* op = output;
1741:Middlewares/Third_Party/wolfSSL_wolfSSL_wolfSSL/wolfssl/wolfcrypt/src/random.c **** 
1742:Middlewares/Third_Party/wolfSSL_wolfSSL_wolfSSL/wolfssl/wolfcrypt/src/random.c **** #if ((__PIC32_FEATURE_SET0 == 'E') && (__PIC32_FEATURE_SET1 == 'C'))
1743:Middlewares/Third_Party/wolfSSL_wolfSSL_wolfSSL/wolfssl/wolfcrypt/src/random.c ****             RNGNUMGEN1 = _CP0_GET_COUNT();
1744:Middlewares/Third_Party/wolfSSL_wolfSSL_wolfSSL/wolfssl/wolfcrypt/src/random.c ****             RNGPOLY1 = _CP0_GET_COUNT();
1745:Middlewares/Third_Party/wolfSSL_wolfSSL_wolfSSL/wolfssl/wolfcrypt/src/random.c ****             RNGPOLY2 = _CP0_GET_COUNT();
1746:Middlewares/Third_Party/wolfSSL_wolfSSL_wolfSSL/wolfssl/wolfcrypt/src/random.c ****             RNGNUMGEN2 = _CP0_GET_COUNT();
1747:Middlewares/Third_Party/wolfSSL_wolfSSL_wolfSSL/wolfssl/wolfcrypt/src/random.c **** #else
1748:Middlewares/Third_Party/wolfSSL_wolfSSL_wolfSSL/wolfssl/wolfcrypt/src/random.c ****             // All others can be seeded from the TRNG
1749:Middlewares/Third_Party/wolfSSL_wolfSSL_wolfSSL/wolfssl/wolfcrypt/src/random.c ****             RNGCONbits.TRNGMODE = 1;
1750:Middlewares/Third_Party/wolfSSL_wolfSSL_wolfSSL/wolfssl/wolfcrypt/src/random.c ****             RNGCONbits.TRNGEN = 1;
1751:Middlewares/Third_Party/wolfSSL_wolfSSL_wolfSSL/wolfssl/wolfcrypt/src/random.c ****             while (RNGCNT < 64);
1752:Middlewares/Third_Party/wolfSSL_wolfSSL_wolfSSL/wolfssl/wolfcrypt/src/random.c ****             RNGCONbits.LOAD = 1;
1753:Middlewares/Third_Party/wolfSSL_wolfSSL_wolfSSL/wolfssl/wolfcrypt/src/random.c ****             while (RNGCONbits.LOAD == 1);
1754:Middlewares/Third_Party/wolfSSL_wolfSSL_wolfSSL/wolfssl/wolfcrypt/src/random.c ****             while (RNGCNT < 64);
1755:Middlewares/Third_Party/wolfSSL_wolfSSL_wolfSSL/wolfssl/wolfcrypt/src/random.c ****             RNGPOLY2 = RNGSEED2;
1756:Middlewares/Third_Party/wolfSSL_wolfSSL_wolfSSL/wolfssl/wolfcrypt/src/random.c ****             RNGPOLY1 = RNGSEED1;
1757:Middlewares/Third_Party/wolfSSL_wolfSSL_wolfSSL/wolfssl/wolfcrypt/src/random.c **** #endif
1758:Middlewares/Third_Party/wolfSSL_wolfSSL_wolfSSL/wolfssl/wolfcrypt/src/random.c **** 
1759:Middlewares/Third_Party/wolfSSL_wolfSSL_wolfSSL/wolfssl/wolfcrypt/src/random.c ****             RNGCONbits.PLEN = 0x40;
1760:Middlewares/Third_Party/wolfSSL_wolfSSL_wolfSSL/wolfssl/wolfcrypt/src/random.c ****             RNGCONbits.PRNGEN = 1;
1761:Middlewares/Third_Party/wolfSSL_wolfSSL_wolfSSL/wolfssl/wolfcrypt/src/random.c ****             for (i=0; i<5; i++) { /* wait for RNGNUMGEN ready */
1762:Middlewares/Third_Party/wolfSSL_wolfSSL_wolfSSL/wolfssl/wolfcrypt/src/random.c ****                 volatile int x, y;
1763:Middlewares/Third_Party/wolfSSL_wolfSSL_wolfSSL/wolfssl/wolfcrypt/src/random.c ****                 x = RNGNUMGEN1;
1764:Middlewares/Third_Party/wolfSSL_wolfSSL_wolfSSL/wolfssl/wolfcrypt/src/random.c ****                 y = RNGNUMGEN2;
1765:Middlewares/Third_Party/wolfSSL_wolfSSL_wolfSSL/wolfssl/wolfcrypt/src/random.c ****                 (void)x;
1766:Middlewares/Third_Party/wolfSSL_wolfSSL_wolfSSL/wolfssl/wolfcrypt/src/random.c ****                 (void)y;
1767:Middlewares/Third_Party/wolfSSL_wolfSSL_wolfSSL/wolfssl/wolfcrypt/src/random.c ****             }
1768:Middlewares/Third_Party/wolfSSL_wolfSSL_wolfSSL/wolfssl/wolfcrypt/src/random.c ****             do {
1769:Middlewares/Third_Party/wolfSSL_wolfSSL_wolfSSL/wolfssl/wolfcrypt/src/random.c ****                 rnd32[0] = RNGNUMGEN1;
1770:Middlewares/Third_Party/wolfSSL_wolfSSL_wolfSSL/wolfssl/wolfcrypt/src/random.c ****                 rnd32[1] = RNGNUMGEN2;
1771:Middlewares/Third_Party/wolfSSL_wolfSSL_wolfSSL/wolfssl/wolfcrypt/src/random.c **** 
1772:Middlewares/Third_Party/wolfSSL_wolfSSL_wolfSSL/wolfssl/wolfcrypt/src/random.c ****                 for(i=0; i<8; i++, op++) {
1773:Middlewares/Third_Party/wolfSSL_wolfSSL_wolfSSL/wolfssl/wolfcrypt/src/random.c ****                     *op = rnd[i];
1774:Middlewares/Third_Party/wolfSSL_wolfSSL_wolfSSL/wolfssl/wolfcrypt/src/random.c ****                     size --;
1775:Middlewares/Third_Party/wolfSSL_wolfSSL_wolfSSL/wolfssl/wolfcrypt/src/random.c ****                     if(size==0)break;
1776:Middlewares/Third_Party/wolfSSL_wolfSSL_wolfSSL/wolfssl/wolfcrypt/src/random.c ****                 }
1777:Middlewares/Third_Party/wolfSSL_wolfSSL_wolfSSL/wolfssl/wolfcrypt/src/random.c ****             } while(size);
1778:Middlewares/Third_Party/wolfSSL_wolfSSL_wolfSSL/wolfssl/wolfcrypt/src/random.c ****             return 0;
1779:Middlewares/Third_Party/wolfSSL_wolfSSL_wolfSSL/wolfssl/wolfcrypt/src/random.c ****         }
1780:Middlewares/Third_Party/wolfSSL_wolfSSL_wolfSSL/wolfssl/wolfcrypt/src/random.c ****     #else  /* WOLFSSL_PIC32MZ_RNG */
1781:Middlewares/Third_Party/wolfSSL_wolfSSL_wolfSSL/wolfssl/wolfcrypt/src/random.c ****         /* uses the core timer, in nanoseconds to seed srand */
1782:Middlewares/Third_Party/wolfSSL_wolfSSL_wolfSSL/wolfssl/wolfcrypt/src/random.c ****         int wc_GenerateSeed(OS_Seed* os, byte* output, word32 sz)
1783:Middlewares/Third_Party/wolfSSL_wolfSSL_wolfSSL/wolfssl/wolfcrypt/src/random.c ****         {
1784:Middlewares/Third_Party/wolfSSL_wolfSSL_wolfSSL/wolfssl/wolfcrypt/src/random.c ****             int i;
1785:Middlewares/Third_Party/wolfSSL_wolfSSL_wolfSSL/wolfssl/wolfcrypt/src/random.c ****             srand(PIC32_SEED_COUNT() * 25);
1786:Middlewares/Third_Party/wolfSSL_wolfSSL_wolfSSL/wolfssl/wolfcrypt/src/random.c **** 
1787:Middlewares/Third_Party/wolfSSL_wolfSSL_wolfSSL/wolfssl/wolfcrypt/src/random.c ****             for (i = 0; i < sz; i++ ) {
1788:Middlewares/Third_Party/wolfSSL_wolfSSL_wolfSSL/wolfssl/wolfcrypt/src/random.c ****                 output[i] = rand() % 256;
1789:Middlewares/Third_Party/wolfSSL_wolfSSL_wolfSSL/wolfssl/wolfcrypt/src/random.c ****                 if ( (i % 8) == 7)
1790:Middlewares/Third_Party/wolfSSL_wolfSSL_wolfSSL/wolfssl/wolfcrypt/src/random.c ****                     srand(PIC32_SEED_COUNT() * 25);
1791:Middlewares/Third_Party/wolfSSL_wolfSSL_wolfSSL/wolfssl/wolfcrypt/src/random.c ****             }
1792:Middlewares/Third_Party/wolfSSL_wolfSSL_wolfSSL/wolfssl/wolfcrypt/src/random.c ****             return 0;
1793:Middlewares/Third_Party/wolfSSL_wolfSSL_wolfSSL/wolfssl/wolfcrypt/src/random.c ****         }
1794:Middlewares/Third_Party/wolfSSL_wolfSSL_wolfSSL/wolfssl/wolfcrypt/src/random.c ****     #endif /* WOLFSSL_PIC32MZ_RNG */
1795:Middlewares/Third_Party/wolfSSL_wolfSSL_wolfSSL/wolfssl/wolfcrypt/src/random.c **** 
ARM GAS  /tmp/cc09iKDl.s 			page 92


1796:Middlewares/Third_Party/wolfSSL_wolfSSL_wolfSSL/wolfssl/wolfcrypt/src/random.c **** #elif defined(FREESCALE_MQX) || defined(FREESCALE_KSDK_MQX) || \
1797:Middlewares/Third_Party/wolfSSL_wolfSSL_wolfSSL/wolfssl/wolfcrypt/src/random.c ****       defined(FREESCALE_KSDK_BM) || defined(FREESCALE_FREE_RTOS)
1798:Middlewares/Third_Party/wolfSSL_wolfSSL_wolfSSL/wolfssl/wolfcrypt/src/random.c **** 
1799:Middlewares/Third_Party/wolfSSL_wolfSSL_wolfSSL/wolfssl/wolfcrypt/src/random.c ****     #if defined(FREESCALE_K70_RNGA) || defined(FREESCALE_RNGA)
1800:Middlewares/Third_Party/wolfSSL_wolfSSL_wolfSSL/wolfssl/wolfcrypt/src/random.c ****         /*
1801:Middlewares/Third_Party/wolfSSL_wolfSSL_wolfSSL/wolfssl/wolfcrypt/src/random.c ****          * wc_Generates a RNG seed using the Random Number Generator Accelerator
1802:Middlewares/Third_Party/wolfSSL_wolfSSL_wolfSSL/wolfssl/wolfcrypt/src/random.c ****          * on the Kinetis K70. Documentation located in Chapter 37 of
1803:Middlewares/Third_Party/wolfSSL_wolfSSL_wolfSSL/wolfssl/wolfcrypt/src/random.c ****          * K70 Sub-Family Reference Manual (see Note 3 in the README for link).
1804:Middlewares/Third_Party/wolfSSL_wolfSSL_wolfSSL/wolfssl/wolfcrypt/src/random.c ****          */
1805:Middlewares/Third_Party/wolfSSL_wolfSSL_wolfSSL/wolfssl/wolfcrypt/src/random.c ****         int wc_GenerateSeed(OS_Seed* os, byte* output, word32 sz)
1806:Middlewares/Third_Party/wolfSSL_wolfSSL_wolfSSL/wolfssl/wolfcrypt/src/random.c ****         {
1807:Middlewares/Third_Party/wolfSSL_wolfSSL_wolfSSL/wolfssl/wolfcrypt/src/random.c ****             word32 i;
1808:Middlewares/Third_Party/wolfSSL_wolfSSL_wolfSSL/wolfssl/wolfcrypt/src/random.c **** 
1809:Middlewares/Third_Party/wolfSSL_wolfSSL_wolfSSL/wolfssl/wolfcrypt/src/random.c ****             /* turn on RNGA module */
1810:Middlewares/Third_Party/wolfSSL_wolfSSL_wolfSSL/wolfssl/wolfcrypt/src/random.c ****             #if defined(SIM_SCGC3_RNGA_MASK)
1811:Middlewares/Third_Party/wolfSSL_wolfSSL_wolfSSL/wolfssl/wolfcrypt/src/random.c ****                 SIM_SCGC3 |= SIM_SCGC3_RNGA_MASK;
1812:Middlewares/Third_Party/wolfSSL_wolfSSL_wolfSSL/wolfssl/wolfcrypt/src/random.c ****             #endif
1813:Middlewares/Third_Party/wolfSSL_wolfSSL_wolfSSL/wolfssl/wolfcrypt/src/random.c ****             #if defined(SIM_SCGC6_RNGA_MASK)
1814:Middlewares/Third_Party/wolfSSL_wolfSSL_wolfSSL/wolfssl/wolfcrypt/src/random.c ****                 /* additionally needed for at least K64F */
1815:Middlewares/Third_Party/wolfSSL_wolfSSL_wolfSSL/wolfssl/wolfcrypt/src/random.c ****                 SIM_SCGC6 |= SIM_SCGC6_RNGA_MASK;
1816:Middlewares/Third_Party/wolfSSL_wolfSSL_wolfSSL/wolfssl/wolfcrypt/src/random.c ****             #endif
1817:Middlewares/Third_Party/wolfSSL_wolfSSL_wolfSSL/wolfssl/wolfcrypt/src/random.c **** 
1818:Middlewares/Third_Party/wolfSSL_wolfSSL_wolfSSL/wolfssl/wolfcrypt/src/random.c ****             /* set SLP bit to 0 - "RNGA is not in sleep mode" */
1819:Middlewares/Third_Party/wolfSSL_wolfSSL_wolfSSL/wolfssl/wolfcrypt/src/random.c ****             RNG_CR &= ~RNG_CR_SLP_MASK;
1820:Middlewares/Third_Party/wolfSSL_wolfSSL_wolfSSL/wolfssl/wolfcrypt/src/random.c **** 
1821:Middlewares/Third_Party/wolfSSL_wolfSSL_wolfSSL/wolfssl/wolfcrypt/src/random.c ****             /* set HA bit to 1 - "security violations masked" */
1822:Middlewares/Third_Party/wolfSSL_wolfSSL_wolfSSL/wolfssl/wolfcrypt/src/random.c ****             RNG_CR |= RNG_CR_HA_MASK;
1823:Middlewares/Third_Party/wolfSSL_wolfSSL_wolfSSL/wolfssl/wolfcrypt/src/random.c **** 
1824:Middlewares/Third_Party/wolfSSL_wolfSSL_wolfSSL/wolfssl/wolfcrypt/src/random.c ****             /* set GO bit to 1 - "output register loaded with data" */
1825:Middlewares/Third_Party/wolfSSL_wolfSSL_wolfSSL/wolfssl/wolfcrypt/src/random.c ****             RNG_CR |= RNG_CR_GO_MASK;
1826:Middlewares/Third_Party/wolfSSL_wolfSSL_wolfSSL/wolfssl/wolfcrypt/src/random.c **** 
1827:Middlewares/Third_Party/wolfSSL_wolfSSL_wolfSSL/wolfssl/wolfcrypt/src/random.c ****             for (i = 0; i < sz; i++) {
1828:Middlewares/Third_Party/wolfSSL_wolfSSL_wolfSSL/wolfssl/wolfcrypt/src/random.c **** 
1829:Middlewares/Third_Party/wolfSSL_wolfSSL_wolfSSL/wolfssl/wolfcrypt/src/random.c ****                 /* wait for RNG FIFO to be full */
1830:Middlewares/Third_Party/wolfSSL_wolfSSL_wolfSSL/wolfssl/wolfcrypt/src/random.c ****                 while((RNG_SR & RNG_SR_OREG_LVL(0xF)) == 0) {}
1831:Middlewares/Third_Party/wolfSSL_wolfSSL_wolfSSL/wolfssl/wolfcrypt/src/random.c **** 
1832:Middlewares/Third_Party/wolfSSL_wolfSSL_wolfSSL/wolfssl/wolfcrypt/src/random.c ****                 /* get value */
1833:Middlewares/Third_Party/wolfSSL_wolfSSL_wolfSSL/wolfssl/wolfcrypt/src/random.c ****                 output[i] = RNG_OR;
1834:Middlewares/Third_Party/wolfSSL_wolfSSL_wolfSSL/wolfssl/wolfcrypt/src/random.c ****             }
1835:Middlewares/Third_Party/wolfSSL_wolfSSL_wolfSSL/wolfssl/wolfcrypt/src/random.c **** 
1836:Middlewares/Third_Party/wolfSSL_wolfSSL_wolfSSL/wolfssl/wolfcrypt/src/random.c ****             return 0;
1837:Middlewares/Third_Party/wolfSSL_wolfSSL_wolfSSL/wolfssl/wolfcrypt/src/random.c ****         }
1838:Middlewares/Third_Party/wolfSSL_wolfSSL_wolfSSL/wolfssl/wolfcrypt/src/random.c **** 
1839:Middlewares/Third_Party/wolfSSL_wolfSSL_wolfSSL/wolfssl/wolfcrypt/src/random.c ****     #elif defined(FREESCALE_K53_RNGB) || defined(FREESCALE_RNGB)
1840:Middlewares/Third_Party/wolfSSL_wolfSSL_wolfSSL/wolfssl/wolfcrypt/src/random.c ****         /*
1841:Middlewares/Third_Party/wolfSSL_wolfSSL_wolfSSL/wolfssl/wolfcrypt/src/random.c ****          * wc_Generates a RNG seed using the Random Number Generator (RNGB)
1842:Middlewares/Third_Party/wolfSSL_wolfSSL_wolfSSL/wolfssl/wolfcrypt/src/random.c ****          * on the Kinetis K53. Documentation located in Chapter 33 of
1843:Middlewares/Third_Party/wolfSSL_wolfSSL_wolfSSL/wolfssl/wolfcrypt/src/random.c ****          * K53 Sub-Family Reference Manual (see note in the README for link).
1844:Middlewares/Third_Party/wolfSSL_wolfSSL_wolfSSL/wolfssl/wolfcrypt/src/random.c ****          */
1845:Middlewares/Third_Party/wolfSSL_wolfSSL_wolfSSL/wolfssl/wolfcrypt/src/random.c ****         int wc_GenerateSeed(OS_Seed* os, byte* output, word32 sz)
1846:Middlewares/Third_Party/wolfSSL_wolfSSL_wolfSSL/wolfssl/wolfcrypt/src/random.c ****         {
1847:Middlewares/Third_Party/wolfSSL_wolfSSL_wolfSSL/wolfssl/wolfcrypt/src/random.c ****             int i;
1848:Middlewares/Third_Party/wolfSSL_wolfSSL_wolfSSL/wolfssl/wolfcrypt/src/random.c **** 
1849:Middlewares/Third_Party/wolfSSL_wolfSSL_wolfSSL/wolfssl/wolfcrypt/src/random.c ****             /* turn on RNGB module */
1850:Middlewares/Third_Party/wolfSSL_wolfSSL_wolfSSL/wolfssl/wolfcrypt/src/random.c ****             SIM_SCGC3 |= SIM_SCGC3_RNGB_MASK;
1851:Middlewares/Third_Party/wolfSSL_wolfSSL_wolfSSL/wolfssl/wolfcrypt/src/random.c **** 
1852:Middlewares/Third_Party/wolfSSL_wolfSSL_wolfSSL/wolfssl/wolfcrypt/src/random.c ****             /* reset RNGB */
ARM GAS  /tmp/cc09iKDl.s 			page 93


1853:Middlewares/Third_Party/wolfSSL_wolfSSL_wolfSSL/wolfssl/wolfcrypt/src/random.c ****             RNG_CMD |= RNG_CMD_SR_MASK;
1854:Middlewares/Third_Party/wolfSSL_wolfSSL_wolfSSL/wolfssl/wolfcrypt/src/random.c **** 
1855:Middlewares/Third_Party/wolfSSL_wolfSSL_wolfSSL/wolfssl/wolfcrypt/src/random.c ****             /* FIFO generate interrupt, return all zeros on underflow,
1856:Middlewares/Third_Party/wolfSSL_wolfSSL_wolfSSL/wolfssl/wolfcrypt/src/random.c ****              * set auto reseed */
1857:Middlewares/Third_Party/wolfSSL_wolfSSL_wolfSSL/wolfssl/wolfcrypt/src/random.c ****             RNG_CR |= (RNG_CR_FUFMOD_MASK | RNG_CR_AR_MASK);
1858:Middlewares/Third_Party/wolfSSL_wolfSSL_wolfSSL/wolfssl/wolfcrypt/src/random.c **** 
1859:Middlewares/Third_Party/wolfSSL_wolfSSL_wolfSSL/wolfssl/wolfcrypt/src/random.c ****             /* gen seed, clear interrupts, clear errors */
1860:Middlewares/Third_Party/wolfSSL_wolfSSL_wolfSSL/wolfssl/wolfcrypt/src/random.c ****             RNG_CMD |= (RNG_CMD_GS_MASK | RNG_CMD_CI_MASK | RNG_CMD_CE_MASK);
1861:Middlewares/Third_Party/wolfSSL_wolfSSL_wolfSSL/wolfssl/wolfcrypt/src/random.c **** 
1862:Middlewares/Third_Party/wolfSSL_wolfSSL_wolfSSL/wolfssl/wolfcrypt/src/random.c ****             /* wait for seeding to complete */
1863:Middlewares/Third_Party/wolfSSL_wolfSSL_wolfSSL/wolfssl/wolfcrypt/src/random.c ****             while ((RNG_SR & RNG_SR_SDN_MASK) == 0) {}
1864:Middlewares/Third_Party/wolfSSL_wolfSSL_wolfSSL/wolfssl/wolfcrypt/src/random.c **** 
1865:Middlewares/Third_Party/wolfSSL_wolfSSL_wolfSSL/wolfssl/wolfcrypt/src/random.c ****             for (i = 0; i < sz; i++) {
1866:Middlewares/Third_Party/wolfSSL_wolfSSL_wolfSSL/wolfssl/wolfcrypt/src/random.c **** 
1867:Middlewares/Third_Party/wolfSSL_wolfSSL_wolfSSL/wolfssl/wolfcrypt/src/random.c ****                 /* wait for a word to be available from FIFO */
1868:Middlewares/Third_Party/wolfSSL_wolfSSL_wolfSSL/wolfssl/wolfcrypt/src/random.c ****                 while((RNG_SR & RNG_SR_FIFO_LVL_MASK) == 0) {}
1869:Middlewares/Third_Party/wolfSSL_wolfSSL_wolfSSL/wolfssl/wolfcrypt/src/random.c **** 
1870:Middlewares/Third_Party/wolfSSL_wolfSSL_wolfSSL/wolfssl/wolfcrypt/src/random.c ****                 /* get value */
1871:Middlewares/Third_Party/wolfSSL_wolfSSL_wolfSSL/wolfssl/wolfcrypt/src/random.c ****                 output[i] = RNG_OUT;
1872:Middlewares/Third_Party/wolfSSL_wolfSSL_wolfSSL/wolfssl/wolfcrypt/src/random.c ****             }
1873:Middlewares/Third_Party/wolfSSL_wolfSSL_wolfSSL/wolfssl/wolfcrypt/src/random.c **** 
1874:Middlewares/Third_Party/wolfSSL_wolfSSL_wolfSSL/wolfssl/wolfcrypt/src/random.c ****             return 0;
1875:Middlewares/Third_Party/wolfSSL_wolfSSL_wolfSSL/wolfssl/wolfcrypt/src/random.c ****         }
1876:Middlewares/Third_Party/wolfSSL_wolfSSL_wolfSSL/wolfssl/wolfcrypt/src/random.c **** 
1877:Middlewares/Third_Party/wolfSSL_wolfSSL_wolfSSL/wolfssl/wolfcrypt/src/random.c ****     #elif defined(FREESCALE_KSDK_2_0_TRNG)
1878:Middlewares/Third_Party/wolfSSL_wolfSSL_wolfSSL/wolfssl/wolfcrypt/src/random.c **** 
1879:Middlewares/Third_Party/wolfSSL_wolfSSL_wolfSSL/wolfssl/wolfcrypt/src/random.c ****         int wc_GenerateSeed(OS_Seed* os, byte* output, word32 sz)
1880:Middlewares/Third_Party/wolfSSL_wolfSSL_wolfSSL/wolfssl/wolfcrypt/src/random.c ****         {
1881:Middlewares/Third_Party/wolfSSL_wolfSSL_wolfSSL/wolfssl/wolfcrypt/src/random.c ****             status_t status;
1882:Middlewares/Third_Party/wolfSSL_wolfSSL_wolfSSL/wolfssl/wolfcrypt/src/random.c ****             status = TRNG_GetRandomData(TRNG0, output, sz);
1883:Middlewares/Third_Party/wolfSSL_wolfSSL_wolfSSL/wolfssl/wolfcrypt/src/random.c ****             if (status == kStatus_Success)
1884:Middlewares/Third_Party/wolfSSL_wolfSSL_wolfSSL/wolfssl/wolfcrypt/src/random.c ****             {
1885:Middlewares/Third_Party/wolfSSL_wolfSSL_wolfSSL/wolfssl/wolfcrypt/src/random.c ****                 return(0);
1886:Middlewares/Third_Party/wolfSSL_wolfSSL_wolfSSL/wolfssl/wolfcrypt/src/random.c ****             }
1887:Middlewares/Third_Party/wolfSSL_wolfSSL_wolfSSL/wolfssl/wolfcrypt/src/random.c ****             else
1888:Middlewares/Third_Party/wolfSSL_wolfSSL_wolfSSL/wolfssl/wolfcrypt/src/random.c ****             {
1889:Middlewares/Third_Party/wolfSSL_wolfSSL_wolfSSL/wolfssl/wolfcrypt/src/random.c ****                 return RAN_BLOCK_E;
1890:Middlewares/Third_Party/wolfSSL_wolfSSL_wolfSSL/wolfssl/wolfcrypt/src/random.c ****             }
1891:Middlewares/Third_Party/wolfSSL_wolfSSL_wolfSSL/wolfssl/wolfcrypt/src/random.c ****         }
1892:Middlewares/Third_Party/wolfSSL_wolfSSL_wolfSSL/wolfssl/wolfcrypt/src/random.c **** 
1893:Middlewares/Third_Party/wolfSSL_wolfSSL_wolfSSL/wolfssl/wolfcrypt/src/random.c ****     #elif defined(FREESCALE_KSDK_2_0_RNGA)
1894:Middlewares/Third_Party/wolfSSL_wolfSSL_wolfSSL/wolfssl/wolfcrypt/src/random.c **** 
1895:Middlewares/Third_Party/wolfSSL_wolfSSL_wolfSSL/wolfssl/wolfcrypt/src/random.c ****         int wc_GenerateSeed(OS_Seed* os, byte* output, word32 sz)
1896:Middlewares/Third_Party/wolfSSL_wolfSSL_wolfSSL/wolfssl/wolfcrypt/src/random.c ****         {
1897:Middlewares/Third_Party/wolfSSL_wolfSSL_wolfSSL/wolfssl/wolfcrypt/src/random.c ****             status_t status;
1898:Middlewares/Third_Party/wolfSSL_wolfSSL_wolfSSL/wolfssl/wolfcrypt/src/random.c ****             status = RNGA_GetRandomData(RNG, output, sz);
1899:Middlewares/Third_Party/wolfSSL_wolfSSL_wolfSSL/wolfssl/wolfcrypt/src/random.c ****             if (status == kStatus_Success)
1900:Middlewares/Third_Party/wolfSSL_wolfSSL_wolfSSL/wolfssl/wolfcrypt/src/random.c ****             {
1901:Middlewares/Third_Party/wolfSSL_wolfSSL_wolfSSL/wolfssl/wolfcrypt/src/random.c ****                 return(0);
1902:Middlewares/Third_Party/wolfSSL_wolfSSL_wolfSSL/wolfssl/wolfcrypt/src/random.c ****             }
1903:Middlewares/Third_Party/wolfSSL_wolfSSL_wolfSSL/wolfssl/wolfcrypt/src/random.c ****             else
1904:Middlewares/Third_Party/wolfSSL_wolfSSL_wolfSSL/wolfssl/wolfcrypt/src/random.c ****             {
1905:Middlewares/Third_Party/wolfSSL_wolfSSL_wolfSSL/wolfssl/wolfcrypt/src/random.c ****                 return RAN_BLOCK_E;
1906:Middlewares/Third_Party/wolfSSL_wolfSSL_wolfSSL/wolfssl/wolfcrypt/src/random.c ****             }
1907:Middlewares/Third_Party/wolfSSL_wolfSSL_wolfSSL/wolfssl/wolfcrypt/src/random.c ****         }
1908:Middlewares/Third_Party/wolfSSL_wolfSSL_wolfSSL/wolfssl/wolfcrypt/src/random.c **** 
1909:Middlewares/Third_Party/wolfSSL_wolfSSL_wolfSSL/wolfssl/wolfcrypt/src/random.c **** 
ARM GAS  /tmp/cc09iKDl.s 			page 94


1910:Middlewares/Third_Party/wolfSSL_wolfSSL_wolfSSL/wolfssl/wolfcrypt/src/random.c ****     #elif defined(FREESCALE_RNGA)
1911:Middlewares/Third_Party/wolfSSL_wolfSSL_wolfSSL/wolfssl/wolfcrypt/src/random.c **** 
1912:Middlewares/Third_Party/wolfSSL_wolfSSL_wolfSSL/wolfssl/wolfcrypt/src/random.c ****         int wc_GenerateSeed(OS_Seed* os, byte* output, word32 sz)
1913:Middlewares/Third_Party/wolfSSL_wolfSSL_wolfSSL/wolfssl/wolfcrypt/src/random.c ****         {
1914:Middlewares/Third_Party/wolfSSL_wolfSSL_wolfSSL/wolfssl/wolfcrypt/src/random.c ****             RNGA_DRV_GetRandomData(RNGA_INSTANCE, output, sz);
1915:Middlewares/Third_Party/wolfSSL_wolfSSL_wolfSSL/wolfssl/wolfcrypt/src/random.c ****             return 0;
1916:Middlewares/Third_Party/wolfSSL_wolfSSL_wolfSSL/wolfssl/wolfcrypt/src/random.c ****         }
1917:Middlewares/Third_Party/wolfSSL_wolfSSL_wolfSSL/wolfssl/wolfcrypt/src/random.c **** 
1918:Middlewares/Third_Party/wolfSSL_wolfSSL_wolfSSL/wolfssl/wolfcrypt/src/random.c ****     #else
1919:Middlewares/Third_Party/wolfSSL_wolfSSL_wolfSSL/wolfssl/wolfcrypt/src/random.c ****         #define USE_TEST_GENSEED
1920:Middlewares/Third_Party/wolfSSL_wolfSSL_wolfSSL/wolfssl/wolfcrypt/src/random.c ****     #endif /* FREESCALE_K70_RNGA */
1921:Middlewares/Third_Party/wolfSSL_wolfSSL_wolfSSL/wolfssl/wolfcrypt/src/random.c **** 
1922:Middlewares/Third_Party/wolfSSL_wolfSSL_wolfSSL/wolfssl/wolfcrypt/src/random.c **** #elif defined(WOLFSSL_SILABS_SE_ACCEL)
1923:Middlewares/Third_Party/wolfSSL_wolfSSL_wolfSSL/wolfssl/wolfcrypt/src/random.c ****     int wc_GenerateSeed(OS_Seed* os, byte* output, word32 sz)
1924:Middlewares/Third_Party/wolfSSL_wolfSSL_wolfSSL/wolfssl/wolfcrypt/src/random.c ****     {
1925:Middlewares/Third_Party/wolfSSL_wolfSSL_wolfSSL/wolfssl/wolfcrypt/src/random.c ****         (void)os;
1926:Middlewares/Third_Party/wolfSSL_wolfSSL_wolfSSL/wolfssl/wolfcrypt/src/random.c ****         return silabs_GenerateRand(output, sz);
1927:Middlewares/Third_Party/wolfSSL_wolfSSL_wolfSSL/wolfssl/wolfcrypt/src/random.c ****     }
1928:Middlewares/Third_Party/wolfSSL_wolfSSL_wolfSSL/wolfssl/wolfcrypt/src/random.c **** 
1929:Middlewares/Third_Party/wolfSSL_wolfSSL_wolfSSL/wolfssl/wolfcrypt/src/random.c **** #elif defined(STM32_RNG)
1930:Middlewares/Third_Party/wolfSSL_wolfSSL_wolfSSL/wolfssl/wolfcrypt/src/random.c ****      /* Generate a RNG seed using the hardware random number generator
1931:Middlewares/Third_Party/wolfSSL_wolfSSL_wolfSSL/wolfssl/wolfcrypt/src/random.c ****       * on the STM32F2/F4/F7/L4. */
1932:Middlewares/Third_Party/wolfSSL_wolfSSL_wolfSSL/wolfssl/wolfcrypt/src/random.c **** 
1933:Middlewares/Third_Party/wolfSSL_wolfSSL_wolfSSL/wolfssl/wolfcrypt/src/random.c ****     #ifdef WOLFSSL_STM32_CUBEMX
1934:Middlewares/Third_Party/wolfSSL_wolfSSL_wolfSSL/wolfssl/wolfcrypt/src/random.c ****     int wc_GenerateSeed(OS_Seed* os, byte* output, word32 sz)
1935:Middlewares/Third_Party/wolfSSL_wolfSSL_wolfSSL/wolfssl/wolfcrypt/src/random.c ****     {
1936:Middlewares/Third_Party/wolfSSL_wolfSSL_wolfSSL/wolfssl/wolfcrypt/src/random.c ****         int ret;
1937:Middlewares/Third_Party/wolfSSL_wolfSSL_wolfSSL/wolfssl/wolfcrypt/src/random.c ****         RNG_HandleTypeDef hrng;
1938:Middlewares/Third_Party/wolfSSL_wolfSSL_wolfSSL/wolfssl/wolfcrypt/src/random.c ****         word32 i = 0;
1939:Middlewares/Third_Party/wolfSSL_wolfSSL_wolfSSL/wolfssl/wolfcrypt/src/random.c ****         (void)os;
1940:Middlewares/Third_Party/wolfSSL_wolfSSL_wolfSSL/wolfssl/wolfcrypt/src/random.c **** 
1941:Middlewares/Third_Party/wolfSSL_wolfSSL_wolfSSL/wolfssl/wolfcrypt/src/random.c ****         ret = wolfSSL_CryptHwMutexLock();
1942:Middlewares/Third_Party/wolfSSL_wolfSSL_wolfSSL/wolfssl/wolfcrypt/src/random.c ****         if (ret != 0) {
1943:Middlewares/Third_Party/wolfSSL_wolfSSL_wolfSSL/wolfssl/wolfcrypt/src/random.c ****             return ret;
1944:Middlewares/Third_Party/wolfSSL_wolfSSL_wolfSSL/wolfssl/wolfcrypt/src/random.c ****         }
1945:Middlewares/Third_Party/wolfSSL_wolfSSL_wolfSSL/wolfssl/wolfcrypt/src/random.c **** 
1946:Middlewares/Third_Party/wolfSSL_wolfSSL_wolfSSL/wolfssl/wolfcrypt/src/random.c ****         /* enable RNG clock source */
1947:Middlewares/Third_Party/wolfSSL_wolfSSL_wolfSSL/wolfssl/wolfcrypt/src/random.c ****         __HAL_RCC_RNG_CLK_ENABLE();
1948:Middlewares/Third_Party/wolfSSL_wolfSSL_wolfSSL/wolfssl/wolfcrypt/src/random.c **** 
1949:Middlewares/Third_Party/wolfSSL_wolfSSL_wolfSSL/wolfssl/wolfcrypt/src/random.c ****         /* enable RNG peripheral */
1950:Middlewares/Third_Party/wolfSSL_wolfSSL_wolfSSL/wolfssl/wolfcrypt/src/random.c ****         XMEMSET(&hrng, 0, sizeof(hrng));
1951:Middlewares/Third_Party/wolfSSL_wolfSSL_wolfSSL/wolfssl/wolfcrypt/src/random.c ****         hrng.Instance = RNG;
1952:Middlewares/Third_Party/wolfSSL_wolfSSL_wolfSSL/wolfssl/wolfcrypt/src/random.c ****         HAL_RNG_Init(&hrng);
1953:Middlewares/Third_Party/wolfSSL_wolfSSL_wolfSSL/wolfssl/wolfcrypt/src/random.c **** 
1954:Middlewares/Third_Party/wolfSSL_wolfSSL_wolfSSL/wolfssl/wolfcrypt/src/random.c ****         while (i < sz) {
1955:Middlewares/Third_Party/wolfSSL_wolfSSL_wolfSSL/wolfssl/wolfcrypt/src/random.c ****             /* If not aligned or there is odd/remainder */
1956:Middlewares/Third_Party/wolfSSL_wolfSSL_wolfSSL/wolfssl/wolfcrypt/src/random.c ****             if( (i + sizeof(word32)) > sz ||
1957:Middlewares/Third_Party/wolfSSL_wolfSSL_wolfSSL/wolfssl/wolfcrypt/src/random.c ****                 ((wolfssl_word)&output[i] % sizeof(word32)) != 0
1958:Middlewares/Third_Party/wolfSSL_wolfSSL_wolfSSL/wolfssl/wolfcrypt/src/random.c ****             ) {
1959:Middlewares/Third_Party/wolfSSL_wolfSSL_wolfSSL/wolfssl/wolfcrypt/src/random.c ****                 /* Single byte at a time */
1960:Middlewares/Third_Party/wolfSSL_wolfSSL_wolfSSL/wolfssl/wolfcrypt/src/random.c ****                 word32 tmpRng = 0;
1961:Middlewares/Third_Party/wolfSSL_wolfSSL_wolfSSL/wolfssl/wolfcrypt/src/random.c ****                 if (HAL_RNG_GenerateRandomNumber(&hrng, &tmpRng) != HAL_OK) {
1962:Middlewares/Third_Party/wolfSSL_wolfSSL_wolfSSL/wolfssl/wolfcrypt/src/random.c ****                     wolfSSL_CryptHwMutexUnLock();
1963:Middlewares/Third_Party/wolfSSL_wolfSSL_wolfSSL/wolfssl/wolfcrypt/src/random.c ****                     return RAN_BLOCK_E;
1964:Middlewares/Third_Party/wolfSSL_wolfSSL_wolfSSL/wolfssl/wolfcrypt/src/random.c ****                 }
1965:Middlewares/Third_Party/wolfSSL_wolfSSL_wolfSSL/wolfssl/wolfcrypt/src/random.c ****                 output[i++] = (byte)tmpRng;
1966:Middlewares/Third_Party/wolfSSL_wolfSSL_wolfSSL/wolfssl/wolfcrypt/src/random.c ****             }
ARM GAS  /tmp/cc09iKDl.s 			page 95


1967:Middlewares/Third_Party/wolfSSL_wolfSSL_wolfSSL/wolfssl/wolfcrypt/src/random.c ****             else {
1968:Middlewares/Third_Party/wolfSSL_wolfSSL_wolfSSL/wolfssl/wolfcrypt/src/random.c ****                 /* Use native 32 instruction */
1969:Middlewares/Third_Party/wolfSSL_wolfSSL_wolfSSL/wolfssl/wolfcrypt/src/random.c ****                 if (HAL_RNG_GenerateRandomNumber(&hrng, (word32*)&output[i]) != HAL_OK) {
1970:Middlewares/Third_Party/wolfSSL_wolfSSL_wolfSSL/wolfssl/wolfcrypt/src/random.c ****                     wolfSSL_CryptHwMutexUnLock();
1971:Middlewares/Third_Party/wolfSSL_wolfSSL_wolfSSL/wolfssl/wolfcrypt/src/random.c ****                     return RAN_BLOCK_E;
1972:Middlewares/Third_Party/wolfSSL_wolfSSL_wolfSSL/wolfssl/wolfcrypt/src/random.c ****                 }
1973:Middlewares/Third_Party/wolfSSL_wolfSSL_wolfSSL/wolfssl/wolfcrypt/src/random.c ****                 i += sizeof(word32);
1974:Middlewares/Third_Party/wolfSSL_wolfSSL_wolfSSL/wolfssl/wolfcrypt/src/random.c ****             }
1975:Middlewares/Third_Party/wolfSSL_wolfSSL_wolfSSL/wolfssl/wolfcrypt/src/random.c ****         }
1976:Middlewares/Third_Party/wolfSSL_wolfSSL_wolfSSL/wolfssl/wolfcrypt/src/random.c **** 
1977:Middlewares/Third_Party/wolfSSL_wolfSSL_wolfSSL/wolfssl/wolfcrypt/src/random.c ****         wolfSSL_CryptHwMutexUnLock();
1978:Middlewares/Third_Party/wolfSSL_wolfSSL_wolfSSL/wolfssl/wolfcrypt/src/random.c **** 
1979:Middlewares/Third_Party/wolfSSL_wolfSSL_wolfSSL/wolfssl/wolfcrypt/src/random.c ****         return 0;
1980:Middlewares/Third_Party/wolfSSL_wolfSSL_wolfSSL/wolfssl/wolfcrypt/src/random.c ****     }
1981:Middlewares/Third_Party/wolfSSL_wolfSSL_wolfSSL/wolfssl/wolfcrypt/src/random.c ****     #elif defined(WOLFSSL_STM32F427_RNG) || defined(WOLFSSL_STM32_RNG_NOLIB)
1982:Middlewares/Third_Party/wolfSSL_wolfSSL_wolfSSL/wolfssl/wolfcrypt/src/random.c **** 
1983:Middlewares/Third_Party/wolfSSL_wolfSSL_wolfSSL/wolfssl/wolfcrypt/src/random.c ****     /* Generate a RNG seed using the hardware RNG on the STM32F427
1984:Middlewares/Third_Party/wolfSSL_wolfSSL_wolfSSL/wolfssl/wolfcrypt/src/random.c ****      * directly, following steps outlined in STM32F4 Reference
1985:Middlewares/Third_Party/wolfSSL_wolfSSL_wolfSSL/wolfssl/wolfcrypt/src/random.c ****      * Manual (Chapter 24) for STM32F4xx family. */
1986:Middlewares/Third_Party/wolfSSL_wolfSSL_wolfSSL/wolfssl/wolfcrypt/src/random.c ****     int wc_GenerateSeed(OS_Seed* os, byte* output, word32 sz)
1987:Middlewares/Third_Party/wolfSSL_wolfSSL_wolfSSL/wolfssl/wolfcrypt/src/random.c ****     {
1988:Middlewares/Third_Party/wolfSSL_wolfSSL_wolfSSL/wolfssl/wolfcrypt/src/random.c ****         int ret;
1989:Middlewares/Third_Party/wolfSSL_wolfSSL_wolfSSL/wolfssl/wolfcrypt/src/random.c ****         word32 i;
1990:Middlewares/Third_Party/wolfSSL_wolfSSL_wolfSSL/wolfssl/wolfcrypt/src/random.c ****         (void)os;
1991:Middlewares/Third_Party/wolfSSL_wolfSSL_wolfSSL/wolfssl/wolfcrypt/src/random.c **** 
1992:Middlewares/Third_Party/wolfSSL_wolfSSL_wolfSSL/wolfssl/wolfcrypt/src/random.c ****         ret = wolfSSL_CryptHwMutexLock();
1993:Middlewares/Third_Party/wolfSSL_wolfSSL_wolfSSL/wolfssl/wolfcrypt/src/random.c ****         if (ret != 0) {
1994:Middlewares/Third_Party/wolfSSL_wolfSSL_wolfSSL/wolfssl/wolfcrypt/src/random.c ****             return ret;
1995:Middlewares/Third_Party/wolfSSL_wolfSSL_wolfSSL/wolfssl/wolfcrypt/src/random.c ****         }
1996:Middlewares/Third_Party/wolfSSL_wolfSSL_wolfSSL/wolfssl/wolfcrypt/src/random.c **** 
1997:Middlewares/Third_Party/wolfSSL_wolfSSL_wolfSSL/wolfssl/wolfcrypt/src/random.c ****         /* enable RNG peripheral clock */
1998:Middlewares/Third_Party/wolfSSL_wolfSSL_wolfSSL/wolfssl/wolfcrypt/src/random.c ****         RCC->AHB2ENR |= RCC_AHB2ENR_RNGEN;
1999:Middlewares/Third_Party/wolfSSL_wolfSSL_wolfSSL/wolfssl/wolfcrypt/src/random.c **** 
2000:Middlewares/Third_Party/wolfSSL_wolfSSL_wolfSSL/wolfssl/wolfcrypt/src/random.c ****         /* enable RNG interrupt, set IE bit in RNG->CR register */
2001:Middlewares/Third_Party/wolfSSL_wolfSSL_wolfSSL/wolfssl/wolfcrypt/src/random.c ****         RNG->CR |= RNG_CR_IE;
2002:Middlewares/Third_Party/wolfSSL_wolfSSL_wolfSSL/wolfssl/wolfcrypt/src/random.c **** 
2003:Middlewares/Third_Party/wolfSSL_wolfSSL_wolfSSL/wolfssl/wolfcrypt/src/random.c ****         /* enable RNG, set RNGEN bit in RNG->CR. Activates RNG,
2004:Middlewares/Third_Party/wolfSSL_wolfSSL_wolfSSL/wolfssl/wolfcrypt/src/random.c ****          * RNG_LFSR, and error detector */
2005:Middlewares/Third_Party/wolfSSL_wolfSSL_wolfSSL/wolfssl/wolfcrypt/src/random.c ****         RNG->CR |= RNG_CR_RNGEN;
2006:Middlewares/Third_Party/wolfSSL_wolfSSL_wolfSSL/wolfssl/wolfcrypt/src/random.c **** 
2007:Middlewares/Third_Party/wolfSSL_wolfSSL_wolfSSL/wolfssl/wolfcrypt/src/random.c ****         /* verify no errors, make sure SEIS and CEIS bits are 0
2008:Middlewares/Third_Party/wolfSSL_wolfSSL_wolfSSL/wolfssl/wolfcrypt/src/random.c ****          * in RNG->SR register */
2009:Middlewares/Third_Party/wolfSSL_wolfSSL_wolfSSL/wolfssl/wolfcrypt/src/random.c ****         if (RNG->SR & (RNG_SR_SECS | RNG_SR_CECS)) {
2010:Middlewares/Third_Party/wolfSSL_wolfSSL_wolfSSL/wolfssl/wolfcrypt/src/random.c ****             wolfSSL_CryptHwMutexUnLock();
2011:Middlewares/Third_Party/wolfSSL_wolfSSL_wolfSSL/wolfssl/wolfcrypt/src/random.c ****             return RNG_FAILURE_E;
2012:Middlewares/Third_Party/wolfSSL_wolfSSL_wolfSSL/wolfssl/wolfcrypt/src/random.c ****         }
2013:Middlewares/Third_Party/wolfSSL_wolfSSL_wolfSSL/wolfssl/wolfcrypt/src/random.c **** 
2014:Middlewares/Third_Party/wolfSSL_wolfSSL_wolfSSL/wolfssl/wolfcrypt/src/random.c ****         for (i = 0; i < sz; i++) {
2015:Middlewares/Third_Party/wolfSSL_wolfSSL_wolfSSL/wolfssl/wolfcrypt/src/random.c ****             /* wait until RNG number is ready */
2016:Middlewares/Third_Party/wolfSSL_wolfSSL_wolfSSL/wolfssl/wolfcrypt/src/random.c ****             while ((RNG->SR & RNG_SR_DRDY) == 0) { }
2017:Middlewares/Third_Party/wolfSSL_wolfSSL_wolfSSL/wolfssl/wolfcrypt/src/random.c **** 
2018:Middlewares/Third_Party/wolfSSL_wolfSSL_wolfSSL/wolfssl/wolfcrypt/src/random.c ****             /* get value */
2019:Middlewares/Third_Party/wolfSSL_wolfSSL_wolfSSL/wolfssl/wolfcrypt/src/random.c ****             output[i] = RNG->DR;
2020:Middlewares/Third_Party/wolfSSL_wolfSSL_wolfSSL/wolfssl/wolfcrypt/src/random.c ****         }
2021:Middlewares/Third_Party/wolfSSL_wolfSSL_wolfSSL/wolfssl/wolfcrypt/src/random.c **** 
2022:Middlewares/Third_Party/wolfSSL_wolfSSL_wolfSSL/wolfssl/wolfcrypt/src/random.c ****         wolfSSL_CryptHwMutexUnLock();
2023:Middlewares/Third_Party/wolfSSL_wolfSSL_wolfSSL/wolfssl/wolfcrypt/src/random.c **** 
ARM GAS  /tmp/cc09iKDl.s 			page 96


2024:Middlewares/Third_Party/wolfSSL_wolfSSL_wolfSSL/wolfssl/wolfcrypt/src/random.c ****         return 0;
2025:Middlewares/Third_Party/wolfSSL_wolfSSL_wolfSSL/wolfssl/wolfcrypt/src/random.c ****     }
2026:Middlewares/Third_Party/wolfSSL_wolfSSL_wolfSSL/wolfssl/wolfcrypt/src/random.c **** 
2027:Middlewares/Third_Party/wolfSSL_wolfSSL_wolfSSL/wolfssl/wolfcrypt/src/random.c ****     #else
2028:Middlewares/Third_Party/wolfSSL_wolfSSL_wolfSSL/wolfssl/wolfcrypt/src/random.c **** 
2029:Middlewares/Third_Party/wolfSSL_wolfSSL_wolfSSL/wolfssl/wolfcrypt/src/random.c ****     /* Generate a RNG seed using the STM32 Standard Peripheral Library */
2030:Middlewares/Third_Party/wolfSSL_wolfSSL_wolfSSL/wolfssl/wolfcrypt/src/random.c ****     int wc_GenerateSeed(OS_Seed* os, byte* output, word32 sz)
2031:Middlewares/Third_Party/wolfSSL_wolfSSL_wolfSSL/wolfssl/wolfcrypt/src/random.c ****     {
2032:Middlewares/Third_Party/wolfSSL_wolfSSL_wolfSSL/wolfssl/wolfcrypt/src/random.c ****         int ret;
2033:Middlewares/Third_Party/wolfSSL_wolfSSL_wolfSSL/wolfssl/wolfcrypt/src/random.c ****         word32 i;
2034:Middlewares/Third_Party/wolfSSL_wolfSSL_wolfSSL/wolfssl/wolfcrypt/src/random.c ****         (void)os;
2035:Middlewares/Third_Party/wolfSSL_wolfSSL_wolfSSL/wolfssl/wolfcrypt/src/random.c **** 
2036:Middlewares/Third_Party/wolfSSL_wolfSSL_wolfSSL/wolfssl/wolfcrypt/src/random.c ****         ret = wolfSSL_CryptHwMutexLock();
2037:Middlewares/Third_Party/wolfSSL_wolfSSL_wolfSSL/wolfssl/wolfcrypt/src/random.c ****         if (ret != 0) {
2038:Middlewares/Third_Party/wolfSSL_wolfSSL_wolfSSL/wolfssl/wolfcrypt/src/random.c ****             return ret;
2039:Middlewares/Third_Party/wolfSSL_wolfSSL_wolfSSL/wolfssl/wolfcrypt/src/random.c ****         }
2040:Middlewares/Third_Party/wolfSSL_wolfSSL_wolfSSL/wolfssl/wolfcrypt/src/random.c **** 
2041:Middlewares/Third_Party/wolfSSL_wolfSSL_wolfSSL/wolfssl/wolfcrypt/src/random.c ****         /* enable RNG clock source */
2042:Middlewares/Third_Party/wolfSSL_wolfSSL_wolfSSL/wolfssl/wolfcrypt/src/random.c ****         RCC_AHB2PeriphClockCmd(RCC_AHB2Periph_RNG, ENABLE);
2043:Middlewares/Third_Party/wolfSSL_wolfSSL_wolfSSL/wolfssl/wolfcrypt/src/random.c **** 
2044:Middlewares/Third_Party/wolfSSL_wolfSSL_wolfSSL/wolfssl/wolfcrypt/src/random.c ****         /* reset RNG */
2045:Middlewares/Third_Party/wolfSSL_wolfSSL_wolfSSL/wolfssl/wolfcrypt/src/random.c ****         RNG_DeInit();
2046:Middlewares/Third_Party/wolfSSL_wolfSSL_wolfSSL/wolfssl/wolfcrypt/src/random.c **** 
2047:Middlewares/Third_Party/wolfSSL_wolfSSL_wolfSSL/wolfssl/wolfcrypt/src/random.c ****         /* enable RNG peripheral */
2048:Middlewares/Third_Party/wolfSSL_wolfSSL_wolfSSL/wolfssl/wolfcrypt/src/random.c ****         RNG_Cmd(ENABLE);
2049:Middlewares/Third_Party/wolfSSL_wolfSSL_wolfSSL/wolfssl/wolfcrypt/src/random.c **** 
2050:Middlewares/Third_Party/wolfSSL_wolfSSL_wolfSSL/wolfssl/wolfcrypt/src/random.c ****         /* verify no errors with RNG_CLK or Seed */
2051:Middlewares/Third_Party/wolfSSL_wolfSSL_wolfSSL/wolfssl/wolfcrypt/src/random.c ****         if (RNG_GetFlagStatus(RNG_FLAG_SECS | RNG_FLAG_CECS) != RESET) {
2052:Middlewares/Third_Party/wolfSSL_wolfSSL_wolfSSL/wolfssl/wolfcrypt/src/random.c ****             wolfSSL_CryptHwMutexUnLock();
2053:Middlewares/Third_Party/wolfSSL_wolfSSL_wolfSSL/wolfssl/wolfcrypt/src/random.c ****             return RNG_FAILURE_E;
2054:Middlewares/Third_Party/wolfSSL_wolfSSL_wolfSSL/wolfssl/wolfcrypt/src/random.c ****         }
2055:Middlewares/Third_Party/wolfSSL_wolfSSL_wolfSSL/wolfssl/wolfcrypt/src/random.c **** 
2056:Middlewares/Third_Party/wolfSSL_wolfSSL_wolfSSL/wolfssl/wolfcrypt/src/random.c ****         for (i = 0; i < sz; i++) {
2057:Middlewares/Third_Party/wolfSSL_wolfSSL_wolfSSL/wolfssl/wolfcrypt/src/random.c ****             /* wait until RNG number is ready */
2058:Middlewares/Third_Party/wolfSSL_wolfSSL_wolfSSL/wolfssl/wolfcrypt/src/random.c ****             while (RNG_GetFlagStatus(RNG_FLAG_DRDY) == RESET) { }
2059:Middlewares/Third_Party/wolfSSL_wolfSSL_wolfSSL/wolfssl/wolfcrypt/src/random.c **** 
2060:Middlewares/Third_Party/wolfSSL_wolfSSL_wolfSSL/wolfssl/wolfcrypt/src/random.c ****             /* get value */
2061:Middlewares/Third_Party/wolfSSL_wolfSSL_wolfSSL/wolfssl/wolfcrypt/src/random.c ****             output[i] = RNG_GetRandomNumber();
2062:Middlewares/Third_Party/wolfSSL_wolfSSL_wolfSSL/wolfssl/wolfcrypt/src/random.c ****         }
2063:Middlewares/Third_Party/wolfSSL_wolfSSL_wolfSSL/wolfssl/wolfcrypt/src/random.c **** 
2064:Middlewares/Third_Party/wolfSSL_wolfSSL_wolfSSL/wolfssl/wolfcrypt/src/random.c ****         wolfSSL_CryptHwMutexUnLock();
2065:Middlewares/Third_Party/wolfSSL_wolfSSL_wolfSSL/wolfssl/wolfcrypt/src/random.c **** 
2066:Middlewares/Third_Party/wolfSSL_wolfSSL_wolfSSL/wolfssl/wolfcrypt/src/random.c ****         return 0;
2067:Middlewares/Third_Party/wolfSSL_wolfSSL_wolfSSL/wolfssl/wolfcrypt/src/random.c ****     }
2068:Middlewares/Third_Party/wolfSSL_wolfSSL_wolfSSL/wolfssl/wolfcrypt/src/random.c ****     #endif /* WOLFSSL_STM32_CUBEMX */
2069:Middlewares/Third_Party/wolfSSL_wolfSSL_wolfSSL/wolfssl/wolfcrypt/src/random.c **** 
2070:Middlewares/Third_Party/wolfSSL_wolfSSL_wolfSSL/wolfssl/wolfcrypt/src/random.c **** #elif defined(WOLFSSL_TIRTOS)
2071:Middlewares/Third_Party/wolfSSL_wolfSSL_wolfSSL/wolfssl/wolfcrypt/src/random.c **** 
2072:Middlewares/Third_Party/wolfSSL_wolfSSL_wolfSSL/wolfssl/wolfcrypt/src/random.c ****     #include <xdc/runtime/Timestamp.h>
2073:Middlewares/Third_Party/wolfSSL_wolfSSL_wolfSSL/wolfssl/wolfcrypt/src/random.c ****     #include <stdlib.h>
2074:Middlewares/Third_Party/wolfSSL_wolfSSL_wolfSSL/wolfssl/wolfcrypt/src/random.c ****     int wc_GenerateSeed(OS_Seed* os, byte* output, word32 sz)
2075:Middlewares/Third_Party/wolfSSL_wolfSSL_wolfSSL/wolfssl/wolfcrypt/src/random.c ****     {
2076:Middlewares/Third_Party/wolfSSL_wolfSSL_wolfSSL/wolfssl/wolfcrypt/src/random.c ****         int i;
2077:Middlewares/Third_Party/wolfSSL_wolfSSL_wolfSSL/wolfssl/wolfcrypt/src/random.c ****         srand(xdc_runtime_Timestamp_get32());
2078:Middlewares/Third_Party/wolfSSL_wolfSSL_wolfSSL/wolfssl/wolfcrypt/src/random.c **** 
2079:Middlewares/Third_Party/wolfSSL_wolfSSL_wolfSSL/wolfssl/wolfcrypt/src/random.c ****         for (i = 0; i < sz; i++ ) {
2080:Middlewares/Third_Party/wolfSSL_wolfSSL_wolfSSL/wolfssl/wolfcrypt/src/random.c ****             output[i] = rand() % 256;
ARM GAS  /tmp/cc09iKDl.s 			page 97


2081:Middlewares/Third_Party/wolfSSL_wolfSSL_wolfSSL/wolfssl/wolfcrypt/src/random.c ****             if ((i % 8) == 7) {
2082:Middlewares/Third_Party/wolfSSL_wolfSSL_wolfSSL/wolfssl/wolfcrypt/src/random.c ****                 srand(xdc_runtime_Timestamp_get32());
2083:Middlewares/Third_Party/wolfSSL_wolfSSL_wolfSSL/wolfssl/wolfcrypt/src/random.c ****             }
2084:Middlewares/Third_Party/wolfSSL_wolfSSL_wolfSSL/wolfssl/wolfcrypt/src/random.c ****         }
2085:Middlewares/Third_Party/wolfSSL_wolfSSL_wolfSSL/wolfssl/wolfcrypt/src/random.c **** 
2086:Middlewares/Third_Party/wolfSSL_wolfSSL_wolfSSL/wolfssl/wolfcrypt/src/random.c ****         return 0;
2087:Middlewares/Third_Party/wolfSSL_wolfSSL_wolfSSL/wolfssl/wolfcrypt/src/random.c ****     }
2088:Middlewares/Third_Party/wolfSSL_wolfSSL_wolfSSL/wolfssl/wolfcrypt/src/random.c **** 
2089:Middlewares/Third_Party/wolfSSL_wolfSSL_wolfSSL/wolfssl/wolfcrypt/src/random.c **** #elif defined(WOLFSSL_PB)
2090:Middlewares/Third_Party/wolfSSL_wolfSSL_wolfSSL/wolfssl/wolfcrypt/src/random.c **** 
2091:Middlewares/Third_Party/wolfSSL_wolfSSL_wolfSSL/wolfssl/wolfcrypt/src/random.c ****     int wc_GenerateSeed(OS_Seed* os, byte* output, word32 sz)
2092:Middlewares/Third_Party/wolfSSL_wolfSSL_wolfSSL/wolfssl/wolfcrypt/src/random.c ****     {
2093:Middlewares/Third_Party/wolfSSL_wolfSSL_wolfSSL/wolfssl/wolfcrypt/src/random.c ****         word32 i;
2094:Middlewares/Third_Party/wolfSSL_wolfSSL_wolfSSL/wolfssl/wolfcrypt/src/random.c ****         for (i = 0; i < sz; i++)
2095:Middlewares/Third_Party/wolfSSL_wolfSSL_wolfSSL/wolfssl/wolfcrypt/src/random.c ****             output[i] = UTL_Rand();
2096:Middlewares/Third_Party/wolfSSL_wolfSSL_wolfSSL/wolfssl/wolfcrypt/src/random.c **** 
2097:Middlewares/Third_Party/wolfSSL_wolfSSL_wolfSSL/wolfssl/wolfcrypt/src/random.c ****         (void)os;
2098:Middlewares/Third_Party/wolfSSL_wolfSSL_wolfSSL/wolfssl/wolfcrypt/src/random.c **** 
2099:Middlewares/Third_Party/wolfSSL_wolfSSL_wolfSSL/wolfssl/wolfcrypt/src/random.c ****         return 0;
2100:Middlewares/Third_Party/wolfSSL_wolfSSL_wolfSSL/wolfssl/wolfcrypt/src/random.c ****     }
2101:Middlewares/Third_Party/wolfSSL_wolfSSL_wolfSSL/wolfssl/wolfcrypt/src/random.c **** 
2102:Middlewares/Third_Party/wolfSSL_wolfSSL_wolfSSL/wolfssl/wolfcrypt/src/random.c **** #elif defined(WOLFSSL_NUCLEUS)
2103:Middlewares/Third_Party/wolfSSL_wolfSSL_wolfSSL/wolfssl/wolfcrypt/src/random.c **** #include "nucleus.h"
2104:Middlewares/Third_Party/wolfSSL_wolfSSL_wolfSSL/wolfssl/wolfcrypt/src/random.c **** #include "kernel/plus_common.h"
2105:Middlewares/Third_Party/wolfSSL_wolfSSL_wolfSSL/wolfssl/wolfcrypt/src/random.c **** 
2106:Middlewares/Third_Party/wolfSSL_wolfSSL_wolfSSL/wolfssl/wolfcrypt/src/random.c **** #warning "potential for not enough entropy, currently being used for testing"
2107:Middlewares/Third_Party/wolfSSL_wolfSSL_wolfSSL/wolfssl/wolfcrypt/src/random.c **** int wc_GenerateSeed(OS_Seed* os, byte* output, word32 sz)
2108:Middlewares/Third_Party/wolfSSL_wolfSSL_wolfSSL/wolfssl/wolfcrypt/src/random.c **** {
2109:Middlewares/Third_Party/wolfSSL_wolfSSL_wolfSSL/wolfssl/wolfcrypt/src/random.c ****     int i;
2110:Middlewares/Third_Party/wolfSSL_wolfSSL_wolfSSL/wolfssl/wolfcrypt/src/random.c ****     srand(NU_Get_Time_Stamp());
2111:Middlewares/Third_Party/wolfSSL_wolfSSL_wolfSSL/wolfssl/wolfcrypt/src/random.c **** 
2112:Middlewares/Third_Party/wolfSSL_wolfSSL_wolfSSL/wolfssl/wolfcrypt/src/random.c ****     for (i = 0; i < sz; i++ ) {
2113:Middlewares/Third_Party/wolfSSL_wolfSSL_wolfSSL/wolfssl/wolfcrypt/src/random.c ****         output[i] = rand() % 256;
2114:Middlewares/Third_Party/wolfSSL_wolfSSL_wolfSSL/wolfssl/wolfcrypt/src/random.c ****         if ((i % 8) == 7) {
2115:Middlewares/Third_Party/wolfSSL_wolfSSL_wolfSSL/wolfssl/wolfcrypt/src/random.c ****             srand(NU_Get_Time_Stamp());
2116:Middlewares/Third_Party/wolfSSL_wolfSSL_wolfSSL/wolfssl/wolfcrypt/src/random.c ****         }
2117:Middlewares/Third_Party/wolfSSL_wolfSSL_wolfSSL/wolfssl/wolfcrypt/src/random.c ****     }
2118:Middlewares/Third_Party/wolfSSL_wolfSSL_wolfSSL/wolfssl/wolfcrypt/src/random.c **** 
2119:Middlewares/Third_Party/wolfSSL_wolfSSL_wolfSSL/wolfssl/wolfcrypt/src/random.c ****     return 0;
2120:Middlewares/Third_Party/wolfSSL_wolfSSL_wolfSSL/wolfssl/wolfcrypt/src/random.c **** }
2121:Middlewares/Third_Party/wolfSSL_wolfSSL_wolfSSL/wolfssl/wolfcrypt/src/random.c **** #elif defined(WOLFSSL_DEOS) && !defined(CUSTOM_RAND_GENERATE)
2122:Middlewares/Third_Party/wolfSSL_wolfSSL_wolfSSL/wolfssl/wolfcrypt/src/random.c ****     #include "stdlib.h"
2123:Middlewares/Third_Party/wolfSSL_wolfSSL_wolfSSL/wolfssl/wolfcrypt/src/random.c **** 
2124:Middlewares/Third_Party/wolfSSL_wolfSSL_wolfSSL/wolfssl/wolfcrypt/src/random.c ****     #warning "potential for not enough entropy, currently being used for testing Deos"
2125:Middlewares/Third_Party/wolfSSL_wolfSSL_wolfSSL/wolfssl/wolfcrypt/src/random.c ****     int wc_GenerateSeed(OS_Seed* os, byte* output, word32 sz)
2126:Middlewares/Third_Party/wolfSSL_wolfSSL_wolfSSL/wolfssl/wolfcrypt/src/random.c ****     {
2127:Middlewares/Third_Party/wolfSSL_wolfSSL_wolfSSL/wolfssl/wolfcrypt/src/random.c ****         int i;
2128:Middlewares/Third_Party/wolfSSL_wolfSSL_wolfSSL/wolfssl/wolfcrypt/src/random.c ****         int seed = XTIME(0);
2129:Middlewares/Third_Party/wolfSSL_wolfSSL_wolfSSL/wolfssl/wolfcrypt/src/random.c ****         (void)os;
2130:Middlewares/Third_Party/wolfSSL_wolfSSL_wolfSSL/wolfssl/wolfcrypt/src/random.c **** 
2131:Middlewares/Third_Party/wolfSSL_wolfSSL_wolfSSL/wolfssl/wolfcrypt/src/random.c ****         for (i = 0; i < sz; i++ ) {
2132:Middlewares/Third_Party/wolfSSL_wolfSSL_wolfSSL/wolfssl/wolfcrypt/src/random.c ****             output[i] = rand_r(&seed) % 256;
2133:Middlewares/Third_Party/wolfSSL_wolfSSL_wolfSSL/wolfssl/wolfcrypt/src/random.c ****             if ((i % 8) == 7) {
2134:Middlewares/Third_Party/wolfSSL_wolfSSL_wolfSSL/wolfssl/wolfcrypt/src/random.c ****                 seed = XTIME(0);
2135:Middlewares/Third_Party/wolfSSL_wolfSSL_wolfSSL/wolfssl/wolfcrypt/src/random.c ****                 rand_r(&seed);
2136:Middlewares/Third_Party/wolfSSL_wolfSSL_wolfSSL/wolfssl/wolfcrypt/src/random.c ****             }
2137:Middlewares/Third_Party/wolfSSL_wolfSSL_wolfSSL/wolfssl/wolfcrypt/src/random.c ****         }
ARM GAS  /tmp/cc09iKDl.s 			page 98


2138:Middlewares/Third_Party/wolfSSL_wolfSSL_wolfSSL/wolfssl/wolfcrypt/src/random.c **** 
2139:Middlewares/Third_Party/wolfSSL_wolfSSL_wolfSSL/wolfssl/wolfcrypt/src/random.c ****         return 0;
2140:Middlewares/Third_Party/wolfSSL_wolfSSL_wolfSSL/wolfssl/wolfcrypt/src/random.c ****     }
2141:Middlewares/Third_Party/wolfSSL_wolfSSL_wolfSSL/wolfssl/wolfcrypt/src/random.c **** #elif defined(WOLFSSL_VXWORKS)
2142:Middlewares/Third_Party/wolfSSL_wolfSSL_wolfSSL/wolfssl/wolfcrypt/src/random.c **** 
2143:Middlewares/Third_Party/wolfSSL_wolfSSL_wolfSSL/wolfssl/wolfcrypt/src/random.c ****     #include <randomNumGen.h>
2144:Middlewares/Third_Party/wolfSSL_wolfSSL_wolfSSL/wolfssl/wolfcrypt/src/random.c **** 
2145:Middlewares/Third_Party/wolfSSL_wolfSSL_wolfSSL/wolfssl/wolfcrypt/src/random.c ****     int wc_GenerateSeed(OS_Seed* os, byte* output, word32 sz) {
2146:Middlewares/Third_Party/wolfSSL_wolfSSL_wolfSSL/wolfssl/wolfcrypt/src/random.c ****         STATUS        status;
2147:Middlewares/Third_Party/wolfSSL_wolfSSL_wolfSSL/wolfssl/wolfcrypt/src/random.c **** 
2148:Middlewares/Third_Party/wolfSSL_wolfSSL_wolfSSL/wolfssl/wolfcrypt/src/random.c ****         #ifdef VXWORKS_SIM
2149:Middlewares/Third_Party/wolfSSL_wolfSSL_wolfSSL/wolfssl/wolfcrypt/src/random.c ****             /* cannot generate true entropy with VxWorks simulator */
2150:Middlewares/Third_Party/wolfSSL_wolfSSL_wolfSSL/wolfssl/wolfcrypt/src/random.c ****             #warning "not enough entropy, simulator for testing only"
2151:Middlewares/Third_Party/wolfSSL_wolfSSL_wolfSSL/wolfssl/wolfcrypt/src/random.c ****             int i = 0;
2152:Middlewares/Third_Party/wolfSSL_wolfSSL_wolfSSL/wolfssl/wolfcrypt/src/random.c **** 
2153:Middlewares/Third_Party/wolfSSL_wolfSSL_wolfSSL/wolfssl/wolfcrypt/src/random.c ****             for (i = 0; i < 1000; i++) {
2154:Middlewares/Third_Party/wolfSSL_wolfSSL_wolfSSL/wolfssl/wolfcrypt/src/random.c ****                 randomAddTimeStamp();
2155:Middlewares/Third_Party/wolfSSL_wolfSSL_wolfSSL/wolfssl/wolfcrypt/src/random.c ****             }
2156:Middlewares/Third_Party/wolfSSL_wolfSSL_wolfSSL/wolfssl/wolfcrypt/src/random.c ****         #endif
2157:Middlewares/Third_Party/wolfSSL_wolfSSL_wolfSSL/wolfssl/wolfcrypt/src/random.c **** 
2158:Middlewares/Third_Party/wolfSSL_wolfSSL_wolfSSL/wolfssl/wolfcrypt/src/random.c ****         status = randBytes (output, sz);
2159:Middlewares/Third_Party/wolfSSL_wolfSSL_wolfSSL/wolfssl/wolfcrypt/src/random.c ****         if (status == ERROR) {
2160:Middlewares/Third_Party/wolfSSL_wolfSSL_wolfSSL/wolfssl/wolfcrypt/src/random.c ****             return RNG_FAILURE_E;
2161:Middlewares/Third_Party/wolfSSL_wolfSSL_wolfSSL/wolfssl/wolfcrypt/src/random.c ****         }
2162:Middlewares/Third_Party/wolfSSL_wolfSSL_wolfSSL/wolfssl/wolfcrypt/src/random.c **** 
2163:Middlewares/Third_Party/wolfSSL_wolfSSL_wolfSSL/wolfssl/wolfcrypt/src/random.c ****         return 0;
2164:Middlewares/Third_Party/wolfSSL_wolfSSL_wolfSSL/wolfssl/wolfcrypt/src/random.c ****     }
2165:Middlewares/Third_Party/wolfSSL_wolfSSL_wolfSSL/wolfssl/wolfcrypt/src/random.c **** 
2166:Middlewares/Third_Party/wolfSSL_wolfSSL_wolfSSL/wolfssl/wolfcrypt/src/random.c **** #elif defined(WOLFSSL_NRF51) || defined(WOLFSSL_NRF5x)
2167:Middlewares/Third_Party/wolfSSL_wolfSSL_wolfSSL/wolfssl/wolfcrypt/src/random.c ****     #include "app_error.h"
2168:Middlewares/Third_Party/wolfSSL_wolfSSL_wolfSSL/wolfssl/wolfcrypt/src/random.c ****     #include "nrf_drv_rng.h"
2169:Middlewares/Third_Party/wolfSSL_wolfSSL_wolfSSL/wolfssl/wolfcrypt/src/random.c ****     int wc_GenerateSeed(OS_Seed* os, byte* output, word32 sz)
2170:Middlewares/Third_Party/wolfSSL_wolfSSL_wolfSSL/wolfssl/wolfcrypt/src/random.c ****     {
2171:Middlewares/Third_Party/wolfSSL_wolfSSL_wolfSSL/wolfssl/wolfcrypt/src/random.c ****         int remaining = sz, length, pos = 0;
2172:Middlewares/Third_Party/wolfSSL_wolfSSL_wolfSSL/wolfssl/wolfcrypt/src/random.c ****         word32 err_code;
2173:Middlewares/Third_Party/wolfSSL_wolfSSL_wolfSSL/wolfssl/wolfcrypt/src/random.c ****         byte available;
2174:Middlewares/Third_Party/wolfSSL_wolfSSL_wolfSSL/wolfssl/wolfcrypt/src/random.c ****         static byte initialized = 0;
2175:Middlewares/Third_Party/wolfSSL_wolfSSL_wolfSSL/wolfssl/wolfcrypt/src/random.c **** 
2176:Middlewares/Third_Party/wolfSSL_wolfSSL_wolfSSL/wolfssl/wolfcrypt/src/random.c ****         (void)os;
2177:Middlewares/Third_Party/wolfSSL_wolfSSL_wolfSSL/wolfssl/wolfcrypt/src/random.c **** 
2178:Middlewares/Third_Party/wolfSSL_wolfSSL_wolfSSL/wolfssl/wolfcrypt/src/random.c ****         /* Make sure RNG is running */
2179:Middlewares/Third_Party/wolfSSL_wolfSSL_wolfSSL/wolfssl/wolfcrypt/src/random.c ****         if (!initialized) {
2180:Middlewares/Third_Party/wolfSSL_wolfSSL_wolfSSL/wolfssl/wolfcrypt/src/random.c ****             err_code = nrf_drv_rng_init(NULL);
2181:Middlewares/Third_Party/wolfSSL_wolfSSL_wolfSSL/wolfssl/wolfcrypt/src/random.c ****             if (err_code != NRF_SUCCESS && err_code != NRF_ERROR_INVALID_STATE
2182:Middlewares/Third_Party/wolfSSL_wolfSSL_wolfSSL/wolfssl/wolfcrypt/src/random.c ****             #ifdef NRF_ERROR_MODULE_ALREADY_INITIALIZED
2183:Middlewares/Third_Party/wolfSSL_wolfSSL_wolfSSL/wolfssl/wolfcrypt/src/random.c ****                 && err_code != NRF_ERROR_MODULE_ALREADY_INITIALIZED
2184:Middlewares/Third_Party/wolfSSL_wolfSSL_wolfSSL/wolfssl/wolfcrypt/src/random.c ****             #endif
2185:Middlewares/Third_Party/wolfSSL_wolfSSL_wolfSSL/wolfssl/wolfcrypt/src/random.c ****             ) {
2186:Middlewares/Third_Party/wolfSSL_wolfSSL_wolfSSL/wolfssl/wolfcrypt/src/random.c ****                 return -1;
2187:Middlewares/Third_Party/wolfSSL_wolfSSL_wolfSSL/wolfssl/wolfcrypt/src/random.c ****             }
2188:Middlewares/Third_Party/wolfSSL_wolfSSL_wolfSSL/wolfssl/wolfcrypt/src/random.c ****             initialized = 1;
2189:Middlewares/Third_Party/wolfSSL_wolfSSL_wolfSSL/wolfssl/wolfcrypt/src/random.c ****         }
2190:Middlewares/Third_Party/wolfSSL_wolfSSL_wolfSSL/wolfssl/wolfcrypt/src/random.c **** 
2191:Middlewares/Third_Party/wolfSSL_wolfSSL_wolfSSL/wolfssl/wolfcrypt/src/random.c ****         while (remaining > 0) {
2192:Middlewares/Third_Party/wolfSSL_wolfSSL_wolfSSL/wolfssl/wolfcrypt/src/random.c ****             available = 0;
2193:Middlewares/Third_Party/wolfSSL_wolfSSL_wolfSSL/wolfssl/wolfcrypt/src/random.c ****             nrf_drv_rng_bytes_available(&available); /* void func */
2194:Middlewares/Third_Party/wolfSSL_wolfSSL_wolfSSL/wolfssl/wolfcrypt/src/random.c ****             length = (remaining < available) ? remaining : available;
ARM GAS  /tmp/cc09iKDl.s 			page 99


2195:Middlewares/Third_Party/wolfSSL_wolfSSL_wolfSSL/wolfssl/wolfcrypt/src/random.c ****             if (length > 0) {
2196:Middlewares/Third_Party/wolfSSL_wolfSSL_wolfSSL/wolfssl/wolfcrypt/src/random.c ****                 err_code = nrf_drv_rng_rand(&output[pos], length);
2197:Middlewares/Third_Party/wolfSSL_wolfSSL_wolfSSL/wolfssl/wolfcrypt/src/random.c ****                 if (err_code != NRF_SUCCESS) {
2198:Middlewares/Third_Party/wolfSSL_wolfSSL_wolfSSL/wolfssl/wolfcrypt/src/random.c ****                     break;
2199:Middlewares/Third_Party/wolfSSL_wolfSSL_wolfSSL/wolfssl/wolfcrypt/src/random.c ****                 }
2200:Middlewares/Third_Party/wolfSSL_wolfSSL_wolfSSL/wolfssl/wolfcrypt/src/random.c ****                 remaining -= length;
2201:Middlewares/Third_Party/wolfSSL_wolfSSL_wolfSSL/wolfssl/wolfcrypt/src/random.c ****                 pos += length;
2202:Middlewares/Third_Party/wolfSSL_wolfSSL_wolfSSL/wolfssl/wolfcrypt/src/random.c ****             }
2203:Middlewares/Third_Party/wolfSSL_wolfSSL_wolfSSL/wolfssl/wolfcrypt/src/random.c ****         }
2204:Middlewares/Third_Party/wolfSSL_wolfSSL_wolfSSL/wolfssl/wolfcrypt/src/random.c **** 
2205:Middlewares/Third_Party/wolfSSL_wolfSSL_wolfSSL/wolfssl/wolfcrypt/src/random.c ****         return (err_code == NRF_SUCCESS) ? 0 : -1;
2206:Middlewares/Third_Party/wolfSSL_wolfSSL_wolfSSL/wolfssl/wolfcrypt/src/random.c ****     }
2207:Middlewares/Third_Party/wolfSSL_wolfSSL_wolfSSL/wolfssl/wolfcrypt/src/random.c **** 
2208:Middlewares/Third_Party/wolfSSL_wolfSSL_wolfSSL/wolfssl/wolfcrypt/src/random.c **** #elif defined(HAVE_WNR)
2209:Middlewares/Third_Party/wolfSSL_wolfSSL_wolfSSL/wolfssl/wolfcrypt/src/random.c **** 
2210:Middlewares/Third_Party/wolfSSL_wolfSSL_wolfSSL/wolfssl/wolfcrypt/src/random.c ****     int wc_GenerateSeed(OS_Seed* os, byte* output, word32 sz)
2211:Middlewares/Third_Party/wolfSSL_wolfSSL_wolfSSL/wolfssl/wolfcrypt/src/random.c ****     {
2212:Middlewares/Third_Party/wolfSSL_wolfSSL_wolfSSL/wolfssl/wolfcrypt/src/random.c ****         if (os == NULL || output == NULL || wnr_ctx == NULL ||
2213:Middlewares/Third_Party/wolfSSL_wolfSSL_wolfSSL/wolfssl/wolfcrypt/src/random.c ****                 wnr_timeout < 0) {
2214:Middlewares/Third_Party/wolfSSL_wolfSSL_wolfSSL/wolfssl/wolfcrypt/src/random.c ****             return BAD_FUNC_ARG;
2215:Middlewares/Third_Party/wolfSSL_wolfSSL_wolfSSL/wolfssl/wolfcrypt/src/random.c ****         }
2216:Middlewares/Third_Party/wolfSSL_wolfSSL_wolfSSL/wolfssl/wolfcrypt/src/random.c **** 
2217:Middlewares/Third_Party/wolfSSL_wolfSSL_wolfSSL/wolfssl/wolfcrypt/src/random.c ****         if (wnr_mutex_init == 0) {
2218:Middlewares/Third_Party/wolfSSL_wolfSSL_wolfSSL/wolfssl/wolfcrypt/src/random.c ****             WOLFSSL_MSG("netRandom context must be created before use");
2219:Middlewares/Third_Party/wolfSSL_wolfSSL_wolfSSL/wolfssl/wolfcrypt/src/random.c ****             return RNG_FAILURE_E;
2220:Middlewares/Third_Party/wolfSSL_wolfSSL_wolfSSL/wolfssl/wolfcrypt/src/random.c ****         }
2221:Middlewares/Third_Party/wolfSSL_wolfSSL_wolfSSL/wolfssl/wolfcrypt/src/random.c **** 
2222:Middlewares/Third_Party/wolfSSL_wolfSSL_wolfSSL/wolfssl/wolfcrypt/src/random.c ****         if (wc_LockMutex(&wnr_mutex) != 0) {
2223:Middlewares/Third_Party/wolfSSL_wolfSSL_wolfSSL/wolfssl/wolfcrypt/src/random.c ****             WOLFSSL_MSG("Bad Lock Mutex wnr_mutex\n");
2224:Middlewares/Third_Party/wolfSSL_wolfSSL_wolfSSL/wolfssl/wolfcrypt/src/random.c ****             return BAD_MUTEX_E;
2225:Middlewares/Third_Party/wolfSSL_wolfSSL_wolfSSL/wolfssl/wolfcrypt/src/random.c ****         }
2226:Middlewares/Third_Party/wolfSSL_wolfSSL_wolfSSL/wolfssl/wolfcrypt/src/random.c **** 
2227:Middlewares/Third_Party/wolfSSL_wolfSSL_wolfSSL/wolfssl/wolfcrypt/src/random.c ****         if (wnr_get_entropy(wnr_ctx, wnr_timeout, output, sz, sz) !=
2228:Middlewares/Third_Party/wolfSSL_wolfSSL_wolfSSL/wolfssl/wolfcrypt/src/random.c ****                 WNR_ERROR_NONE)
2229:Middlewares/Third_Party/wolfSSL_wolfSSL_wolfSSL/wolfssl/wolfcrypt/src/random.c ****             return RNG_FAILURE_E;
2230:Middlewares/Third_Party/wolfSSL_wolfSSL_wolfSSL/wolfssl/wolfcrypt/src/random.c **** 
2231:Middlewares/Third_Party/wolfSSL_wolfSSL_wolfSSL/wolfssl/wolfcrypt/src/random.c ****         wc_UnLockMutex(&wnr_mutex);
2232:Middlewares/Third_Party/wolfSSL_wolfSSL_wolfSSL/wolfssl/wolfcrypt/src/random.c **** 
2233:Middlewares/Third_Party/wolfSSL_wolfSSL_wolfSSL/wolfssl/wolfcrypt/src/random.c ****         return 0;
2234:Middlewares/Third_Party/wolfSSL_wolfSSL_wolfSSL/wolfssl/wolfcrypt/src/random.c ****     }
2235:Middlewares/Third_Party/wolfSSL_wolfSSL_wolfSSL/wolfssl/wolfcrypt/src/random.c **** 
2236:Middlewares/Third_Party/wolfSSL_wolfSSL_wolfSSL/wolfssl/wolfcrypt/src/random.c **** #elif defined(INTIME_RTOS)
2237:Middlewares/Third_Party/wolfSSL_wolfSSL_wolfSSL/wolfssl/wolfcrypt/src/random.c ****     int wc_GenerateSeed(OS_Seed* os, byte* output, word32 sz)
2238:Middlewares/Third_Party/wolfSSL_wolfSSL_wolfSSL/wolfssl/wolfcrypt/src/random.c ****     {
2239:Middlewares/Third_Party/wolfSSL_wolfSSL_wolfSSL/wolfssl/wolfcrypt/src/random.c ****         int ret = 0;
2240:Middlewares/Third_Party/wolfSSL_wolfSSL_wolfSSL/wolfssl/wolfcrypt/src/random.c **** 
2241:Middlewares/Third_Party/wolfSSL_wolfSSL_wolfSSL/wolfssl/wolfcrypt/src/random.c ****         (void)os;
2242:Middlewares/Third_Party/wolfSSL_wolfSSL_wolfSSL/wolfssl/wolfcrypt/src/random.c **** 
2243:Middlewares/Third_Party/wolfSSL_wolfSSL_wolfSSL/wolfssl/wolfcrypt/src/random.c ****         if (output == NULL) {
2244:Middlewares/Third_Party/wolfSSL_wolfSSL_wolfSSL/wolfssl/wolfcrypt/src/random.c ****             return BUFFER_E;
2245:Middlewares/Third_Party/wolfSSL_wolfSSL_wolfSSL/wolfssl/wolfcrypt/src/random.c ****         }
2246:Middlewares/Third_Party/wolfSSL_wolfSSL_wolfSSL/wolfssl/wolfcrypt/src/random.c **** 
2247:Middlewares/Third_Party/wolfSSL_wolfSSL_wolfSSL/wolfssl/wolfcrypt/src/random.c ****         /* Note: Investigate better solution */
2248:Middlewares/Third_Party/wolfSSL_wolfSSL_wolfSSL/wolfssl/wolfcrypt/src/random.c ****         /* no return to check */
2249:Middlewares/Third_Party/wolfSSL_wolfSSL_wolfSSL/wolfssl/wolfcrypt/src/random.c ****         arc4random_buf(output, sz);
2250:Middlewares/Third_Party/wolfSSL_wolfSSL_wolfSSL/wolfssl/wolfcrypt/src/random.c **** 
2251:Middlewares/Third_Party/wolfSSL_wolfSSL_wolfSSL/wolfssl/wolfcrypt/src/random.c ****         return ret;
ARM GAS  /tmp/cc09iKDl.s 			page 100


2252:Middlewares/Third_Party/wolfSSL_wolfSSL_wolfSSL/wolfssl/wolfcrypt/src/random.c ****     }
2253:Middlewares/Third_Party/wolfSSL_wolfSSL_wolfSSL/wolfssl/wolfcrypt/src/random.c **** 
2254:Middlewares/Third_Party/wolfSSL_wolfSSL_wolfSSL/wolfssl/wolfcrypt/src/random.c **** #elif defined(WOLFSSL_WICED)
2255:Middlewares/Third_Party/wolfSSL_wolfSSL_wolfSSL/wolfssl/wolfcrypt/src/random.c ****     int wc_GenerateSeed(OS_Seed* os, byte* output, word32 sz)
2256:Middlewares/Third_Party/wolfSSL_wolfSSL_wolfSSL/wolfssl/wolfcrypt/src/random.c ****     {
2257:Middlewares/Third_Party/wolfSSL_wolfSSL_wolfSSL/wolfssl/wolfcrypt/src/random.c ****         int ret;
2258:Middlewares/Third_Party/wolfSSL_wolfSSL_wolfSSL/wolfssl/wolfcrypt/src/random.c ****         (void)os;
2259:Middlewares/Third_Party/wolfSSL_wolfSSL_wolfSSL/wolfssl/wolfcrypt/src/random.c **** 
2260:Middlewares/Third_Party/wolfSSL_wolfSSL_wolfSSL/wolfssl/wolfcrypt/src/random.c ****         if (output == NULL || UINT16_MAX < sz) {
2261:Middlewares/Third_Party/wolfSSL_wolfSSL_wolfSSL/wolfssl/wolfcrypt/src/random.c ****             return BUFFER_E;
2262:Middlewares/Third_Party/wolfSSL_wolfSSL_wolfSSL/wolfssl/wolfcrypt/src/random.c ****         }
2263:Middlewares/Third_Party/wolfSSL_wolfSSL_wolfSSL/wolfssl/wolfcrypt/src/random.c **** 
2264:Middlewares/Third_Party/wolfSSL_wolfSSL_wolfSSL/wolfssl/wolfcrypt/src/random.c ****         if ((ret = wiced_crypto_get_random((void*) output, sz) )
2265:Middlewares/Third_Party/wolfSSL_wolfSSL_wolfSSL/wolfssl/wolfcrypt/src/random.c ****                          != WICED_SUCCESS) {
2266:Middlewares/Third_Party/wolfSSL_wolfSSL_wolfSSL/wolfssl/wolfcrypt/src/random.c ****             return ret;
2267:Middlewares/Third_Party/wolfSSL_wolfSSL_wolfSSL/wolfssl/wolfcrypt/src/random.c ****         }
2268:Middlewares/Third_Party/wolfSSL_wolfSSL_wolfSSL/wolfssl/wolfcrypt/src/random.c **** 
2269:Middlewares/Third_Party/wolfSSL_wolfSSL_wolfSSL/wolfssl/wolfcrypt/src/random.c ****         return ret;
2270:Middlewares/Third_Party/wolfSSL_wolfSSL_wolfSSL/wolfssl/wolfcrypt/src/random.c ****     }
2271:Middlewares/Third_Party/wolfSSL_wolfSSL_wolfSSL/wolfssl/wolfcrypt/src/random.c **** 
2272:Middlewares/Third_Party/wolfSSL_wolfSSL_wolfSSL/wolfssl/wolfcrypt/src/random.c **** #elif defined(WOLFSSL_NETBURNER)
2273:Middlewares/Third_Party/wolfSSL_wolfSSL_wolfSSL/wolfssl/wolfcrypt/src/random.c ****     #warning using NetBurner pseudo random GetRandomByte for seed
2274:Middlewares/Third_Party/wolfSSL_wolfSSL_wolfSSL/wolfssl/wolfcrypt/src/random.c ****     int wc_GenerateSeed(OS_Seed* os, byte* output, word32 sz)
2275:Middlewares/Third_Party/wolfSSL_wolfSSL_wolfSSL/wolfssl/wolfcrypt/src/random.c ****     {
2276:Middlewares/Third_Party/wolfSSL_wolfSSL_wolfSSL/wolfssl/wolfcrypt/src/random.c ****         word32 i;
2277:Middlewares/Third_Party/wolfSSL_wolfSSL_wolfSSL/wolfssl/wolfcrypt/src/random.c ****         (void)os;
2278:Middlewares/Third_Party/wolfSSL_wolfSSL_wolfSSL/wolfssl/wolfcrypt/src/random.c **** 
2279:Middlewares/Third_Party/wolfSSL_wolfSSL_wolfSSL/wolfssl/wolfcrypt/src/random.c ****         if (output == NULL) {
2280:Middlewares/Third_Party/wolfSSL_wolfSSL_wolfSSL/wolfssl/wolfcrypt/src/random.c ****             return BUFFER_E;
2281:Middlewares/Third_Party/wolfSSL_wolfSSL_wolfSSL/wolfssl/wolfcrypt/src/random.c ****         }
2282:Middlewares/Third_Party/wolfSSL_wolfSSL_wolfSSL/wolfssl/wolfcrypt/src/random.c **** 
2283:Middlewares/Third_Party/wolfSSL_wolfSSL_wolfSSL/wolfssl/wolfcrypt/src/random.c ****         for (i = 0; i < sz; i++) {
2284:Middlewares/Third_Party/wolfSSL_wolfSSL_wolfSSL/wolfssl/wolfcrypt/src/random.c ****             output[i] = GetRandomByte();
2285:Middlewares/Third_Party/wolfSSL_wolfSSL_wolfSSL/wolfssl/wolfcrypt/src/random.c **** 
2286:Middlewares/Third_Party/wolfSSL_wolfSSL_wolfSSL/wolfssl/wolfcrypt/src/random.c ****             /* check if was a valid random number */
2287:Middlewares/Third_Party/wolfSSL_wolfSSL_wolfSSL/wolfssl/wolfcrypt/src/random.c ****             if (!RandomValid())
2288:Middlewares/Third_Party/wolfSSL_wolfSSL_wolfSSL/wolfssl/wolfcrypt/src/random.c ****                 return RNG_FAILURE_E;
2289:Middlewares/Third_Party/wolfSSL_wolfSSL_wolfSSL/wolfssl/wolfcrypt/src/random.c ****         }
2290:Middlewares/Third_Party/wolfSSL_wolfSSL_wolfSSL/wolfssl/wolfcrypt/src/random.c **** 
2291:Middlewares/Third_Party/wolfSSL_wolfSSL_wolfSSL/wolfssl/wolfcrypt/src/random.c ****         return 0;
2292:Middlewares/Third_Party/wolfSSL_wolfSSL_wolfSSL/wolfssl/wolfcrypt/src/random.c ****     }
2293:Middlewares/Third_Party/wolfSSL_wolfSSL_wolfSSL/wolfssl/wolfcrypt/src/random.c **** #elif defined(IDIRECT_DEV_RANDOM)
2294:Middlewares/Third_Party/wolfSSL_wolfSSL_wolfSSL/wolfssl/wolfcrypt/src/random.c **** 
2295:Middlewares/Third_Party/wolfSSL_wolfSSL_wolfSSL/wolfssl/wolfcrypt/src/random.c ****     extern int getRandom( int sz, unsigned char *output );
2296:Middlewares/Third_Party/wolfSSL_wolfSSL_wolfSSL/wolfssl/wolfcrypt/src/random.c **** 
2297:Middlewares/Third_Party/wolfSSL_wolfSSL_wolfSSL/wolfssl/wolfcrypt/src/random.c ****     int GenerateSeed(OS_Seed* os, byte* output, word32 sz)
2298:Middlewares/Third_Party/wolfSSL_wolfSSL_wolfSSL/wolfssl/wolfcrypt/src/random.c ****     {
2299:Middlewares/Third_Party/wolfSSL_wolfSSL_wolfSSL/wolfssl/wolfcrypt/src/random.c ****         int num_bytes_returned = 0;
2300:Middlewares/Third_Party/wolfSSL_wolfSSL_wolfSSL/wolfssl/wolfcrypt/src/random.c **** 
2301:Middlewares/Third_Party/wolfSSL_wolfSSL_wolfSSL/wolfssl/wolfcrypt/src/random.c ****         num_bytes_returned = getRandom( (int) sz, (unsigned char *) output );
2302:Middlewares/Third_Party/wolfSSL_wolfSSL_wolfSSL/wolfssl/wolfcrypt/src/random.c **** 
2303:Middlewares/Third_Party/wolfSSL_wolfSSL_wolfSSL/wolfssl/wolfcrypt/src/random.c ****         return 0;
2304:Middlewares/Third_Party/wolfSSL_wolfSSL_wolfSSL/wolfssl/wolfcrypt/src/random.c ****     }
2305:Middlewares/Third_Party/wolfSSL_wolfSSL_wolfSSL/wolfssl/wolfcrypt/src/random.c **** 
2306:Middlewares/Third_Party/wolfSSL_wolfSSL_wolfSSL/wolfssl/wolfcrypt/src/random.c **** #elif (defined(WOLFSSL_IMX6_CAAM) || defined(WOLFSSL_IMX6_CAAM_RNG))
2307:Middlewares/Third_Party/wolfSSL_wolfSSL_wolfSSL/wolfssl/wolfcrypt/src/random.c **** 
2308:Middlewares/Third_Party/wolfSSL_wolfSSL_wolfSSL/wolfssl/wolfcrypt/src/random.c ****     #include <wolfssl/wolfcrypt/port/caam/wolfcaam.h>
ARM GAS  /tmp/cc09iKDl.s 			page 101


2309:Middlewares/Third_Party/wolfSSL_wolfSSL_wolfSSL/wolfssl/wolfcrypt/src/random.c ****     #include <wolfssl/wolfcrypt/port/caam/caam_driver.h>
2310:Middlewares/Third_Party/wolfSSL_wolfSSL_wolfSSL/wolfssl/wolfcrypt/src/random.c **** 
2311:Middlewares/Third_Party/wolfSSL_wolfSSL_wolfSSL/wolfssl/wolfcrypt/src/random.c ****     int wc_GenerateSeed(OS_Seed* os, byte* output, word32 sz)
2312:Middlewares/Third_Party/wolfSSL_wolfSSL_wolfSSL/wolfssl/wolfcrypt/src/random.c ****     {
2313:Middlewares/Third_Party/wolfSSL_wolfSSL_wolfSSL/wolfssl/wolfcrypt/src/random.c ****         Buffer buf[1];
2314:Middlewares/Third_Party/wolfSSL_wolfSSL_wolfSSL/wolfssl/wolfcrypt/src/random.c ****         int ret  = 0;
2315:Middlewares/Third_Party/wolfSSL_wolfSSL_wolfSSL/wolfssl/wolfcrypt/src/random.c ****         int times = 1000, i;
2316:Middlewares/Third_Party/wolfSSL_wolfSSL_wolfSSL/wolfssl/wolfcrypt/src/random.c **** 
2317:Middlewares/Third_Party/wolfSSL_wolfSSL_wolfSSL/wolfssl/wolfcrypt/src/random.c ****         (void)os;
2318:Middlewares/Third_Party/wolfSSL_wolfSSL_wolfSSL/wolfssl/wolfcrypt/src/random.c **** 
2319:Middlewares/Third_Party/wolfSSL_wolfSSL_wolfSSL/wolfssl/wolfcrypt/src/random.c ****         if (output == NULL) {
2320:Middlewares/Third_Party/wolfSSL_wolfSSL_wolfSSL/wolfssl/wolfcrypt/src/random.c ****             return BUFFER_E;
2321:Middlewares/Third_Party/wolfSSL_wolfSSL_wolfSSL/wolfssl/wolfcrypt/src/random.c ****         }
2322:Middlewares/Third_Party/wolfSSL_wolfSSL_wolfSSL/wolfssl/wolfcrypt/src/random.c **** 
2323:Middlewares/Third_Party/wolfSSL_wolfSSL_wolfSSL/wolfssl/wolfcrypt/src/random.c ****         buf[0].BufferType = DataBuffer | LastBuffer;
2324:Middlewares/Third_Party/wolfSSL_wolfSSL_wolfSSL/wolfssl/wolfcrypt/src/random.c ****         buf[0].TheAddress = (Address)output;
2325:Middlewares/Third_Party/wolfSSL_wolfSSL_wolfSSL/wolfssl/wolfcrypt/src/random.c ****         buf[0].Length     = sz;
2326:Middlewares/Third_Party/wolfSSL_wolfSSL_wolfSSL/wolfssl/wolfcrypt/src/random.c **** 
2327:Middlewares/Third_Party/wolfSSL_wolfSSL_wolfSSL/wolfssl/wolfcrypt/src/random.c ****         /* Check Waiting to make sure entropy is ready */
2328:Middlewares/Third_Party/wolfSSL_wolfSSL_wolfSSL/wolfssl/wolfcrypt/src/random.c ****         for (i = 0; i < times; i++) {
2329:Middlewares/Third_Party/wolfSSL_wolfSSL_wolfSSL/wolfssl/wolfcrypt/src/random.c ****             ret = wc_caamAddAndWait(buf, NULL, CAAM_ENTROPY);
2330:Middlewares/Third_Party/wolfSSL_wolfSSL_wolfSSL/wolfssl/wolfcrypt/src/random.c ****             if (ret == Success) {
2331:Middlewares/Third_Party/wolfSSL_wolfSSL_wolfSSL/wolfssl/wolfcrypt/src/random.c ****                 break;
2332:Middlewares/Third_Party/wolfSSL_wolfSSL_wolfSSL/wolfssl/wolfcrypt/src/random.c ****             }
2333:Middlewares/Third_Party/wolfSSL_wolfSSL_wolfSSL/wolfssl/wolfcrypt/src/random.c **** 
2334:Middlewares/Third_Party/wolfSSL_wolfSSL_wolfSSL/wolfssl/wolfcrypt/src/random.c ****             /* driver could be waiting for entropy */
2335:Middlewares/Third_Party/wolfSSL_wolfSSL_wolfSSL/wolfssl/wolfcrypt/src/random.c ****             if (ret != RAN_BLOCK_E) {
2336:Middlewares/Third_Party/wolfSSL_wolfSSL_wolfSSL/wolfssl/wolfcrypt/src/random.c ****                 return ret;
2337:Middlewares/Third_Party/wolfSSL_wolfSSL_wolfSSL/wolfssl/wolfcrypt/src/random.c ****             }
2338:Middlewares/Third_Party/wolfSSL_wolfSSL_wolfSSL/wolfssl/wolfcrypt/src/random.c ****             usleep(100);
2339:Middlewares/Third_Party/wolfSSL_wolfSSL_wolfSSL/wolfssl/wolfcrypt/src/random.c ****         }
2340:Middlewares/Third_Party/wolfSSL_wolfSSL_wolfSSL/wolfssl/wolfcrypt/src/random.c **** 
2341:Middlewares/Third_Party/wolfSSL_wolfSSL_wolfSSL/wolfssl/wolfcrypt/src/random.c ****         if (i == times && ret != Success) {
2342:Middlewares/Third_Party/wolfSSL_wolfSSL_wolfSSL/wolfssl/wolfcrypt/src/random.c ****              return RNG_FAILURE_E;
2343:Middlewares/Third_Party/wolfSSL_wolfSSL_wolfSSL/wolfssl/wolfcrypt/src/random.c ****         }
2344:Middlewares/Third_Party/wolfSSL_wolfSSL_wolfSSL/wolfssl/wolfcrypt/src/random.c ****         else { /* Success case */
2345:Middlewares/Third_Party/wolfSSL_wolfSSL_wolfSSL/wolfssl/wolfcrypt/src/random.c ****             ret = 0;
2346:Middlewares/Third_Party/wolfSSL_wolfSSL_wolfSSL/wolfssl/wolfcrypt/src/random.c ****         }
2347:Middlewares/Third_Party/wolfSSL_wolfSSL_wolfSSL/wolfssl/wolfcrypt/src/random.c **** 
2348:Middlewares/Third_Party/wolfSSL_wolfSSL_wolfSSL/wolfssl/wolfcrypt/src/random.c ****         return ret;
2349:Middlewares/Third_Party/wolfSSL_wolfSSL_wolfSSL/wolfssl/wolfcrypt/src/random.c ****     }
2350:Middlewares/Third_Party/wolfSSL_wolfSSL_wolfSSL/wolfssl/wolfcrypt/src/random.c **** 
2351:Middlewares/Third_Party/wolfSSL_wolfSSL_wolfSSL/wolfssl/wolfcrypt/src/random.c **** #elif defined(WOLFSSL_APACHE_MYNEWT)
2352:Middlewares/Third_Party/wolfSSL_wolfSSL_wolfSSL/wolfssl/wolfcrypt/src/random.c **** 
2353:Middlewares/Third_Party/wolfSSL_wolfSSL_wolfSSL/wolfssl/wolfcrypt/src/random.c ****     #include <stdlib.h>
2354:Middlewares/Third_Party/wolfSSL_wolfSSL_wolfSSL/wolfssl/wolfcrypt/src/random.c ****     #include "os/os_time.h"
2355:Middlewares/Third_Party/wolfSSL_wolfSSL_wolfSSL/wolfssl/wolfcrypt/src/random.c ****     int wc_GenerateSeed(OS_Seed* os, byte* output, word32 sz)
2356:Middlewares/Third_Party/wolfSSL_wolfSSL_wolfSSL/wolfssl/wolfcrypt/src/random.c ****     {
2357:Middlewares/Third_Party/wolfSSL_wolfSSL_wolfSSL/wolfssl/wolfcrypt/src/random.c ****         int i;
2358:Middlewares/Third_Party/wolfSSL_wolfSSL_wolfSSL/wolfssl/wolfcrypt/src/random.c ****         srand(os_time_get());
2359:Middlewares/Third_Party/wolfSSL_wolfSSL_wolfSSL/wolfssl/wolfcrypt/src/random.c **** 
2360:Middlewares/Third_Party/wolfSSL_wolfSSL_wolfSSL/wolfssl/wolfcrypt/src/random.c ****         for (i = 0; i < sz; i++ ) {
2361:Middlewares/Third_Party/wolfSSL_wolfSSL_wolfSSL/wolfssl/wolfcrypt/src/random.c ****             output[i] = rand() % 256;
2362:Middlewares/Third_Party/wolfSSL_wolfSSL_wolfSSL/wolfssl/wolfcrypt/src/random.c ****             if ((i % 8) == 7) {
2363:Middlewares/Third_Party/wolfSSL_wolfSSL_wolfSSL/wolfssl/wolfcrypt/src/random.c ****                 srand(os_time_get());
2364:Middlewares/Third_Party/wolfSSL_wolfSSL_wolfSSL/wolfssl/wolfcrypt/src/random.c ****             }
2365:Middlewares/Third_Party/wolfSSL_wolfSSL_wolfSSL/wolfssl/wolfcrypt/src/random.c ****         }
ARM GAS  /tmp/cc09iKDl.s 			page 102


2366:Middlewares/Third_Party/wolfSSL_wolfSSL_wolfSSL/wolfssl/wolfcrypt/src/random.c **** 
2367:Middlewares/Third_Party/wolfSSL_wolfSSL_wolfSSL/wolfssl/wolfcrypt/src/random.c ****         return 0;
2368:Middlewares/Third_Party/wolfSSL_wolfSSL_wolfSSL/wolfssl/wolfcrypt/src/random.c ****     }
2369:Middlewares/Third_Party/wolfSSL_wolfSSL_wolfSSL/wolfssl/wolfcrypt/src/random.c **** 
2370:Middlewares/Third_Party/wolfSSL_wolfSSL_wolfSSL/wolfssl/wolfcrypt/src/random.c **** #elif defined(WOLFSSL_ESPIDF)
2371:Middlewares/Third_Party/wolfSSL_wolfSSL_wolfSSL/wolfssl/wolfcrypt/src/random.c ****     #if defined(WOLFSSL_ESPWROOM32) || defined(WOLFSSL_ESPWROOM32SE)
2372:Middlewares/Third_Party/wolfSSL_wolfSSL_wolfSSL/wolfssl/wolfcrypt/src/random.c ****         #include <esp_system.h>
2373:Middlewares/Third_Party/wolfSSL_wolfSSL_wolfSSL/wolfssl/wolfcrypt/src/random.c **** 
2374:Middlewares/Third_Party/wolfSSL_wolfSSL_wolfSSL/wolfssl/wolfcrypt/src/random.c ****         int wc_GenerateSeed(OS_Seed* os, byte* output, word32 sz)
2375:Middlewares/Third_Party/wolfSSL_wolfSSL_wolfSSL/wolfssl/wolfcrypt/src/random.c ****         {
2376:Middlewares/Third_Party/wolfSSL_wolfSSL_wolfSSL/wolfssl/wolfcrypt/src/random.c ****             word32 rand;
2377:Middlewares/Third_Party/wolfSSL_wolfSSL_wolfSSL/wolfssl/wolfcrypt/src/random.c ****             while (sz > 0) {
2378:Middlewares/Third_Party/wolfSSL_wolfSSL_wolfSSL/wolfssl/wolfcrypt/src/random.c ****                 word32 len = sizeof(rand);
2379:Middlewares/Third_Party/wolfSSL_wolfSSL_wolfSSL/wolfssl/wolfcrypt/src/random.c ****                 if (sz < len)
2380:Middlewares/Third_Party/wolfSSL_wolfSSL_wolfSSL/wolfssl/wolfcrypt/src/random.c ****                     len = sz;
2381:Middlewares/Third_Party/wolfSSL_wolfSSL_wolfSSL/wolfssl/wolfcrypt/src/random.c ****                 /* Get one random 32-bit word from hw RNG */
2382:Middlewares/Third_Party/wolfSSL_wolfSSL_wolfSSL/wolfssl/wolfcrypt/src/random.c ****                 rand = esp_random( );
2383:Middlewares/Third_Party/wolfSSL_wolfSSL_wolfSSL/wolfssl/wolfcrypt/src/random.c ****                 XMEMCPY(output, &rand, len);
2384:Middlewares/Third_Party/wolfSSL_wolfSSL_wolfSSL/wolfssl/wolfcrypt/src/random.c ****                 output += len;
2385:Middlewares/Third_Party/wolfSSL_wolfSSL_wolfSSL/wolfssl/wolfcrypt/src/random.c ****                 sz -= len;
2386:Middlewares/Third_Party/wolfSSL_wolfSSL_wolfSSL/wolfssl/wolfcrypt/src/random.c ****             }
2387:Middlewares/Third_Party/wolfSSL_wolfSSL_wolfSSL/wolfssl/wolfcrypt/src/random.c **** 
2388:Middlewares/Third_Party/wolfSSL_wolfSSL_wolfSSL/wolfssl/wolfcrypt/src/random.c ****             return 0;
2389:Middlewares/Third_Party/wolfSSL_wolfSSL_wolfSSL/wolfssl/wolfcrypt/src/random.c ****         }
2390:Middlewares/Third_Party/wolfSSL_wolfSSL_wolfSSL/wolfssl/wolfcrypt/src/random.c ****     #endif /* end WOLFSSL_ESPWROOM32 */
2391:Middlewares/Third_Party/wolfSSL_wolfSSL_wolfSSL/wolfssl/wolfcrypt/src/random.c **** 
2392:Middlewares/Third_Party/wolfSSL_wolfSSL_wolfSSL/wolfssl/wolfcrypt/src/random.c **** #elif defined(WOLFSSL_LINUXKM)
2393:Middlewares/Third_Party/wolfSSL_wolfSSL_wolfSSL/wolfssl/wolfcrypt/src/random.c ****     #include <linux/random.h>
2394:Middlewares/Third_Party/wolfSSL_wolfSSL_wolfSSL/wolfssl/wolfcrypt/src/random.c ****     int wc_GenerateSeed(OS_Seed* os, byte* output, word32 sz)
2395:Middlewares/Third_Party/wolfSSL_wolfSSL_wolfSSL/wolfssl/wolfcrypt/src/random.c ****     {
2396:Middlewares/Third_Party/wolfSSL_wolfSSL_wolfSSL/wolfssl/wolfcrypt/src/random.c ****         (void)os;
2397:Middlewares/Third_Party/wolfSSL_wolfSSL_wolfSSL/wolfssl/wolfcrypt/src/random.c **** 
2398:Middlewares/Third_Party/wolfSSL_wolfSSL_wolfSSL/wolfssl/wolfcrypt/src/random.c ****         get_random_bytes(output, sz);
2399:Middlewares/Third_Party/wolfSSL_wolfSSL_wolfSSL/wolfssl/wolfcrypt/src/random.c **** 
2400:Middlewares/Third_Party/wolfSSL_wolfSSL_wolfSSL/wolfssl/wolfcrypt/src/random.c ****         return 0;
2401:Middlewares/Third_Party/wolfSSL_wolfSSL_wolfSSL/wolfssl/wolfcrypt/src/random.c ****     }
2402:Middlewares/Third_Party/wolfSSL_wolfSSL_wolfSSL/wolfssl/wolfcrypt/src/random.c **** 
2403:Middlewares/Third_Party/wolfSSL_wolfSSL_wolfSSL/wolfssl/wolfcrypt/src/random.c **** #elif defined(WOLFSSL_RENESAS_TSIP)
2404:Middlewares/Third_Party/wolfSSL_wolfSSL_wolfSSL/wolfssl/wolfcrypt/src/random.c **** #if defined(WOLFSSL_RENESA_TSIP_IAREWRX)
2405:Middlewares/Third_Party/wolfSSL_wolfSSL_wolfSSL/wolfssl/wolfcrypt/src/random.c ****    #include "r_bsp/mcu/all/r_rx_compiler.h"
2406:Middlewares/Third_Party/wolfSSL_wolfSSL_wolfSSL/wolfssl/wolfcrypt/src/random.c **** #endif
2407:Middlewares/Third_Party/wolfSSL_wolfSSL_wolfSSL/wolfssl/wolfcrypt/src/random.c ****    #include "r_bsp/platform.h"
2408:Middlewares/Third_Party/wolfSSL_wolfSSL_wolfSSL/wolfssl/wolfcrypt/src/random.c ****     #include "r_tsip_rx_if.h"
2409:Middlewares/Third_Party/wolfSSL_wolfSSL_wolfSSL/wolfssl/wolfcrypt/src/random.c **** 
2410:Middlewares/Third_Party/wolfSSL_wolfSSL_wolfSSL/wolfssl/wolfcrypt/src/random.c ****     int wc_GenerateSeed(OS_Seed* os, byte* output, word32 sz)
2411:Middlewares/Third_Party/wolfSSL_wolfSSL_wolfSSL/wolfssl/wolfcrypt/src/random.c ****     {
2412:Middlewares/Third_Party/wolfSSL_wolfSSL_wolfSSL/wolfssl/wolfcrypt/src/random.c ****         int ret;
2413:Middlewares/Third_Party/wolfSSL_wolfSSL_wolfSSL/wolfssl/wolfcrypt/src/random.c ****         word32 buffer[4];
2414:Middlewares/Third_Party/wolfSSL_wolfSSL_wolfSSL/wolfssl/wolfcrypt/src/random.c **** 
2415:Middlewares/Third_Party/wolfSSL_wolfSSL_wolfSSL/wolfssl/wolfcrypt/src/random.c ****         while (sz > 0) {
2416:Middlewares/Third_Party/wolfSSL_wolfSSL_wolfSSL/wolfssl/wolfcrypt/src/random.c ****             word32 len = sizeof(buffer);
2417:Middlewares/Third_Party/wolfSSL_wolfSSL_wolfSSL/wolfssl/wolfcrypt/src/random.c **** 
2418:Middlewares/Third_Party/wolfSSL_wolfSSL_wolfSSL/wolfssl/wolfcrypt/src/random.c ****             if (sz < len) {
2419:Middlewares/Third_Party/wolfSSL_wolfSSL_wolfSSL/wolfssl/wolfcrypt/src/random.c ****                 len = sz;
2420:Middlewares/Third_Party/wolfSSL_wolfSSL_wolfSSL/wolfssl/wolfcrypt/src/random.c ****             }
2421:Middlewares/Third_Party/wolfSSL_wolfSSL_wolfSSL/wolfssl/wolfcrypt/src/random.c ****             /* return 4 words random number*/
2422:Middlewares/Third_Party/wolfSSL_wolfSSL_wolfSSL/wolfssl/wolfcrypt/src/random.c ****             ret = R_TSIP_GenerateRandomNumber(buffer);
ARM GAS  /tmp/cc09iKDl.s 			page 103


2423:Middlewares/Third_Party/wolfSSL_wolfSSL_wolfSSL/wolfssl/wolfcrypt/src/random.c ****             if(ret == TSIP_SUCCESS) {
2424:Middlewares/Third_Party/wolfSSL_wolfSSL_wolfSSL/wolfssl/wolfcrypt/src/random.c ****                 XMEMCPY(output, &buffer, len);
2425:Middlewares/Third_Party/wolfSSL_wolfSSL_wolfSSL/wolfssl/wolfcrypt/src/random.c ****                 output += len;
2426:Middlewares/Third_Party/wolfSSL_wolfSSL_wolfSSL/wolfssl/wolfcrypt/src/random.c ****                 sz -= len;
2427:Middlewares/Third_Party/wolfSSL_wolfSSL_wolfSSL/wolfssl/wolfcrypt/src/random.c ****             } else
2428:Middlewares/Third_Party/wolfSSL_wolfSSL_wolfSSL/wolfssl/wolfcrypt/src/random.c ****                 return ret;
2429:Middlewares/Third_Party/wolfSSL_wolfSSL_wolfSSL/wolfssl/wolfcrypt/src/random.c ****         }
2430:Middlewares/Third_Party/wolfSSL_wolfSSL_wolfSSL/wolfssl/wolfcrypt/src/random.c ****         return ret;
2431:Middlewares/Third_Party/wolfSSL_wolfSSL_wolfSSL/wolfssl/wolfcrypt/src/random.c ****     }
2432:Middlewares/Third_Party/wolfSSL_wolfSSL_wolfSSL/wolfssl/wolfcrypt/src/random.c **** 
2433:Middlewares/Third_Party/wolfSSL_wolfSSL_wolfSSL/wolfssl/wolfcrypt/src/random.c **** #elif defined(WOLFSSL_SCE) && !defined(WOLFSSL_SCE_NO_TRNG)
2434:Middlewares/Third_Party/wolfSSL_wolfSSL_wolfSSL/wolfssl/wolfcrypt/src/random.c ****     #include "hal_data.h"
2435:Middlewares/Third_Party/wolfSSL_wolfSSL_wolfSSL/wolfssl/wolfcrypt/src/random.c **** 
2436:Middlewares/Third_Party/wolfSSL_wolfSSL_wolfSSL/wolfssl/wolfcrypt/src/random.c ****     #ifndef WOLFSSL_SCE_TRNG_HANDLE
2437:Middlewares/Third_Party/wolfSSL_wolfSSL_wolfSSL/wolfssl/wolfcrypt/src/random.c ****         #define WOLFSSL_SCE_TRNG_HANDLE g_sce_trng
2438:Middlewares/Third_Party/wolfSSL_wolfSSL_wolfSSL/wolfssl/wolfcrypt/src/random.c ****     #endif
2439:Middlewares/Third_Party/wolfSSL_wolfSSL_wolfSSL/wolfssl/wolfcrypt/src/random.c **** 
2440:Middlewares/Third_Party/wolfSSL_wolfSSL_wolfSSL/wolfssl/wolfcrypt/src/random.c ****     int wc_GenerateSeed(OS_Seed* os, byte* output, word32 sz)
2441:Middlewares/Third_Party/wolfSSL_wolfSSL_wolfSSL/wolfssl/wolfcrypt/src/random.c ****     {
2442:Middlewares/Third_Party/wolfSSL_wolfSSL_wolfSSL/wolfssl/wolfcrypt/src/random.c ****         word32 ret;
2443:Middlewares/Third_Party/wolfSSL_wolfSSL_wolfSSL/wolfssl/wolfcrypt/src/random.c ****         word32 blocks;
2444:Middlewares/Third_Party/wolfSSL_wolfSSL_wolfSSL/wolfssl/wolfcrypt/src/random.c ****         word32 len = sz;
2445:Middlewares/Third_Party/wolfSSL_wolfSSL_wolfSSL/wolfssl/wolfcrypt/src/random.c **** 
2446:Middlewares/Third_Party/wolfSSL_wolfSSL_wolfSSL/wolfssl/wolfcrypt/src/random.c ****         ret = WOLFSSL_SCE_TRNG_HANDLE.p_api->open(WOLFSSL_SCE_TRNG_HANDLE.p_ctrl,
2447:Middlewares/Third_Party/wolfSSL_wolfSSL_wolfSSL/wolfssl/wolfcrypt/src/random.c ****                                                   WOLFSSL_SCE_TRNG_HANDLE.p_cfg);
2448:Middlewares/Third_Party/wolfSSL_wolfSSL_wolfSSL/wolfssl/wolfcrypt/src/random.c ****         if (ret != SSP_SUCCESS && ret != SSP_ERR_CRYPTO_ALREADY_OPEN) {
2449:Middlewares/Third_Party/wolfSSL_wolfSSL_wolfSSL/wolfssl/wolfcrypt/src/random.c ****             /* error opening TRNG driver */
2450:Middlewares/Third_Party/wolfSSL_wolfSSL_wolfSSL/wolfssl/wolfcrypt/src/random.c ****             return -1;
2451:Middlewares/Third_Party/wolfSSL_wolfSSL_wolfSSL/wolfssl/wolfcrypt/src/random.c ****         }
2452:Middlewares/Third_Party/wolfSSL_wolfSSL_wolfSSL/wolfssl/wolfcrypt/src/random.c **** 
2453:Middlewares/Third_Party/wolfSSL_wolfSSL_wolfSSL/wolfssl/wolfcrypt/src/random.c ****         blocks = sz / sizeof(word32);
2454:Middlewares/Third_Party/wolfSSL_wolfSSL_wolfSSL/wolfssl/wolfcrypt/src/random.c ****         if (blocks > 0) {
2455:Middlewares/Third_Party/wolfSSL_wolfSSL_wolfSSL/wolfssl/wolfcrypt/src/random.c ****             ret = WOLFSSL_SCE_TRNG_HANDLE.p_api->read(WOLFSSL_SCE_TRNG_HANDLE.p_ctrl,
2456:Middlewares/Third_Party/wolfSSL_wolfSSL_wolfSSL/wolfssl/wolfcrypt/src/random.c ****                                                        (word32*)output, blocks);
2457:Middlewares/Third_Party/wolfSSL_wolfSSL_wolfSSL/wolfssl/wolfcrypt/src/random.c ****             if (ret != SSP_SUCCESS) {
2458:Middlewares/Third_Party/wolfSSL_wolfSSL_wolfSSL/wolfssl/wolfcrypt/src/random.c ****                 return -1;
2459:Middlewares/Third_Party/wolfSSL_wolfSSL_wolfSSL/wolfssl/wolfcrypt/src/random.c ****             }
2460:Middlewares/Third_Party/wolfSSL_wolfSSL_wolfSSL/wolfssl/wolfcrypt/src/random.c ****         }
2461:Middlewares/Third_Party/wolfSSL_wolfSSL_wolfSSL/wolfssl/wolfcrypt/src/random.c **** 
2462:Middlewares/Third_Party/wolfSSL_wolfSSL_wolfSSL/wolfssl/wolfcrypt/src/random.c ****         len = len - (blocks * sizeof(word32));
2463:Middlewares/Third_Party/wolfSSL_wolfSSL_wolfSSL/wolfssl/wolfcrypt/src/random.c ****         if (len > 0) {
2464:Middlewares/Third_Party/wolfSSL_wolfSSL_wolfSSL/wolfssl/wolfcrypt/src/random.c ****             word32 tmp;
2465:Middlewares/Third_Party/wolfSSL_wolfSSL_wolfSSL/wolfssl/wolfcrypt/src/random.c **** 
2466:Middlewares/Third_Party/wolfSSL_wolfSSL_wolfSSL/wolfssl/wolfcrypt/src/random.c ****             if (len > sizeof(word32)) {
2467:Middlewares/Third_Party/wolfSSL_wolfSSL_wolfSSL/wolfssl/wolfcrypt/src/random.c ****                 return -1;
2468:Middlewares/Third_Party/wolfSSL_wolfSSL_wolfSSL/wolfssl/wolfcrypt/src/random.c ****             }
2469:Middlewares/Third_Party/wolfSSL_wolfSSL_wolfSSL/wolfssl/wolfcrypt/src/random.c ****             ret = WOLFSSL_SCE_TRNG_HANDLE.p_api->read(WOLFSSL_SCE_TRNG_HANDLE.p_ctrl,
2470:Middlewares/Third_Party/wolfSSL_wolfSSL_wolfSSL/wolfssl/wolfcrypt/src/random.c ****                                                       (word32*)tmp, 1);
2471:Middlewares/Third_Party/wolfSSL_wolfSSL_wolfSSL/wolfssl/wolfcrypt/src/random.c ****             if (ret != SSP_SUCCESS) {
2472:Middlewares/Third_Party/wolfSSL_wolfSSL_wolfSSL/wolfssl/wolfcrypt/src/random.c ****                 return -1;
2473:Middlewares/Third_Party/wolfSSL_wolfSSL_wolfSSL/wolfssl/wolfcrypt/src/random.c ****             }
2474:Middlewares/Third_Party/wolfSSL_wolfSSL_wolfSSL/wolfssl/wolfcrypt/src/random.c ****             XMEMCPY(output + (blocks * sizeof(word32)), (byte*)&tmp, len);
2475:Middlewares/Third_Party/wolfSSL_wolfSSL_wolfSSL/wolfssl/wolfcrypt/src/random.c ****         }
2476:Middlewares/Third_Party/wolfSSL_wolfSSL_wolfSSL/wolfssl/wolfcrypt/src/random.c **** 
2477:Middlewares/Third_Party/wolfSSL_wolfSSL_wolfSSL/wolfssl/wolfcrypt/src/random.c ****         ret = WOLFSSL_SCE_TRNG_HANDLE.p_api->close(WOLFSSL_SCE_TRNG_HANDLE.p_ctrl);
2478:Middlewares/Third_Party/wolfSSL_wolfSSL_wolfSSL/wolfssl/wolfcrypt/src/random.c ****         if (ret != SSP_SUCCESS) {
2479:Middlewares/Third_Party/wolfSSL_wolfSSL_wolfSSL/wolfssl/wolfcrypt/src/random.c ****             /* error opening TRNG driver */
ARM GAS  /tmp/cc09iKDl.s 			page 104


2480:Middlewares/Third_Party/wolfSSL_wolfSSL_wolfSSL/wolfssl/wolfcrypt/src/random.c ****             return -1;
2481:Middlewares/Third_Party/wolfSSL_wolfSSL_wolfSSL/wolfssl/wolfcrypt/src/random.c ****         }
2482:Middlewares/Third_Party/wolfSSL_wolfSSL_wolfSSL/wolfssl/wolfcrypt/src/random.c ****         return 0;
2483:Middlewares/Third_Party/wolfSSL_wolfSSL_wolfSSL/wolfssl/wolfcrypt/src/random.c ****     }
2484:Middlewares/Third_Party/wolfSSL_wolfSSL_wolfSSL/wolfssl/wolfcrypt/src/random.c **** #elif defined(CUSTOM_RAND_GENERATE_BLOCK)
2485:Middlewares/Third_Party/wolfSSL_wolfSSL_wolfSSL/wolfssl/wolfcrypt/src/random.c ****     /* #define CUSTOM_RAND_GENERATE_BLOCK myRngFunc
2486:Middlewares/Third_Party/wolfSSL_wolfSSL_wolfSSL/wolfssl/wolfcrypt/src/random.c ****      * extern int myRngFunc(byte* output, word32 sz);
2487:Middlewares/Third_Party/wolfSSL_wolfSSL_wolfSSL/wolfssl/wolfcrypt/src/random.c ****      */
2488:Middlewares/Third_Party/wolfSSL_wolfSSL_wolfSSL/wolfssl/wolfcrypt/src/random.c **** 
2489:Middlewares/Third_Party/wolfSSL_wolfSSL_wolfSSL/wolfssl/wolfcrypt/src/random.c **** #elif defined(WOLFSSL_SAFERTOS) || defined(WOLFSSL_LEANPSK) || \
2490:Middlewares/Third_Party/wolfSSL_wolfSSL_wolfSSL/wolfssl/wolfcrypt/src/random.c ****       defined(WOLFSSL_IAR_ARM)  || defined(WOLFSSL_MDK_ARM) || \
2491:Middlewares/Third_Party/wolfSSL_wolfSSL_wolfSSL/wolfssl/wolfcrypt/src/random.c ****       defined(WOLFSSL_uITRON4)  || defined(WOLFSSL_uTKERNEL2) || \
2492:Middlewares/Third_Party/wolfSSL_wolfSSL_wolfSSL/wolfssl/wolfcrypt/src/random.c ****       defined(WOLFSSL_LPC43xx)  || defined(WOLFSSL_STM32F2xx) || \
2493:Middlewares/Third_Party/wolfSSL_wolfSSL_wolfSSL/wolfssl/wolfcrypt/src/random.c ****       defined(MBED)             || defined(WOLFSSL_EMBOS) || \
2494:Middlewares/Third_Party/wolfSSL_wolfSSL_wolfSSL/wolfssl/wolfcrypt/src/random.c ****       defined(WOLFSSL_GENSEED_FORTEST) || defined(WOLFSSL_CHIBIOS) || \
2495:Middlewares/Third_Party/wolfSSL_wolfSSL_wolfSSL/wolfssl/wolfcrypt/src/random.c ****       defined(WOLFSSL_CONTIKI)  || defined(WOLFSSL_AZSPHERE)
2496:Middlewares/Third_Party/wolfSSL_wolfSSL_wolfSSL/wolfssl/wolfcrypt/src/random.c **** 
2497:Middlewares/Third_Party/wolfSSL_wolfSSL_wolfSSL/wolfssl/wolfcrypt/src/random.c ****     /* these platforms do not have a default random seed and
2498:Middlewares/Third_Party/wolfSSL_wolfSSL_wolfSSL/wolfssl/wolfcrypt/src/random.c ****        you'll need to implement your own wc_GenerateSeed or define via
2499:Middlewares/Third_Party/wolfSSL_wolfSSL_wolfSSL/wolfssl/wolfcrypt/src/random.c ****        CUSTOM_RAND_GENERATE_BLOCK */
2500:Middlewares/Third_Party/wolfSSL_wolfSSL_wolfSSL/wolfssl/wolfcrypt/src/random.c **** 
2501:Middlewares/Third_Party/wolfSSL_wolfSSL_wolfSSL/wolfssl/wolfcrypt/src/random.c ****     #define USE_TEST_GENSEED
2502:Middlewares/Third_Party/wolfSSL_wolfSSL_wolfSSL/wolfssl/wolfcrypt/src/random.c **** 
2503:Middlewares/Third_Party/wolfSSL_wolfSSL_wolfSSL/wolfssl/wolfcrypt/src/random.c **** #elif defined(WOLFSSL_ZEPHYR)
2504:Middlewares/Third_Party/wolfSSL_wolfSSL_wolfSSL/wolfssl/wolfcrypt/src/random.c **** 
2505:Middlewares/Third_Party/wolfSSL_wolfSSL_wolfSSL/wolfssl/wolfcrypt/src/random.c ****         #include <entropy.h>
2506:Middlewares/Third_Party/wolfSSL_wolfSSL_wolfSSL/wolfssl/wolfcrypt/src/random.c ****     #ifndef _POSIX_C_SOURCE
2507:Middlewares/Third_Party/wolfSSL_wolfSSL_wolfSSL/wolfssl/wolfcrypt/src/random.c ****         #include <posix/time.h>
2508:Middlewares/Third_Party/wolfSSL_wolfSSL_wolfSSL/wolfssl/wolfcrypt/src/random.c ****     #else
2509:Middlewares/Third_Party/wolfSSL_wolfSSL_wolfSSL/wolfssl/wolfcrypt/src/random.c ****         #include <sys/time.h>
2510:Middlewares/Third_Party/wolfSSL_wolfSSL_wolfSSL/wolfssl/wolfcrypt/src/random.c ****     #endif
2511:Middlewares/Third_Party/wolfSSL_wolfSSL_wolfSSL/wolfssl/wolfcrypt/src/random.c **** 
2512:Middlewares/Third_Party/wolfSSL_wolfSSL_wolfSSL/wolfssl/wolfcrypt/src/random.c ****         int wc_GenerateSeed(OS_Seed* os, byte* output, word32 sz)
2513:Middlewares/Third_Party/wolfSSL_wolfSSL_wolfSSL/wolfssl/wolfcrypt/src/random.c ****         {
2514:Middlewares/Third_Party/wolfSSL_wolfSSL_wolfSSL/wolfssl/wolfcrypt/src/random.c ****             int ret = 0;
2515:Middlewares/Third_Party/wolfSSL_wolfSSL_wolfSSL/wolfssl/wolfcrypt/src/random.c ****             word32 rand;
2516:Middlewares/Third_Party/wolfSSL_wolfSSL_wolfSSL/wolfssl/wolfcrypt/src/random.c ****             while (sz > 0) {
2517:Middlewares/Third_Party/wolfSSL_wolfSSL_wolfSSL/wolfssl/wolfcrypt/src/random.c ****                 word32 len = sizeof(rand);
2518:Middlewares/Third_Party/wolfSSL_wolfSSL_wolfSSL/wolfssl/wolfcrypt/src/random.c ****                 if (sz < len)
2519:Middlewares/Third_Party/wolfSSL_wolfSSL_wolfSSL/wolfssl/wolfcrypt/src/random.c ****                     len = sz;
2520:Middlewares/Third_Party/wolfSSL_wolfSSL_wolfSSL/wolfssl/wolfcrypt/src/random.c ****                 rand = sys_rand32_get();
2521:Middlewares/Third_Party/wolfSSL_wolfSSL_wolfSSL/wolfssl/wolfcrypt/src/random.c ****                 XMEMCPY(output, &rand, len);
2522:Middlewares/Third_Party/wolfSSL_wolfSSL_wolfSSL/wolfssl/wolfcrypt/src/random.c ****                 output += len;
2523:Middlewares/Third_Party/wolfSSL_wolfSSL_wolfSSL/wolfssl/wolfcrypt/src/random.c ****                 sz -= len;
2524:Middlewares/Third_Party/wolfSSL_wolfSSL_wolfSSL/wolfssl/wolfcrypt/src/random.c ****             }
2525:Middlewares/Third_Party/wolfSSL_wolfSSL_wolfSSL/wolfssl/wolfcrypt/src/random.c **** 
2526:Middlewares/Third_Party/wolfSSL_wolfSSL_wolfSSL/wolfssl/wolfcrypt/src/random.c ****             return ret;
2527:Middlewares/Third_Party/wolfSSL_wolfSSL_wolfSSL/wolfssl/wolfcrypt/src/random.c ****         }
2528:Middlewares/Third_Party/wolfSSL_wolfSSL_wolfSSL/wolfssl/wolfcrypt/src/random.c **** 
2529:Middlewares/Third_Party/wolfSSL_wolfSSL_wolfSSL/wolfssl/wolfcrypt/src/random.c **** #elif defined(WOLFSSL_TELIT_M2MB)
2530:Middlewares/Third_Party/wolfSSL_wolfSSL_wolfSSL/wolfssl/wolfcrypt/src/random.c **** 
2531:Middlewares/Third_Party/wolfSSL_wolfSSL_wolfSSL/wolfssl/wolfcrypt/src/random.c ****         #include "stdlib.h"
2532:Middlewares/Third_Party/wolfSSL_wolfSSL_wolfSSL/wolfssl/wolfcrypt/src/random.c ****         static long get_timestamp(void) {
2533:Middlewares/Third_Party/wolfSSL_wolfSSL_wolfSSL/wolfssl/wolfcrypt/src/random.c ****             long myTime = 0;
2534:Middlewares/Third_Party/wolfSSL_wolfSSL_wolfSSL/wolfssl/wolfcrypt/src/random.c ****             INT32 fd = m2mb_rtc_open("/dev/rtc0", 0);
2535:Middlewares/Third_Party/wolfSSL_wolfSSL_wolfSSL/wolfssl/wolfcrypt/src/random.c ****             if (fd >= 0) {
2536:Middlewares/Third_Party/wolfSSL_wolfSSL_wolfSSL/wolfssl/wolfcrypt/src/random.c ****                 M2MB_RTC_TIMEVAL_T timeval;
ARM GAS  /tmp/cc09iKDl.s 			page 105


2537:Middlewares/Third_Party/wolfSSL_wolfSSL_wolfSSL/wolfssl/wolfcrypt/src/random.c ****                 m2mb_rtc_ioctl(fd, M2MB_RTC_IOCTL_GET_TIMEVAL, &timeval);
2538:Middlewares/Third_Party/wolfSSL_wolfSSL_wolfSSL/wolfssl/wolfcrypt/src/random.c ****                 myTime = timeval.msec;
2539:Middlewares/Third_Party/wolfSSL_wolfSSL_wolfSSL/wolfssl/wolfcrypt/src/random.c ****                 m2mb_rtc_close(fd);
2540:Middlewares/Third_Party/wolfSSL_wolfSSL_wolfSSL/wolfssl/wolfcrypt/src/random.c ****             }
2541:Middlewares/Third_Party/wolfSSL_wolfSSL_wolfSSL/wolfssl/wolfcrypt/src/random.c ****             return myTime;
2542:Middlewares/Third_Party/wolfSSL_wolfSSL_wolfSSL/wolfssl/wolfcrypt/src/random.c ****         }
2543:Middlewares/Third_Party/wolfSSL_wolfSSL_wolfSSL/wolfssl/wolfcrypt/src/random.c ****         int wc_GenerateSeed(OS_Seed* os, byte* output, word32 sz)
2544:Middlewares/Third_Party/wolfSSL_wolfSSL_wolfSSL/wolfssl/wolfcrypt/src/random.c ****         {
2545:Middlewares/Third_Party/wolfSSL_wolfSSL_wolfSSL/wolfssl/wolfcrypt/src/random.c ****             int i;
2546:Middlewares/Third_Party/wolfSSL_wolfSSL_wolfSSL/wolfssl/wolfcrypt/src/random.c ****             srand(get_timestamp());
2547:Middlewares/Third_Party/wolfSSL_wolfSSL_wolfSSL/wolfssl/wolfcrypt/src/random.c ****             for (i = 0; i < sz; i++ ) {
2548:Middlewares/Third_Party/wolfSSL_wolfSSL_wolfSSL/wolfssl/wolfcrypt/src/random.c ****                 output[i] = rand() % 256;
2549:Middlewares/Third_Party/wolfSSL_wolfSSL_wolfSSL/wolfssl/wolfcrypt/src/random.c ****                 if ((i % 8) == 7) {
2550:Middlewares/Third_Party/wolfSSL_wolfSSL_wolfSSL/wolfssl/wolfcrypt/src/random.c ****                     srand(get_timestamp());
2551:Middlewares/Third_Party/wolfSSL_wolfSSL_wolfSSL/wolfssl/wolfcrypt/src/random.c ****                 }
2552:Middlewares/Third_Party/wolfSSL_wolfSSL_wolfSSL/wolfssl/wolfcrypt/src/random.c ****             }
2553:Middlewares/Third_Party/wolfSSL_wolfSSL_wolfSSL/wolfssl/wolfcrypt/src/random.c ****             return 0;
2554:Middlewares/Third_Party/wolfSSL_wolfSSL_wolfSSL/wolfssl/wolfcrypt/src/random.c ****         }
2555:Middlewares/Third_Party/wolfSSL_wolfSSL_wolfSSL/wolfssl/wolfcrypt/src/random.c **** 
2556:Middlewares/Third_Party/wolfSSL_wolfSSL_wolfSSL/wolfssl/wolfcrypt/src/random.c **** #elif defined(NO_DEV_RANDOM)
2557:Middlewares/Third_Party/wolfSSL_wolfSSL_wolfSSL/wolfssl/wolfcrypt/src/random.c **** 
2558:Middlewares/Third_Party/wolfSSL_wolfSSL_wolfSSL/wolfssl/wolfcrypt/src/random.c ****     #error "you need to write an os specific wc_GenerateSeed() here"
2559:Middlewares/Third_Party/wolfSSL_wolfSSL_wolfSSL/wolfssl/wolfcrypt/src/random.c **** 
2560:Middlewares/Third_Party/wolfSSL_wolfSSL_wolfSSL/wolfssl/wolfcrypt/src/random.c ****     /*
2561:Middlewares/Third_Party/wolfSSL_wolfSSL_wolfSSL/wolfssl/wolfcrypt/src/random.c ****     int wc_GenerateSeed(OS_Seed* os, byte* output, word32 sz)
2562:Middlewares/Third_Party/wolfSSL_wolfSSL_wolfSSL/wolfssl/wolfcrypt/src/random.c ****     {
2563:Middlewares/Third_Party/wolfSSL_wolfSSL_wolfSSL/wolfssl/wolfcrypt/src/random.c ****         return 0;
2564:Middlewares/Third_Party/wolfSSL_wolfSSL_wolfSSL/wolfssl/wolfcrypt/src/random.c ****     }
2565:Middlewares/Third_Party/wolfSSL_wolfSSL_wolfSSL/wolfssl/wolfcrypt/src/random.c ****     */
2566:Middlewares/Third_Party/wolfSSL_wolfSSL_wolfSSL/wolfssl/wolfcrypt/src/random.c **** 
2567:Middlewares/Third_Party/wolfSSL_wolfSSL_wolfSSL/wolfssl/wolfcrypt/src/random.c **** #else
2568:Middlewares/Third_Party/wolfSSL_wolfSSL_wolfSSL/wolfssl/wolfcrypt/src/random.c **** 
2569:Middlewares/Third_Party/wolfSSL_wolfSSL_wolfSSL/wolfssl/wolfcrypt/src/random.c ****     /* may block */
2570:Middlewares/Third_Party/wolfSSL_wolfSSL_wolfSSL/wolfssl/wolfcrypt/src/random.c ****     int wc_GenerateSeed(OS_Seed* os, byte* output, word32 sz)
2571:Middlewares/Third_Party/wolfSSL_wolfSSL_wolfSSL/wolfssl/wolfcrypt/src/random.c ****     {
2572:Middlewares/Third_Party/wolfSSL_wolfSSL_wolfSSL/wolfssl/wolfcrypt/src/random.c ****         int ret = 0;
2573:Middlewares/Third_Party/wolfSSL_wolfSSL_wolfSSL/wolfssl/wolfcrypt/src/random.c **** 
2574:Middlewares/Third_Party/wolfSSL_wolfSSL_wolfSSL/wolfssl/wolfcrypt/src/random.c ****         if (os == NULL) {
2575:Middlewares/Third_Party/wolfSSL_wolfSSL_wolfSSL/wolfssl/wolfcrypt/src/random.c ****             return BAD_FUNC_ARG;
2576:Middlewares/Third_Party/wolfSSL_wolfSSL_wolfSSL/wolfssl/wolfcrypt/src/random.c ****         }
2577:Middlewares/Third_Party/wolfSSL_wolfSSL_wolfSSL/wolfssl/wolfcrypt/src/random.c **** 
2578:Middlewares/Third_Party/wolfSSL_wolfSSL_wolfSSL/wolfssl/wolfcrypt/src/random.c ****     #ifdef WOLF_CRYPTO_CB
2579:Middlewares/Third_Party/wolfSSL_wolfSSL_wolfSSL/wolfssl/wolfcrypt/src/random.c ****         if (os->devId != INVALID_DEVID) {
2580:Middlewares/Third_Party/wolfSSL_wolfSSL_wolfSSL/wolfssl/wolfcrypt/src/random.c ****             ret = wc_CryptoCb_RandomSeed(os, output, sz);
2581:Middlewares/Third_Party/wolfSSL_wolfSSL_wolfSSL/wolfssl/wolfcrypt/src/random.c ****             if (ret != CRYPTOCB_UNAVAILABLE)
2582:Middlewares/Third_Party/wolfSSL_wolfSSL_wolfSSL/wolfssl/wolfcrypt/src/random.c ****                 return ret;
2583:Middlewares/Third_Party/wolfSSL_wolfSSL_wolfSSL/wolfssl/wolfcrypt/src/random.c ****             /* fall-through when unavailable */
2584:Middlewares/Third_Party/wolfSSL_wolfSSL_wolfSSL/wolfssl/wolfcrypt/src/random.c ****             ret = 0; /* reset error code */
2585:Middlewares/Third_Party/wolfSSL_wolfSSL_wolfSSL/wolfssl/wolfcrypt/src/random.c ****         }
2586:Middlewares/Third_Party/wolfSSL_wolfSSL_wolfSSL/wolfssl/wolfcrypt/src/random.c ****     #endif
2587:Middlewares/Third_Party/wolfSSL_wolfSSL_wolfSSL/wolfssl/wolfcrypt/src/random.c **** 
2588:Middlewares/Third_Party/wolfSSL_wolfSSL_wolfSSL/wolfssl/wolfcrypt/src/random.c ****     #ifdef HAVE_INTEL_RDSEED
2589:Middlewares/Third_Party/wolfSSL_wolfSSL_wolfSSL/wolfssl/wolfcrypt/src/random.c ****         if (IS_INTEL_RDSEED(intel_flags)) {
2590:Middlewares/Third_Party/wolfSSL_wolfSSL_wolfSSL/wolfssl/wolfcrypt/src/random.c ****              ret = wc_GenerateSeed_IntelRD(NULL, output, sz);
2591:Middlewares/Third_Party/wolfSSL_wolfSSL_wolfSSL/wolfssl/wolfcrypt/src/random.c ****              if (ret == 0) {
2592:Middlewares/Third_Party/wolfSSL_wolfSSL_wolfSSL/wolfssl/wolfcrypt/src/random.c ****                  /* success, we're done */
2593:Middlewares/Third_Party/wolfSSL_wolfSSL_wolfSSL/wolfssl/wolfcrypt/src/random.c ****                  return ret;
ARM GAS  /tmp/cc09iKDl.s 			page 106


2594:Middlewares/Third_Party/wolfSSL_wolfSSL_wolfSSL/wolfssl/wolfcrypt/src/random.c ****              }
2595:Middlewares/Third_Party/wolfSSL_wolfSSL_wolfSSL/wolfssl/wolfcrypt/src/random.c ****         #ifdef FORCE_FAILURE_RDSEED
2596:Middlewares/Third_Party/wolfSSL_wolfSSL_wolfSSL/wolfssl/wolfcrypt/src/random.c ****              /* don't fallback to /dev/urandom */
2597:Middlewares/Third_Party/wolfSSL_wolfSSL_wolfSSL/wolfssl/wolfcrypt/src/random.c ****              return ret;
2598:Middlewares/Third_Party/wolfSSL_wolfSSL_wolfSSL/wolfssl/wolfcrypt/src/random.c ****         #else
2599:Middlewares/Third_Party/wolfSSL_wolfSSL_wolfSSL/wolfssl/wolfcrypt/src/random.c ****              /* reset error and fallback to using /dev/urandom */
2600:Middlewares/Third_Party/wolfSSL_wolfSSL_wolfSSL/wolfssl/wolfcrypt/src/random.c ****              ret = 0;
2601:Middlewares/Third_Party/wolfSSL_wolfSSL_wolfSSL/wolfssl/wolfcrypt/src/random.c ****         #endif
2602:Middlewares/Third_Party/wolfSSL_wolfSSL_wolfSSL/wolfssl/wolfcrypt/src/random.c ****         }
2603:Middlewares/Third_Party/wolfSSL_wolfSSL_wolfSSL/wolfssl/wolfcrypt/src/random.c ****     #endif /* HAVE_INTEL_RDSEED */
2604:Middlewares/Third_Party/wolfSSL_wolfSSL_wolfSSL/wolfssl/wolfcrypt/src/random.c **** 
2605:Middlewares/Third_Party/wolfSSL_wolfSSL_wolfSSL/wolfssl/wolfcrypt/src/random.c ****     #ifndef NO_DEV_URANDOM /* way to disable use of /dev/urandom */
2606:Middlewares/Third_Party/wolfSSL_wolfSSL_wolfSSL/wolfssl/wolfcrypt/src/random.c ****         os->fd = open("/dev/urandom", O_RDONLY);
2607:Middlewares/Third_Party/wolfSSL_wolfSSL_wolfSSL/wolfssl/wolfcrypt/src/random.c ****         if (os->fd == -1)
2608:Middlewares/Third_Party/wolfSSL_wolfSSL_wolfSSL/wolfssl/wolfcrypt/src/random.c ****     #endif
2609:Middlewares/Third_Party/wolfSSL_wolfSSL_wolfSSL/wolfssl/wolfcrypt/src/random.c ****         {
2610:Middlewares/Third_Party/wolfSSL_wolfSSL_wolfSSL/wolfssl/wolfcrypt/src/random.c ****             /* may still have /dev/random */
2611:Middlewares/Third_Party/wolfSSL_wolfSSL_wolfSSL/wolfssl/wolfcrypt/src/random.c ****             os->fd = open("/dev/random", O_RDONLY);
2612:Middlewares/Third_Party/wolfSSL_wolfSSL_wolfSSL/wolfssl/wolfcrypt/src/random.c ****             if (os->fd == -1)
2613:Middlewares/Third_Party/wolfSSL_wolfSSL_wolfSSL/wolfssl/wolfcrypt/src/random.c ****                 return OPEN_RAN_E;
2614:Middlewares/Third_Party/wolfSSL_wolfSSL_wolfSSL/wolfssl/wolfcrypt/src/random.c ****         }
2615:Middlewares/Third_Party/wolfSSL_wolfSSL_wolfSSL/wolfssl/wolfcrypt/src/random.c **** 
2616:Middlewares/Third_Party/wolfSSL_wolfSSL_wolfSSL/wolfssl/wolfcrypt/src/random.c ****         while (sz) {
2617:Middlewares/Third_Party/wolfSSL_wolfSSL_wolfSSL/wolfssl/wolfcrypt/src/random.c ****             int len = (int)read(os->fd, output, sz);
2618:Middlewares/Third_Party/wolfSSL_wolfSSL_wolfSSL/wolfssl/wolfcrypt/src/random.c ****             if (len == -1) {
2619:Middlewares/Third_Party/wolfSSL_wolfSSL_wolfSSL/wolfssl/wolfcrypt/src/random.c ****                 ret = READ_RAN_E;
2620:Middlewares/Third_Party/wolfSSL_wolfSSL_wolfSSL/wolfssl/wolfcrypt/src/random.c ****                 break;
2621:Middlewares/Third_Party/wolfSSL_wolfSSL_wolfSSL/wolfssl/wolfcrypt/src/random.c ****             }
2622:Middlewares/Third_Party/wolfSSL_wolfSSL_wolfSSL/wolfssl/wolfcrypt/src/random.c **** 
2623:Middlewares/Third_Party/wolfSSL_wolfSSL_wolfSSL/wolfssl/wolfcrypt/src/random.c ****             sz     -= len;
2624:Middlewares/Third_Party/wolfSSL_wolfSSL_wolfSSL/wolfssl/wolfcrypt/src/random.c ****             output += len;
2625:Middlewares/Third_Party/wolfSSL_wolfSSL_wolfSSL/wolfssl/wolfcrypt/src/random.c **** 
2626:Middlewares/Third_Party/wolfSSL_wolfSSL_wolfSSL/wolfssl/wolfcrypt/src/random.c ****             if (sz) {
2627:Middlewares/Third_Party/wolfSSL_wolfSSL_wolfSSL/wolfssl/wolfcrypt/src/random.c ****     #if defined(BLOCKING) || defined(WC_RNG_BLOCKING)
2628:Middlewares/Third_Party/wolfSSL_wolfSSL_wolfSSL/wolfssl/wolfcrypt/src/random.c ****                 sleep(0);             /* context switch */
2629:Middlewares/Third_Party/wolfSSL_wolfSSL_wolfSSL/wolfssl/wolfcrypt/src/random.c ****     #else
2630:Middlewares/Third_Party/wolfSSL_wolfSSL_wolfSSL/wolfssl/wolfcrypt/src/random.c ****                 ret = RAN_BLOCK_E;
2631:Middlewares/Third_Party/wolfSSL_wolfSSL_wolfSSL/wolfssl/wolfcrypt/src/random.c ****                 break;
2632:Middlewares/Third_Party/wolfSSL_wolfSSL_wolfSSL/wolfssl/wolfcrypt/src/random.c ****     #endif
2633:Middlewares/Third_Party/wolfSSL_wolfSSL_wolfSSL/wolfssl/wolfcrypt/src/random.c ****             }
2634:Middlewares/Third_Party/wolfSSL_wolfSSL_wolfSSL/wolfssl/wolfcrypt/src/random.c ****         }
2635:Middlewares/Third_Party/wolfSSL_wolfSSL_wolfSSL/wolfssl/wolfcrypt/src/random.c ****         close(os->fd);
2636:Middlewares/Third_Party/wolfSSL_wolfSSL_wolfSSL/wolfssl/wolfcrypt/src/random.c **** 
2637:Middlewares/Third_Party/wolfSSL_wolfSSL_wolfSSL/wolfssl/wolfcrypt/src/random.c ****         return ret;
2638:Middlewares/Third_Party/wolfSSL_wolfSSL_wolfSSL/wolfssl/wolfcrypt/src/random.c ****     }
2639:Middlewares/Third_Party/wolfSSL_wolfSSL_wolfSSL/wolfssl/wolfcrypt/src/random.c **** 
2640:Middlewares/Third_Party/wolfSSL_wolfSSL_wolfSSL/wolfssl/wolfcrypt/src/random.c **** #endif
2641:Middlewares/Third_Party/wolfSSL_wolfSSL_wolfSSL/wolfssl/wolfcrypt/src/random.c **** 
2642:Middlewares/Third_Party/wolfSSL_wolfSSL_wolfSSL/wolfssl/wolfcrypt/src/random.c **** #ifdef USE_TEST_GENSEED
2643:Middlewares/Third_Party/wolfSSL_wolfSSL_wolfSSL/wolfssl/wolfcrypt/src/random.c ****     #ifndef _MSC_VER
2644:Middlewares/Third_Party/wolfSSL_wolfSSL_wolfSSL/wolfssl/wolfcrypt/src/random.c ****         #warning "write a real random seed!!!!, just for testing now"
2645:Middlewares/Third_Party/wolfSSL_wolfSSL_wolfSSL/wolfssl/wolfcrypt/src/random.c ****     #else
2646:Middlewares/Third_Party/wolfSSL_wolfSSL_wolfSSL/wolfssl/wolfcrypt/src/random.c ****         #pragma message("Warning: write a real random seed!!!!, just for testing now")
2647:Middlewares/Third_Party/wolfSSL_wolfSSL_wolfSSL/wolfssl/wolfcrypt/src/random.c ****     #endif
2648:Middlewares/Third_Party/wolfSSL_wolfSSL_wolfSSL/wolfssl/wolfcrypt/src/random.c ****     int wc_GenerateSeed(OS_Seed* os, byte* output, word32 sz)
2649:Middlewares/Third_Party/wolfSSL_wolfSSL_wolfSSL/wolfssl/wolfcrypt/src/random.c ****     {
 2514              		.loc 1 2649 5 is_stmt 1 view -0
ARM GAS  /tmp/cc09iKDl.s 			page 107


 2515              		.cfi_startproc
 2516              		@ args = 0, pretend = 0, frame = 0
 2517              		@ frame_needed = 0, uses_anonymous_args = 0
 2518              		@ link register save eliminated.
2650:Middlewares/Third_Party/wolfSSL_wolfSSL_wolfSSL/wolfssl/wolfcrypt/src/random.c ****         word32 i;
 2519              		.loc 1 2650 9 view .LVU768
2651:Middlewares/Third_Party/wolfSSL_wolfSSL_wolfSSL/wolfssl/wolfcrypt/src/random.c ****         for (i = 0; i < sz; i++ )
 2520              		.loc 1 2651 9 view .LVU769
 2521              		.loc 1 2651 16 is_stmt 0 view .LVU770
 2522 0000 0023     		movs	r3, #0
 2523              		.loc 1 2651 9 view .LVU771
 2524 0002 01E0     		b	.L177
 2525              	.LVL288:
 2526              	.L178:
2652:Middlewares/Third_Party/wolfSSL_wolfSSL_wolfSSL/wolfssl/wolfcrypt/src/random.c ****             output[i] = i;
 2527              		.loc 1 2652 13 is_stmt 1 discriminator 3 view .LVU772
 2528              		.loc 1 2652 23 is_stmt 0 discriminator 3 view .LVU773
 2529 0004 CB54     		strb	r3, [r1, r3]
2651:Middlewares/Third_Party/wolfSSL_wolfSSL_wolfSSL/wolfssl/wolfcrypt/src/random.c ****         for (i = 0; i < sz; i++ )
 2530              		.loc 1 2651 29 is_stmt 1 discriminator 3 view .LVU774
2651:Middlewares/Third_Party/wolfSSL_wolfSSL_wolfSSL/wolfssl/wolfcrypt/src/random.c ****         for (i = 0; i < sz; i++ )
 2531              		.loc 1 2651 30 is_stmt 0 discriminator 3 view .LVU775
 2532 0006 0133     		adds	r3, r3, #1
 2533              	.LVL289:
 2534              	.L177:
2651:Middlewares/Third_Party/wolfSSL_wolfSSL_wolfSSL/wolfssl/wolfcrypt/src/random.c ****         for (i = 0; i < sz; i++ )
 2535              		.loc 1 2651 21 is_stmt 1 discriminator 1 view .LVU776
2651:Middlewares/Third_Party/wolfSSL_wolfSSL_wolfSSL/wolfssl/wolfcrypt/src/random.c ****         for (i = 0; i < sz; i++ )
 2536              		.loc 1 2651 9 is_stmt 0 discriminator 1 view .LVU777
 2537 0008 9342     		cmp	r3, r2
 2538 000a FBD3     		bcc	.L178
2653:Middlewares/Third_Party/wolfSSL_wolfSSL_wolfSSL/wolfssl/wolfcrypt/src/random.c **** 
2654:Middlewares/Third_Party/wolfSSL_wolfSSL_wolfSSL/wolfssl/wolfcrypt/src/random.c ****         (void)os;
 2539              		.loc 1 2654 9 is_stmt 1 view .LVU778
2655:Middlewares/Third_Party/wolfSSL_wolfSSL_wolfSSL/wolfssl/wolfcrypt/src/random.c **** 
2656:Middlewares/Third_Party/wolfSSL_wolfSSL_wolfSSL/wolfssl/wolfcrypt/src/random.c ****         return 0;
 2540              		.loc 1 2656 9 view .LVU779
2657:Middlewares/Third_Party/wolfSSL_wolfSSL_wolfSSL/wolfssl/wolfcrypt/src/random.c ****     }
 2541              		.loc 1 2657 5 is_stmt 0 view .LVU780
 2542 000c 0020     		movs	r0, #0
 2543              	.LVL290:
 2544              		.loc 1 2657 5 view .LVU781
 2545 000e 7047     		bx	lr
 2546              		.cfi_endproc
 2547              	.LFE198:
 2549              		.section	.text._InitRng,"ax",%progbits
 2550              		.align	1
 2551              		.syntax unified
 2552              		.thumb
 2553              		.thumb_func
 2554              		.fpu fpv4-sp-d16
 2556              	_InitRng:
 2557              	.LVL291:
 2558              	.LFB185:
 721:Middlewares/Third_Party/wolfSSL_wolfSSL_wolfSSL/wolfssl/wolfcrypt/src/random.c ****     int ret = 0;
 2559              		.loc 1 721 1 is_stmt 1 view -0
 2560              		.cfi_startproc
ARM GAS  /tmp/cc09iKDl.s 			page 108


 2561              		@ args = 4, pretend = 0, frame = 56
 2562              		@ frame_needed = 0, uses_anonymous_args = 0
 721:Middlewares/Third_Party/wolfSSL_wolfSSL_wolfSSL/wolfssl/wolfcrypt/src/random.c ****     int ret = 0;
 2563              		.loc 1 721 1 is_stmt 0 view .LVU783
 2564 0000 2DE9F041 		push	{r4, r5, r6, r7, r8, lr}
 2565              	.LCFI37:
 2566              		.cfi_def_cfa_offset 24
 2567              		.cfi_offset 4, -24
 2568              		.cfi_offset 5, -20
 2569              		.cfi_offset 6, -16
 2570              		.cfi_offset 7, -12
 2571              		.cfi_offset 8, -8
 2572              		.cfi_offset 14, -4
 2573 0004 92B0     		sub	sp, sp, #72
 2574              	.LCFI38:
 2575              		.cfi_def_cfa_offset 96
 722:Middlewares/Third_Party/wolfSSL_wolfSSL_wolfSSL/wolfssl/wolfcrypt/src/random.c **** #ifdef HAVE_HASHDRBG
 2576              		.loc 1 722 5 is_stmt 1 view .LVU784
 2577              	.LVL292:
 724:Middlewares/Third_Party/wolfSSL_wolfSSL_wolfSSL/wolfssl/wolfcrypt/src/random.c **** #endif
 2578              		.loc 1 724 5 view .LVU785
 727:Middlewares/Third_Party/wolfSSL_wolfSSL_wolfSSL/wolfssl/wolfcrypt/src/random.c ****     (void)nonceSz;
 2579              		.loc 1 727 5 view .LVU786
 728:Middlewares/Third_Party/wolfSSL_wolfSSL_wolfSSL/wolfssl/wolfcrypt/src/random.c **** 
 2580              		.loc 1 728 5 view .LVU787
 730:Middlewares/Third_Party/wolfSSL_wolfSSL_wolfSSL/wolfssl/wolfcrypt/src/random.c ****         return BAD_FUNC_ARG;
 2581              		.loc 1 730 5 view .LVU788
 730:Middlewares/Third_Party/wolfSSL_wolfSSL_wolfSSL/wolfssl/wolfcrypt/src/random.c ****         return BAD_FUNC_ARG;
 2582              		.loc 1 730 8 is_stmt 0 view .LVU789
 2583 0006 0028     		cmp	r0, #0
 2584 0008 64D0     		beq	.L194
 2585 000a 8846     		mov	r8, r1
 2586 000c 1646     		mov	r6, r2
 2587 000e 0546     		mov	r5, r0
 732:Middlewares/Third_Party/wolfSSL_wolfSSL_wolfSSL/wolfssl/wolfcrypt/src/random.c ****         return BAD_FUNC_ARG;
 2588              		.loc 1 732 5 is_stmt 1 view .LVU790
 732:Middlewares/Third_Party/wolfSSL_wolfSSL_wolfSSL/wolfssl/wolfcrypt/src/random.c ****         return BAD_FUNC_ARG;
 2589              		.loc 1 732 8 is_stmt 0 view .LVU791
 2590 0010 A1B1     		cbz	r1, .L200
 2591              	.L181:
 739:Middlewares/Third_Party/wolfSSL_wolfSSL_wolfSSL/wolfssl/wolfcrypt/src/random.c **** #endif
 2592              		.loc 1 739 5 is_stmt 1 view .LVU792
 739:Middlewares/Third_Party/wolfSSL_wolfSSL_wolfSSL/wolfssl/wolfcrypt/src/random.c **** #endif
 2593              		.loc 1 739 15 is_stmt 0 view .LVU793
 2594 0012 6B60     		str	r3, [r5, #4]
 747:Middlewares/Third_Party/wolfSSL_wolfSSL_wolfSSL/wolfssl/wolfcrypt/src/random.c **** #endif
 2595              		.loc 1 747 5 is_stmt 1 view .LVU794
 752:Middlewares/Third_Party/wolfSSL_wolfSSL_wolfSSL/wolfssl/wolfcrypt/src/random.c ****     rng->status = DRBG_NOT_INIT;
 2596              		.loc 1 752 5 view .LVU795
 752:Middlewares/Third_Party/wolfSSL_wolfSSL_wolfSSL/wolfssl/wolfcrypt/src/random.c ****     rng->status = DRBG_NOT_INIT;
 2597              		.loc 1 752 15 is_stmt 0 view .LVU796
 2598 0014 0023     		movs	r3, #0
 2599              	.LVL293:
 752:Middlewares/Third_Party/wolfSSL_wolfSSL_wolfSSL/wolfssl/wolfcrypt/src/random.c ****     rng->status = DRBG_NOT_INIT;
 2600              		.loc 1 752 15 view .LVU797
 2601 0016 AB60     		str	r3, [r5, #8]
 753:Middlewares/Third_Party/wolfSSL_wolfSSL_wolfSSL/wolfssl/wolfcrypt/src/random.c **** #endif
ARM GAS  /tmp/cc09iKDl.s 			page 109


 2602              		.loc 1 753 5 is_stmt 1 view .LVU798
 753:Middlewares/Third_Party/wolfSSL_wolfSSL_wolfSSL/wolfssl/wolfcrypt/src/random.c **** #endif
 2603              		.loc 1 753 17 is_stmt 0 view .LVU799
 2604 0018 2B73     		strb	r3, [r5, #12]
 779:Middlewares/Third_Party/wolfSSL_wolfSSL_wolfSSL/wolfssl/wolfcrypt/src/random.c ****         seedSz = MAX_SEED_SZ;
 2605              		.loc 1 779 5 is_stmt 1 view .LVU800
 779:Middlewares/Third_Party/wolfSSL_wolfSSL_wolfSSL/wolfssl/wolfcrypt/src/random.c ****         seedSz = MAX_SEED_SZ;
 2606              		.loc 1 779 8 is_stmt 0 view .LVU801
 2607 001a A6B1     		cbz	r6, .L196
 724:Middlewares/Third_Party/wolfSSL_wolfSSL_wolfSSL/wolfssl/wolfcrypt/src/random.c **** #endif
 2608              		.loc 1 724 12 view .LVU802
 2609 001c 2424     		movs	r4, #36
 2610              	.L182:
 2611              	.LVL294:
 782:Middlewares/Third_Party/wolfSSL_wolfSSL_wolfSSL/wolfssl/wolfcrypt/src/random.c ****     #ifdef WC_ASYNC_ENABLE_SHA256
 2612              		.loc 1 782 5 is_stmt 1 view .LVU803
 782:Middlewares/Third_Party/wolfSSL_wolfSSL_wolfSSL/wolfssl/wolfcrypt/src/random.c ****     #ifdef WC_ASYNC_ENABLE_SHA256
 2613              		.loc 1 782 9 is_stmt 0 view .LVU804
 2614 001e 0020     		movs	r0, #0
 2615              	.LVL295:
 782:Middlewares/Third_Party/wolfSSL_wolfSSL_wolfSSL/wolfssl/wolfcrypt/src/random.c ****     #ifdef WC_ASYNC_ENABLE_SHA256
 2616              		.loc 1 782 9 view .LVU805
 2617 0020 FFF7FEFF 		bl	wc_RNG_HealthTestLocal
 2618              	.LVL296:
 782:Middlewares/Third_Party/wolfSSL_wolfSSL_wolfSSL/wolfssl/wolfcrypt/src/random.c ****     #ifdef WC_ASYNC_ENABLE_SHA256
 2619              		.loc 1 782 8 view .LVU806
 2620 0024 88B1     		cbz	r0, .L201
 830:Middlewares/Third_Party/wolfSSL_wolfSSL_wolfSSL/wolfssl/wolfcrypt/src/random.c **** 
 2621              		.loc 1 830 13 view .LVU807
 2622 0026 0327     		movs	r7, #3
 2623              	.LVL297:
 2624              	.L183:
 836:Middlewares/Third_Party/wolfSSL_wolfSSL_wolfSSL/wolfssl/wolfcrypt/src/random.c ****         rng->status = DRBG_CONT_FAILED;
 2625              		.loc 1 836 10 is_stmt 1 view .LVU808
 836:Middlewares/Third_Party/wolfSSL_wolfSSL_wolfSSL/wolfssl/wolfcrypt/src/random.c ****         rng->status = DRBG_CONT_FAILED;
 2626              		.loc 1 836 13 is_stmt 0 view .LVU809
 2627 0028 032F     		cmp	r7, #3
 2628 002a 49D0     		beq	.L202
 840:Middlewares/Third_Party/wolfSSL_wolfSSL_wolfSSL/wolfssl/wolfcrypt/src/random.c ****         rng->status = DRBG_FAILED;
 2629              		.loc 1 840 10 is_stmt 1 view .LVU810
 840:Middlewares/Third_Party/wolfSSL_wolfSSL_wolfSSL/wolfssl/wolfcrypt/src/random.c ****         rng->status = DRBG_FAILED;
 2630              		.loc 1 840 13 is_stmt 0 view .LVU811
 2631 002c 012F     		cmp	r7, #1
 2632 002e 4CD0     		beq	.L203
 845:Middlewares/Third_Party/wolfSSL_wolfSSL_wolfSSL/wolfssl/wolfcrypt/src/random.c ****     }
 2633              		.loc 1 845 9 is_stmt 1 view .LVU812
 845:Middlewares/Third_Party/wolfSSL_wolfSSL_wolfSSL/wolfssl/wolfcrypt/src/random.c ****     }
 2634              		.loc 1 845 21 is_stmt 0 view .LVU813
 2635 0030 0223     		movs	r3, #2
 2636 0032 2B73     		strb	r3, [r5, #12]
 2637              	.LVL298:
 2638              	.L179:
 851:Middlewares/Third_Party/wolfSSL_wolfSSL_wolfSSL/wolfssl/wolfcrypt/src/random.c **** 
 2639              		.loc 1 851 1 view .LVU814
 2640 0034 3846     		mov	r0, r7
 2641 0036 12B0     		add	sp, sp, #72
 2642              	.LCFI39:
ARM GAS  /tmp/cc09iKDl.s 			page 110


 2643              		.cfi_remember_state
 2644              		.cfi_def_cfa_offset 24
 2645              		@ sp needed
 2646 0038 BDE8F081 		pop	{r4, r5, r6, r7, r8, pc}
 2647              	.LVL299:
 2648              	.L200:
 2649              	.LCFI40:
 2650              		.cfi_restore_state
 732:Middlewares/Third_Party/wolfSSL_wolfSSL_wolfSSL/wolfssl/wolfcrypt/src/random.c ****         return BAD_FUNC_ARG;
 2651              		.loc 1 732 23 discriminator 1 view .LVU815
 2652 003c 002A     		cmp	r2, #0
 2653 003e E8D0     		beq	.L181
 733:Middlewares/Third_Party/wolfSSL_wolfSSL_wolfSSL/wolfssl/wolfcrypt/src/random.c **** 
 2654              		.loc 1 733 16 view .LVU816
 2655 0040 6FF0AC07 		mvn	r7, #172
 2656              	.LVL300:
 733:Middlewares/Third_Party/wolfSSL_wolfSSL_wolfSSL/wolfssl/wolfcrypt/src/random.c **** 
 2657              		.loc 1 733 16 view .LVU817
 2658 0044 F6E7     		b	.L179
 2659              	.LVL301:
 2660              	.L196:
 780:Middlewares/Third_Party/wolfSSL_wolfSSL_wolfSSL/wolfssl/wolfcrypt/src/random.c **** 
 2661              		.loc 1 780 16 view .LVU818
 2662 0046 3424     		movs	r4, #52
 2663 0048 E9E7     		b	.L182
 2664              	.LVL302:
 2665              	.L201:
 2666              	.LBB120:
 788:Middlewares/Third_Party/wolfSSL_wolfSSL_wolfSSL/wolfssl/wolfcrypt/src/random.c ****     #endif
 2667              		.loc 1 788 9 is_stmt 1 view .LVU819
 792:Middlewares/Third_Party/wolfSSL_wolfSSL_wolfSSL/wolfssl/wolfcrypt/src/random.c ****                 (struct DRBG*)XMALLOC(sizeof(DRBG_internal), rng->heap,
 2668              		.loc 1 792 9 view .LVU820
 793:Middlewares/Third_Party/wolfSSL_wolfSSL_wolfSSL/wolfssl/wolfcrypt/src/random.c ****                                                           DYNAMIC_TYPE_RNG);
 2669              		.loc 1 793 31 is_stmt 0 view .LVU821
 2670 004a 7820     		movs	r0, #120
 2671 004c FFF7FEFF 		bl	pvPortMalloc
 2672              	.LVL303:
 792:Middlewares/Third_Party/wolfSSL_wolfSSL_wolfSSL/wolfssl/wolfcrypt/src/random.c ****                 (struct DRBG*)XMALLOC(sizeof(DRBG_internal), rng->heap,
 2673              		.loc 1 792 19 view .LVU822
 2674 0050 A860     		str	r0, [r5, #8]
 795:Middlewares/Third_Party/wolfSSL_wolfSSL_wolfSSL/wolfssl/wolfcrypt/src/random.c ****             ret = MEMORY_E;
 2675              		.loc 1 795 9 is_stmt 1 view .LVU823
 795:Middlewares/Third_Party/wolfSSL_wolfSSL_wolfSSL/wolfssl/wolfcrypt/src/random.c ****             ret = MEMORY_E;
 2676              		.loc 1 795 12 is_stmt 0 view .LVU824
 2677 0052 78B1     		cbz	r0, .L184
 802:Middlewares/Third_Party/wolfSSL_wolfSSL_wolfSSL/wolfssl/wolfcrypt/src/random.c ****             ret = wc_GenerateSeed(&rng->seed, seed, seedSz);
 2678              		.loc 1 802 9 is_stmt 1 view .LVU825
 803:Middlewares/Third_Party/wolfSSL_wolfSSL_wolfSSL/wolfssl/wolfcrypt/src/random.c ****             if (ret == 0)
 2679              		.loc 1 803 13 view .LVU826
 803:Middlewares/Third_Party/wolfSSL_wolfSSL_wolfSSL/wolfssl/wolfcrypt/src/random.c ****             if (ret == 0)
 2680              		.loc 1 803 19 is_stmt 0 view .LVU827
 2681 0054 2246     		mov	r2, r4
 2682 0056 05A9     		add	r1, sp, #20
 2683 0058 2846     		mov	r0, r5
 2684 005a FFF7FEFF 		bl	wc_GenerateSeed
 2685              	.LVL304:
 804:Middlewares/Third_Party/wolfSSL_wolfSSL_wolfSSL/wolfssl/wolfcrypt/src/random.c ****                 ret = wc_RNG_TestSeed(seed, seedSz);
ARM GAS  /tmp/cc09iKDl.s 			page 111


 2686              		.loc 1 804 13 is_stmt 1 view .LVU828
 804:Middlewares/Third_Party/wolfSSL_wolfSSL_wolfSSL/wolfssl/wolfcrypt/src/random.c ****                 ret = wc_RNG_TestSeed(seed, seedSz);
 2687              		.loc 1 804 16 is_stmt 0 view .LVU829
 2688 005e 78B1     		cbz	r0, .L204
 807:Middlewares/Third_Party/wolfSSL_wolfSSL_wolfSSL/wolfssl/wolfcrypt/src/random.c ****                 rng->status = DRBG_FAILED;
 2689              		.loc 1 807 17 is_stmt 1 view .LVU830
 2690              	.LVL305:
 808:Middlewares/Third_Party/wolfSSL_wolfSSL_wolfSSL/wolfssl/wolfcrypt/src/random.c ****             }
 2691              		.loc 1 808 17 view .LVU831
 808:Middlewares/Third_Party/wolfSSL_wolfSSL_wolfSSL/wolfssl/wolfcrypt/src/random.c ****             }
 2692              		.loc 1 808 29 is_stmt 0 view .LVU832
 2693 0060 0223     		movs	r3, #2
 2694 0062 2B73     		strb	r3, [r5, #12]
 811:Middlewares/Third_Party/wolfSSL_wolfSSL_wolfSSL/wolfssl/wolfcrypt/src/random.c **** 	      ret = Hash_DRBG_Instantiate((DRBG_internal *)rng->drbg,
 2695              		.loc 1 811 13 is_stmt 1 view .LVU833
 807:Middlewares/Third_Party/wolfSSL_wolfSSL_wolfSSL/wolfssl/wolfcrypt/src/random.c ****                 rng->status = DRBG_FAILED;
 2696              		.loc 1 807 21 is_stmt 0 view .LVU834
 2697 0064 0127     		movs	r7, #1
 2698              	.LVL306:
 2699              	.L189:
 816:Middlewares/Third_Party/wolfSSL_wolfSSL_wolfSSL/wolfssl/wolfcrypt/src/random.c ****             #if !defined(WOLFSSL_NO_MALLOC) || defined(WOLFSSL_STATIC_MEMORY)
 2700              		.loc 1 816 13 is_stmt 1 view .LVU835
 816:Middlewares/Third_Party/wolfSSL_wolfSSL_wolfSSL/wolfssl/wolfcrypt/src/random.c ****             #if !defined(WOLFSSL_NO_MALLOC) || defined(WOLFSSL_STATIC_MEMORY)
 2701              		.loc 1 816 16 is_stmt 0 view .LVU836
 2702 0066 4FB1     		cbz	r7, .L187
 818:Middlewares/Third_Party/wolfSSL_wolfSSL_wolfSSL/wolfssl/wolfcrypt/src/random.c ****             #endif
 2703              		.loc 1 818 17 is_stmt 1 view .LVU837
 2704 0068 A868     		ldr	r0, [r5, #8]
 2705 006a FFF7FEFF 		bl	vPortFree
 2706              	.LVL307:
 820:Middlewares/Third_Party/wolfSSL_wolfSSL_wolfSSL/wolfssl/wolfcrypt/src/random.c ****             }
 2707              		.loc 1 820 17 view .LVU838
 820:Middlewares/Third_Party/wolfSSL_wolfSSL_wolfSSL/wolfssl/wolfcrypt/src/random.c ****             }
 2708              		.loc 1 820 27 is_stmt 0 view .LVU839
 2709 006e 0023     		movs	r3, #0
 2710 0070 AB60     		str	r3, [r5, #8]
 2711 0072 03E0     		b	.L187
 2712              	.LVL308:
 2713              	.L184:
 796:Middlewares/Third_Party/wolfSSL_wolfSSL_wolfSSL/wolfssl/wolfcrypt/src/random.c ****             rng->status = DRBG_FAILED;
 2714              		.loc 1 796 13 is_stmt 1 view .LVU840
 797:Middlewares/Third_Party/wolfSSL_wolfSSL_wolfSSL/wolfssl/wolfcrypt/src/random.c ****         }
 2715              		.loc 1 797 13 view .LVU841
 797:Middlewares/Third_Party/wolfSSL_wolfSSL_wolfSSL/wolfssl/wolfcrypt/src/random.c ****         }
 2716              		.loc 1 797 25 is_stmt 0 view .LVU842
 2717 0074 0223     		movs	r3, #2
 2718 0076 2B73     		strb	r3, [r5, #12]
 802:Middlewares/Third_Party/wolfSSL_wolfSSL_wolfSSL/wolfssl/wolfcrypt/src/random.c ****             ret = wc_GenerateSeed(&rng->seed, seed, seedSz);
 2719              		.loc 1 802 9 is_stmt 1 view .LVU843
 796:Middlewares/Third_Party/wolfSSL_wolfSSL_wolfSSL/wolfssl/wolfcrypt/src/random.c ****             rng->status = DRBG_FAILED;
 2720              		.loc 1 796 17 is_stmt 0 view .LVU844
 2721 0078 6FF07C07 		mvn	r7, #124
 2722              	.LVL309:
 2723              	.L187:
 824:Middlewares/Third_Party/wolfSSL_wolfSSL_wolfSSL/wolfssl/wolfcrypt/src/random.c ****     #ifdef WC_ASYNC_ENABLE_SHA256
 2724              		.loc 1 824 9 is_stmt 1 view .LVU845
 2725              	.LBB121:
ARM GAS  /tmp/cc09iKDl.s 			page 112


 2726              	.LBI121:
 272:Middlewares/Third_Party/wolfSSL_wolfSSL_wolfSSL/wolfssl/wolfcrypt/src/misc.c **** {
 2727              		.loc 2 272 26 view .LVU846
 2728              	.LBB122:
 274:Middlewares/Third_Party/wolfSSL_wolfSSL_wolfSSL/wolfssl/wolfcrypt/src/misc.c **** 
 2729              		.loc 2 274 5 view .LVU847
 292:Middlewares/Third_Party/wolfSSL_wolfSSL_wolfSSL/wolfssl/wolfcrypt/src/misc.c **** }
 2730              		.loc 2 292 5 view .LVU848
 274:Middlewares/Third_Party/wolfSSL_wolfSSL_wolfSSL/wolfssl/wolfcrypt/src/misc.c **** 
 2731              		.loc 2 274 20 is_stmt 0 view .LVU849
 2732 007c 05AB     		add	r3, sp, #20
 2733              	.LVL310:
 292:Middlewares/Third_Party/wolfSSL_wolfSSL_wolfSSL/wolfssl/wolfcrypt/src/misc.c **** }
 2734              		.loc 2 292 11 view .LVU850
 2735 007e 17E0     		b	.L190
 2736              	.LVL311:
 2737              	.L204:
 292:Middlewares/Third_Party/wolfSSL_wolfSSL_wolfSSL/wolfssl/wolfcrypt/src/misc.c **** }
 2738              		.loc 2 292 11 view .LVU851
 2739              	.LBE122:
 2740              	.LBE121:
 805:Middlewares/Third_Party/wolfSSL_wolfSSL_wolfSSL/wolfssl/wolfcrypt/src/random.c ****             else {
 2741              		.loc 1 805 17 is_stmt 1 view .LVU852
 805:Middlewares/Third_Party/wolfSSL_wolfSSL_wolfSSL/wolfssl/wolfcrypt/src/random.c ****             else {
 2742              		.loc 1 805 23 is_stmt 0 view .LVU853
 2743 0080 2146     		mov	r1, r4
 2744 0082 05A8     		add	r0, sp, #20
 2745              	.LVL312:
 805:Middlewares/Third_Party/wolfSSL_wolfSSL_wolfSSL/wolfssl/wolfcrypt/src/random.c ****             else {
 2746              		.loc 1 805 23 view .LVU854
 2747 0084 FFF7FEFF 		bl	wc_RNG_TestSeed
 2748              	.LVL313:
 811:Middlewares/Third_Party/wolfSSL_wolfSSL_wolfSSL/wolfssl/wolfcrypt/src/random.c **** 	      ret = Hash_DRBG_Instantiate((DRBG_internal *)rng->drbg,
 2749              		.loc 1 811 13 is_stmt 1 view .LVU855
 811:Middlewares/Third_Party/wolfSSL_wolfSSL_wolfSSL/wolfssl/wolfcrypt/src/random.c **** 	      ret = Hash_DRBG_Instantiate((DRBG_internal *)rng->drbg,
 2750              		.loc 1 811 16 is_stmt 0 view .LVU856
 2751 0088 0746     		mov	r7, r0
 2752 008a 0028     		cmp	r0, #0
 2753 008c EBD1     		bne	.L189
 812:Middlewares/Third_Party/wolfSSL_wolfSSL_wolfSSL/wolfssl/wolfcrypt/src/random.c ****                             seed + SEED_BLOCK_SZ, seedSz - SEED_BLOCK_SZ,
 2754              		.loc 1 812 8 is_stmt 1 view .LVU857
 812:Middlewares/Third_Party/wolfSSL_wolfSSL_wolfSSL/wolfssl/wolfcrypt/src/random.c ****                             seed + SEED_BLOCK_SZ, seedSz - SEED_BLOCK_SZ,
 2755              		.loc 1 812 14 is_stmt 0 view .LVU858
 2756 008e 189B     		ldr	r3, [sp, #96]
 2757 0090 0293     		str	r3, [sp, #8]
 2758 0092 6B68     		ldr	r3, [r5, #4]
 2759 0094 0193     		str	r3, [sp, #4]
 2760 0096 0096     		str	r6, [sp]
 2761 0098 4346     		mov	r3, r8
 2762 009a 221F     		subs	r2, r4, #4
 2763 009c 06A9     		add	r1, sp, #24
 2764 009e A868     		ldr	r0, [r5, #8]
 2765              	.LVL314:
 812:Middlewares/Third_Party/wolfSSL_wolfSSL_wolfSSL/wolfssl/wolfcrypt/src/random.c ****                             seed + SEED_BLOCK_SZ, seedSz - SEED_BLOCK_SZ,
 2766              		.loc 1 812 14 view .LVU859
 2767 00a0 FFF7FEFF 		bl	Hash_DRBG_Instantiate
 2768              	.LVL315:
ARM GAS  /tmp/cc09iKDl.s 			page 113


 2769 00a4 0746     		mov	r7, r0
 2770              	.LVL316:
 812:Middlewares/Third_Party/wolfSSL_wolfSSL_wolfSSL/wolfssl/wolfcrypt/src/random.c ****                             seed + SEED_BLOCK_SZ, seedSz - SEED_BLOCK_SZ,
 2771              		.loc 1 812 14 view .LVU860
 2772 00a6 DEE7     		b	.L189
 2773              	.LVL317:
 2774              	.L191:
 2775              	.LBB124:
 2776              	.LBB123:
 292:Middlewares/Third_Party/wolfSSL_wolfSSL_wolfSSL/wolfssl/wolfcrypt/src/misc.c **** }
 2777              		.loc 2 292 19 is_stmt 1 view .LVU861
 292:Middlewares/Third_Party/wolfSSL_wolfSSL_wolfSSL/wolfssl/wolfcrypt/src/misc.c **** }
 2778              		.loc 2 292 24 is_stmt 0 view .LVU862
 2779 00a8 0021     		movs	r1, #0
 2780 00aa 03F8011B 		strb	r1, [r3], #1
 2781              	.LVL318:
 292:Middlewares/Third_Party/wolfSSL_wolfSSL_wolfSSL/wolfssl/wolfcrypt/src/misc.c **** }
 2782              		.loc 2 292 15 view .LVU863
 2783 00ae 1446     		mov	r4, r2
 2784              	.LVL319:
 2785              	.L190:
 292:Middlewares/Third_Party/wolfSSL_wolfSSL_wolfSSL/wolfssl/wolfcrypt/src/misc.c **** }
 2786              		.loc 2 292 11 is_stmt 1 view .LVU864
 292:Middlewares/Third_Party/wolfSSL_wolfSSL_wolfSSL/wolfssl/wolfcrypt/src/misc.c **** }
 2787              		.loc 2 292 15 is_stmt 0 view .LVU865
 2788 00b0 621E     		subs	r2, r4, #1
 2789              	.LVL320:
 292:Middlewares/Third_Party/wolfSSL_wolfSSL_wolfSSL/wolfssl/wolfcrypt/src/misc.c **** }
 2790              		.loc 2 292 11 view .LVU866
 2791 00b2 002C     		cmp	r4, #0
 2792 00b4 F8D1     		bne	.L191
 2793              	.LVL321:
 292:Middlewares/Third_Party/wolfSSL_wolfSSL_wolfSSL/wolfssl/wolfcrypt/src/misc.c **** }
 2794              		.loc 2 292 11 view .LVU867
 2795              	.LBE123:
 2796              	.LBE124:
 2797              	.LBE120:
 832:Middlewares/Third_Party/wolfSSL_wolfSSL_wolfSSL/wolfssl/wolfcrypt/src/random.c ****         rng->status = DRBG_OK;
 2798              		.loc 1 832 5 is_stmt 1 view .LVU868
 832:Middlewares/Third_Party/wolfSSL_wolfSSL_wolfSSL/wolfssl/wolfcrypt/src/random.c ****         rng->status = DRBG_OK;
 2799              		.loc 1 832 8 is_stmt 0 view .LVU869
 2800 00b6 002F     		cmp	r7, #0
 2801 00b8 B6D1     		bne	.L183
 833:Middlewares/Third_Party/wolfSSL_wolfSSL_wolfSSL/wolfssl/wolfcrypt/src/random.c ****         ret = 0;
 2802              		.loc 1 833 9 is_stmt 1 view .LVU870
 833:Middlewares/Third_Party/wolfSSL_wolfSSL_wolfSSL/wolfssl/wolfcrypt/src/random.c ****         ret = 0;
 2803              		.loc 1 833 21 is_stmt 0 view .LVU871
 2804 00ba 0123     		movs	r3, #1
 2805 00bc 2B73     		strb	r3, [r5, #12]
 834:Middlewares/Third_Party/wolfSSL_wolfSSL_wolfSSL/wolfssl/wolfcrypt/src/random.c ****     }
 2806              		.loc 1 834 9 is_stmt 1 view .LVU872
 2807              	.LVL322:
 834:Middlewares/Third_Party/wolfSSL_wolfSSL_wolfSSL/wolfssl/wolfcrypt/src/random.c ****     }
 2808              		.loc 1 834 9 is_stmt 0 view .LVU873
 2809 00be B9E7     		b	.L179
 2810              	.LVL323:
 2811              	.L202:
ARM GAS  /tmp/cc09iKDl.s 			page 114


 837:Middlewares/Third_Party/wolfSSL_wolfSSL_wolfSSL/wolfssl/wolfcrypt/src/random.c ****         ret = DRBG_CONT_FIPS_E;
 2812              		.loc 1 837 9 is_stmt 1 view .LVU874
 837:Middlewares/Third_Party/wolfSSL_wolfSSL_wolfSSL/wolfssl/wolfcrypt/src/random.c ****         ret = DRBG_CONT_FIPS_E;
 2813              		.loc 1 837 21 is_stmt 0 view .LVU875
 2814 00c0 0323     		movs	r3, #3
 2815 00c2 2B73     		strb	r3, [r5, #12]
 838:Middlewares/Third_Party/wolfSSL_wolfSSL_wolfSSL/wolfssl/wolfcrypt/src/random.c ****     }
 2816              		.loc 1 838 9 is_stmt 1 view .LVU876
 2817              	.LVL324:
 838:Middlewares/Third_Party/wolfSSL_wolfSSL_wolfSSL/wolfssl/wolfcrypt/src/random.c ****     }
 2818              		.loc 1 838 13 is_stmt 0 view .LVU877
 2819 00c4 6FF0D007 		mvn	r7, #208
 2820 00c8 B4E7     		b	.L179
 2821              	.LVL325:
 2822              	.L203:
 841:Middlewares/Third_Party/wolfSSL_wolfSSL_wolfSSL/wolfssl/wolfcrypt/src/random.c ****         ret = RNG_FAILURE_E;
 2823              		.loc 1 841 9 is_stmt 1 view .LVU878
 841:Middlewares/Third_Party/wolfSSL_wolfSSL_wolfSSL/wolfssl/wolfcrypt/src/random.c ****         ret = RNG_FAILURE_E;
 2824              		.loc 1 841 21 is_stmt 0 view .LVU879
 2825 00ca 0223     		movs	r3, #2
 2826 00cc 2B73     		strb	r3, [r5, #12]
 842:Middlewares/Third_Party/wolfSSL_wolfSSL_wolfSSL/wolfssl/wolfcrypt/src/random.c ****     }
 2827              		.loc 1 842 9 is_stmt 1 view .LVU880
 2828              	.LVL326:
 842:Middlewares/Third_Party/wolfSSL_wolfSSL_wolfSSL/wolfssl/wolfcrypt/src/random.c ****     }
 2829              		.loc 1 842 13 is_stmt 0 view .LVU881
 2830 00ce 6FF0C607 		mvn	r7, #198
 2831 00d2 AFE7     		b	.L179
 2832              	.LVL327:
 2833              	.L194:
 731:Middlewares/Third_Party/wolfSSL_wolfSSL_wolfSSL/wolfssl/wolfcrypt/src/random.c ****     if (nonce == NULL && nonceSz != 0)
 2834              		.loc 1 731 16 view .LVU882
 2835 00d4 6FF0AC07 		mvn	r7, #172
 2836 00d8 ACE7     		b	.L179
 2837              		.cfi_endproc
 2838              	.LFE185:
 2840              		.section	.text.wc_rng_new,"ax",%progbits
 2841              		.align	1
 2842              		.global	wc_rng_new
 2843              		.syntax unified
 2844              		.thumb
 2845              		.thumb_func
 2846              		.fpu fpv4-sp-d16
 2848              	wc_rng_new:
 2849              	.LVL328:
 2850              	.LFB186:
 856:Middlewares/Third_Party/wolfSSL_wolfSSL_wolfSSL/wolfssl/wolfcrypt/src/random.c ****     WC_RNG* rng;
 2851              		.loc 1 856 1 is_stmt 1 view -0
 2852              		.cfi_startproc
 2853              		@ args = 0, pretend = 0, frame = 0
 2854              		@ frame_needed = 0, uses_anonymous_args = 0
 856:Middlewares/Third_Party/wolfSSL_wolfSSL_wolfSSL/wolfssl/wolfcrypt/src/random.c ****     WC_RNG* rng;
 2855              		.loc 1 856 1 is_stmt 0 view .LVU884
 2856 0000 F0B5     		push	{r4, r5, r6, r7, lr}
 2857              	.LCFI41:
 2858              		.cfi_def_cfa_offset 20
 2859              		.cfi_offset 4, -20
ARM GAS  /tmp/cc09iKDl.s 			page 115


 2860              		.cfi_offset 5, -16
 2861              		.cfi_offset 6, -12
 2862              		.cfi_offset 7, -8
 2863              		.cfi_offset 14, -4
 2864 0002 83B0     		sub	sp, sp, #12
 2865              	.LCFI42:
 2866              		.cfi_def_cfa_offset 32
 2867 0004 0446     		mov	r4, r0
 2868 0006 0D46     		mov	r5, r1
 2869 0008 1646     		mov	r6, r2
 857:Middlewares/Third_Party/wolfSSL_wolfSSL_wolfSSL/wolfssl/wolfcrypt/src/random.c **** 
 2870              		.loc 1 857 5 is_stmt 1 view .LVU885
 859:Middlewares/Third_Party/wolfSSL_wolfSSL_wolfSSL/wolfssl/wolfcrypt/src/random.c ****     if (rng) {
 2871              		.loc 1 859 5 view .LVU886
 859:Middlewares/Third_Party/wolfSSL_wolfSSL_wolfSSL/wolfssl/wolfcrypt/src/random.c ****     if (rng) {
 2872              		.loc 1 859 20 is_stmt 0 view .LVU887
 2873 000a 1020     		movs	r0, #16
 2874              	.LVL329:
 859:Middlewares/Third_Party/wolfSSL_wolfSSL_wolfSSL/wolfssl/wolfcrypt/src/random.c ****     if (rng) {
 2875              		.loc 1 859 20 view .LVU888
 2876 000c FFF7FEFF 		bl	pvPortMalloc
 2877              	.LVL330:
 860:Middlewares/Third_Party/wolfSSL_wolfSSL_wolfSSL/wolfssl/wolfcrypt/src/random.c ****         int error = _InitRng(rng, nonce, nonceSz, heap, INVALID_DEVID) != 0;
 2878              		.loc 1 860 5 is_stmt 1 view .LVU889
 860:Middlewares/Third_Party/wolfSSL_wolfSSL_wolfSSL/wolfssl/wolfcrypt/src/random.c ****         int error = _InitRng(rng, nonce, nonceSz, heap, INVALID_DEVID) != 0;
 2879              		.loc 1 860 8 is_stmt 0 view .LVU890
 2880 0010 0746     		mov	r7, r0
 2881 0012 40B1     		cbz	r0, .L205
 2882              	.LBB125:
 861:Middlewares/Third_Party/wolfSSL_wolfSSL_wolfSSL/wolfssl/wolfcrypt/src/random.c ****         if (error) {
 2883              		.loc 1 861 9 is_stmt 1 view .LVU891
 861:Middlewares/Third_Party/wolfSSL_wolfSSL_wolfSSL/wolfssl/wolfcrypt/src/random.c ****         if (error) {
 2884              		.loc 1 861 21 is_stmt 0 view .LVU892
 2885 0014 6FF00103 		mvn	r3, #1
 2886 0018 0093     		str	r3, [sp]
 2887 001a 3346     		mov	r3, r6
 2888 001c 2A46     		mov	r2, r5
 2889 001e 2146     		mov	r1, r4
 2890 0020 FFF7FEFF 		bl	_InitRng
 2891              	.LVL331:
 862:Middlewares/Third_Party/wolfSSL_wolfSSL_wolfSSL/wolfssl/wolfcrypt/src/random.c ****             XFREE(rng, heap, DYNAMIC_TYPE_RNG);
 2892              		.loc 1 862 9 is_stmt 1 view .LVU893
 862:Middlewares/Third_Party/wolfSSL_wolfSSL_wolfSSL/wolfssl/wolfcrypt/src/random.c ****             XFREE(rng, heap, DYNAMIC_TYPE_RNG);
 2893              		.loc 1 862 12 is_stmt 0 view .LVU894
 2894 0024 10B9     		cbnz	r0, .L208
 2895              	.LVL332:
 2896              	.L205:
 862:Middlewares/Third_Party/wolfSSL_wolfSSL_wolfSSL/wolfssl/wolfcrypt/src/random.c ****             XFREE(rng, heap, DYNAMIC_TYPE_RNG);
 2897              		.loc 1 862 12 view .LVU895
 2898              	.LBE125:
 869:Middlewares/Third_Party/wolfSSL_wolfSSL_wolfSSL/wolfssl/wolfcrypt/src/random.c **** 
 2899              		.loc 1 869 1 view .LVU896
 2900 0026 3846     		mov	r0, r7
 2901 0028 03B0     		add	sp, sp, #12
 2902              	.LCFI43:
 2903              		.cfi_remember_state
 2904              		.cfi_def_cfa_offset 20
ARM GAS  /tmp/cc09iKDl.s 			page 116


 2905              		@ sp needed
 2906 002a F0BD     		pop	{r4, r5, r6, r7, pc}
 2907              	.LVL333:
 2908              	.L208:
 2909              	.LCFI44:
 2910              		.cfi_restore_state
 2911              	.LBB126:
 863:Middlewares/Third_Party/wolfSSL_wolfSSL_wolfSSL/wolfssl/wolfcrypt/src/random.c ****             rng = NULL;
 2912              		.loc 1 863 13 is_stmt 1 view .LVU897
 2913 002c 3846     		mov	r0, r7
 2914              	.LVL334:
 863:Middlewares/Third_Party/wolfSSL_wolfSSL_wolfSSL/wolfssl/wolfcrypt/src/random.c ****             rng = NULL;
 2915              		.loc 1 863 13 is_stmt 0 view .LVU898
 2916 002e FFF7FEFF 		bl	vPortFree
 2917              	.LVL335:
 864:Middlewares/Third_Party/wolfSSL_wolfSSL_wolfSSL/wolfssl/wolfcrypt/src/random.c ****         }
 2918              		.loc 1 864 13 is_stmt 1 view .LVU899
 864:Middlewares/Third_Party/wolfSSL_wolfSSL_wolfSSL/wolfssl/wolfcrypt/src/random.c ****         }
 2919              		.loc 1 864 17 is_stmt 0 view .LVU900
 2920 0032 0027     		movs	r7, #0
 864:Middlewares/Third_Party/wolfSSL_wolfSSL_wolfSSL/wolfssl/wolfcrypt/src/random.c ****         }
 2921              		.loc 1 864 17 view .LVU901
 2922              	.LBE126:
 868:Middlewares/Third_Party/wolfSSL_wolfSSL_wolfSSL/wolfssl/wolfcrypt/src/random.c **** }
 2923              		.loc 1 868 5 is_stmt 1 view .LVU902
 868:Middlewares/Third_Party/wolfSSL_wolfSSL_wolfSSL/wolfssl/wolfcrypt/src/random.c **** }
 2924              		.loc 1 868 12 is_stmt 0 view .LVU903
 2925 0034 F7E7     		b	.L205
 2926              		.cfi_endproc
 2927              	.LFE186:
 2929              		.section	.text.wc_InitRng,"ax",%progbits
 2930              		.align	1
 2931              		.global	wc_InitRng
 2932              		.syntax unified
 2933              		.thumb
 2934              		.thumb_func
 2935              		.fpu fpv4-sp-d16
 2937              	wc_InitRng:
 2938              	.LVL336:
 2939              	.LFB188:
 887:Middlewares/Third_Party/wolfSSL_wolfSSL_wolfSSL/wolfssl/wolfcrypt/src/random.c ****     return _InitRng(rng, NULL, 0, NULL, INVALID_DEVID);
 2940              		.loc 1 887 1 is_stmt 1 view -0
 2941              		.cfi_startproc
 2942              		@ args = 0, pretend = 0, frame = 0
 2943              		@ frame_needed = 0, uses_anonymous_args = 0
 887:Middlewares/Third_Party/wolfSSL_wolfSSL_wolfSSL/wolfssl/wolfcrypt/src/random.c ****     return _InitRng(rng, NULL, 0, NULL, INVALID_DEVID);
 2944              		.loc 1 887 1 is_stmt 0 view .LVU905
 2945 0000 00B5     		push	{lr}
 2946              	.LCFI45:
 2947              		.cfi_def_cfa_offset 4
 2948              		.cfi_offset 14, -4
 2949 0002 83B0     		sub	sp, sp, #12
 2950              	.LCFI46:
 2951              		.cfi_def_cfa_offset 16
 888:Middlewares/Third_Party/wolfSSL_wolfSSL_wolfSSL/wolfssl/wolfcrypt/src/random.c **** }
 2952              		.loc 1 888 5 is_stmt 1 view .LVU906
 888:Middlewares/Third_Party/wolfSSL_wolfSSL_wolfSSL/wolfssl/wolfcrypt/src/random.c **** }
ARM GAS  /tmp/cc09iKDl.s 			page 117


 2953              		.loc 1 888 12 is_stmt 0 view .LVU907
 2954 0004 6FF00103 		mvn	r3, #1
 2955 0008 0093     		str	r3, [sp]
 2956 000a 0023     		movs	r3, #0
 2957 000c 1A46     		mov	r2, r3
 2958 000e 1946     		mov	r1, r3
 2959 0010 FFF7FEFF 		bl	_InitRng
 2960              	.LVL337:
 889:Middlewares/Third_Party/wolfSSL_wolfSSL_wolfSSL/wolfssl/wolfcrypt/src/random.c **** 
 2961              		.loc 1 889 1 view .LVU908
 2962 0014 03B0     		add	sp, sp, #12
 2963              	.LCFI47:
 2964              		.cfi_def_cfa_offset 4
 2965              		@ sp needed
 2966 0016 5DF804FB 		ldr	pc, [sp], #4
 2967              		.cfi_endproc
 2968              	.LFE188:
 2970              		.section	.text.wc_InitRng_ex,"ax",%progbits
 2971              		.align	1
 2972              		.global	wc_InitRng_ex
 2973              		.syntax unified
 2974              		.thumb
 2975              		.thumb_func
 2976              		.fpu fpv4-sp-d16
 2978              	wc_InitRng_ex:
 2979              	.LVL338:
 2980              	.LFB189:
 893:Middlewares/Third_Party/wolfSSL_wolfSSL_wolfSSL/wolfssl/wolfcrypt/src/random.c ****     return _InitRng(rng, NULL, 0, heap, devId);
 2981              		.loc 1 893 1 is_stmt 1 view -0
 2982              		.cfi_startproc
 2983              		@ args = 0, pretend = 0, frame = 0
 2984              		@ frame_needed = 0, uses_anonymous_args = 0
 893:Middlewares/Third_Party/wolfSSL_wolfSSL_wolfSSL/wolfssl/wolfcrypt/src/random.c ****     return _InitRng(rng, NULL, 0, heap, devId);
 2985              		.loc 1 893 1 is_stmt 0 view .LVU910
 2986 0000 00B5     		push	{lr}
 2987              	.LCFI48:
 2988              		.cfi_def_cfa_offset 4
 2989              		.cfi_offset 14, -4
 2990 0002 83B0     		sub	sp, sp, #12
 2991              	.LCFI49:
 2992              		.cfi_def_cfa_offset 16
 2993 0004 0B46     		mov	r3, r1
 894:Middlewares/Third_Party/wolfSSL_wolfSSL_wolfSSL/wolfssl/wolfcrypt/src/random.c **** }
 2994              		.loc 1 894 5 is_stmt 1 view .LVU911
 894:Middlewares/Third_Party/wolfSSL_wolfSSL_wolfSSL/wolfssl/wolfcrypt/src/random.c **** }
 2995              		.loc 1 894 12 is_stmt 0 view .LVU912
 2996 0006 0092     		str	r2, [sp]
 2997 0008 0022     		movs	r2, #0
 2998              	.LVL339:
 894:Middlewares/Third_Party/wolfSSL_wolfSSL_wolfSSL/wolfssl/wolfcrypt/src/random.c **** }
 2999              		.loc 1 894 12 view .LVU913
 3000 000a 1146     		mov	r1, r2
 3001              	.LVL340:
 894:Middlewares/Third_Party/wolfSSL_wolfSSL_wolfSSL/wolfssl/wolfcrypt/src/random.c **** }
 3002              		.loc 1 894 12 view .LVU914
 3003 000c FFF7FEFF 		bl	_InitRng
 3004              	.LVL341:
ARM GAS  /tmp/cc09iKDl.s 			page 118


 895:Middlewares/Third_Party/wolfSSL_wolfSSL_wolfSSL/wolfssl/wolfcrypt/src/random.c **** 
 3005              		.loc 1 895 1 view .LVU915
 3006 0010 03B0     		add	sp, sp, #12
 3007              	.LCFI50:
 3008              		.cfi_def_cfa_offset 4
 3009              		@ sp needed
 3010 0012 5DF804FB 		ldr	pc, [sp], #4
 3011              		.cfi_endproc
 3012              	.LFE189:
 3014              		.section	.text.wc_InitRngNonce,"ax",%progbits
 3015              		.align	1
 3016              		.global	wc_InitRngNonce
 3017              		.syntax unified
 3018              		.thumb
 3019              		.thumb_func
 3020              		.fpu fpv4-sp-d16
 3022              	wc_InitRngNonce:
 3023              	.LVL342:
 3024              	.LFB190:
 899:Middlewares/Third_Party/wolfSSL_wolfSSL_wolfSSL/wolfssl/wolfcrypt/src/random.c ****     return _InitRng(rng, nonce, nonceSz, NULL, INVALID_DEVID);
 3025              		.loc 1 899 1 is_stmt 1 view -0
 3026              		.cfi_startproc
 3027              		@ args = 0, pretend = 0, frame = 0
 3028              		@ frame_needed = 0, uses_anonymous_args = 0
 899:Middlewares/Third_Party/wolfSSL_wolfSSL_wolfSSL/wolfssl/wolfcrypt/src/random.c ****     return _InitRng(rng, nonce, nonceSz, NULL, INVALID_DEVID);
 3029              		.loc 1 899 1 is_stmt 0 view .LVU917
 3030 0000 00B5     		push	{lr}
 3031              	.LCFI51:
 3032              		.cfi_def_cfa_offset 4
 3033              		.cfi_offset 14, -4
 3034 0002 83B0     		sub	sp, sp, #12
 3035              	.LCFI52:
 3036              		.cfi_def_cfa_offset 16
 900:Middlewares/Third_Party/wolfSSL_wolfSSL_wolfSSL/wolfssl/wolfcrypt/src/random.c **** }
 3037              		.loc 1 900 5 is_stmt 1 view .LVU918
 900:Middlewares/Third_Party/wolfSSL_wolfSSL_wolfSSL/wolfssl/wolfcrypt/src/random.c **** }
 3038              		.loc 1 900 12 is_stmt 0 view .LVU919
 3039 0004 6FF00103 		mvn	r3, #1
 3040 0008 0093     		str	r3, [sp]
 3041 000a 0023     		movs	r3, #0
 3042 000c FFF7FEFF 		bl	_InitRng
 3043              	.LVL343:
 901:Middlewares/Third_Party/wolfSSL_wolfSSL_wolfSSL/wolfssl/wolfcrypt/src/random.c **** 
 3044              		.loc 1 901 1 view .LVU920
 3045 0010 03B0     		add	sp, sp, #12
 3046              	.LCFI53:
 3047              		.cfi_def_cfa_offset 4
 3048              		@ sp needed
 3049 0012 5DF804FB 		ldr	pc, [sp], #4
 3050              		.cfi_endproc
 3051              	.LFE190:
 3053              		.section	.text.wc_InitRngNonce_ex,"ax",%progbits
 3054              		.align	1
 3055              		.global	wc_InitRngNonce_ex
 3056              		.syntax unified
 3057              		.thumb
 3058              		.thumb_func
ARM GAS  /tmp/cc09iKDl.s 			page 119


 3059              		.fpu fpv4-sp-d16
 3061              	wc_InitRngNonce_ex:
 3062              	.LVL344:
 3063              	.LFB191:
 906:Middlewares/Third_Party/wolfSSL_wolfSSL_wolfSSL/wolfssl/wolfcrypt/src/random.c ****     return _InitRng(rng, nonce, nonceSz, heap, devId);
 3064              		.loc 1 906 1 is_stmt 1 view -0
 3065              		.cfi_startproc
 3066              		@ args = 4, pretend = 0, frame = 0
 3067              		@ frame_needed = 0, uses_anonymous_args = 0
 906:Middlewares/Third_Party/wolfSSL_wolfSSL_wolfSSL/wolfssl/wolfcrypt/src/random.c ****     return _InitRng(rng, nonce, nonceSz, heap, devId);
 3068              		.loc 1 906 1 is_stmt 0 view .LVU922
 3069 0000 10B5     		push	{r4, lr}
 3070              	.LCFI54:
 3071              		.cfi_def_cfa_offset 8
 3072              		.cfi_offset 4, -8
 3073              		.cfi_offset 14, -4
 3074 0002 82B0     		sub	sp, sp, #8
 3075              	.LCFI55:
 3076              		.cfi_def_cfa_offset 16
 907:Middlewares/Third_Party/wolfSSL_wolfSSL_wolfSSL/wolfssl/wolfcrypt/src/random.c **** }
 3077              		.loc 1 907 5 is_stmt 1 view .LVU923
 907:Middlewares/Third_Party/wolfSSL_wolfSSL_wolfSSL/wolfssl/wolfcrypt/src/random.c **** }
 3078              		.loc 1 907 12 is_stmt 0 view .LVU924
 3079 0004 049C     		ldr	r4, [sp, #16]
 3080 0006 0094     		str	r4, [sp]
 3081 0008 FFF7FEFF 		bl	_InitRng
 3082              	.LVL345:
 908:Middlewares/Third_Party/wolfSSL_wolfSSL_wolfSSL/wolfssl/wolfcrypt/src/random.c **** 
 3083              		.loc 1 908 1 view .LVU925
 3084 000c 02B0     		add	sp, sp, #8
 3085              	.LCFI56:
 3086              		.cfi_def_cfa_offset 8
 3087              		@ sp needed
 3088 000e 10BD     		pop	{r4, pc}
 908:Middlewares/Third_Party/wolfSSL_wolfSSL_wolfSSL/wolfssl/wolfcrypt/src/random.c **** 
 3089              		.loc 1 908 1 view .LVU926
 3090              		.cfi_endproc
 3091              	.LFE191:
 3093              		.section	.text.wc_RNG_GenerateBlock,"ax",%progbits
 3094              		.align	1
 3095              		.global	wc_RNG_GenerateBlock
 3096              		.syntax unified
 3097              		.thumb
 3098              		.thumb_func
 3099              		.fpu fpv4-sp-d16
 3101              	wc_RNG_GenerateBlock:
 3102              	.LVL346:
 3103              	.LFB192:
 914:Middlewares/Third_Party/wolfSSL_wolfSSL_wolfSSL/wolfssl/wolfcrypt/src/random.c ****     int ret;
 3104              		.loc 1 914 1 is_stmt 1 view -0
 3105              		.cfi_startproc
 3106              		@ args = 0, pretend = 0, frame = 40
 3107              		@ frame_needed = 0, uses_anonymous_args = 0
 915:Middlewares/Third_Party/wolfSSL_wolfSSL_wolfSSL/wolfssl/wolfcrypt/src/random.c **** 
 3108              		.loc 1 915 5 view .LVU928
 917:Middlewares/Third_Party/wolfSSL_wolfSSL_wolfSSL/wolfssl/wolfcrypt/src/random.c ****         return BAD_FUNC_ARG;
 3109              		.loc 1 917 5 view .LVU929
ARM GAS  /tmp/cc09iKDl.s 			page 120


 917:Middlewares/Third_Party/wolfSSL_wolfSSL_wolfSSL/wolfssl/wolfcrypt/src/random.c ****         return BAD_FUNC_ARG;
 3110              		.loc 1 917 8 is_stmt 0 view .LVU930
 3111 0000 0028     		cmp	r0, #0
 3112 0002 4CD0     		beq	.L226
 914:Middlewares/Third_Party/wolfSSL_wolfSSL_wolfSSL/wolfssl/wolfcrypt/src/random.c ****     int ret;
 3113              		.loc 1 914 1 discriminator 1 view .LVU931
 3114 0004 70B5     		push	{r4, r5, r6, lr}
 3115              	.LCFI57:
 3116              		.cfi_def_cfa_offset 16
 3117              		.cfi_offset 4, -16
 3118              		.cfi_offset 5, -12
 3119              		.cfi_offset 6, -8
 3120              		.cfi_offset 14, -4
 3121 0006 8AB0     		sub	sp, sp, #40
 3122              	.LCFI58:
 3123              		.cfi_def_cfa_offset 56
 3124 0008 0E46     		mov	r6, r1
 3125 000a 1446     		mov	r4, r2
 3126 000c 0546     		mov	r5, r0
 917:Middlewares/Third_Party/wolfSSL_wolfSSL_wolfSSL/wolfssl/wolfcrypt/src/random.c ****         return BAD_FUNC_ARG;
 3127              		.loc 1 917 21 discriminator 1 view .LVU932
 3128 000e 0029     		cmp	r1, #0
 3129 0010 48D0     		beq	.L227
 920:Middlewares/Third_Party/wolfSSL_wolfSSL_wolfSSL/wolfssl/wolfcrypt/src/random.c ****         return 0; 
 3130              		.loc 1 920 5 is_stmt 1 view .LVU933
 920:Middlewares/Third_Party/wolfSSL_wolfSSL_wolfSSL/wolfssl/wolfcrypt/src/random.c ****         return 0; 
 3131              		.loc 1 920 8 is_stmt 0 view .LVU934
 3132 0012 002A     		cmp	r2, #0
 3133 0014 49D0     		beq	.L228
 960:Middlewares/Third_Party/wolfSSL_wolfSSL_wolfSSL/wolfssl/wolfcrypt/src/random.c ****         return BAD_FUNC_ARG;
 3134              		.loc 1 960 5 is_stmt 1 view .LVU935
 960:Middlewares/Third_Party/wolfSSL_wolfSSL_wolfSSL/wolfssl/wolfcrypt/src/random.c ****         return BAD_FUNC_ARG;
 3135              		.loc 1 960 8 is_stmt 0 view .LVU936
 3136 0016 B2F5803F 		cmp	r2, #65536
 3137 001a 49D8     		bhi	.L229
 963:Middlewares/Third_Party/wolfSSL_wolfSSL_wolfSSL/wolfssl/wolfcrypt/src/random.c ****         return RNG_FAILURE_E;
 3138              		.loc 1 963 5 is_stmt 1 view .LVU937
 963:Middlewares/Third_Party/wolfSSL_wolfSSL_wolfSSL/wolfssl/wolfcrypt/src/random.c ****         return RNG_FAILURE_E;
 3139              		.loc 1 963 12 is_stmt 0 view .LVU938
 3140 001c 037B     		ldrb	r3, [r0, #12]	@ zero_extendqisi2
 963:Middlewares/Third_Party/wolfSSL_wolfSSL_wolfSSL/wolfssl/wolfcrypt/src/random.c ****         return RNG_FAILURE_E;
 3141              		.loc 1 963 8 view .LVU939
 3142 001e 012B     		cmp	r3, #1
 3143 0020 49D1     		bne	.L230
 966:Middlewares/Third_Party/wolfSSL_wolfSSL_wolfSSL/wolfssl/wolfcrypt/src/random.c ****     if (ret == DRBG_NEED_RESEED) {
 3144              		.loc 1 966 5 is_stmt 1 view .LVU940
 966:Middlewares/Third_Party/wolfSSL_wolfSSL_wolfSSL/wolfssl/wolfcrypt/src/random.c ****     if (ret == DRBG_NEED_RESEED) {
 3145              		.loc 1 966 11 is_stmt 0 view .LVU941
 3146 0022 8068     		ldr	r0, [r0, #8]
 3147              	.LVL347:
 966:Middlewares/Third_Party/wolfSSL_wolfSSL_wolfSSL/wolfssl/wolfcrypt/src/random.c ****     if (ret == DRBG_NEED_RESEED) {
 3148              		.loc 1 966 11 view .LVU942
 3149 0024 FFF7FEFF 		bl	Hash_DRBG_Generate
 3150              	.LVL348:
 967:Middlewares/Third_Party/wolfSSL_wolfSSL_wolfSSL/wolfssl/wolfcrypt/src/random.c ****         if (wc_RNG_HealthTestLocal(1) == 0) {
 3151              		.loc 1 967 5 is_stmt 1 view .LVU943
 967:Middlewares/Third_Party/wolfSSL_wolfSSL_wolfSSL/wolfssl/wolfcrypt/src/random.c ****         if (wc_RNG_HealthTestLocal(1) == 0) {
ARM GAS  /tmp/cc09iKDl.s 			page 121


 3152              		.loc 1 967 8 is_stmt 0 view .LVU944
 3153 0028 0228     		cmp	r0, #2
 3154 002a 08D0     		beq	.L237
 3155              	.L219:
 990:Middlewares/Third_Party/wolfSSL_wolfSSL_wolfSSL/wolfssl/wolfcrypt/src/random.c ****         ret = 0;
 3156              		.loc 1 990 5 is_stmt 1 view .LVU945
 990:Middlewares/Third_Party/wolfSSL_wolfSSL_wolfSSL/wolfssl/wolfcrypt/src/random.c ****         ret = 0;
 3157              		.loc 1 990 8 is_stmt 0 view .LVU946
 3158 002c 0028     		cmp	r0, #0
 3159 002e 3DD0     		beq	.L217
 3160              	.LVL349:
 3161              	.L220:
 993:Middlewares/Third_Party/wolfSSL_wolfSSL_wolfSSL/wolfssl/wolfcrypt/src/random.c ****         ret = DRBG_CONT_FIPS_E;
 3162              		.loc 1 993 10 is_stmt 1 view .LVU947
 993:Middlewares/Third_Party/wolfSSL_wolfSSL_wolfSSL/wolfssl/wolfcrypt/src/random.c ****         ret = DRBG_CONT_FIPS_E;
 3163              		.loc 1 993 13 is_stmt 0 view .LVU948
 3164 0030 0328     		cmp	r0, #3
 3165 0032 2FD0     		beq	.L238
 998:Middlewares/Third_Party/wolfSSL_wolfSSL_wolfSSL/wolfssl/wolfcrypt/src/random.c ****         rng->status = DRBG_FAILED;
 3166              		.loc 1 998 9 is_stmt 1 view .LVU949
 3167              	.LVL350:
 999:Middlewares/Third_Party/wolfSSL_wolfSSL_wolfSSL/wolfssl/wolfcrypt/src/random.c ****     }
 3168              		.loc 1 999 9 view .LVU950
 999:Middlewares/Third_Party/wolfSSL_wolfSSL_wolfSSL/wolfssl/wolfcrypt/src/random.c ****     }
 3169              		.loc 1 999 21 is_stmt 0 view .LVU951
 3170 0034 0223     		movs	r3, #2
 3171 0036 2B73     		strb	r3, [r5, #12]
 998:Middlewares/Third_Party/wolfSSL_wolfSSL_wolfSSL/wolfssl/wolfcrypt/src/random.c ****         rng->status = DRBG_FAILED;
 3172              		.loc 1 998 13 view .LVU952
 3173 0038 6FF0C600 		mvn	r0, #198
 3174 003c 36E0     		b	.L217
 3175              	.LVL351:
 3176              	.L237:
 968:Middlewares/Third_Party/wolfSSL_wolfSSL_wolfSSL/wolfssl/wolfcrypt/src/random.c ****             byte newSeed[SEED_SZ + SEED_BLOCK_SZ];
 3177              		.loc 1 968 9 is_stmt 1 view .LVU953
 968:Middlewares/Third_Party/wolfSSL_wolfSSL_wolfSSL/wolfssl/wolfcrypt/src/random.c ****             byte newSeed[SEED_SZ + SEED_BLOCK_SZ];
 3178              		.loc 1 968 13 is_stmt 0 view .LVU954
 3179 003e 0120     		movs	r0, #1
 3180              	.LVL352:
 968:Middlewares/Third_Party/wolfSSL_wolfSSL_wolfSSL/wolfssl/wolfcrypt/src/random.c ****             byte newSeed[SEED_SZ + SEED_BLOCK_SZ];
 3181              		.loc 1 968 13 view .LVU955
 3182 0040 FFF7FEFF 		bl	wc_RNG_HealthTestLocal
 3183              	.LVL353:
 968:Middlewares/Third_Party/wolfSSL_wolfSSL_wolfSSL/wolfssl/wolfcrypt/src/random.c ****             byte newSeed[SEED_SZ + SEED_BLOCK_SZ];
 3184              		.loc 1 968 12 view .LVU956
 3185 0044 08B1     		cbz	r0, .L239
 987:Middlewares/Third_Party/wolfSSL_wolfSSL_wolfSSL/wolfssl/wolfcrypt/src/random.c ****     }
 3186              		.loc 1 987 17 view .LVU957
 3187 0046 0320     		movs	r0, #3
 3188 0048 F2E7     		b	.L220
 3189              	.L239:
 3190              	.LBB127:
 969:Middlewares/Third_Party/wolfSSL_wolfSSL_wolfSSL/wolfssl/wolfcrypt/src/random.c **** 
 3191              		.loc 1 969 13 is_stmt 1 view .LVU958
 971:Middlewares/Third_Party/wolfSSL_wolfSSL_wolfSSL/wolfssl/wolfcrypt/src/random.c ****                                   SEED_SZ + SEED_BLOCK_SZ);
 3192              		.loc 1 971 13 view .LVU959
 971:Middlewares/Third_Party/wolfSSL_wolfSSL_wolfSSL/wolfssl/wolfcrypt/src/random.c ****                                   SEED_SZ + SEED_BLOCK_SZ);
ARM GAS  /tmp/cc09iKDl.s 			page 122


 3193              		.loc 1 971 19 is_stmt 0 view .LVU960
 3194 004a 2422     		movs	r2, #36
 3195 004c 01A9     		add	r1, sp, #4
 3196 004e 2846     		mov	r0, r5
 3197 0050 FFF7FEFF 		bl	wc_GenerateSeed
 3198              	.LVL354:
 973:Middlewares/Third_Party/wolfSSL_wolfSSL_wolfSSL/wolfssl/wolfcrypt/src/random.c ****                 ret = DRBG_FAILURE;
 3199              		.loc 1 973 13 is_stmt 1 view .LVU961
 973:Middlewares/Third_Party/wolfSSL_wolfSSL_wolfSSL/wolfssl/wolfcrypt/src/random.c ****                 ret = DRBG_FAILURE;
 3200              		.loc 1 973 16 is_stmt 0 view .LVU962
 3201 0054 20B1     		cbz	r0, .L240
 974:Middlewares/Third_Party/wolfSSL_wolfSSL_wolfSSL/wolfssl/wolfcrypt/src/random.c ****             else
 3202              		.loc 1 974 21 view .LVU963
 3203 0056 0120     		movs	r0, #1
 3204              	.LVL355:
 3205              	.L221:
 981:Middlewares/Third_Party/wolfSSL_wolfSSL_wolfSSL/wolfssl/wolfcrypt/src/random.c **** 	      ret = Hash_DRBG_Generate((DRBG_internal *)rng->drbg, output, sz);
 3206              		.loc 1 981 13 is_stmt 1 view .LVU964
 981:Middlewares/Third_Party/wolfSSL_wolfSSL_wolfSSL/wolfssl/wolfcrypt/src/random.c **** 	      ret = Hash_DRBG_Generate((DRBG_internal *)rng->drbg, output, sz);
 3207              		.loc 1 981 16 is_stmt 0 view .LVU965
 3208 0058 70B1     		cbz	r0, .L241
 3209              	.L222:
 984:Middlewares/Third_Party/wolfSSL_wolfSSL_wolfSSL/wolfssl/wolfcrypt/src/random.c ****         }
 3210              		.loc 1 984 13 is_stmt 1 view .LVU966
 3211              	.LVL356:
 3212              	.LBB128:
 3213              	.LBI128:
 272:Middlewares/Third_Party/wolfSSL_wolfSSL_wolfSSL/wolfssl/wolfcrypt/src/misc.c **** {
 3214              		.loc 2 272 26 view .LVU967
 3215              	.LBB129:
 274:Middlewares/Third_Party/wolfSSL_wolfSSL_wolfSSL/wolfssl/wolfcrypt/src/misc.c **** 
 3216              		.loc 2 274 5 view .LVU968
 292:Middlewares/Third_Party/wolfSSL_wolfSSL_wolfSSL/wolfssl/wolfcrypt/src/misc.c **** }
 3217              		.loc 2 292 5 view .LVU969
 274:Middlewares/Third_Party/wolfSSL_wolfSSL_wolfSSL/wolfssl/wolfcrypt/src/misc.c **** 
 3218              		.loc 2 274 20 is_stmt 0 view .LVU970
 3219 005a 01AB     		add	r3, sp, #4
 3220              	.LVL357:
 292:Middlewares/Third_Party/wolfSSL_wolfSSL_wolfSSL/wolfssl/wolfcrypt/src/misc.c **** }
 3221              		.loc 2 292 11 view .LVU971
 3222 005c 2422     		movs	r2, #36
 3223 005e 15E0     		b	.L223
 3224              	.LVL358:
 3225              	.L240:
 292:Middlewares/Third_Party/wolfSSL_wolfSSL_wolfSSL/wolfssl/wolfcrypt/src/misc.c **** }
 3226              		.loc 2 292 11 view .LVU972
 3227              	.LBE129:
 3228              	.LBE128:
 976:Middlewares/Third_Party/wolfSSL_wolfSSL_wolfSSL/wolfssl/wolfcrypt/src/random.c **** 
 3229              		.loc 1 976 17 is_stmt 1 view .LVU973
 976:Middlewares/Third_Party/wolfSSL_wolfSSL_wolfSSL/wolfssl/wolfcrypt/src/random.c **** 
 3230              		.loc 1 976 23 is_stmt 0 view .LVU974
 3231 0060 2421     		movs	r1, #36
 3232 0062 01A8     		add	r0, sp, #4
 3233              	.LVL359:
 976:Middlewares/Third_Party/wolfSSL_wolfSSL_wolfSSL/wolfssl/wolfcrypt/src/random.c **** 
 3234              		.loc 1 976 23 view .LVU975
ARM GAS  /tmp/cc09iKDl.s 			page 123


 3235 0064 FFF7FEFF 		bl	wc_RNG_TestSeed
 3236              	.LVL360:
 978:Middlewares/Third_Party/wolfSSL_wolfSSL_wolfSSL/wolfssl/wolfcrypt/src/random.c **** 	      ret = Hash_DRBG_Reseed((DRBG_internal *)rng->drbg, newSeed + SEED_BLOCK_SZ,
 3237              		.loc 1 978 13 is_stmt 1 view .LVU976
 978:Middlewares/Third_Party/wolfSSL_wolfSSL_wolfSSL/wolfssl/wolfcrypt/src/random.c **** 	      ret = Hash_DRBG_Reseed((DRBG_internal *)rng->drbg, newSeed + SEED_BLOCK_SZ,
 3238              		.loc 1 978 16 is_stmt 0 view .LVU977
 3239 0068 0028     		cmp	r0, #0
 3240 006a F5D1     		bne	.L221
 979:Middlewares/Third_Party/wolfSSL_wolfSSL_wolfSSL/wolfssl/wolfcrypt/src/random.c ****                                        SEED_SZ);
 3241              		.loc 1 979 8 is_stmt 1 view .LVU978
 979:Middlewares/Third_Party/wolfSSL_wolfSSL_wolfSSL/wolfssl/wolfcrypt/src/random.c ****                                        SEED_SZ);
 3242              		.loc 1 979 14 is_stmt 0 view .LVU979
 3243 006c 2022     		movs	r2, #32
 3244 006e 02A9     		add	r1, sp, #8
 3245 0070 A868     		ldr	r0, [r5, #8]
 3246              	.LVL361:
 979:Middlewares/Third_Party/wolfSSL_wolfSSL_wolfSSL/wolfssl/wolfcrypt/src/random.c ****                                        SEED_SZ);
 3247              		.loc 1 979 14 view .LVU980
 3248 0072 FFF7FEFF 		bl	Hash_DRBG_Reseed
 3249              	.LVL362:
 979:Middlewares/Third_Party/wolfSSL_wolfSSL_wolfSSL/wolfssl/wolfcrypt/src/random.c ****                                        SEED_SZ);
 3250              		.loc 1 979 14 view .LVU981
 3251 0076 EFE7     		b	.L221
 3252              	.L241:
 982:Middlewares/Third_Party/wolfSSL_wolfSSL_wolfSSL/wolfssl/wolfcrypt/src/random.c **** 
 3253              		.loc 1 982 8 is_stmt 1 view .LVU982
 982:Middlewares/Third_Party/wolfSSL_wolfSSL_wolfSSL/wolfssl/wolfcrypt/src/random.c **** 
 3254              		.loc 1 982 14 is_stmt 0 view .LVU983
 3255 0078 2246     		mov	r2, r4
 3256 007a 3146     		mov	r1, r6
 3257 007c A868     		ldr	r0, [r5, #8]
 3258              	.LVL363:
 982:Middlewares/Third_Party/wolfSSL_wolfSSL_wolfSSL/wolfssl/wolfcrypt/src/random.c **** 
 3259              		.loc 1 982 14 view .LVU984
 3260 007e FFF7FEFF 		bl	Hash_DRBG_Generate
 3261              	.LVL364:
 982:Middlewares/Third_Party/wolfSSL_wolfSSL_wolfSSL/wolfssl/wolfcrypt/src/random.c **** 
 3262              		.loc 1 982 14 view .LVU985
 3263 0082 EAE7     		b	.L222
 3264              	.LVL365:
 3265              	.L224:
 3266              	.LBB131:
 3267              	.LBB130:
 292:Middlewares/Third_Party/wolfSSL_wolfSSL_wolfSSL/wolfssl/wolfcrypt/src/misc.c **** }
 3268              		.loc 2 292 19 is_stmt 1 view .LVU986
 292:Middlewares/Third_Party/wolfSSL_wolfSSL_wolfSSL/wolfssl/wolfcrypt/src/misc.c **** }
 3269              		.loc 2 292 24 is_stmt 0 view .LVU987
 3270 0084 0022     		movs	r2, #0
 3271 0086 03F8012B 		strb	r2, [r3], #1
 3272              	.LVL366:
 292:Middlewares/Third_Party/wolfSSL_wolfSSL_wolfSSL/wolfssl/wolfcrypt/src/misc.c **** }
 3273              		.loc 2 292 15 view .LVU988
 3274 008a 0A46     		mov	r2, r1
 3275              	.LVL367:
 3276              	.L223:
 292:Middlewares/Third_Party/wolfSSL_wolfSSL_wolfSSL/wolfssl/wolfcrypt/src/misc.c **** }
 3277              		.loc 2 292 11 is_stmt 1 view .LVU989
ARM GAS  /tmp/cc09iKDl.s 			page 124


 292:Middlewares/Third_Party/wolfSSL_wolfSSL_wolfSSL/wolfssl/wolfcrypt/src/misc.c **** }
 3278              		.loc 2 292 15 is_stmt 0 view .LVU990
 3279 008c 511E     		subs	r1, r2, #1
 3280              	.LVL368:
 292:Middlewares/Third_Party/wolfSSL_wolfSSL_wolfSSL/wolfssl/wolfcrypt/src/misc.c **** }
 3281              		.loc 2 292 11 view .LVU991
 3282 008e 002A     		cmp	r2, #0
 3283 0090 F8D1     		bne	.L224
 292:Middlewares/Third_Party/wolfSSL_wolfSSL_wolfSSL/wolfssl/wolfcrypt/src/misc.c **** }
 3284              		.loc 2 292 11 view .LVU992
 3285 0092 CBE7     		b	.L219
 3286              	.LVL369:
 3287              	.L238:
 292:Middlewares/Third_Party/wolfSSL_wolfSSL_wolfSSL/wolfssl/wolfcrypt/src/misc.c **** }
 3288              		.loc 2 292 11 view .LVU993
 3289              	.LBE130:
 3290              	.LBE131:
 3291              	.LBE127:
 994:Middlewares/Third_Party/wolfSSL_wolfSSL_wolfSSL/wolfssl/wolfcrypt/src/random.c ****         rng->status = DRBG_CONT_FAILED;
 3292              		.loc 1 994 9 is_stmt 1 view .LVU994
 995:Middlewares/Third_Party/wolfSSL_wolfSSL_wolfSSL/wolfssl/wolfcrypt/src/random.c ****     }
 3293              		.loc 1 995 9 view .LVU995
 995:Middlewares/Third_Party/wolfSSL_wolfSSL_wolfSSL/wolfssl/wolfcrypt/src/random.c ****     }
 3294              		.loc 1 995 21 is_stmt 0 view .LVU996
 3295 0094 0323     		movs	r3, #3
 3296 0096 2B73     		strb	r3, [r5, #12]
 994:Middlewares/Third_Party/wolfSSL_wolfSSL_wolfSSL/wolfssl/wolfcrypt/src/random.c ****         rng->status = DRBG_CONT_FAILED;
 3297              		.loc 1 994 13 view .LVU997
 3298 0098 6FF0D000 		mvn	r0, #208
 3299 009c 06E0     		b	.L217
 3300              	.LVL370:
 3301              	.L226:
 3302              	.LCFI59:
 3303              		.cfi_def_cfa_offset 0
 3304              		.cfi_restore 4
 3305              		.cfi_restore 5
 3306              		.cfi_restore 6
 3307              		.cfi_restore 14
 918:Middlewares/Third_Party/wolfSSL_wolfSSL_wolfSSL/wolfssl/wolfcrypt/src/random.c **** 
 3308              		.loc 1 918 16 view .LVU998
 3309 009e 6FF0AC00 		mvn	r0, #172
 3310              	.LVL371:
1010:Middlewares/Third_Party/wolfSSL_wolfSSL_wolfSSL/wolfssl/wolfcrypt/src/random.c **** 
 3311              		.loc 1 1010 1 view .LVU999
 3312 00a2 7047     		bx	lr
 3313              	.LVL372:
 3314              	.L227:
 3315              	.LCFI60:
 3316              		.cfi_def_cfa_offset 56
 3317              		.cfi_offset 4, -16
 3318              		.cfi_offset 5, -12
 3319              		.cfi_offset 6, -8
 3320              		.cfi_offset 14, -4
 918:Middlewares/Third_Party/wolfSSL_wolfSSL_wolfSSL/wolfssl/wolfcrypt/src/random.c **** 
 3321              		.loc 1 918 16 view .LVU1000
 3322 00a4 6FF0AC00 		mvn	r0, #172
 3323              	.LVL373:
ARM GAS  /tmp/cc09iKDl.s 			page 125


 918:Middlewares/Third_Party/wolfSSL_wolfSSL_wolfSSL/wolfssl/wolfcrypt/src/random.c **** 
 3324              		.loc 1 918 16 view .LVU1001
 3325 00a8 00E0     		b	.L217
 3326              	.LVL374:
 3327              	.L228:
 921:Middlewares/Third_Party/wolfSSL_wolfSSL_wolfSSL/wolfssl/wolfcrypt/src/random.c **** 
 3328              		.loc 1 921 16 view .LVU1002
 3329 00aa 0020     		movs	r0, #0
 3330              	.LVL375:
 3331              	.L217:
1010:Middlewares/Third_Party/wolfSSL_wolfSSL_wolfSSL/wolfssl/wolfcrypt/src/random.c **** 
 3332              		.loc 1 1010 1 view .LVU1003
 3333 00ac 0AB0     		add	sp, sp, #40
 3334              	.LCFI61:
 3335              		.cfi_remember_state
 3336              		.cfi_def_cfa_offset 16
 3337              		@ sp needed
 3338 00ae 70BD     		pop	{r4, r5, r6, pc}
 3339              	.LVL376:
 3340              	.L229:
 3341              	.LCFI62:
 3342              		.cfi_restore_state
 961:Middlewares/Third_Party/wolfSSL_wolfSSL_wolfSSL/wolfssl/wolfcrypt/src/random.c **** 
 3343              		.loc 1 961 16 view .LVU1004
 3344 00b0 6FF0AC00 		mvn	r0, #172
 3345              	.LVL377:
 961:Middlewares/Third_Party/wolfSSL_wolfSSL_wolfSSL/wolfssl/wolfcrypt/src/random.c **** 
 3346              		.loc 1 961 16 view .LVU1005
 3347 00b4 FAE7     		b	.L217
 3348              	.LVL378:
 3349              	.L230:
 964:Middlewares/Third_Party/wolfSSL_wolfSSL_wolfSSL/wolfssl/wolfcrypt/src/random.c **** 
 3350              		.loc 1 964 16 view .LVU1006
 3351 00b6 6FF0C600 		mvn	r0, #198
 3352              	.LVL379:
 964:Middlewares/Third_Party/wolfSSL_wolfSSL_wolfSSL/wolfssl/wolfcrypt/src/random.c **** 
 3353              		.loc 1 964 16 view .LVU1007
 3354 00ba F7E7     		b	.L217
 3355              		.cfi_endproc
 3356              	.LFE192:
 3358              		.section	.text.wc_RNG_GenerateByte,"ax",%progbits
 3359              		.align	1
 3360              		.global	wc_RNG_GenerateByte
 3361              		.syntax unified
 3362              		.thumb
 3363              		.thumb_func
 3364              		.fpu fpv4-sp-d16
 3366              	wc_RNG_GenerateByte:
 3367              	.LVL380:
 3368              	.LFB193:
1014:Middlewares/Third_Party/wolfSSL_wolfSSL_wolfSSL/wolfssl/wolfcrypt/src/random.c ****     return wc_RNG_GenerateBlock(rng, b, 1);
 3369              		.loc 1 1014 1 is_stmt 1 view -0
 3370              		.cfi_startproc
 3371              		@ args = 0, pretend = 0, frame = 0
 3372              		@ frame_needed = 0, uses_anonymous_args = 0
1014:Middlewares/Third_Party/wolfSSL_wolfSSL_wolfSSL/wolfssl/wolfcrypt/src/random.c ****     return wc_RNG_GenerateBlock(rng, b, 1);
 3373              		.loc 1 1014 1 is_stmt 0 view .LVU1009
ARM GAS  /tmp/cc09iKDl.s 			page 126


 3374 0000 08B5     		push	{r3, lr}
 3375              	.LCFI63:
 3376              		.cfi_def_cfa_offset 8
 3377              		.cfi_offset 3, -8
 3378              		.cfi_offset 14, -4
1015:Middlewares/Third_Party/wolfSSL_wolfSSL_wolfSSL/wolfssl/wolfcrypt/src/random.c **** }
 3379              		.loc 1 1015 5 is_stmt 1 view .LVU1010
1015:Middlewares/Third_Party/wolfSSL_wolfSSL_wolfSSL/wolfssl/wolfcrypt/src/random.c **** }
 3380              		.loc 1 1015 12 is_stmt 0 view .LVU1011
 3381 0002 0122     		movs	r2, #1
 3382 0004 FFF7FEFF 		bl	wc_RNG_GenerateBlock
 3383              	.LVL381:
1016:Middlewares/Third_Party/wolfSSL_wolfSSL_wolfSSL/wolfssl/wolfcrypt/src/random.c **** 
 3384              		.loc 1 1016 1 view .LVU1012
 3385 0008 08BD     		pop	{r3, pc}
 3386              		.cfi_endproc
 3387              	.LFE193:
 3389              		.global	outputB_data
 3390              		.global	seedB_data
 3391              		.global	outputA_data
 3392              		.global	reseedSeedA_data
 3393              		.global	seedA_data
 3394              		.section	.rodata.outputA_data,"a"
 3395              		.align	2
 3396              		.set	.LANCHOR2,. + 0
 3399              	outputA_data:
 3400 0000 04EEC63B 		.ascii	"\004\356\306;\2621\337,c\012\032\373\347$\224\235\000"
 3400      B231DF2C 
 3400      630A1AFB 
 3400      E724949D 
 3400      00
 3401 0011 5A587851 		.ascii	"ZXxQ\341\252y^GsG\310\260Vb\034\030\275\334\335\215"
 3401      E1AA795E 
 3401      477347C8 
 3401      B056621C 
 3401      18BDDCDD 
 3402 0026 99FC5FC2 		.ascii	"\231\374_\302\271 S\330\317\254\373\013\270\203\022"
 3402      B92053D8 
 3402      CFACFB0B 
 3402      B88312
 3403 0035 05FAD1DD 		.ascii	"\005\372\321\335\326\300q1\212`\030\360;s\365\355\344"
 3403      D6C07131 
 3403      8A6018F0 
 3403      3B73F5ED 
 3403      E4
 3404 0046 D4D071F9 		.ascii	"\324\320q\371\336\003\375z\352\020]\222\231\270\257"
 3404      DE03FD7A 
 3404      EA105D92 
 3404      99B8AF
 3405 0055 99AA075B 		.ascii	"\231\252\007[\333M\271\252(\301\215\027KV\356*\001M"
 3405      DB4DB9AA 
 3405      28C18D17 
 3405      4B56EE2A 
 3405      014D
 3406 0067 098896FF 		.ascii	"\011\210\226\377\"\202\311U\250\031i\340i\372\214\340"
 3406      2282C955 
 3406      A81969E0 
ARM GAS  /tmp/cc09iKDl.s 			page 127


 3406      69FA8CE0 
 3407 0077 07A18018 		.ascii	"\007\241\200\030:\007\337\256\027"
 3407      3A07DFAE 
 3407      17
 3408              		.section	.rodata.outputB_data,"a"
 3409              		.align	2
 3410              		.set	.LANCHOR4,. + 0
 3413              	outputB_data:
 3414 0000 D3E160C3 		.ascii	"\323\341`\303[\231\363@\262b\202d\321u\020`\340\004"
 3414      5B99F340 
 3414      B2628264 
 3414      D1751060 
 3414      E004
 3415 0012 5DA383FF 		.ascii	"]\243\203\377W\245}s\246s\322\270\330\015\252\366\246"
 3415      57A57D73 
 3415      A673D2B8 
 3415      D80DAAF6 
 3415      A6
 3416 0023 C35A91BB 		.ascii	"\303Z\221\273Ey\327?\320\310\376\321\021\2609\023\006"
 3416      4579D73F 
 3416      D0C8FED1 
 3416      11B03913 
 3416      06
 3417 0034 828ADFED 		.ascii	"\202\212\337\355R\217\001\201!\263\376\275\303C\347"
 3417      528F0181 
 3417      21B3FEBD 
 3417      C343E7
 3418 0043 97B87DBB 		.ascii	"\227\270}\273c\333\0233\336\331\321\354\341w\317\246"
 3418      63DB1333 
 3418      DED9D1EC 
 3418      E177CFA6 
 3419 0053 B71FE8AB 		.ascii	"\267\037\350\253\035\244f$\355d\025\345\034\315\342"
 3419      1DA46624 
 3419      ED6415E5 
 3419      1CCDE2
 3420 0062 C7CA86E2 		.ascii	"\307\312\206\342\203\231\016\352\353\221\022\004\025"
 3420      83990EEA 
 3420      EB911204 
 3420      15
 3421 006f 528B2295 		.ascii	"R\213\"\225\221\002\201\260-\3241\364\311\367\004'\337"
 3421      910281B0 
 3421      2DD431F4 
 3421      C9F70427 
 3421      DF
 3422              		.section	.rodata.reseedSeedA_data,"a"
 3423              		.align	2
 3424              		.set	.LANCHOR0,. + 0
 3427              	reseedSeedA_data:
 3428 0000 E62B8A8E 		.ascii	"\346+\212\216\350\361A\266\230\005f\343\277\343\300"
 3428      E8F141B6 
 3428      980566E3 
 3428      BFE3C0
 3429 000f 4903DAD4 		.ascii	"I\003\332\324\254,\337\237\"\200\001\012g9\274\203\323"
 3429      AC2CDF9F 
 3429      2280010A 
 3429      6739BC83 
 3429      D3
ARM GAS  /tmp/cc09iKDl.s 			page 128


 3430              		.section	.rodata.seedA_data,"a"
 3431              		.align	2
 3432              		.set	.LANCHOR1,. + 0
 3435              	seedA_data:
 3436 0000 63363377 		.ascii	"c63w\344\036\206F\215\353\012\264\250\355h?j\023NG\340"
 3436      E41E8646 
 3436      8DEB0AB4 
 3436      A8ED683F 
 3436      6A134E47 
 3437 0015 14C70045 		.ascii	"\024\307\000EN\201\351SX\245i\200\212\243\217*r\246"
 3437      4E81E953 
 3437      58A56980 
 3437      8AA38F2A 
 3437      72A6
 3438 0027 2359915A 		.ascii	"#Y\221Z\237\212\004\312h"
 3438      9F8A04CA 
 3438      68
 3439              		.section	.rodata.seedB_data,"a"
 3440              		.align	2
 3441              		.set	.LANCHOR3,. + 0
 3444              	seedB_data:
 3445 0000 A65AD0F3 		.ascii	"\246Z\320\363E\333N\016\377\350u\303\242\347\037B\307"
 3445      45DB4E0E 
 3445      FFE875C3 
 3445      A2E71F42 
 3445      C7
 3446 0011 129D620F 		.ascii	"\022\235b\017\365\301\031\251\357U\360Q\205\340\373"
 3446      F5C119A9 
 3446      EF55F051 
 3446      85E0FB
 3447 0020 8581F931 		.ascii	"\205\201\3711u\027'n\006\351`}\333\313\314."
 3447      7517276E 
 3447      06E9607D 
 3447      DBCBCC2E 
 3448              		.text
 3449              	.Letext0:
 3450              		.file 3 "Middlewares/Third_Party/wolfSSL_wolfSSL_wolfSSL/wolfssl/wolfssl/wolfcrypt/types.h"
 3451              		.file 4 "Middlewares/Third_Party/wolfSSL_wolfSSL_wolfSSL/wolfssl/wolfssl/wolfcrypt/error-crypt.h"
 3452              		.file 5 "Middlewares/Third_Party/wolfSSL_wolfSSL_wolfSSL/wolfssl/wolfssl/wolfcrypt/sha256.h"
 3453              		.file 6 "Middlewares/Third_Party/wolfSSL_wolfSSL_wolfSSL/wolfssl/wolfssl/wolfcrypt/random.h"
 3454              		.file 7 "Middlewares/Third_Party/FreeRTOS/Source/include/portable.h"
 3455              		.file 8 "<built-in>"
ARM GAS  /tmp/cc09iKDl.s 			page 129


DEFINED SYMBOLS
                            *ABS*:0000000000000000 random.c
     /tmp/cc09iKDl.s:18     .text.Hash_DRBG_Uninstantiate:0000000000000000 $t
     /tmp/cc09iKDl.s:25     .text.Hash_DRBG_Uninstantiate:0000000000000000 Hash_DRBG_Uninstantiate
     /tmp/cc09iKDl.s:110    .text.Hash_df:0000000000000000 $t
     /tmp/cc09iKDl.s:116    .text.Hash_df:0000000000000000 Hash_df
     /tmp/cc09iKDl.s:452    .text.Hash_DRBG_Reseed:0000000000000000 $t
     /tmp/cc09iKDl.s:458    .text.Hash_DRBG_Reseed:0000000000000000 Hash_DRBG_Reseed
     /tmp/cc09iKDl.s:621    .text.Hash_DRBG_Instantiate:0000000000000000 $t
     /tmp/cc09iKDl.s:627    .text.Hash_DRBG_Instantiate:0000000000000000 Hash_DRBG_Instantiate
     /tmp/cc09iKDl.s:735    .text.Hash_gen:0000000000000000 $t
     /tmp/cc09iKDl.s:741    .text.Hash_gen:0000000000000000 Hash_gen
     /tmp/cc09iKDl.s:1080   .text.Hash_DRBG_Generate:0000000000000000 $t
     /tmp/cc09iKDl.s:1086   .text.Hash_DRBG_Generate:0000000000000000 Hash_DRBG_Generate
     /tmp/cc09iKDl.s:1574   .text.Hash_DRBG_Generate:000000000000015c $d
     /tmp/cc09iKDl.s:1579   .text.wc_RNG_DRBG_Reseed:0000000000000000 $t
     /tmp/cc09iKDl.s:1586   .text.wc_RNG_DRBG_Reseed:0000000000000000 wc_RNG_DRBG_Reseed
     /tmp/cc09iKDl.s:1640   .text.wc_RNG_TestSeed:0000000000000000 $t
     /tmp/cc09iKDl.s:1647   .text.wc_RNG_TestSeed:0000000000000000 wc_RNG_TestSeed
     /tmp/cc09iKDl.s:1786   .text.wc_FreeRng:0000000000000000 $t
     /tmp/cc09iKDl.s:1793   .text.wc_FreeRng:0000000000000000 wc_FreeRng
     /tmp/cc09iKDl.s:1865   .text.wc_rng_free:0000000000000000 $t
     /tmp/cc09iKDl.s:1872   .text.wc_rng_free:0000000000000000 wc_rng_free
     /tmp/cc09iKDl.s:1949   .text.wc_RNG_HealthTest_ex:0000000000000000 $t
     /tmp/cc09iKDl.s:1956   .text.wc_RNG_HealthTest_ex:0000000000000000 wc_RNG_HealthTest_ex
     /tmp/cc09iKDl.s:2147   .text.wc_RNG_HealthTest:0000000000000000 $t
     /tmp/cc09iKDl.s:2154   .text.wc_RNG_HealthTest:0000000000000000 wc_RNG_HealthTest
     /tmp/cc09iKDl.s:2206   .text.wc_RNG_HealthTestLocal:0000000000000000 $t
     /tmp/cc09iKDl.s:2212   .text.wc_RNG_HealthTestLocal:0000000000000000 wc_RNG_HealthTestLocal
     /tmp/cc09iKDl.s:2495   .text.wc_RNG_HealthTestLocal:00000000000000e4 $d
     /tmp/cc09iKDl.s:2504   .text.wc_GenerateSeed:0000000000000000 $t
     /tmp/cc09iKDl.s:2511   .text.wc_GenerateSeed:0000000000000000 wc_GenerateSeed
     /tmp/cc09iKDl.s:2550   .text._InitRng:0000000000000000 $t
     /tmp/cc09iKDl.s:2556   .text._InitRng:0000000000000000 _InitRng
     /tmp/cc09iKDl.s:2841   .text.wc_rng_new:0000000000000000 $t
     /tmp/cc09iKDl.s:2848   .text.wc_rng_new:0000000000000000 wc_rng_new
     /tmp/cc09iKDl.s:2930   .text.wc_InitRng:0000000000000000 $t
     /tmp/cc09iKDl.s:2937   .text.wc_InitRng:0000000000000000 wc_InitRng
     /tmp/cc09iKDl.s:2971   .text.wc_InitRng_ex:0000000000000000 $t
     /tmp/cc09iKDl.s:2978   .text.wc_InitRng_ex:0000000000000000 wc_InitRng_ex
     /tmp/cc09iKDl.s:3015   .text.wc_InitRngNonce:0000000000000000 $t
     /tmp/cc09iKDl.s:3022   .text.wc_InitRngNonce:0000000000000000 wc_InitRngNonce
     /tmp/cc09iKDl.s:3054   .text.wc_InitRngNonce_ex:0000000000000000 $t
     /tmp/cc09iKDl.s:3061   .text.wc_InitRngNonce_ex:0000000000000000 wc_InitRngNonce_ex
     /tmp/cc09iKDl.s:3094   .text.wc_RNG_GenerateBlock:0000000000000000 $t
     /tmp/cc09iKDl.s:3101   .text.wc_RNG_GenerateBlock:0000000000000000 wc_RNG_GenerateBlock
     /tmp/cc09iKDl.s:3359   .text.wc_RNG_GenerateByte:0000000000000000 $t
     /tmp/cc09iKDl.s:3366   .text.wc_RNG_GenerateByte:0000000000000000 wc_RNG_GenerateByte
     /tmp/cc09iKDl.s:3413   .rodata.outputB_data:0000000000000000 outputB_data
     /tmp/cc09iKDl.s:3444   .rodata.seedB_data:0000000000000000 seedB_data
     /tmp/cc09iKDl.s:3399   .rodata.outputA_data:0000000000000000 outputA_data
     /tmp/cc09iKDl.s:3427   .rodata.reseedSeedA_data:0000000000000000 reseedSeedA_data
     /tmp/cc09iKDl.s:3435   .rodata.seedA_data:0000000000000000 seedA_data
     /tmp/cc09iKDl.s:3395   .rodata.outputA_data:0000000000000000 $d
     /tmp/cc09iKDl.s:3409   .rodata.outputB_data:0000000000000000 $d
     /tmp/cc09iKDl.s:3423   .rodata.reseedSeedA_data:0000000000000000 $d
     /tmp/cc09iKDl.s:3431   .rodata.seedA_data:0000000000000000 $d
ARM GAS  /tmp/cc09iKDl.s 			page 130


     /tmp/cc09iKDl.s:3440   .rodata.seedB_data:0000000000000000 $d

UNDEFINED SYMBOLS
wc_Sha256Update
wc_Sha256Free
wc_InitSha256
wc_Sha256Final
memcpy
memset
vPortFree
pvPortMalloc
