ARM GAS  /tmp/ccACAaom.s 			page 1


   1              		.cpu cortex-m4
   2              		.eabi_attribute 27, 1
   3              		.eabi_attribute 28, 1
   4              		.eabi_attribute 20, 1
   5              		.eabi_attribute 21, 1
   6              		.eabi_attribute 23, 3
   7              		.eabi_attribute 24, 1
   8              		.eabi_attribute 25, 1
   9              		.eabi_attribute 26, 1
  10              		.eabi_attribute 30, 1
  11              		.eabi_attribute 34, 1
  12              		.eabi_attribute 18, 4
  13              		.file	"wolfio.c"
  14              		.text
  15              	.Ltext0:
  16              		.cfi_sections	.debug_frame
  17              		.section	.text.wolfSSL_CTX_SetIORecv,"ax",%progbits
  18              		.align	1
  19              		.global	wolfSSL_CTX_SetIORecv
  20              		.arch armv7e-m
  21              		.syntax unified
  22              		.thumb
  23              		.thumb_func
  24              		.fpu fpv4-sp-d16
  26              	wolfSSL_CTX_SetIORecv:
  27              	.LVL0:
  28              	.LFB136:
  29              		.file 1 "Middlewares/Third_Party/wolfSSL_wolfSSL_wolfSSL/wolfssl/src/wolfio.c"
   1:Middlewares/Third_Party/wolfSSL_wolfSSL_wolfSSL/wolfssl/src/wolfio.c **** /* wolfio.c
   2:Middlewares/Third_Party/wolfSSL_wolfSSL_wolfSSL/wolfssl/src/wolfio.c ****  *
   3:Middlewares/Third_Party/wolfSSL_wolfSSL_wolfSSL/wolfssl/src/wolfio.c ****  * Copyright (C) 2006-2020 wolfSSL Inc.
   4:Middlewares/Third_Party/wolfSSL_wolfSSL_wolfSSL/wolfssl/src/wolfio.c ****  *
   5:Middlewares/Third_Party/wolfSSL_wolfSSL_wolfSSL/wolfssl/src/wolfio.c ****  * This file is part of wolfSSL.
   6:Middlewares/Third_Party/wolfSSL_wolfSSL_wolfSSL/wolfssl/src/wolfio.c ****  *
   7:Middlewares/Third_Party/wolfSSL_wolfSSL_wolfSSL/wolfssl/src/wolfio.c ****  * wolfSSL is free software; you can redistribute it and/or modify
   8:Middlewares/Third_Party/wolfSSL_wolfSSL_wolfSSL/wolfssl/src/wolfio.c ****  * it under the terms of the GNU General Public License as published by
   9:Middlewares/Third_Party/wolfSSL_wolfSSL_wolfSSL/wolfssl/src/wolfio.c ****  * the Free Software Foundation; either version 2 of the License, or
  10:Middlewares/Third_Party/wolfSSL_wolfSSL_wolfSSL/wolfssl/src/wolfio.c ****  * (at your option) any later version.
  11:Middlewares/Third_Party/wolfSSL_wolfSSL_wolfSSL/wolfssl/src/wolfio.c ****  *
  12:Middlewares/Third_Party/wolfSSL_wolfSSL_wolfSSL/wolfssl/src/wolfio.c ****  * wolfSSL is distributed in the hope that it will be useful,
  13:Middlewares/Third_Party/wolfSSL_wolfSSL_wolfSSL/wolfssl/src/wolfio.c ****  * but WITHOUT ANY WARRANTY; without even the implied warranty of
  14:Middlewares/Third_Party/wolfSSL_wolfSSL_wolfSSL/wolfssl/src/wolfio.c ****  * MERCHANTABILITY or FITNESS FOR A PARTICULAR PURPOSE.  See the
  15:Middlewares/Third_Party/wolfSSL_wolfSSL_wolfSSL/wolfssl/src/wolfio.c ****  * GNU General Public License for more details.
  16:Middlewares/Third_Party/wolfSSL_wolfSSL_wolfSSL/wolfssl/src/wolfio.c ****  *
  17:Middlewares/Third_Party/wolfSSL_wolfSSL_wolfSSL/wolfssl/src/wolfio.c ****  * You should have received a copy of the GNU General Public License
  18:Middlewares/Third_Party/wolfSSL_wolfSSL_wolfSSL/wolfssl/src/wolfio.c ****  * along with this program; if not, write to the Free Software
  19:Middlewares/Third_Party/wolfSSL_wolfSSL_wolfSSL/wolfssl/src/wolfio.c ****  * Foundation, Inc., 51 Franklin Street, Fifth Floor, Boston, MA 02110-1335, USA
  20:Middlewares/Third_Party/wolfSSL_wolfSSL_wolfSSL/wolfssl/src/wolfio.c ****  */
  21:Middlewares/Third_Party/wolfSSL_wolfSSL_wolfSSL/wolfssl/src/wolfio.c **** 
  22:Middlewares/Third_Party/wolfSSL_wolfSSL_wolfSSL/wolfssl/src/wolfio.c **** 
  23:Middlewares/Third_Party/wolfSSL_wolfSSL_wolfSSL/wolfssl/src/wolfio.c **** 
  24:Middlewares/Third_Party/wolfSSL_wolfSSL_wolfSSL/wolfssl/src/wolfio.c **** #ifdef HAVE_CONFIG_H
  25:Middlewares/Third_Party/wolfSSL_wolfSSL_wolfSSL/wolfssl/src/wolfio.c ****     #include <config.h>
  26:Middlewares/Third_Party/wolfSSL_wolfSSL_wolfSSL/wolfssl/src/wolfio.c **** #endif
  27:Middlewares/Third_Party/wolfSSL_wolfSSL_wolfSSL/wolfssl/src/wolfio.c **** 
  28:Middlewares/Third_Party/wolfSSL_wolfSSL_wolfSSL/wolfssl/src/wolfio.c **** #include <wolfssl/wolfcrypt/settings.h>
  29:Middlewares/Third_Party/wolfSSL_wolfSSL_wolfSSL/wolfssl/src/wolfio.c **** 
ARM GAS  /tmp/ccACAaom.s 			page 2


  30:Middlewares/Third_Party/wolfSSL_wolfSSL_wolfSSL/wolfssl/src/wolfio.c **** #ifndef WOLFCRYPT_ONLY
  31:Middlewares/Third_Party/wolfSSL_wolfSSL_wolfSSL/wolfssl/src/wolfio.c **** 
  32:Middlewares/Third_Party/wolfSSL_wolfSSL_wolfSSL/wolfssl/src/wolfio.c **** #ifdef _WIN32_WCE
  33:Middlewares/Third_Party/wolfSSL_wolfSSL_wolfSSL/wolfssl/src/wolfio.c ****     /* On WinCE winsock2.h must be included before windows.h for socket stuff */
  34:Middlewares/Third_Party/wolfSSL_wolfSSL_wolfSSL/wolfssl/src/wolfio.c ****     #include <winsock2.h>
  35:Middlewares/Third_Party/wolfSSL_wolfSSL_wolfSSL/wolfssl/src/wolfio.c **** #endif
  36:Middlewares/Third_Party/wolfSSL_wolfSSL_wolfSSL/wolfssl/src/wolfio.c **** 
  37:Middlewares/Third_Party/wolfSSL_wolfSSL_wolfSSL/wolfssl/src/wolfio.c **** #include <wolfssl/internal.h>
  38:Middlewares/Third_Party/wolfSSL_wolfSSL_wolfSSL/wolfssl/src/wolfio.c **** #include <wolfssl/error-ssl.h>
  39:Middlewares/Third_Party/wolfSSL_wolfSSL_wolfSSL/wolfssl/src/wolfio.c **** #include <wolfssl/wolfio.h>
  40:Middlewares/Third_Party/wolfSSL_wolfSSL_wolfSSL/wolfssl/src/wolfio.c **** 
  41:Middlewares/Third_Party/wolfSSL_wolfSSL_wolfSSL/wolfssl/src/wolfio.c **** #if defined(HAVE_HTTP_CLIENT)
  42:Middlewares/Third_Party/wolfSSL_wolfSSL_wolfSSL/wolfssl/src/wolfio.c ****     #include <stdlib.h>   /* strtol() */
  43:Middlewares/Third_Party/wolfSSL_wolfSSL_wolfSSL/wolfssl/src/wolfio.c **** #endif
  44:Middlewares/Third_Party/wolfSSL_wolfSSL_wolfSSL/wolfssl/src/wolfio.c **** 
  45:Middlewares/Third_Party/wolfSSL_wolfSSL_wolfSSL/wolfssl/src/wolfio.c **** /*
  46:Middlewares/Third_Party/wolfSSL_wolfSSL_wolfSSL/wolfssl/src/wolfio.c **** Possible IO enable options:
  47:Middlewares/Third_Party/wolfSSL_wolfSSL_wolfSSL/wolfssl/src/wolfio.c ****  * WOLFSSL_USER_IO:     Disables default Embed* callbacks and     default: off
  48:Middlewares/Third_Party/wolfSSL_wolfSSL_wolfSSL/wolfssl/src/wolfio.c ****                         allows user to define their own using
  49:Middlewares/Third_Party/wolfSSL_wolfSSL_wolfSSL/wolfssl/src/wolfio.c ****                         wolfSSL_CTX_SetIORecv and wolfSSL_CTX_SetIOSend
  50:Middlewares/Third_Party/wolfSSL_wolfSSL_wolfSSL/wolfssl/src/wolfio.c ****  * USE_WOLFSSL_IO:      Enables the wolfSSL IO functions          default: off
  51:Middlewares/Third_Party/wolfSSL_wolfSSL_wolfSSL/wolfssl/src/wolfio.c ****  * HAVE_HTTP_CLIENT:    Enables HTTP client API's                 default: off
  52:Middlewares/Third_Party/wolfSSL_wolfSSL_wolfSSL/wolfssl/src/wolfio.c ****                                      (unless HAVE_OCSP or HAVE_CRL_IO defined)
  53:Middlewares/Third_Party/wolfSSL_wolfSSL_wolfSSL/wolfssl/src/wolfio.c ****  * HAVE_IO_TIMEOUT:     Enables support for connect timeout       default: off
  54:Middlewares/Third_Party/wolfSSL_wolfSSL_wolfSSL/wolfssl/src/wolfio.c ****  */
  55:Middlewares/Third_Party/wolfSSL_wolfSSL_wolfSSL/wolfssl/src/wolfio.c **** 
  56:Middlewares/Third_Party/wolfSSL_wolfSSL_wolfSSL/wolfssl/src/wolfio.c **** 
  57:Middlewares/Third_Party/wolfSSL_wolfSSL_wolfSSL/wolfssl/src/wolfio.c **** /* if user writes own I/O callbacks they can define WOLFSSL_USER_IO to remove
  58:Middlewares/Third_Party/wolfSSL_wolfSSL_wolfSSL/wolfssl/src/wolfio.c ****    automatic setting of default I/O functions EmbedSend() and EmbedReceive()
  59:Middlewares/Third_Party/wolfSSL_wolfSSL_wolfSSL/wolfssl/src/wolfio.c ****    but they'll still need SetCallback xxx() at end of file
  60:Middlewares/Third_Party/wolfSSL_wolfSSL_wolfSSL/wolfssl/src/wolfio.c **** */
  61:Middlewares/Third_Party/wolfSSL_wolfSSL_wolfSSL/wolfssl/src/wolfio.c **** 
  62:Middlewares/Third_Party/wolfSSL_wolfSSL_wolfSSL/wolfssl/src/wolfio.c **** #if defined(USE_WOLFSSL_IO) || defined(HAVE_HTTP_CLIENT)
  63:Middlewares/Third_Party/wolfSSL_wolfSSL_wolfSSL/wolfssl/src/wolfio.c **** 
  64:Middlewares/Third_Party/wolfSSL_wolfSSL_wolfSSL/wolfssl/src/wolfio.c **** /* Translates return codes returned from
  65:Middlewares/Third_Party/wolfSSL_wolfSSL_wolfSSL/wolfssl/src/wolfio.c ****  * send() and recv() if need be.
  66:Middlewares/Third_Party/wolfSSL_wolfSSL_wolfSSL/wolfssl/src/wolfio.c ****  */
  67:Middlewares/Third_Party/wolfSSL_wolfSSL_wolfSSL/wolfssl/src/wolfio.c **** static WC_INLINE int TranslateReturnCode(int old, int sd)
  68:Middlewares/Third_Party/wolfSSL_wolfSSL_wolfSSL/wolfssl/src/wolfio.c **** {
  69:Middlewares/Third_Party/wolfSSL_wolfSSL_wolfSSL/wolfssl/src/wolfio.c ****     (void)sd;
  70:Middlewares/Third_Party/wolfSSL_wolfSSL_wolfSSL/wolfssl/src/wolfio.c **** 
  71:Middlewares/Third_Party/wolfSSL_wolfSSL_wolfSSL/wolfssl/src/wolfio.c **** #if defined(FREESCALE_MQX) || defined(FREESCALE_KSDK_MQX)
  72:Middlewares/Third_Party/wolfSSL_wolfSSL_wolfSSL/wolfssl/src/wolfio.c ****     if (old == 0) {
  73:Middlewares/Third_Party/wolfSSL_wolfSSL_wolfSSL/wolfssl/src/wolfio.c ****         errno = SOCKET_EWOULDBLOCK;
  74:Middlewares/Third_Party/wolfSSL_wolfSSL_wolfSSL/wolfssl/src/wolfio.c ****         return -1;  /* convert to BSD style wouldblock as error */
  75:Middlewares/Third_Party/wolfSSL_wolfSSL_wolfSSL/wolfssl/src/wolfio.c ****     }
  76:Middlewares/Third_Party/wolfSSL_wolfSSL_wolfSSL/wolfssl/src/wolfio.c **** 
  77:Middlewares/Third_Party/wolfSSL_wolfSSL_wolfSSL/wolfssl/src/wolfio.c ****     if (old < 0) {
  78:Middlewares/Third_Party/wolfSSL_wolfSSL_wolfSSL/wolfssl/src/wolfio.c ****         errno = RTCS_geterror(sd);
  79:Middlewares/Third_Party/wolfSSL_wolfSSL_wolfSSL/wolfssl/src/wolfio.c ****         if (errno == RTCSERR_TCP_CONN_CLOSING)
  80:Middlewares/Third_Party/wolfSSL_wolfSSL_wolfSSL/wolfssl/src/wolfio.c ****             return 0;   /* convert to BSD style closing */
  81:Middlewares/Third_Party/wolfSSL_wolfSSL_wolfSSL/wolfssl/src/wolfio.c ****         if (errno == RTCSERR_TCP_CONN_RLSD)
  82:Middlewares/Third_Party/wolfSSL_wolfSSL_wolfSSL/wolfssl/src/wolfio.c ****             errno = SOCKET_ECONNRESET;
  83:Middlewares/Third_Party/wolfSSL_wolfSSL_wolfSSL/wolfssl/src/wolfio.c ****         if (errno == RTCSERR_TCP_TIMED_OUT)
  84:Middlewares/Third_Party/wolfSSL_wolfSSL_wolfSSL/wolfssl/src/wolfio.c ****             errno = SOCKET_EAGAIN;
  85:Middlewares/Third_Party/wolfSSL_wolfSSL_wolfSSL/wolfssl/src/wolfio.c ****     }
  86:Middlewares/Third_Party/wolfSSL_wolfSSL_wolfSSL/wolfssl/src/wolfio.c **** #endif
ARM GAS  /tmp/ccACAaom.s 			page 3


  87:Middlewares/Third_Party/wolfSSL_wolfSSL_wolfSSL/wolfssl/src/wolfio.c **** 
  88:Middlewares/Third_Party/wolfSSL_wolfSSL_wolfSSL/wolfssl/src/wolfio.c ****     return old;
  89:Middlewares/Third_Party/wolfSSL_wolfSSL_wolfSSL/wolfssl/src/wolfio.c **** }
  90:Middlewares/Third_Party/wolfSSL_wolfSSL_wolfSSL/wolfssl/src/wolfio.c **** 
  91:Middlewares/Third_Party/wolfSSL_wolfSSL_wolfSSL/wolfssl/src/wolfio.c **** static WC_INLINE int wolfSSL_LastError(int err)
  92:Middlewares/Third_Party/wolfSSL_wolfSSL_wolfSSL/wolfssl/src/wolfio.c **** {
  93:Middlewares/Third_Party/wolfSSL_wolfSSL_wolfSSL/wolfssl/src/wolfio.c ****     (void)err; /* Suppress unused arg */
  94:Middlewares/Third_Party/wolfSSL_wolfSSL_wolfSSL/wolfssl/src/wolfio.c **** 
  95:Middlewares/Third_Party/wolfSSL_wolfSSL_wolfSSL/wolfssl/src/wolfio.c **** #ifdef USE_WINDOWS_API
  96:Middlewares/Third_Party/wolfSSL_wolfSSL_wolfSSL/wolfssl/src/wolfio.c ****     return WSAGetLastError();
  97:Middlewares/Third_Party/wolfSSL_wolfSSL_wolfSSL/wolfssl/src/wolfio.c **** #elif defined(EBSNET)
  98:Middlewares/Third_Party/wolfSSL_wolfSSL_wolfSSL/wolfssl/src/wolfio.c ****     return xn_getlasterror();
  99:Middlewares/Third_Party/wolfSSL_wolfSSL_wolfSSL/wolfssl/src/wolfio.c **** #elif defined(WOLFSSL_LINUXKM)
 100:Middlewares/Third_Party/wolfSSL_wolfSSL_wolfSSL/wolfssl/src/wolfio.c ****     return err; /* Return provided error value */
 101:Middlewares/Third_Party/wolfSSL_wolfSSL_wolfSSL/wolfssl/src/wolfio.c **** #elif defined(FUSION_RTOS)
 102:Middlewares/Third_Party/wolfSSL_wolfSSL_wolfSSL/wolfssl/src/wolfio.c ****     #include <fclerrno.h>
 103:Middlewares/Third_Party/wolfSSL_wolfSSL_wolfSSL/wolfssl/src/wolfio.c ****     return FCL_GET_ERRNO;
 104:Middlewares/Third_Party/wolfSSL_wolfSSL_wolfSSL/wolfssl/src/wolfio.c **** #else
 105:Middlewares/Third_Party/wolfSSL_wolfSSL_wolfSSL/wolfssl/src/wolfio.c ****     return errno;
 106:Middlewares/Third_Party/wolfSSL_wolfSSL_wolfSSL/wolfssl/src/wolfio.c **** #endif
 107:Middlewares/Third_Party/wolfSSL_wolfSSL_wolfSSL/wolfssl/src/wolfio.c **** }
 108:Middlewares/Third_Party/wolfSSL_wolfSSL_wolfSSL/wolfssl/src/wolfio.c **** 
 109:Middlewares/Third_Party/wolfSSL_wolfSSL_wolfSSL/wolfssl/src/wolfio.c **** #endif /* USE_WOLFSSL_IO || HAVE_HTTP_CLIENT */
 110:Middlewares/Third_Party/wolfSSL_wolfSSL_wolfSSL/wolfssl/src/wolfio.c **** 
 111:Middlewares/Third_Party/wolfSSL_wolfSSL_wolfSSL/wolfssl/src/wolfio.c **** 
 112:Middlewares/Third_Party/wolfSSL_wolfSSL_wolfSSL/wolfssl/src/wolfio.c **** #ifdef OPENSSL_EXTRA
 113:Middlewares/Third_Party/wolfSSL_wolfSSL_wolfSSL/wolfssl/src/wolfio.c **** #ifndef NO_BIO
 114:Middlewares/Third_Party/wolfSSL_wolfSSL_wolfSSL/wolfssl/src/wolfio.c **** /* Use the WOLFSSL read BIO for receiving data. This is set by the function
 115:Middlewares/Third_Party/wolfSSL_wolfSSL_wolfSSL/wolfssl/src/wolfio.c ****  * wolfSSL_set_bio and can also be set by wolfSSL_CTX_SetIORecv.
 116:Middlewares/Third_Party/wolfSSL_wolfSSL_wolfSSL/wolfssl/src/wolfio.c ****  *
 117:Middlewares/Third_Party/wolfSSL_wolfSSL_wolfSSL/wolfssl/src/wolfio.c ****  * ssl  WOLFSSL struct passed in that has this function set as the receive
 118:Middlewares/Third_Party/wolfSSL_wolfSSL_wolfSSL/wolfssl/src/wolfio.c ****  *      callback.
 119:Middlewares/Third_Party/wolfSSL_wolfSSL_wolfSSL/wolfssl/src/wolfio.c ****  * buf  buffer to fill with data read
 120:Middlewares/Third_Party/wolfSSL_wolfSSL_wolfSSL/wolfssl/src/wolfio.c ****  * sz   size of buf buffer
 121:Middlewares/Third_Party/wolfSSL_wolfSSL_wolfSSL/wolfssl/src/wolfio.c ****  * ctx  a user set context
 122:Middlewares/Third_Party/wolfSSL_wolfSSL_wolfSSL/wolfssl/src/wolfio.c ****  *
 123:Middlewares/Third_Party/wolfSSL_wolfSSL_wolfSSL/wolfssl/src/wolfio.c ****  * returns the amount of data read or want read. See WOLFSSL_CBIO_ERR_* values.
 124:Middlewares/Third_Party/wolfSSL_wolfSSL_wolfSSL/wolfssl/src/wolfio.c ****  */
 125:Middlewares/Third_Party/wolfSSL_wolfSSL_wolfSSL/wolfssl/src/wolfio.c **** int BioReceive(WOLFSSL* ssl, char* buf, int sz, void* ctx)
 126:Middlewares/Third_Party/wolfSSL_wolfSSL_wolfSSL/wolfssl/src/wolfio.c **** {
 127:Middlewares/Third_Party/wolfSSL_wolfSSL_wolfSSL/wolfssl/src/wolfio.c ****     int recvd = WOLFSSL_CBIO_ERR_GENERAL;
 128:Middlewares/Third_Party/wolfSSL_wolfSSL_wolfSSL/wolfssl/src/wolfio.c **** 
 129:Middlewares/Third_Party/wolfSSL_wolfSSL_wolfSSL/wolfssl/src/wolfio.c ****     WOLFSSL_ENTER("BioReceive");
 130:Middlewares/Third_Party/wolfSSL_wolfSSL_wolfSSL/wolfssl/src/wolfio.c **** 
 131:Middlewares/Third_Party/wolfSSL_wolfSSL_wolfSSL/wolfssl/src/wolfio.c ****     if (ssl->biord == NULL) {
 132:Middlewares/Third_Party/wolfSSL_wolfSSL_wolfSSL/wolfssl/src/wolfio.c ****         WOLFSSL_MSG("WOLFSSL biord not set");
 133:Middlewares/Third_Party/wolfSSL_wolfSSL_wolfSSL/wolfssl/src/wolfio.c ****         return WOLFSSL_CBIO_ERR_GENERAL;
 134:Middlewares/Third_Party/wolfSSL_wolfSSL_wolfSSL/wolfssl/src/wolfio.c ****     }
 135:Middlewares/Third_Party/wolfSSL_wolfSSL_wolfSSL/wolfssl/src/wolfio.c **** 
 136:Middlewares/Third_Party/wolfSSL_wolfSSL_wolfSSL/wolfssl/src/wolfio.c ****     if (ssl->biord->method && ssl->biord->method->readCb) {
 137:Middlewares/Third_Party/wolfSSL_wolfSSL_wolfSSL/wolfssl/src/wolfio.c ****         WOLFSSL_MSG("Calling custom biord");
 138:Middlewares/Third_Party/wolfSSL_wolfSSL_wolfSSL/wolfssl/src/wolfio.c ****         recvd = ssl->biord->method->readCb(ssl->biord, buf, sz);
 139:Middlewares/Third_Party/wolfSSL_wolfSSL_wolfSSL/wolfssl/src/wolfio.c ****         if (recvd < 0 && recvd != WOLFSSL_CBIO_ERR_WANT_READ)
 140:Middlewares/Third_Party/wolfSSL_wolfSSL_wolfSSL/wolfssl/src/wolfio.c ****             return WOLFSSL_CBIO_ERR_GENERAL;
 141:Middlewares/Third_Party/wolfSSL_wolfSSL_wolfSSL/wolfssl/src/wolfio.c ****         return recvd;
 142:Middlewares/Third_Party/wolfSSL_wolfSSL_wolfSSL/wolfssl/src/wolfio.c ****     }
 143:Middlewares/Third_Party/wolfSSL_wolfSSL_wolfSSL/wolfssl/src/wolfio.c **** 
ARM GAS  /tmp/ccACAaom.s 			page 4


 144:Middlewares/Third_Party/wolfSSL_wolfSSL_wolfSSL/wolfssl/src/wolfio.c ****     switch (ssl->biord->type) {
 145:Middlewares/Third_Party/wolfSSL_wolfSSL_wolfSSL/wolfssl/src/wolfio.c ****         case WOLFSSL_BIO_MEMORY:
 146:Middlewares/Third_Party/wolfSSL_wolfSSL_wolfSSL/wolfssl/src/wolfio.c ****         case WOLFSSL_BIO_BIO:
 147:Middlewares/Third_Party/wolfSSL_wolfSSL_wolfSSL/wolfssl/src/wolfio.c ****             if (wolfSSL_BIO_ctrl_pending(ssl->biord) == 0) {
 148:Middlewares/Third_Party/wolfSSL_wolfSSL_wolfSSL/wolfssl/src/wolfio.c ****                 WOLFSSL_MSG("BIO want read");
 149:Middlewares/Third_Party/wolfSSL_wolfSSL_wolfSSL/wolfssl/src/wolfio.c ****                return WOLFSSL_CBIO_ERR_WANT_READ;
 150:Middlewares/Third_Party/wolfSSL_wolfSSL_wolfSSL/wolfssl/src/wolfio.c ****             }
 151:Middlewares/Third_Party/wolfSSL_wolfSSL_wolfSSL/wolfssl/src/wolfio.c ****             recvd = wolfSSL_BIO_read(ssl->biord, buf, sz);
 152:Middlewares/Third_Party/wolfSSL_wolfSSL_wolfSSL/wolfssl/src/wolfio.c ****             if (recvd <= 0) {
 153:Middlewares/Third_Party/wolfSSL_wolfSSL_wolfSSL/wolfssl/src/wolfio.c ****                 WOLFSSL_MSG("BIO general error");
 154:Middlewares/Third_Party/wolfSSL_wolfSSL_wolfSSL/wolfssl/src/wolfio.c ****                 return WOLFSSL_CBIO_ERR_GENERAL;
 155:Middlewares/Third_Party/wolfSSL_wolfSSL_wolfSSL/wolfssl/src/wolfio.c ****             }
 156:Middlewares/Third_Party/wolfSSL_wolfSSL_wolfSSL/wolfssl/src/wolfio.c ****             break;
 157:Middlewares/Third_Party/wolfSSL_wolfSSL_wolfSSL/wolfssl/src/wolfio.c **** 
 158:Middlewares/Third_Party/wolfSSL_wolfSSL_wolfSSL/wolfssl/src/wolfio.c ****        default:
 159:Middlewares/Third_Party/wolfSSL_wolfSSL_wolfSSL/wolfssl/src/wolfio.c ****             WOLFSSL_MSG("This BIO type is unknown / unsupported");
 160:Middlewares/Third_Party/wolfSSL_wolfSSL_wolfSSL/wolfssl/src/wolfio.c ****             return WOLFSSL_CBIO_ERR_GENERAL;
 161:Middlewares/Third_Party/wolfSSL_wolfSSL_wolfSSL/wolfssl/src/wolfio.c ****     }
 162:Middlewares/Third_Party/wolfSSL_wolfSSL_wolfSSL/wolfssl/src/wolfio.c **** 
 163:Middlewares/Third_Party/wolfSSL_wolfSSL_wolfSSL/wolfssl/src/wolfio.c ****     (void)ctx;
 164:Middlewares/Third_Party/wolfSSL_wolfSSL_wolfSSL/wolfssl/src/wolfio.c ****     return recvd;
 165:Middlewares/Third_Party/wolfSSL_wolfSSL_wolfSSL/wolfssl/src/wolfio.c **** }
 166:Middlewares/Third_Party/wolfSSL_wolfSSL_wolfSSL/wolfssl/src/wolfio.c **** 
 167:Middlewares/Third_Party/wolfSSL_wolfSSL_wolfSSL/wolfssl/src/wolfio.c **** 
 168:Middlewares/Third_Party/wolfSSL_wolfSSL_wolfSSL/wolfssl/src/wolfio.c **** /* Use the WOLFSSL write BIO for sending data. This is set by the function
 169:Middlewares/Third_Party/wolfSSL_wolfSSL_wolfSSL/wolfssl/src/wolfio.c ****  * wolfSSL_set_bio and can also be set by wolfSSL_CTX_SetIOSend.
 170:Middlewares/Third_Party/wolfSSL_wolfSSL_wolfSSL/wolfssl/src/wolfio.c ****  *
 171:Middlewares/Third_Party/wolfSSL_wolfSSL_wolfSSL/wolfssl/src/wolfio.c ****  * ssl  WOLFSSL struct passed in that has this function set as the send callback.
 172:Middlewares/Third_Party/wolfSSL_wolfSSL_wolfSSL/wolfssl/src/wolfio.c ****  * buf  buffer with data to write out
 173:Middlewares/Third_Party/wolfSSL_wolfSSL_wolfSSL/wolfssl/src/wolfio.c ****  * sz   size of buf buffer
 174:Middlewares/Third_Party/wolfSSL_wolfSSL_wolfSSL/wolfssl/src/wolfio.c ****  * ctx  a user set context
 175:Middlewares/Third_Party/wolfSSL_wolfSSL_wolfSSL/wolfssl/src/wolfio.c ****  *
 176:Middlewares/Third_Party/wolfSSL_wolfSSL_wolfSSL/wolfssl/src/wolfio.c ****  * returns the amount of data sent or want send. See WOLFSSL_CBIO_ERR_* values.
 177:Middlewares/Third_Party/wolfSSL_wolfSSL_wolfSSL/wolfssl/src/wolfio.c ****  */
 178:Middlewares/Third_Party/wolfSSL_wolfSSL_wolfSSL/wolfssl/src/wolfio.c **** int BioSend(WOLFSSL* ssl, char *buf, int sz, void *ctx)
 179:Middlewares/Third_Party/wolfSSL_wolfSSL_wolfSSL/wolfssl/src/wolfio.c **** {
 180:Middlewares/Third_Party/wolfSSL_wolfSSL_wolfSSL/wolfssl/src/wolfio.c ****     int sent = WOLFSSL_CBIO_ERR_GENERAL;
 181:Middlewares/Third_Party/wolfSSL_wolfSSL_wolfSSL/wolfssl/src/wolfio.c **** 
 182:Middlewares/Third_Party/wolfSSL_wolfSSL_wolfSSL/wolfssl/src/wolfio.c ****     WOLFSSL_ENTER("BioSend");
 183:Middlewares/Third_Party/wolfSSL_wolfSSL_wolfSSL/wolfssl/src/wolfio.c **** 
 184:Middlewares/Third_Party/wolfSSL_wolfSSL_wolfSSL/wolfssl/src/wolfio.c ****     if (ssl->biowr == NULL) {
 185:Middlewares/Third_Party/wolfSSL_wolfSSL_wolfSSL/wolfssl/src/wolfio.c ****         WOLFSSL_MSG("WOLFSSL biowr not set");
 186:Middlewares/Third_Party/wolfSSL_wolfSSL_wolfSSL/wolfssl/src/wolfio.c ****         return WOLFSSL_CBIO_ERR_GENERAL;
 187:Middlewares/Third_Party/wolfSSL_wolfSSL_wolfSSL/wolfssl/src/wolfio.c ****     }
 188:Middlewares/Third_Party/wolfSSL_wolfSSL_wolfSSL/wolfssl/src/wolfio.c **** 
 189:Middlewares/Third_Party/wolfSSL_wolfSSL_wolfSSL/wolfssl/src/wolfio.c ****     if (ssl->biowr->method && ssl->biowr->method->writeCb) {
 190:Middlewares/Third_Party/wolfSSL_wolfSSL_wolfSSL/wolfssl/src/wolfio.c ****         WOLFSSL_MSG("Calling custom biowr");
 191:Middlewares/Third_Party/wolfSSL_wolfSSL_wolfSSL/wolfssl/src/wolfio.c ****         sent = ssl->biowr->method->writeCb(ssl->biowr, buf, sz);
 192:Middlewares/Third_Party/wolfSSL_wolfSSL_wolfSSL/wolfssl/src/wolfio.c ****         if ((sent < 0) && (sent != WOLFSSL_CBIO_ERR_WANT_WRITE)) {
 193:Middlewares/Third_Party/wolfSSL_wolfSSL_wolfSSL/wolfssl/src/wolfio.c ****             return WOLFSSL_CBIO_ERR_GENERAL;
 194:Middlewares/Third_Party/wolfSSL_wolfSSL_wolfSSL/wolfssl/src/wolfio.c ****         }
 195:Middlewares/Third_Party/wolfSSL_wolfSSL_wolfSSL/wolfssl/src/wolfio.c ****         return sent;
 196:Middlewares/Third_Party/wolfSSL_wolfSSL_wolfSSL/wolfssl/src/wolfio.c ****     }
 197:Middlewares/Third_Party/wolfSSL_wolfSSL_wolfSSL/wolfssl/src/wolfio.c **** 
 198:Middlewares/Third_Party/wolfSSL_wolfSSL_wolfSSL/wolfssl/src/wolfio.c ****     switch (ssl->biowr->type) {
 199:Middlewares/Third_Party/wolfSSL_wolfSSL_wolfSSL/wolfssl/src/wolfio.c ****         case WOLFSSL_BIO_MEMORY:
 200:Middlewares/Third_Party/wolfSSL_wolfSSL_wolfSSL/wolfssl/src/wolfio.c ****         case WOLFSSL_BIO_BIO:
ARM GAS  /tmp/ccACAaom.s 			page 5


 201:Middlewares/Third_Party/wolfSSL_wolfSSL_wolfSSL/wolfssl/src/wolfio.c ****             sent = wolfSSL_BIO_write(ssl->biowr, buf, sz);
 202:Middlewares/Third_Party/wolfSSL_wolfSSL_wolfSSL/wolfssl/src/wolfio.c ****             if (sent < 0) {
 203:Middlewares/Third_Party/wolfSSL_wolfSSL_wolfSSL/wolfssl/src/wolfio.c ****                 return WOLFSSL_CBIO_ERR_GENERAL;
 204:Middlewares/Third_Party/wolfSSL_wolfSSL_wolfSSL/wolfssl/src/wolfio.c ****             }
 205:Middlewares/Third_Party/wolfSSL_wolfSSL_wolfSSL/wolfssl/src/wolfio.c ****             break;
 206:Middlewares/Third_Party/wolfSSL_wolfSSL_wolfSSL/wolfssl/src/wolfio.c **** 
 207:Middlewares/Third_Party/wolfSSL_wolfSSL_wolfSSL/wolfssl/src/wolfio.c ****         default:
 208:Middlewares/Third_Party/wolfSSL_wolfSSL_wolfSSL/wolfssl/src/wolfio.c ****             WOLFSSL_MSG("This BIO type is unknown / unsupported");
 209:Middlewares/Third_Party/wolfSSL_wolfSSL_wolfSSL/wolfssl/src/wolfio.c ****             return WOLFSSL_CBIO_ERR_GENERAL;
 210:Middlewares/Third_Party/wolfSSL_wolfSSL_wolfSSL/wolfssl/src/wolfio.c ****     }
 211:Middlewares/Third_Party/wolfSSL_wolfSSL_wolfSSL/wolfssl/src/wolfio.c ****     (void)ctx;
 212:Middlewares/Third_Party/wolfSSL_wolfSSL_wolfSSL/wolfssl/src/wolfio.c **** 
 213:Middlewares/Third_Party/wolfSSL_wolfSSL_wolfSSL/wolfssl/src/wolfio.c ****     return sent;
 214:Middlewares/Third_Party/wolfSSL_wolfSSL_wolfSSL/wolfssl/src/wolfio.c **** }
 215:Middlewares/Third_Party/wolfSSL_wolfSSL_wolfSSL/wolfssl/src/wolfio.c **** #endif /* !NO_BIO */
 216:Middlewares/Third_Party/wolfSSL_wolfSSL_wolfSSL/wolfssl/src/wolfio.c **** #endif /* OPENSSL_EXTRA */
 217:Middlewares/Third_Party/wolfSSL_wolfSSL_wolfSSL/wolfssl/src/wolfio.c **** 
 218:Middlewares/Third_Party/wolfSSL_wolfSSL_wolfSSL/wolfssl/src/wolfio.c **** 
 219:Middlewares/Third_Party/wolfSSL_wolfSSL_wolfSSL/wolfssl/src/wolfio.c **** #ifdef USE_WOLFSSL_IO
 220:Middlewares/Third_Party/wolfSSL_wolfSSL_wolfSSL/wolfssl/src/wolfio.c **** 
 221:Middlewares/Third_Party/wolfSSL_wolfSSL_wolfSSL/wolfssl/src/wolfio.c **** /* The receive embedded callback
 222:Middlewares/Third_Party/wolfSSL_wolfSSL_wolfSSL/wolfssl/src/wolfio.c ****  *  return : nb bytes read, or error
 223:Middlewares/Third_Party/wolfSSL_wolfSSL_wolfSSL/wolfssl/src/wolfio.c ****  */
 224:Middlewares/Third_Party/wolfSSL_wolfSSL_wolfSSL/wolfssl/src/wolfio.c **** int EmbedReceive(WOLFSSL *ssl, char *buf, int sz, void *ctx)
 225:Middlewares/Third_Party/wolfSSL_wolfSSL_wolfSSL/wolfssl/src/wolfio.c **** {
 226:Middlewares/Third_Party/wolfSSL_wolfSSL_wolfSSL/wolfssl/src/wolfio.c ****     int recvd;
 227:Middlewares/Third_Party/wolfSSL_wolfSSL_wolfSSL/wolfssl/src/wolfio.c **** #ifndef WOLFSSL_LINUXKM
 228:Middlewares/Third_Party/wolfSSL_wolfSSL_wolfSSL/wolfssl/src/wolfio.c ****     int sd = *(int*)ctx;
 229:Middlewares/Third_Party/wolfSSL_wolfSSL_wolfSSL/wolfssl/src/wolfio.c **** #else
 230:Middlewares/Third_Party/wolfSSL_wolfSSL_wolfSSL/wolfssl/src/wolfio.c ****     struct socket *sd = (struct socket*)ctx;
 231:Middlewares/Third_Party/wolfSSL_wolfSSL_wolfSSL/wolfssl/src/wolfio.c **** #endif
 232:Middlewares/Third_Party/wolfSSL_wolfSSL_wolfSSL/wolfssl/src/wolfio.c **** 
 233:Middlewares/Third_Party/wolfSSL_wolfSSL_wolfSSL/wolfssl/src/wolfio.c ****     recvd = wolfIO_Recv(sd, buf, sz, ssl->rflags);
 234:Middlewares/Third_Party/wolfSSL_wolfSSL_wolfSSL/wolfssl/src/wolfio.c ****     if (recvd < 0) {
 235:Middlewares/Third_Party/wolfSSL_wolfSSL_wolfSSL/wolfssl/src/wolfio.c ****         int err = wolfSSL_LastError(recvd);
 236:Middlewares/Third_Party/wolfSSL_wolfSSL_wolfSSL/wolfssl/src/wolfio.c ****         WOLFSSL_MSG("Embed Receive error");
 237:Middlewares/Third_Party/wolfSSL_wolfSSL_wolfSSL/wolfssl/src/wolfio.c **** 
 238:Middlewares/Third_Party/wolfSSL_wolfSSL_wolfSSL/wolfssl/src/wolfio.c ****         if (err == SOCKET_EWOULDBLOCK || err == SOCKET_EAGAIN) {
 239:Middlewares/Third_Party/wolfSSL_wolfSSL_wolfSSL/wolfssl/src/wolfio.c ****             WOLFSSL_MSG("\tWould block");
 240:Middlewares/Third_Party/wolfSSL_wolfSSL_wolfSSL/wolfssl/src/wolfio.c ****             return WOLFSSL_CBIO_ERR_WANT_READ;
 241:Middlewares/Third_Party/wolfSSL_wolfSSL_wolfSSL/wolfssl/src/wolfio.c ****         }
 242:Middlewares/Third_Party/wolfSSL_wolfSSL_wolfSSL/wolfssl/src/wolfio.c ****         else if (err == SOCKET_ECONNRESET) {
 243:Middlewares/Third_Party/wolfSSL_wolfSSL_wolfSSL/wolfssl/src/wolfio.c ****             WOLFSSL_MSG("\tConnection reset");
 244:Middlewares/Third_Party/wolfSSL_wolfSSL_wolfSSL/wolfssl/src/wolfio.c ****             return WOLFSSL_CBIO_ERR_CONN_RST;
 245:Middlewares/Third_Party/wolfSSL_wolfSSL_wolfSSL/wolfssl/src/wolfio.c ****         }
 246:Middlewares/Third_Party/wolfSSL_wolfSSL_wolfSSL/wolfssl/src/wolfio.c ****         else if (err == SOCKET_EINTR) {
 247:Middlewares/Third_Party/wolfSSL_wolfSSL_wolfSSL/wolfssl/src/wolfio.c ****             WOLFSSL_MSG("\tSocket interrupted");
 248:Middlewares/Third_Party/wolfSSL_wolfSSL_wolfSSL/wolfssl/src/wolfio.c ****             return WOLFSSL_CBIO_ERR_ISR;
 249:Middlewares/Third_Party/wolfSSL_wolfSSL_wolfSSL/wolfssl/src/wolfio.c ****         }
 250:Middlewares/Third_Party/wolfSSL_wolfSSL_wolfSSL/wolfssl/src/wolfio.c ****         else if (err == SOCKET_ECONNABORTED) {
 251:Middlewares/Third_Party/wolfSSL_wolfSSL_wolfSSL/wolfssl/src/wolfio.c ****             WOLFSSL_MSG("\tConnection aborted");
 252:Middlewares/Third_Party/wolfSSL_wolfSSL_wolfSSL/wolfssl/src/wolfio.c ****             return WOLFSSL_CBIO_ERR_CONN_CLOSE;
 253:Middlewares/Third_Party/wolfSSL_wolfSSL_wolfSSL/wolfssl/src/wolfio.c ****         }
 254:Middlewares/Third_Party/wolfSSL_wolfSSL_wolfSSL/wolfssl/src/wolfio.c ****         else {
 255:Middlewares/Third_Party/wolfSSL_wolfSSL_wolfSSL/wolfssl/src/wolfio.c ****             WOLFSSL_MSG("\tGeneral error");
 256:Middlewares/Third_Party/wolfSSL_wolfSSL_wolfSSL/wolfssl/src/wolfio.c ****             return WOLFSSL_CBIO_ERR_GENERAL;
 257:Middlewares/Third_Party/wolfSSL_wolfSSL_wolfSSL/wolfssl/src/wolfio.c ****         }
ARM GAS  /tmp/ccACAaom.s 			page 6


 258:Middlewares/Third_Party/wolfSSL_wolfSSL_wolfSSL/wolfssl/src/wolfio.c ****     }
 259:Middlewares/Third_Party/wolfSSL_wolfSSL_wolfSSL/wolfssl/src/wolfio.c ****     else if (recvd == 0) {
 260:Middlewares/Third_Party/wolfSSL_wolfSSL_wolfSSL/wolfssl/src/wolfio.c ****         WOLFSSL_MSG("Embed receive connection closed");
 261:Middlewares/Third_Party/wolfSSL_wolfSSL_wolfSSL/wolfssl/src/wolfio.c ****         return WOLFSSL_CBIO_ERR_CONN_CLOSE;
 262:Middlewares/Third_Party/wolfSSL_wolfSSL_wolfSSL/wolfssl/src/wolfio.c ****     }
 263:Middlewares/Third_Party/wolfSSL_wolfSSL_wolfSSL/wolfssl/src/wolfio.c **** 
 264:Middlewares/Third_Party/wolfSSL_wolfSSL_wolfSSL/wolfssl/src/wolfio.c ****     return recvd;
 265:Middlewares/Third_Party/wolfSSL_wolfSSL_wolfSSL/wolfssl/src/wolfio.c **** }
 266:Middlewares/Third_Party/wolfSSL_wolfSSL_wolfSSL/wolfssl/src/wolfio.c **** 
 267:Middlewares/Third_Party/wolfSSL_wolfSSL_wolfSSL/wolfssl/src/wolfio.c **** /* The send embedded callback
 268:Middlewares/Third_Party/wolfSSL_wolfSSL_wolfSSL/wolfssl/src/wolfio.c ****  *  return : nb bytes sent, or error
 269:Middlewares/Third_Party/wolfSSL_wolfSSL_wolfSSL/wolfssl/src/wolfio.c ****  */
 270:Middlewares/Third_Party/wolfSSL_wolfSSL_wolfSSL/wolfssl/src/wolfio.c **** int EmbedSend(WOLFSSL* ssl, char *buf, int sz, void *ctx)
 271:Middlewares/Third_Party/wolfSSL_wolfSSL_wolfSSL/wolfssl/src/wolfio.c **** {
 272:Middlewares/Third_Party/wolfSSL_wolfSSL_wolfSSL/wolfssl/src/wolfio.c ****     int sent;
 273:Middlewares/Third_Party/wolfSSL_wolfSSL_wolfSSL/wolfssl/src/wolfio.c **** #ifndef WOLFSSL_LINUXKM
 274:Middlewares/Third_Party/wolfSSL_wolfSSL_wolfSSL/wolfssl/src/wolfio.c ****     int sd = *(int*)ctx;
 275:Middlewares/Third_Party/wolfSSL_wolfSSL_wolfSSL/wolfssl/src/wolfio.c **** #else
 276:Middlewares/Third_Party/wolfSSL_wolfSSL_wolfSSL/wolfssl/src/wolfio.c ****     struct socket *sd = (struct socket*)ctx;
 277:Middlewares/Third_Party/wolfSSL_wolfSSL_wolfSSL/wolfssl/src/wolfio.c **** #endif
 278:Middlewares/Third_Party/wolfSSL_wolfSSL_wolfSSL/wolfssl/src/wolfio.c **** 
 279:Middlewares/Third_Party/wolfSSL_wolfSSL_wolfSSL/wolfssl/src/wolfio.c **** #ifdef WOLFSSL_MAX_SEND_SZ
 280:Middlewares/Third_Party/wolfSSL_wolfSSL_wolfSSL/wolfssl/src/wolfio.c ****     if (sz > WOLFSSL_MAX_SEND_SZ)
 281:Middlewares/Third_Party/wolfSSL_wolfSSL_wolfSSL/wolfssl/src/wolfio.c ****         sz = WOLFSSL_MAX_SEND_SZ;
 282:Middlewares/Third_Party/wolfSSL_wolfSSL_wolfSSL/wolfssl/src/wolfio.c **** #endif
 283:Middlewares/Third_Party/wolfSSL_wolfSSL_wolfSSL/wolfssl/src/wolfio.c **** 
 284:Middlewares/Third_Party/wolfSSL_wolfSSL_wolfSSL/wolfssl/src/wolfio.c ****     sent = wolfIO_Send(sd, buf, sz, ssl->wflags);
 285:Middlewares/Third_Party/wolfSSL_wolfSSL_wolfSSL/wolfssl/src/wolfio.c ****     if (sent < 0) {
 286:Middlewares/Third_Party/wolfSSL_wolfSSL_wolfSSL/wolfssl/src/wolfio.c ****         int err = wolfSSL_LastError(sent);
 287:Middlewares/Third_Party/wolfSSL_wolfSSL_wolfSSL/wolfssl/src/wolfio.c ****         WOLFSSL_MSG("Embed Send error");
 288:Middlewares/Third_Party/wolfSSL_wolfSSL_wolfSSL/wolfssl/src/wolfio.c **** 
 289:Middlewares/Third_Party/wolfSSL_wolfSSL_wolfSSL/wolfssl/src/wolfio.c ****         if (err == SOCKET_EWOULDBLOCK || err == SOCKET_EAGAIN) {
 290:Middlewares/Third_Party/wolfSSL_wolfSSL_wolfSSL/wolfssl/src/wolfio.c ****             WOLFSSL_MSG("\tWould Block");
 291:Middlewares/Third_Party/wolfSSL_wolfSSL_wolfSSL/wolfssl/src/wolfio.c ****             return WOLFSSL_CBIO_ERR_WANT_WRITE;
 292:Middlewares/Third_Party/wolfSSL_wolfSSL_wolfSSL/wolfssl/src/wolfio.c ****         }
 293:Middlewares/Third_Party/wolfSSL_wolfSSL_wolfSSL/wolfssl/src/wolfio.c ****         else if (err == SOCKET_ECONNRESET) {
 294:Middlewares/Third_Party/wolfSSL_wolfSSL_wolfSSL/wolfssl/src/wolfio.c ****             WOLFSSL_MSG("\tConnection reset");
 295:Middlewares/Third_Party/wolfSSL_wolfSSL_wolfSSL/wolfssl/src/wolfio.c ****             return WOLFSSL_CBIO_ERR_CONN_RST;
 296:Middlewares/Third_Party/wolfSSL_wolfSSL_wolfSSL/wolfssl/src/wolfio.c ****         }
 297:Middlewares/Third_Party/wolfSSL_wolfSSL_wolfSSL/wolfssl/src/wolfio.c ****         else if (err == SOCKET_EINTR) {
 298:Middlewares/Third_Party/wolfSSL_wolfSSL_wolfSSL/wolfssl/src/wolfio.c ****             WOLFSSL_MSG("\tSocket interrupted");
 299:Middlewares/Third_Party/wolfSSL_wolfSSL_wolfSSL/wolfssl/src/wolfio.c ****             return WOLFSSL_CBIO_ERR_ISR;
 300:Middlewares/Third_Party/wolfSSL_wolfSSL_wolfSSL/wolfssl/src/wolfio.c ****         }
 301:Middlewares/Third_Party/wolfSSL_wolfSSL_wolfSSL/wolfssl/src/wolfio.c ****         else if (err == SOCKET_EPIPE) {
 302:Middlewares/Third_Party/wolfSSL_wolfSSL_wolfSSL/wolfssl/src/wolfio.c ****             WOLFSSL_MSG("\tSocket EPIPE");
 303:Middlewares/Third_Party/wolfSSL_wolfSSL_wolfSSL/wolfssl/src/wolfio.c ****             return WOLFSSL_CBIO_ERR_CONN_CLOSE;
 304:Middlewares/Third_Party/wolfSSL_wolfSSL_wolfSSL/wolfssl/src/wolfio.c ****         }
 305:Middlewares/Third_Party/wolfSSL_wolfSSL_wolfSSL/wolfssl/src/wolfio.c ****         else {
 306:Middlewares/Third_Party/wolfSSL_wolfSSL_wolfSSL/wolfssl/src/wolfio.c ****             WOLFSSL_MSG("\tGeneral error");
 307:Middlewares/Third_Party/wolfSSL_wolfSSL_wolfSSL/wolfssl/src/wolfio.c ****             return WOLFSSL_CBIO_ERR_GENERAL;
 308:Middlewares/Third_Party/wolfSSL_wolfSSL_wolfSSL/wolfssl/src/wolfio.c ****         }
 309:Middlewares/Third_Party/wolfSSL_wolfSSL_wolfSSL/wolfssl/src/wolfio.c ****     }
 310:Middlewares/Third_Party/wolfSSL_wolfSSL_wolfSSL/wolfssl/src/wolfio.c **** 
 311:Middlewares/Third_Party/wolfSSL_wolfSSL_wolfSSL/wolfssl/src/wolfio.c ****     return sent;
 312:Middlewares/Third_Party/wolfSSL_wolfSSL_wolfSSL/wolfssl/src/wolfio.c **** }
 313:Middlewares/Third_Party/wolfSSL_wolfSSL_wolfSSL/wolfssl/src/wolfio.c **** 
 314:Middlewares/Third_Party/wolfSSL_wolfSSL_wolfSSL/wolfssl/src/wolfio.c **** 
ARM GAS  /tmp/ccACAaom.s 			page 7


 315:Middlewares/Third_Party/wolfSSL_wolfSSL_wolfSSL/wolfssl/src/wolfio.c **** #ifdef WOLFSSL_DTLS
 316:Middlewares/Third_Party/wolfSSL_wolfSSL_wolfSSL/wolfssl/src/wolfio.c **** 
 317:Middlewares/Third_Party/wolfSSL_wolfSSL_wolfSSL/wolfssl/src/wolfio.c **** #include <wolfssl/wolfcrypt/sha.h>
 318:Middlewares/Third_Party/wolfSSL_wolfSSL_wolfSSL/wolfssl/src/wolfio.c **** 
 319:Middlewares/Third_Party/wolfSSL_wolfSSL_wolfSSL/wolfssl/src/wolfio.c **** #define SENDTO_FUNCTION sendto
 320:Middlewares/Third_Party/wolfSSL_wolfSSL_wolfSSL/wolfssl/src/wolfio.c **** #define RECVFROM_FUNCTION recvfrom
 321:Middlewares/Third_Party/wolfSSL_wolfSSL_wolfSSL/wolfssl/src/wolfio.c **** 
 322:Middlewares/Third_Party/wolfSSL_wolfSSL_wolfSSL/wolfssl/src/wolfio.c **** 
 323:Middlewares/Third_Party/wolfSSL_wolfSSL_wolfSSL/wolfssl/src/wolfio.c **** /* The receive embedded callback
 324:Middlewares/Third_Party/wolfSSL_wolfSSL_wolfSSL/wolfssl/src/wolfio.c ****  *  return : nb bytes read, or error
 325:Middlewares/Third_Party/wolfSSL_wolfSSL_wolfSSL/wolfssl/src/wolfio.c ****  */
 326:Middlewares/Third_Party/wolfSSL_wolfSSL_wolfSSL/wolfssl/src/wolfio.c **** int EmbedReceiveFrom(WOLFSSL *ssl, char *buf, int sz, void *ctx)
 327:Middlewares/Third_Party/wolfSSL_wolfSSL_wolfSSL/wolfssl/src/wolfio.c **** {
 328:Middlewares/Third_Party/wolfSSL_wolfSSL_wolfSSL/wolfssl/src/wolfio.c ****     WOLFSSL_DTLS_CTX* dtlsCtx = (WOLFSSL_DTLS_CTX*)ctx;
 329:Middlewares/Third_Party/wolfSSL_wolfSSL_wolfSSL/wolfssl/src/wolfio.c ****     int recvd;
 330:Middlewares/Third_Party/wolfSSL_wolfSSL_wolfSSL/wolfssl/src/wolfio.c ****     int err;
 331:Middlewares/Third_Party/wolfSSL_wolfSSL_wolfSSL/wolfssl/src/wolfio.c ****     int sd = dtlsCtx->rfd;
 332:Middlewares/Third_Party/wolfSSL_wolfSSL_wolfSSL/wolfssl/src/wolfio.c ****     int dtls_timeout = wolfSSL_dtls_get_current_timeout(ssl);
 333:Middlewares/Third_Party/wolfSSL_wolfSSL_wolfSSL/wolfssl/src/wolfio.c ****     SOCKADDR_S peer;
 334:Middlewares/Third_Party/wolfSSL_wolfSSL_wolfSSL/wolfssl/src/wolfio.c ****     XSOCKLENT peerSz = sizeof(peer);
 335:Middlewares/Third_Party/wolfSSL_wolfSSL_wolfSSL/wolfssl/src/wolfio.c **** 
 336:Middlewares/Third_Party/wolfSSL_wolfSSL_wolfSSL/wolfssl/src/wolfio.c ****     WOLFSSL_ENTER("EmbedReceiveFrom()");
 337:Middlewares/Third_Party/wolfSSL_wolfSSL_wolfSSL/wolfssl/src/wolfio.c **** 
 338:Middlewares/Third_Party/wolfSSL_wolfSSL_wolfSSL/wolfssl/src/wolfio.c ****     /* Don't use ssl->options.handShakeDone since it is true even if
 339:Middlewares/Third_Party/wolfSSL_wolfSSL_wolfSSL/wolfssl/src/wolfio.c ****      * we are in the process of renegotiation */
 340:Middlewares/Third_Party/wolfSSL_wolfSSL_wolfSSL/wolfssl/src/wolfio.c ****     if (ssl->options.handShakeState == HANDSHAKE_DONE)
 341:Middlewares/Third_Party/wolfSSL_wolfSSL_wolfSSL/wolfssl/src/wolfio.c ****         dtls_timeout = 0;
 342:Middlewares/Third_Party/wolfSSL_wolfSSL_wolfSSL/wolfssl/src/wolfio.c **** 
 343:Middlewares/Third_Party/wolfSSL_wolfSSL_wolfSSL/wolfssl/src/wolfio.c ****     if (!wolfSSL_get_using_nonblock(ssl)) {
 344:Middlewares/Third_Party/wolfSSL_wolfSSL_wolfSSL/wolfssl/src/wolfio.c ****         #ifdef USE_WINDOWS_API
 345:Middlewares/Third_Party/wolfSSL_wolfSSL_wolfSSL/wolfssl/src/wolfio.c ****             DWORD timeout = dtls_timeout * 1000;
 346:Middlewares/Third_Party/wolfSSL_wolfSSL_wolfSSL/wolfssl/src/wolfio.c ****         #else
 347:Middlewares/Third_Party/wolfSSL_wolfSSL_wolfSSL/wolfssl/src/wolfio.c ****             struct timeval timeout;
 348:Middlewares/Third_Party/wolfSSL_wolfSSL_wolfSSL/wolfssl/src/wolfio.c ****             XMEMSET(&timeout, 0, sizeof(timeout));
 349:Middlewares/Third_Party/wolfSSL_wolfSSL_wolfSSL/wolfssl/src/wolfio.c ****             timeout.tv_sec = dtls_timeout;
 350:Middlewares/Third_Party/wolfSSL_wolfSSL_wolfSSL/wolfssl/src/wolfio.c ****         #endif
 351:Middlewares/Third_Party/wolfSSL_wolfSSL_wolfSSL/wolfssl/src/wolfio.c ****         if (setsockopt(sd, SOL_SOCKET, SO_RCVTIMEO, (char*)&timeout,
 352:Middlewares/Third_Party/wolfSSL_wolfSSL_wolfSSL/wolfssl/src/wolfio.c ****                        sizeof(timeout)) != 0) {
 353:Middlewares/Third_Party/wolfSSL_wolfSSL_wolfSSL/wolfssl/src/wolfio.c ****                 WOLFSSL_MSG("setsockopt rcvtimeo failed");
 354:Middlewares/Third_Party/wolfSSL_wolfSSL_wolfSSL/wolfssl/src/wolfio.c ****         }
 355:Middlewares/Third_Party/wolfSSL_wolfSSL_wolfSSL/wolfssl/src/wolfio.c ****     }
 356:Middlewares/Third_Party/wolfSSL_wolfSSL_wolfSSL/wolfssl/src/wolfio.c **** #ifndef NO_ASN_TIME
 357:Middlewares/Third_Party/wolfSSL_wolfSSL_wolfSSL/wolfssl/src/wolfio.c ****     else if(IsSCR(ssl)) {
 358:Middlewares/Third_Party/wolfSSL_wolfSSL_wolfSSL/wolfssl/src/wolfio.c ****         if (ssl->dtls_start_timeout &&
 359:Middlewares/Third_Party/wolfSSL_wolfSSL_wolfSSL/wolfssl/src/wolfio.c ****                 LowResTimer() - ssl->dtls_start_timeout > (word32)dtls_timeout) {
 360:Middlewares/Third_Party/wolfSSL_wolfSSL_wolfSSL/wolfssl/src/wolfio.c ****             ssl->dtls_start_timeout = 0;
 361:Middlewares/Third_Party/wolfSSL_wolfSSL_wolfSSL/wolfssl/src/wolfio.c ****             return WOLFSSL_CBIO_ERR_TIMEOUT;
 362:Middlewares/Third_Party/wolfSSL_wolfSSL_wolfSSL/wolfssl/src/wolfio.c ****         }
 363:Middlewares/Third_Party/wolfSSL_wolfSSL_wolfSSL/wolfssl/src/wolfio.c ****         else if (!ssl->dtls_start_timeout) {
 364:Middlewares/Third_Party/wolfSSL_wolfSSL_wolfSSL/wolfssl/src/wolfio.c ****             ssl->dtls_start_timeout = LowResTimer();
 365:Middlewares/Third_Party/wolfSSL_wolfSSL_wolfSSL/wolfssl/src/wolfio.c ****         }
 366:Middlewares/Third_Party/wolfSSL_wolfSSL_wolfSSL/wolfssl/src/wolfio.c ****     }
 367:Middlewares/Third_Party/wolfSSL_wolfSSL_wolfSSL/wolfssl/src/wolfio.c **** #endif /* !NO_ASN_TIME */
 368:Middlewares/Third_Party/wolfSSL_wolfSSL_wolfSSL/wolfssl/src/wolfio.c **** 
 369:Middlewares/Third_Party/wolfSSL_wolfSSL_wolfSSL/wolfssl/src/wolfio.c ****     recvd = (int)RECVFROM_FUNCTION(sd, buf, sz, ssl->rflags,
 370:Middlewares/Third_Party/wolfSSL_wolfSSL_wolfSSL/wolfssl/src/wolfio.c ****                                   (SOCKADDR*)&peer, &peerSz);
 371:Middlewares/Third_Party/wolfSSL_wolfSSL_wolfSSL/wolfssl/src/wolfio.c **** 
ARM GAS  /tmp/ccACAaom.s 			page 8


 372:Middlewares/Third_Party/wolfSSL_wolfSSL_wolfSSL/wolfssl/src/wolfio.c ****     recvd = TranslateReturnCode(recvd, sd);
 373:Middlewares/Third_Party/wolfSSL_wolfSSL_wolfSSL/wolfssl/src/wolfio.c **** 
 374:Middlewares/Third_Party/wolfSSL_wolfSSL_wolfSSL/wolfssl/src/wolfio.c ****     if (recvd < 0) {
 375:Middlewares/Third_Party/wolfSSL_wolfSSL_wolfSSL/wolfssl/src/wolfio.c ****         err = wolfSSL_LastError(recvd);
 376:Middlewares/Third_Party/wolfSSL_wolfSSL_wolfSSL/wolfssl/src/wolfio.c ****         WOLFSSL_MSG("Embed Receive From error");
 377:Middlewares/Third_Party/wolfSSL_wolfSSL_wolfSSL/wolfssl/src/wolfio.c **** 
 378:Middlewares/Third_Party/wolfSSL_wolfSSL_wolfSSL/wolfssl/src/wolfio.c ****         if (err == SOCKET_EWOULDBLOCK || err == SOCKET_EAGAIN) {
 379:Middlewares/Third_Party/wolfSSL_wolfSSL_wolfSSL/wolfssl/src/wolfio.c ****             if (wolfSSL_dtls_get_using_nonblock(ssl)) {
 380:Middlewares/Third_Party/wolfSSL_wolfSSL_wolfSSL/wolfssl/src/wolfio.c ****                 WOLFSSL_MSG("\tWould block");
 381:Middlewares/Third_Party/wolfSSL_wolfSSL_wolfSSL/wolfssl/src/wolfio.c ****                 return WOLFSSL_CBIO_ERR_WANT_READ;
 382:Middlewares/Third_Party/wolfSSL_wolfSSL_wolfSSL/wolfssl/src/wolfio.c ****             }
 383:Middlewares/Third_Party/wolfSSL_wolfSSL_wolfSSL/wolfssl/src/wolfio.c ****             else {
 384:Middlewares/Third_Party/wolfSSL_wolfSSL_wolfSSL/wolfssl/src/wolfio.c ****                 WOLFSSL_MSG("\tSocket timeout");
 385:Middlewares/Third_Party/wolfSSL_wolfSSL_wolfSSL/wolfssl/src/wolfio.c ****                 return WOLFSSL_CBIO_ERR_TIMEOUT;
 386:Middlewares/Third_Party/wolfSSL_wolfSSL_wolfSSL/wolfssl/src/wolfio.c ****             }
 387:Middlewares/Third_Party/wolfSSL_wolfSSL_wolfSSL/wolfssl/src/wolfio.c ****         }
 388:Middlewares/Third_Party/wolfSSL_wolfSSL_wolfSSL/wolfssl/src/wolfio.c ****         else if (err == SOCKET_ECONNRESET) {
 389:Middlewares/Third_Party/wolfSSL_wolfSSL_wolfSSL/wolfssl/src/wolfio.c ****             WOLFSSL_MSG("\tConnection reset");
 390:Middlewares/Third_Party/wolfSSL_wolfSSL_wolfSSL/wolfssl/src/wolfio.c ****             return WOLFSSL_CBIO_ERR_CONN_RST;
 391:Middlewares/Third_Party/wolfSSL_wolfSSL_wolfSSL/wolfssl/src/wolfio.c ****         }
 392:Middlewares/Third_Party/wolfSSL_wolfSSL_wolfSSL/wolfssl/src/wolfio.c ****         else if (err == SOCKET_EINTR) {
 393:Middlewares/Third_Party/wolfSSL_wolfSSL_wolfSSL/wolfssl/src/wolfio.c ****             WOLFSSL_MSG("\tSocket interrupted");
 394:Middlewares/Third_Party/wolfSSL_wolfSSL_wolfSSL/wolfssl/src/wolfio.c ****             return WOLFSSL_CBIO_ERR_ISR;
 395:Middlewares/Third_Party/wolfSSL_wolfSSL_wolfSSL/wolfssl/src/wolfio.c ****         }
 396:Middlewares/Third_Party/wolfSSL_wolfSSL_wolfSSL/wolfssl/src/wolfio.c ****         else if (err == SOCKET_ECONNREFUSED) {
 397:Middlewares/Third_Party/wolfSSL_wolfSSL_wolfSSL/wolfssl/src/wolfio.c ****             WOLFSSL_MSG("\tConnection refused");
 398:Middlewares/Third_Party/wolfSSL_wolfSSL_wolfSSL/wolfssl/src/wolfio.c ****             return WOLFSSL_CBIO_ERR_WANT_READ;
 399:Middlewares/Third_Party/wolfSSL_wolfSSL_wolfSSL/wolfssl/src/wolfio.c ****         }
 400:Middlewares/Third_Party/wolfSSL_wolfSSL_wolfSSL/wolfssl/src/wolfio.c ****         else {
 401:Middlewares/Third_Party/wolfSSL_wolfSSL_wolfSSL/wolfssl/src/wolfio.c ****             WOLFSSL_MSG("\tGeneral error");
 402:Middlewares/Third_Party/wolfSSL_wolfSSL_wolfSSL/wolfssl/src/wolfio.c ****             return WOLFSSL_CBIO_ERR_GENERAL;
 403:Middlewares/Third_Party/wolfSSL_wolfSSL_wolfSSL/wolfssl/src/wolfio.c ****         }
 404:Middlewares/Third_Party/wolfSSL_wolfSSL_wolfSSL/wolfssl/src/wolfio.c ****     }
 405:Middlewares/Third_Party/wolfSSL_wolfSSL_wolfSSL/wolfssl/src/wolfio.c ****     else {
 406:Middlewares/Third_Party/wolfSSL_wolfSSL_wolfSSL/wolfssl/src/wolfio.c ****         if (dtlsCtx->peer.sz > 0
 407:Middlewares/Third_Party/wolfSSL_wolfSSL_wolfSSL/wolfssl/src/wolfio.c ****                 && peerSz != (XSOCKLENT)dtlsCtx->peer.sz
 408:Middlewares/Third_Party/wolfSSL_wolfSSL_wolfSSL/wolfssl/src/wolfio.c ****                 && XMEMCMP(&peer, dtlsCtx->peer.sa, peerSz) != 0) {
 409:Middlewares/Third_Party/wolfSSL_wolfSSL_wolfSSL/wolfssl/src/wolfio.c ****             WOLFSSL_MSG("    Ignored packet from invalid peer");
 410:Middlewares/Third_Party/wolfSSL_wolfSSL_wolfSSL/wolfssl/src/wolfio.c ****             return WOLFSSL_CBIO_ERR_WANT_READ;
 411:Middlewares/Third_Party/wolfSSL_wolfSSL_wolfSSL/wolfssl/src/wolfio.c ****         }
 412:Middlewares/Third_Party/wolfSSL_wolfSSL_wolfSSL/wolfssl/src/wolfio.c ****     }
 413:Middlewares/Third_Party/wolfSSL_wolfSSL_wolfSSL/wolfssl/src/wolfio.c **** #ifndef NO_ASN_TIME
 414:Middlewares/Third_Party/wolfSSL_wolfSSL_wolfSSL/wolfssl/src/wolfio.c ****     ssl->dtls_start_timeout = 0;
 415:Middlewares/Third_Party/wolfSSL_wolfSSL_wolfSSL/wolfssl/src/wolfio.c **** #endif /* !NO_ASN_TIME */
 416:Middlewares/Third_Party/wolfSSL_wolfSSL_wolfSSL/wolfssl/src/wolfio.c **** 
 417:Middlewares/Third_Party/wolfSSL_wolfSSL_wolfSSL/wolfssl/src/wolfio.c ****     return recvd;
 418:Middlewares/Third_Party/wolfSSL_wolfSSL_wolfSSL/wolfssl/src/wolfio.c **** }
 419:Middlewares/Third_Party/wolfSSL_wolfSSL_wolfSSL/wolfssl/src/wolfio.c **** 
 420:Middlewares/Third_Party/wolfSSL_wolfSSL_wolfSSL/wolfssl/src/wolfio.c **** 
 421:Middlewares/Third_Party/wolfSSL_wolfSSL_wolfSSL/wolfssl/src/wolfio.c **** /* The send embedded callback
 422:Middlewares/Third_Party/wolfSSL_wolfSSL_wolfSSL/wolfssl/src/wolfio.c ****  *  return : nb bytes sent, or error
 423:Middlewares/Third_Party/wolfSSL_wolfSSL_wolfSSL/wolfssl/src/wolfio.c ****  */
 424:Middlewares/Third_Party/wolfSSL_wolfSSL_wolfSSL/wolfssl/src/wolfio.c **** int EmbedSendTo(WOLFSSL* ssl, char *buf, int sz, void *ctx)
 425:Middlewares/Third_Party/wolfSSL_wolfSSL_wolfSSL/wolfssl/src/wolfio.c **** {
 426:Middlewares/Third_Party/wolfSSL_wolfSSL_wolfSSL/wolfssl/src/wolfio.c ****     WOLFSSL_DTLS_CTX* dtlsCtx = (WOLFSSL_DTLS_CTX*)ctx;
 427:Middlewares/Third_Party/wolfSSL_wolfSSL_wolfSSL/wolfssl/src/wolfio.c ****     int sd = dtlsCtx->wfd;
 428:Middlewares/Third_Party/wolfSSL_wolfSSL_wolfSSL/wolfssl/src/wolfio.c ****     int sent;
ARM GAS  /tmp/ccACAaom.s 			page 9


 429:Middlewares/Third_Party/wolfSSL_wolfSSL_wolfSSL/wolfssl/src/wolfio.c ****     int err;
 430:Middlewares/Third_Party/wolfSSL_wolfSSL_wolfSSL/wolfssl/src/wolfio.c **** 
 431:Middlewares/Third_Party/wolfSSL_wolfSSL_wolfSSL/wolfssl/src/wolfio.c ****     WOLFSSL_ENTER("EmbedSendTo()");
 432:Middlewares/Third_Party/wolfSSL_wolfSSL_wolfSSL/wolfssl/src/wolfio.c **** 
 433:Middlewares/Third_Party/wolfSSL_wolfSSL_wolfSSL/wolfssl/src/wolfio.c ****     sent = (int)SENDTO_FUNCTION(sd, buf, sz, ssl->wflags,
 434:Middlewares/Third_Party/wolfSSL_wolfSSL_wolfSSL/wolfssl/src/wolfio.c ****                                 (const SOCKADDR*)dtlsCtx->peer.sa,
 435:Middlewares/Third_Party/wolfSSL_wolfSSL_wolfSSL/wolfssl/src/wolfio.c ****                                 dtlsCtx->peer.sz);
 436:Middlewares/Third_Party/wolfSSL_wolfSSL_wolfSSL/wolfssl/src/wolfio.c **** 
 437:Middlewares/Third_Party/wolfSSL_wolfSSL_wolfSSL/wolfssl/src/wolfio.c ****     sent = TranslateReturnCode(sent, sd);
 438:Middlewares/Third_Party/wolfSSL_wolfSSL_wolfSSL/wolfssl/src/wolfio.c **** 
 439:Middlewares/Third_Party/wolfSSL_wolfSSL_wolfSSL/wolfssl/src/wolfio.c ****     if (sent < 0) {
 440:Middlewares/Third_Party/wolfSSL_wolfSSL_wolfSSL/wolfssl/src/wolfio.c ****         err = wolfSSL_LastError(sent);
 441:Middlewares/Third_Party/wolfSSL_wolfSSL_wolfSSL/wolfssl/src/wolfio.c ****         WOLFSSL_MSG("Embed Send To error");
 442:Middlewares/Third_Party/wolfSSL_wolfSSL_wolfSSL/wolfssl/src/wolfio.c **** 
 443:Middlewares/Third_Party/wolfSSL_wolfSSL_wolfSSL/wolfssl/src/wolfio.c ****         if (err == SOCKET_EWOULDBLOCK || err == SOCKET_EAGAIN) {
 444:Middlewares/Third_Party/wolfSSL_wolfSSL_wolfSSL/wolfssl/src/wolfio.c ****             WOLFSSL_MSG("\tWould Block");
 445:Middlewares/Third_Party/wolfSSL_wolfSSL_wolfSSL/wolfssl/src/wolfio.c ****             return WOLFSSL_CBIO_ERR_WANT_WRITE;
 446:Middlewares/Third_Party/wolfSSL_wolfSSL_wolfSSL/wolfssl/src/wolfio.c ****         }
 447:Middlewares/Third_Party/wolfSSL_wolfSSL_wolfSSL/wolfssl/src/wolfio.c ****         else if (err == SOCKET_ECONNRESET) {
 448:Middlewares/Third_Party/wolfSSL_wolfSSL_wolfSSL/wolfssl/src/wolfio.c ****             WOLFSSL_MSG("\tConnection reset");
 449:Middlewares/Third_Party/wolfSSL_wolfSSL_wolfSSL/wolfssl/src/wolfio.c ****             return WOLFSSL_CBIO_ERR_CONN_RST;
 450:Middlewares/Third_Party/wolfSSL_wolfSSL_wolfSSL/wolfssl/src/wolfio.c ****         }
 451:Middlewares/Third_Party/wolfSSL_wolfSSL_wolfSSL/wolfssl/src/wolfio.c ****         else if (err == SOCKET_EINTR) {
 452:Middlewares/Third_Party/wolfSSL_wolfSSL_wolfSSL/wolfssl/src/wolfio.c ****             WOLFSSL_MSG("\tSocket interrupted");
 453:Middlewares/Third_Party/wolfSSL_wolfSSL_wolfSSL/wolfssl/src/wolfio.c ****             return WOLFSSL_CBIO_ERR_ISR;
 454:Middlewares/Third_Party/wolfSSL_wolfSSL_wolfSSL/wolfssl/src/wolfio.c ****         }
 455:Middlewares/Third_Party/wolfSSL_wolfSSL_wolfSSL/wolfssl/src/wolfio.c ****         else if (err == SOCKET_EPIPE) {
 456:Middlewares/Third_Party/wolfSSL_wolfSSL_wolfSSL/wolfssl/src/wolfio.c ****             WOLFSSL_MSG("\tSocket EPIPE");
 457:Middlewares/Third_Party/wolfSSL_wolfSSL_wolfSSL/wolfssl/src/wolfio.c ****             return WOLFSSL_CBIO_ERR_CONN_CLOSE;
 458:Middlewares/Third_Party/wolfSSL_wolfSSL_wolfSSL/wolfssl/src/wolfio.c ****         }
 459:Middlewares/Third_Party/wolfSSL_wolfSSL_wolfSSL/wolfssl/src/wolfio.c ****         else {
 460:Middlewares/Third_Party/wolfSSL_wolfSSL_wolfSSL/wolfssl/src/wolfio.c ****             WOLFSSL_MSG("\tGeneral error");
 461:Middlewares/Third_Party/wolfSSL_wolfSSL_wolfSSL/wolfssl/src/wolfio.c ****             return WOLFSSL_CBIO_ERR_GENERAL;
 462:Middlewares/Third_Party/wolfSSL_wolfSSL_wolfSSL/wolfssl/src/wolfio.c ****         }
 463:Middlewares/Third_Party/wolfSSL_wolfSSL_wolfSSL/wolfssl/src/wolfio.c ****     }
 464:Middlewares/Third_Party/wolfSSL_wolfSSL_wolfSSL/wolfssl/src/wolfio.c **** 
 465:Middlewares/Third_Party/wolfSSL_wolfSSL_wolfSSL/wolfssl/src/wolfio.c ****     return sent;
 466:Middlewares/Third_Party/wolfSSL_wolfSSL_wolfSSL/wolfssl/src/wolfio.c **** }
 467:Middlewares/Third_Party/wolfSSL_wolfSSL_wolfSSL/wolfssl/src/wolfio.c **** 
 468:Middlewares/Third_Party/wolfSSL_wolfSSL_wolfSSL/wolfssl/src/wolfio.c **** 
 469:Middlewares/Third_Party/wolfSSL_wolfSSL_wolfSSL/wolfssl/src/wolfio.c **** #ifdef WOLFSSL_MULTICAST
 470:Middlewares/Third_Party/wolfSSL_wolfSSL_wolfSSL/wolfssl/src/wolfio.c **** 
 471:Middlewares/Third_Party/wolfSSL_wolfSSL_wolfSSL/wolfssl/src/wolfio.c **** /* The alternate receive embedded callback for Multicast
 472:Middlewares/Third_Party/wolfSSL_wolfSSL_wolfSSL/wolfssl/src/wolfio.c ****  *  return : nb bytes read, or error
 473:Middlewares/Third_Party/wolfSSL_wolfSSL_wolfSSL/wolfssl/src/wolfio.c ****  */
 474:Middlewares/Third_Party/wolfSSL_wolfSSL_wolfSSL/wolfssl/src/wolfio.c **** int EmbedReceiveFromMcast(WOLFSSL *ssl, char *buf, int sz, void *ctx)
 475:Middlewares/Third_Party/wolfSSL_wolfSSL_wolfSSL/wolfssl/src/wolfio.c **** {
 476:Middlewares/Third_Party/wolfSSL_wolfSSL_wolfSSL/wolfssl/src/wolfio.c ****     WOLFSSL_DTLS_CTX* dtlsCtx = (WOLFSSL_DTLS_CTX*)ctx;
 477:Middlewares/Third_Party/wolfSSL_wolfSSL_wolfSSL/wolfssl/src/wolfio.c ****     int recvd;
 478:Middlewares/Third_Party/wolfSSL_wolfSSL_wolfSSL/wolfssl/src/wolfio.c ****     int err;
 479:Middlewares/Third_Party/wolfSSL_wolfSSL_wolfSSL/wolfssl/src/wolfio.c ****     int sd = dtlsCtx->rfd;
 480:Middlewares/Third_Party/wolfSSL_wolfSSL_wolfSSL/wolfssl/src/wolfio.c **** 
 481:Middlewares/Third_Party/wolfSSL_wolfSSL_wolfSSL/wolfssl/src/wolfio.c ****     WOLFSSL_ENTER("EmbedReceiveFromMcast()");
 482:Middlewares/Third_Party/wolfSSL_wolfSSL_wolfSSL/wolfssl/src/wolfio.c **** 
 483:Middlewares/Third_Party/wolfSSL_wolfSSL_wolfSSL/wolfssl/src/wolfio.c ****     recvd = (int)RECVFROM_FUNCTION(sd, buf, sz, ssl->rflags, NULL, NULL);
 484:Middlewares/Third_Party/wolfSSL_wolfSSL_wolfSSL/wolfssl/src/wolfio.c **** 
 485:Middlewares/Third_Party/wolfSSL_wolfSSL_wolfSSL/wolfssl/src/wolfio.c ****     recvd = TranslateReturnCode(recvd, sd);
ARM GAS  /tmp/ccACAaom.s 			page 10


 486:Middlewares/Third_Party/wolfSSL_wolfSSL_wolfSSL/wolfssl/src/wolfio.c **** 
 487:Middlewares/Third_Party/wolfSSL_wolfSSL_wolfSSL/wolfssl/src/wolfio.c ****     if (recvd < 0) {
 488:Middlewares/Third_Party/wolfSSL_wolfSSL_wolfSSL/wolfssl/src/wolfio.c ****         err = wolfSSL_LastError(recvd);
 489:Middlewares/Third_Party/wolfSSL_wolfSSL_wolfSSL/wolfssl/src/wolfio.c ****         WOLFSSL_MSG("Embed Receive From error");
 490:Middlewares/Third_Party/wolfSSL_wolfSSL_wolfSSL/wolfssl/src/wolfio.c **** 
 491:Middlewares/Third_Party/wolfSSL_wolfSSL_wolfSSL/wolfssl/src/wolfio.c ****         if (err == SOCKET_EWOULDBLOCK || err == SOCKET_EAGAIN) {
 492:Middlewares/Third_Party/wolfSSL_wolfSSL_wolfSSL/wolfssl/src/wolfio.c ****             if (wolfSSL_dtls_get_using_nonblock(ssl)) {
 493:Middlewares/Third_Party/wolfSSL_wolfSSL_wolfSSL/wolfssl/src/wolfio.c ****                 WOLFSSL_MSG("\tWould block");
 494:Middlewares/Third_Party/wolfSSL_wolfSSL_wolfSSL/wolfssl/src/wolfio.c ****                 return WOLFSSL_CBIO_ERR_WANT_READ;
 495:Middlewares/Third_Party/wolfSSL_wolfSSL_wolfSSL/wolfssl/src/wolfio.c ****             }
 496:Middlewares/Third_Party/wolfSSL_wolfSSL_wolfSSL/wolfssl/src/wolfio.c ****             else {
 497:Middlewares/Third_Party/wolfSSL_wolfSSL_wolfSSL/wolfssl/src/wolfio.c ****                 WOLFSSL_MSG("\tSocket timeout");
 498:Middlewares/Third_Party/wolfSSL_wolfSSL_wolfSSL/wolfssl/src/wolfio.c ****                 return WOLFSSL_CBIO_ERR_TIMEOUT;
 499:Middlewares/Third_Party/wolfSSL_wolfSSL_wolfSSL/wolfssl/src/wolfio.c ****             }
 500:Middlewares/Third_Party/wolfSSL_wolfSSL_wolfSSL/wolfssl/src/wolfio.c ****         }
 501:Middlewares/Third_Party/wolfSSL_wolfSSL_wolfSSL/wolfssl/src/wolfio.c ****         else if (err == SOCKET_ECONNRESET) {
 502:Middlewares/Third_Party/wolfSSL_wolfSSL_wolfSSL/wolfssl/src/wolfio.c ****             WOLFSSL_MSG("\tConnection reset");
 503:Middlewares/Third_Party/wolfSSL_wolfSSL_wolfSSL/wolfssl/src/wolfio.c ****             return WOLFSSL_CBIO_ERR_CONN_RST;
 504:Middlewares/Third_Party/wolfSSL_wolfSSL_wolfSSL/wolfssl/src/wolfio.c ****         }
 505:Middlewares/Third_Party/wolfSSL_wolfSSL_wolfSSL/wolfssl/src/wolfio.c ****         else if (err == SOCKET_EINTR) {
 506:Middlewares/Third_Party/wolfSSL_wolfSSL_wolfSSL/wolfssl/src/wolfio.c ****             WOLFSSL_MSG("\tSocket interrupted");
 507:Middlewares/Third_Party/wolfSSL_wolfSSL_wolfSSL/wolfssl/src/wolfio.c ****             return WOLFSSL_CBIO_ERR_ISR;
 508:Middlewares/Third_Party/wolfSSL_wolfSSL_wolfSSL/wolfssl/src/wolfio.c ****         }
 509:Middlewares/Third_Party/wolfSSL_wolfSSL_wolfSSL/wolfssl/src/wolfio.c ****         else if (err == SOCKET_ECONNREFUSED) {
 510:Middlewares/Third_Party/wolfSSL_wolfSSL_wolfSSL/wolfssl/src/wolfio.c ****             WOLFSSL_MSG("\tConnection refused");
 511:Middlewares/Third_Party/wolfSSL_wolfSSL_wolfSSL/wolfssl/src/wolfio.c ****             return WOLFSSL_CBIO_ERR_WANT_READ;
 512:Middlewares/Third_Party/wolfSSL_wolfSSL_wolfSSL/wolfssl/src/wolfio.c ****         }
 513:Middlewares/Third_Party/wolfSSL_wolfSSL_wolfSSL/wolfssl/src/wolfio.c ****         else {
 514:Middlewares/Third_Party/wolfSSL_wolfSSL_wolfSSL/wolfssl/src/wolfio.c ****             WOLFSSL_MSG("\tGeneral error");
 515:Middlewares/Third_Party/wolfSSL_wolfSSL_wolfSSL/wolfssl/src/wolfio.c ****             return WOLFSSL_CBIO_ERR_GENERAL;
 516:Middlewares/Third_Party/wolfSSL_wolfSSL_wolfSSL/wolfssl/src/wolfio.c ****         }
 517:Middlewares/Third_Party/wolfSSL_wolfSSL_wolfSSL/wolfssl/src/wolfio.c ****     }
 518:Middlewares/Third_Party/wolfSSL_wolfSSL_wolfSSL/wolfssl/src/wolfio.c **** 
 519:Middlewares/Third_Party/wolfSSL_wolfSSL_wolfSSL/wolfssl/src/wolfio.c ****     return recvd;
 520:Middlewares/Third_Party/wolfSSL_wolfSSL_wolfSSL/wolfssl/src/wolfio.c **** }
 521:Middlewares/Third_Party/wolfSSL_wolfSSL_wolfSSL/wolfssl/src/wolfio.c **** #endif /* WOLFSSL_MULTICAST */
 522:Middlewares/Third_Party/wolfSSL_wolfSSL_wolfSSL/wolfssl/src/wolfio.c **** 
 523:Middlewares/Third_Party/wolfSSL_wolfSSL_wolfSSL/wolfssl/src/wolfio.c **** 
 524:Middlewares/Third_Party/wolfSSL_wolfSSL_wolfSSL/wolfssl/src/wolfio.c **** /* The DTLS Generate Cookie callback
 525:Middlewares/Third_Party/wolfSSL_wolfSSL_wolfSSL/wolfssl/src/wolfio.c ****  *  return : number of bytes copied into buf, or error
 526:Middlewares/Third_Party/wolfSSL_wolfSSL_wolfSSL/wolfssl/src/wolfio.c ****  */
 527:Middlewares/Third_Party/wolfSSL_wolfSSL_wolfSSL/wolfssl/src/wolfio.c **** int EmbedGenerateCookie(WOLFSSL* ssl, byte *buf, int sz, void *ctx)
 528:Middlewares/Third_Party/wolfSSL_wolfSSL_wolfSSL/wolfssl/src/wolfio.c **** {
 529:Middlewares/Third_Party/wolfSSL_wolfSSL_wolfSSL/wolfssl/src/wolfio.c ****     int sd = ssl->wfd;
 530:Middlewares/Third_Party/wolfSSL_wolfSSL_wolfSSL/wolfssl/src/wolfio.c ****     SOCKADDR_S peer;
 531:Middlewares/Third_Party/wolfSSL_wolfSSL_wolfSSL/wolfssl/src/wolfio.c ****     XSOCKLENT peerSz = sizeof(peer);
 532:Middlewares/Third_Party/wolfSSL_wolfSSL_wolfSSL/wolfssl/src/wolfio.c ****     byte digest[WC_SHA256_DIGEST_SIZE];
 533:Middlewares/Third_Party/wolfSSL_wolfSSL_wolfSSL/wolfssl/src/wolfio.c ****     int  ret = 0;
 534:Middlewares/Third_Party/wolfSSL_wolfSSL_wolfSSL/wolfssl/src/wolfio.c **** 
 535:Middlewares/Third_Party/wolfSSL_wolfSSL_wolfSSL/wolfssl/src/wolfio.c ****     (void)ctx;
 536:Middlewares/Third_Party/wolfSSL_wolfSSL_wolfSSL/wolfssl/src/wolfio.c **** 
 537:Middlewares/Third_Party/wolfSSL_wolfSSL_wolfSSL/wolfssl/src/wolfio.c ****     XMEMSET(&peer, 0, sizeof(peer));
 538:Middlewares/Third_Party/wolfSSL_wolfSSL_wolfSSL/wolfssl/src/wolfio.c ****     if (getpeername(sd, (SOCKADDR*)&peer, &peerSz) != 0) {
 539:Middlewares/Third_Party/wolfSSL_wolfSSL_wolfSSL/wolfssl/src/wolfio.c ****         WOLFSSL_MSG("getpeername failed in EmbedGenerateCookie");
 540:Middlewares/Third_Party/wolfSSL_wolfSSL_wolfSSL/wolfssl/src/wolfio.c ****         return GEN_COOKIE_E;
 541:Middlewares/Third_Party/wolfSSL_wolfSSL_wolfSSL/wolfssl/src/wolfio.c ****     }
 542:Middlewares/Third_Party/wolfSSL_wolfSSL_wolfSSL/wolfssl/src/wolfio.c **** 
ARM GAS  /tmp/ccACAaom.s 			page 11


 543:Middlewares/Third_Party/wolfSSL_wolfSSL_wolfSSL/wolfssl/src/wolfio.c ****     ret = wc_Sha256Hash((byte*)&peer, peerSz, digest);
 544:Middlewares/Third_Party/wolfSSL_wolfSSL_wolfSSL/wolfssl/src/wolfio.c ****     if (ret != 0)
 545:Middlewares/Third_Party/wolfSSL_wolfSSL_wolfSSL/wolfssl/src/wolfio.c ****         return ret;
 546:Middlewares/Third_Party/wolfSSL_wolfSSL_wolfSSL/wolfssl/src/wolfio.c **** 
 547:Middlewares/Third_Party/wolfSSL_wolfSSL_wolfSSL/wolfssl/src/wolfio.c ****     if (sz > WC_SHA256_DIGEST_SIZE)
 548:Middlewares/Third_Party/wolfSSL_wolfSSL_wolfSSL/wolfssl/src/wolfio.c ****         sz = WC_SHA256_DIGEST_SIZE;
 549:Middlewares/Third_Party/wolfSSL_wolfSSL_wolfSSL/wolfssl/src/wolfio.c ****     XMEMCPY(buf, digest, sz);
 550:Middlewares/Third_Party/wolfSSL_wolfSSL_wolfSSL/wolfssl/src/wolfio.c **** 
 551:Middlewares/Third_Party/wolfSSL_wolfSSL_wolfSSL/wolfssl/src/wolfio.c ****     return sz;
 552:Middlewares/Third_Party/wolfSSL_wolfSSL_wolfSSL/wolfssl/src/wolfio.c **** }
 553:Middlewares/Third_Party/wolfSSL_wolfSSL_wolfSSL/wolfssl/src/wolfio.c **** 
 554:Middlewares/Third_Party/wolfSSL_wolfSSL_wolfSSL/wolfssl/src/wolfio.c **** #ifdef WOLFSSL_SESSION_EXPORT
 555:Middlewares/Third_Party/wolfSSL_wolfSSL_wolfSSL/wolfssl/src/wolfio.c **** 
 556:Middlewares/Third_Party/wolfSSL_wolfSSL_wolfSSL/wolfssl/src/wolfio.c ****     /* get the peer information in human readable form (ip, port, family)
 557:Middlewares/Third_Party/wolfSSL_wolfSSL_wolfSSL/wolfssl/src/wolfio.c ****      * default function assumes BSD sockets
 558:Middlewares/Third_Party/wolfSSL_wolfSSL_wolfSSL/wolfssl/src/wolfio.c ****      * can be overridden with wolfSSL_CTX_SetIOGetPeer
 559:Middlewares/Third_Party/wolfSSL_wolfSSL_wolfSSL/wolfssl/src/wolfio.c ****      */
 560:Middlewares/Third_Party/wolfSSL_wolfSSL_wolfSSL/wolfssl/src/wolfio.c ****     int EmbedGetPeer(WOLFSSL* ssl, char* ip, int* ipSz,
 561:Middlewares/Third_Party/wolfSSL_wolfSSL_wolfSSL/wolfssl/src/wolfio.c ****                                                  unsigned short* port, int* fam)
 562:Middlewares/Third_Party/wolfSSL_wolfSSL_wolfSSL/wolfssl/src/wolfio.c ****     {
 563:Middlewares/Third_Party/wolfSSL_wolfSSL_wolfSSL/wolfssl/src/wolfio.c ****         SOCKADDR_S peer;
 564:Middlewares/Third_Party/wolfSSL_wolfSSL_wolfSSL/wolfssl/src/wolfio.c ****         word32     peerSz;
 565:Middlewares/Third_Party/wolfSSL_wolfSSL_wolfSSL/wolfssl/src/wolfio.c ****         int        ret;
 566:Middlewares/Third_Party/wolfSSL_wolfSSL_wolfSSL/wolfssl/src/wolfio.c **** 
 567:Middlewares/Third_Party/wolfSSL_wolfSSL_wolfSSL/wolfssl/src/wolfio.c ****         if (ssl == NULL || ip == NULL || ipSz == NULL ||
 568:Middlewares/Third_Party/wolfSSL_wolfSSL_wolfSSL/wolfssl/src/wolfio.c ****                                                   port == NULL || fam == NULL) {
 569:Middlewares/Third_Party/wolfSSL_wolfSSL_wolfSSL/wolfssl/src/wolfio.c ****             return BAD_FUNC_ARG;
 570:Middlewares/Third_Party/wolfSSL_wolfSSL_wolfSSL/wolfssl/src/wolfio.c ****         }
 571:Middlewares/Third_Party/wolfSSL_wolfSSL_wolfSSL/wolfssl/src/wolfio.c **** 
 572:Middlewares/Third_Party/wolfSSL_wolfSSL_wolfSSL/wolfssl/src/wolfio.c ****         /* get peer information stored in ssl struct */
 573:Middlewares/Third_Party/wolfSSL_wolfSSL_wolfSSL/wolfssl/src/wolfio.c ****         peerSz = sizeof(SOCKADDR_S);
 574:Middlewares/Third_Party/wolfSSL_wolfSSL_wolfSSL/wolfssl/src/wolfio.c ****         if ((ret = wolfSSL_dtls_get_peer(ssl, (void*)&peer, &peerSz))
 575:Middlewares/Third_Party/wolfSSL_wolfSSL_wolfSSL/wolfssl/src/wolfio.c ****                                                                != WOLFSSL_SUCCESS) {
 576:Middlewares/Third_Party/wolfSSL_wolfSSL_wolfSSL/wolfssl/src/wolfio.c ****             return ret;
 577:Middlewares/Third_Party/wolfSSL_wolfSSL_wolfSSL/wolfssl/src/wolfio.c ****         }
 578:Middlewares/Third_Party/wolfSSL_wolfSSL_wolfSSL/wolfssl/src/wolfio.c **** 
 579:Middlewares/Third_Party/wolfSSL_wolfSSL_wolfSSL/wolfssl/src/wolfio.c ****         /* extract family, ip, and port */
 580:Middlewares/Third_Party/wolfSSL_wolfSSL_wolfSSL/wolfssl/src/wolfio.c ****         *fam = ((SOCKADDR_S*)&peer)->ss_family;
 581:Middlewares/Third_Party/wolfSSL_wolfSSL_wolfSSL/wolfssl/src/wolfio.c ****         switch (*fam) {
 582:Middlewares/Third_Party/wolfSSL_wolfSSL_wolfSSL/wolfssl/src/wolfio.c ****             case WOLFSSL_IP4:
 583:Middlewares/Third_Party/wolfSSL_wolfSSL_wolfSSL/wolfssl/src/wolfio.c ****                 if (XINET_NTOP(*fam, &(((SOCKADDR_IN*)&peer)->sin_addr),
 584:Middlewares/Third_Party/wolfSSL_wolfSSL_wolfSSL/wolfssl/src/wolfio.c ****                                                            ip, *ipSz) == NULL) {
 585:Middlewares/Third_Party/wolfSSL_wolfSSL_wolfSSL/wolfssl/src/wolfio.c ****                     WOLFSSL_MSG("XINET_NTOP error");
 586:Middlewares/Third_Party/wolfSSL_wolfSSL_wolfSSL/wolfssl/src/wolfio.c ****                     return SOCKET_ERROR_E;
 587:Middlewares/Third_Party/wolfSSL_wolfSSL_wolfSSL/wolfssl/src/wolfio.c ****                 }
 588:Middlewares/Third_Party/wolfSSL_wolfSSL_wolfSSL/wolfssl/src/wolfio.c ****                 *port = XNTOHS(((SOCKADDR_IN*)&peer)->sin_port);
 589:Middlewares/Third_Party/wolfSSL_wolfSSL_wolfSSL/wolfssl/src/wolfio.c ****                 break;
 590:Middlewares/Third_Party/wolfSSL_wolfSSL_wolfSSL/wolfssl/src/wolfio.c **** 
 591:Middlewares/Third_Party/wolfSSL_wolfSSL_wolfSSL/wolfssl/src/wolfio.c ****             case WOLFSSL_IP6:
 592:Middlewares/Third_Party/wolfSSL_wolfSSL_wolfSSL/wolfssl/src/wolfio.c ****             #ifdef WOLFSSL_IPV6
 593:Middlewares/Third_Party/wolfSSL_wolfSSL_wolfSSL/wolfssl/src/wolfio.c ****                 if (XINET_NTOP(*fam, &(((SOCKADDR_IN6*)&peer)->sin6_addr),
 594:Middlewares/Third_Party/wolfSSL_wolfSSL_wolfSSL/wolfssl/src/wolfio.c ****                                                            ip, *ipSz) == NULL) {
 595:Middlewares/Third_Party/wolfSSL_wolfSSL_wolfSSL/wolfssl/src/wolfio.c ****                     WOLFSSL_MSG("XINET_NTOP error");
 596:Middlewares/Third_Party/wolfSSL_wolfSSL_wolfSSL/wolfssl/src/wolfio.c ****                     return SOCKET_ERROR_E;
 597:Middlewares/Third_Party/wolfSSL_wolfSSL_wolfSSL/wolfssl/src/wolfio.c ****                 }
 598:Middlewares/Third_Party/wolfSSL_wolfSSL_wolfSSL/wolfssl/src/wolfio.c ****                 *port = XNTOHS(((SOCKADDR_IN6*)&peer)->sin6_port);
 599:Middlewares/Third_Party/wolfSSL_wolfSSL_wolfSSL/wolfssl/src/wolfio.c ****             #endif /* WOLFSSL_IPV6 */
ARM GAS  /tmp/ccACAaom.s 			page 12


 600:Middlewares/Third_Party/wolfSSL_wolfSSL_wolfSSL/wolfssl/src/wolfio.c ****                 break;
 601:Middlewares/Third_Party/wolfSSL_wolfSSL_wolfSSL/wolfssl/src/wolfio.c **** 
 602:Middlewares/Third_Party/wolfSSL_wolfSSL_wolfSSL/wolfssl/src/wolfio.c ****             default:
 603:Middlewares/Third_Party/wolfSSL_wolfSSL_wolfSSL/wolfssl/src/wolfio.c ****                 WOLFSSL_MSG("Unknown family type");
 604:Middlewares/Third_Party/wolfSSL_wolfSSL_wolfSSL/wolfssl/src/wolfio.c ****                 return SOCKET_ERROR_E;
 605:Middlewares/Third_Party/wolfSSL_wolfSSL_wolfSSL/wolfssl/src/wolfio.c ****         }
 606:Middlewares/Third_Party/wolfSSL_wolfSSL_wolfSSL/wolfssl/src/wolfio.c ****         ip[*ipSz - 1] = '\0'; /* make sure has terminator */
 607:Middlewares/Third_Party/wolfSSL_wolfSSL_wolfSSL/wolfssl/src/wolfio.c ****         *ipSz = (word16)XSTRLEN(ip);
 608:Middlewares/Third_Party/wolfSSL_wolfSSL_wolfSSL/wolfssl/src/wolfio.c **** 
 609:Middlewares/Third_Party/wolfSSL_wolfSSL_wolfSSL/wolfssl/src/wolfio.c ****         return WOLFSSL_SUCCESS;
 610:Middlewares/Third_Party/wolfSSL_wolfSSL_wolfSSL/wolfssl/src/wolfio.c ****     }
 611:Middlewares/Third_Party/wolfSSL_wolfSSL_wolfSSL/wolfssl/src/wolfio.c **** 
 612:Middlewares/Third_Party/wolfSSL_wolfSSL_wolfSSL/wolfssl/src/wolfio.c ****     /* set the peer information in human readable form (ip, port, family)
 613:Middlewares/Third_Party/wolfSSL_wolfSSL_wolfSSL/wolfssl/src/wolfio.c ****      * default function assumes BSD sockets
 614:Middlewares/Third_Party/wolfSSL_wolfSSL_wolfSSL/wolfssl/src/wolfio.c ****      * can be overridden with wolfSSL_CTX_SetIOSetPeer
 615:Middlewares/Third_Party/wolfSSL_wolfSSL_wolfSSL/wolfssl/src/wolfio.c ****      */
 616:Middlewares/Third_Party/wolfSSL_wolfSSL_wolfSSL/wolfssl/src/wolfio.c ****     int EmbedSetPeer(WOLFSSL* ssl, char* ip, int ipSz,
 617:Middlewares/Third_Party/wolfSSL_wolfSSL_wolfSSL/wolfssl/src/wolfio.c ****                                                    unsigned short port, int fam)
 618:Middlewares/Third_Party/wolfSSL_wolfSSL_wolfSSL/wolfssl/src/wolfio.c ****     {
 619:Middlewares/Third_Party/wolfSSL_wolfSSL_wolfSSL/wolfssl/src/wolfio.c ****         int    ret;
 620:Middlewares/Third_Party/wolfSSL_wolfSSL_wolfSSL/wolfssl/src/wolfio.c ****         SOCKADDR_S addr;
 621:Middlewares/Third_Party/wolfSSL_wolfSSL_wolfSSL/wolfssl/src/wolfio.c **** 
 622:Middlewares/Third_Party/wolfSSL_wolfSSL_wolfSSL/wolfssl/src/wolfio.c ****         /* sanity checks on arguments */
 623:Middlewares/Third_Party/wolfSSL_wolfSSL_wolfSSL/wolfssl/src/wolfio.c ****         if (ssl == NULL || ip == NULL || ipSz < 0 || ipSz > DTLS_EXPORT_IP) {
 624:Middlewares/Third_Party/wolfSSL_wolfSSL_wolfSSL/wolfssl/src/wolfio.c ****             return BAD_FUNC_ARG;
 625:Middlewares/Third_Party/wolfSSL_wolfSSL_wolfSSL/wolfssl/src/wolfio.c ****         }
 626:Middlewares/Third_Party/wolfSSL_wolfSSL_wolfSSL/wolfssl/src/wolfio.c **** 
 627:Middlewares/Third_Party/wolfSSL_wolfSSL_wolfSSL/wolfssl/src/wolfio.c ****         addr.ss_family = fam;
 628:Middlewares/Third_Party/wolfSSL_wolfSSL_wolfSSL/wolfssl/src/wolfio.c ****         switch (addr.ss_family) {
 629:Middlewares/Third_Party/wolfSSL_wolfSSL_wolfSSL/wolfssl/src/wolfio.c ****             case WOLFSSL_IP4:
 630:Middlewares/Third_Party/wolfSSL_wolfSSL_wolfSSL/wolfssl/src/wolfio.c ****                 if (XINET_PTON(addr.ss_family, ip,
 631:Middlewares/Third_Party/wolfSSL_wolfSSL_wolfSSL/wolfssl/src/wolfio.c ****                                      &(((SOCKADDR_IN*)&addr)->sin_addr)) <= 0) {
 632:Middlewares/Third_Party/wolfSSL_wolfSSL_wolfSSL/wolfssl/src/wolfio.c ****                     WOLFSSL_MSG("XINET_PTON error");
 633:Middlewares/Third_Party/wolfSSL_wolfSSL_wolfSSL/wolfssl/src/wolfio.c ****                     return SOCKET_ERROR_E;
 634:Middlewares/Third_Party/wolfSSL_wolfSSL_wolfSSL/wolfssl/src/wolfio.c ****                 }
 635:Middlewares/Third_Party/wolfSSL_wolfSSL_wolfSSL/wolfssl/src/wolfio.c ****                 ((SOCKADDR_IN*)&addr)->sin_port = XHTONS(port);
 636:Middlewares/Third_Party/wolfSSL_wolfSSL_wolfSSL/wolfssl/src/wolfio.c **** 
 637:Middlewares/Third_Party/wolfSSL_wolfSSL_wolfSSL/wolfssl/src/wolfio.c ****                 /* peer sa is free'd in SSL_ResourceFree */
 638:Middlewares/Third_Party/wolfSSL_wolfSSL_wolfSSL/wolfssl/src/wolfio.c ****                 if ((ret = wolfSSL_dtls_set_peer(ssl, (SOCKADDR_IN*)&addr,
 639:Middlewares/Third_Party/wolfSSL_wolfSSL_wolfSSL/wolfssl/src/wolfio.c ****                                           sizeof(SOCKADDR_IN)))!= WOLFSSL_SUCCESS) {
 640:Middlewares/Third_Party/wolfSSL_wolfSSL_wolfSSL/wolfssl/src/wolfio.c ****                     WOLFSSL_MSG("Import DTLS peer info error");
 641:Middlewares/Third_Party/wolfSSL_wolfSSL_wolfSSL/wolfssl/src/wolfio.c ****                     return ret;
 642:Middlewares/Third_Party/wolfSSL_wolfSSL_wolfSSL/wolfssl/src/wolfio.c ****                 }
 643:Middlewares/Third_Party/wolfSSL_wolfSSL_wolfSSL/wolfssl/src/wolfio.c ****                 break;
 644:Middlewares/Third_Party/wolfSSL_wolfSSL_wolfSSL/wolfssl/src/wolfio.c **** 
 645:Middlewares/Third_Party/wolfSSL_wolfSSL_wolfSSL/wolfssl/src/wolfio.c ****             case WOLFSSL_IP6:
 646:Middlewares/Third_Party/wolfSSL_wolfSSL_wolfSSL/wolfssl/src/wolfio.c ****             #ifdef WOLFSSL_IPV6
 647:Middlewares/Third_Party/wolfSSL_wolfSSL_wolfSSL/wolfssl/src/wolfio.c ****                 if (XINET_PTON(addr.ss_family, ip,
 648:Middlewares/Third_Party/wolfSSL_wolfSSL_wolfSSL/wolfssl/src/wolfio.c ****                                    &(((SOCKADDR_IN6*)&addr)->sin6_addr)) <= 0) {
 649:Middlewares/Third_Party/wolfSSL_wolfSSL_wolfSSL/wolfssl/src/wolfio.c ****                     WOLFSSL_MSG("XINET_PTON error");
 650:Middlewares/Third_Party/wolfSSL_wolfSSL_wolfSSL/wolfssl/src/wolfio.c ****                     return SOCKET_ERROR_E;
 651:Middlewares/Third_Party/wolfSSL_wolfSSL_wolfSSL/wolfssl/src/wolfio.c ****                 }
 652:Middlewares/Third_Party/wolfSSL_wolfSSL_wolfSSL/wolfssl/src/wolfio.c ****                 ((SOCKADDR_IN6*)&addr)->sin6_port = XHTONS(port);
 653:Middlewares/Third_Party/wolfSSL_wolfSSL_wolfSSL/wolfssl/src/wolfio.c **** 
 654:Middlewares/Third_Party/wolfSSL_wolfSSL_wolfSSL/wolfssl/src/wolfio.c ****                 /* peer sa is free'd in SSL_ResourceFree */
 655:Middlewares/Third_Party/wolfSSL_wolfSSL_wolfSSL/wolfssl/src/wolfio.c ****                 if ((ret = wolfSSL_dtls_set_peer(ssl, (SOCKADDR_IN6*)&addr,
 656:Middlewares/Third_Party/wolfSSL_wolfSSL_wolfSSL/wolfssl/src/wolfio.c ****                                          sizeof(SOCKADDR_IN6)))!= WOLFSSL_SUCCESS) {
ARM GAS  /tmp/ccACAaom.s 			page 13


 657:Middlewares/Third_Party/wolfSSL_wolfSSL_wolfSSL/wolfssl/src/wolfio.c ****                     WOLFSSL_MSG("Import DTLS peer info error");
 658:Middlewares/Third_Party/wolfSSL_wolfSSL_wolfSSL/wolfssl/src/wolfio.c ****                     return ret;
 659:Middlewares/Third_Party/wolfSSL_wolfSSL_wolfSSL/wolfssl/src/wolfio.c ****                 }
 660:Middlewares/Third_Party/wolfSSL_wolfSSL_wolfSSL/wolfssl/src/wolfio.c ****             #endif /* WOLFSSL_IPV6 */
 661:Middlewares/Third_Party/wolfSSL_wolfSSL_wolfSSL/wolfssl/src/wolfio.c ****                 break;
 662:Middlewares/Third_Party/wolfSSL_wolfSSL_wolfSSL/wolfssl/src/wolfio.c **** 
 663:Middlewares/Third_Party/wolfSSL_wolfSSL_wolfSSL/wolfssl/src/wolfio.c ****             default:
 664:Middlewares/Third_Party/wolfSSL_wolfSSL_wolfSSL/wolfssl/src/wolfio.c ****                 WOLFSSL_MSG("Unknown address family");
 665:Middlewares/Third_Party/wolfSSL_wolfSSL_wolfSSL/wolfssl/src/wolfio.c ****                 return BUFFER_E;
 666:Middlewares/Third_Party/wolfSSL_wolfSSL_wolfSSL/wolfssl/src/wolfio.c ****         }
 667:Middlewares/Third_Party/wolfSSL_wolfSSL_wolfSSL/wolfssl/src/wolfio.c **** 
 668:Middlewares/Third_Party/wolfSSL_wolfSSL_wolfSSL/wolfssl/src/wolfio.c ****         return WOLFSSL_SUCCESS;
 669:Middlewares/Third_Party/wolfSSL_wolfSSL_wolfSSL/wolfssl/src/wolfio.c ****     }
 670:Middlewares/Third_Party/wolfSSL_wolfSSL_wolfSSL/wolfssl/src/wolfio.c **** #endif /* WOLFSSL_SESSION_EXPORT */
 671:Middlewares/Third_Party/wolfSSL_wolfSSL_wolfSSL/wolfssl/src/wolfio.c **** #endif /* WOLFSSL_DTLS */
 672:Middlewares/Third_Party/wolfSSL_wolfSSL_wolfSSL/wolfssl/src/wolfio.c **** 
 673:Middlewares/Third_Party/wolfSSL_wolfSSL_wolfSSL/wolfssl/src/wolfio.c **** #ifdef WOLFSSL_LINUXKM
 674:Middlewares/Third_Party/wolfSSL_wolfSSL_wolfSSL/wolfssl/src/wolfio.c **** static int linuxkm_send(struct socket *socket, void *buf, int size,
 675:Middlewares/Third_Party/wolfSSL_wolfSSL_wolfSSL/wolfssl/src/wolfio.c ****     unsigned int flags)
 676:Middlewares/Third_Party/wolfSSL_wolfSSL_wolfSSL/wolfssl/src/wolfio.c **** {
 677:Middlewares/Third_Party/wolfSSL_wolfSSL_wolfSSL/wolfssl/src/wolfio.c ****     int ret;
 678:Middlewares/Third_Party/wolfSSL_wolfSSL_wolfSSL/wolfssl/src/wolfio.c ****     struct kvec vec = { .iov_base = buf, .iov_len = size };
 679:Middlewares/Third_Party/wolfSSL_wolfSSL_wolfSSL/wolfssl/src/wolfio.c ****     struct msghdr msg = { .msg_flags = flags };
 680:Middlewares/Third_Party/wolfSSL_wolfSSL_wolfSSL/wolfssl/src/wolfio.c ****     ret = kernel_sendmsg(socket, &msg, &vec, 1, size);
 681:Middlewares/Third_Party/wolfSSL_wolfSSL_wolfSSL/wolfssl/src/wolfio.c ****     return ret;
 682:Middlewares/Third_Party/wolfSSL_wolfSSL_wolfSSL/wolfssl/src/wolfio.c **** }
 683:Middlewares/Third_Party/wolfSSL_wolfSSL_wolfSSL/wolfssl/src/wolfio.c **** 
 684:Middlewares/Third_Party/wolfSSL_wolfSSL_wolfSSL/wolfssl/src/wolfio.c **** static int linuxkm_recv(struct socket *socket, void *buf, int size,
 685:Middlewares/Third_Party/wolfSSL_wolfSSL_wolfSSL/wolfssl/src/wolfio.c ****     unsigned int flags)
 686:Middlewares/Third_Party/wolfSSL_wolfSSL_wolfSSL/wolfssl/src/wolfio.c **** {
 687:Middlewares/Third_Party/wolfSSL_wolfSSL_wolfSSL/wolfssl/src/wolfio.c ****     int ret;
 688:Middlewares/Third_Party/wolfSSL_wolfSSL_wolfSSL/wolfssl/src/wolfio.c ****     struct kvec vec = { .iov_base = buf, .iov_len = size };
 689:Middlewares/Third_Party/wolfSSL_wolfSSL_wolfSSL/wolfssl/src/wolfio.c ****     struct msghdr msg = { .msg_flags = flags };
 690:Middlewares/Third_Party/wolfSSL_wolfSSL_wolfSSL/wolfssl/src/wolfio.c ****     ret = kernel_recvmsg(socket, &msg, &vec, 1, size, msg.msg_flags);
 691:Middlewares/Third_Party/wolfSSL_wolfSSL_wolfSSL/wolfssl/src/wolfio.c ****     return ret;
 692:Middlewares/Third_Party/wolfSSL_wolfSSL_wolfSSL/wolfssl/src/wolfio.c **** }
 693:Middlewares/Third_Party/wolfSSL_wolfSSL_wolfSSL/wolfssl/src/wolfio.c **** #endif /* WOLFSSL_LINUXKM */
 694:Middlewares/Third_Party/wolfSSL_wolfSSL_wolfSSL/wolfssl/src/wolfio.c **** 
 695:Middlewares/Third_Party/wolfSSL_wolfSSL_wolfSSL/wolfssl/src/wolfio.c **** 
 696:Middlewares/Third_Party/wolfSSL_wolfSSL_wolfSSL/wolfssl/src/wolfio.c **** int wolfIO_Recv(SOCKET_T sd, char *buf, int sz, int rdFlags)
 697:Middlewares/Third_Party/wolfSSL_wolfSSL_wolfSSL/wolfssl/src/wolfio.c **** {
 698:Middlewares/Third_Party/wolfSSL_wolfSSL_wolfSSL/wolfssl/src/wolfio.c ****     int recvd;
 699:Middlewares/Third_Party/wolfSSL_wolfSSL_wolfSSL/wolfssl/src/wolfio.c **** 
 700:Middlewares/Third_Party/wolfSSL_wolfSSL_wolfSSL/wolfssl/src/wolfio.c ****     recvd = (int)RECV_FUNCTION(sd, buf, sz, rdFlags);
 701:Middlewares/Third_Party/wolfSSL_wolfSSL_wolfSSL/wolfssl/src/wolfio.c ****     recvd = TranslateReturnCode(recvd, sd);
 702:Middlewares/Third_Party/wolfSSL_wolfSSL_wolfSSL/wolfssl/src/wolfio.c **** 
 703:Middlewares/Third_Party/wolfSSL_wolfSSL_wolfSSL/wolfssl/src/wolfio.c ****     return recvd;
 704:Middlewares/Third_Party/wolfSSL_wolfSSL_wolfSSL/wolfssl/src/wolfio.c **** }
 705:Middlewares/Third_Party/wolfSSL_wolfSSL_wolfSSL/wolfssl/src/wolfio.c **** 
 706:Middlewares/Third_Party/wolfSSL_wolfSSL_wolfSSL/wolfssl/src/wolfio.c **** int wolfIO_Send(SOCKET_T sd, char *buf, int sz, int wrFlags)
 707:Middlewares/Third_Party/wolfSSL_wolfSSL_wolfSSL/wolfssl/src/wolfio.c **** {
 708:Middlewares/Third_Party/wolfSSL_wolfSSL_wolfSSL/wolfssl/src/wolfio.c ****     int sent;
 709:Middlewares/Third_Party/wolfSSL_wolfSSL_wolfSSL/wolfssl/src/wolfio.c **** 
 710:Middlewares/Third_Party/wolfSSL_wolfSSL_wolfSSL/wolfssl/src/wolfio.c ****     sent = (int)SEND_FUNCTION(sd, buf, sz, wrFlags);
 711:Middlewares/Third_Party/wolfSSL_wolfSSL_wolfSSL/wolfssl/src/wolfio.c ****     sent = TranslateReturnCode(sent, sd);
 712:Middlewares/Third_Party/wolfSSL_wolfSSL_wolfSSL/wolfssl/src/wolfio.c **** 
 713:Middlewares/Third_Party/wolfSSL_wolfSSL_wolfSSL/wolfssl/src/wolfio.c ****     return sent;
ARM GAS  /tmp/ccACAaom.s 			page 14


 714:Middlewares/Third_Party/wolfSSL_wolfSSL_wolfSSL/wolfssl/src/wolfio.c **** }
 715:Middlewares/Third_Party/wolfSSL_wolfSSL_wolfSSL/wolfssl/src/wolfio.c **** 
 716:Middlewares/Third_Party/wolfSSL_wolfSSL_wolfSSL/wolfssl/src/wolfio.c **** #endif /* USE_WOLFSSL_IO */
 717:Middlewares/Third_Party/wolfSSL_wolfSSL_wolfSSL/wolfssl/src/wolfio.c **** 
 718:Middlewares/Third_Party/wolfSSL_wolfSSL_wolfSSL/wolfssl/src/wolfio.c **** 
 719:Middlewares/Third_Party/wolfSSL_wolfSSL_wolfSSL/wolfssl/src/wolfio.c **** #ifdef HAVE_HTTP_CLIENT
 720:Middlewares/Third_Party/wolfSSL_wolfSSL_wolfSSL/wolfssl/src/wolfio.c **** 
 721:Middlewares/Third_Party/wolfSSL_wolfSSL_wolfSSL/wolfssl/src/wolfio.c **** #ifndef HAVE_IO_TIMEOUT
 722:Middlewares/Third_Party/wolfSSL_wolfSSL_wolfSSL/wolfssl/src/wolfio.c ****     #define io_timeout_sec 0
 723:Middlewares/Third_Party/wolfSSL_wolfSSL_wolfSSL/wolfssl/src/wolfio.c **** #else
 724:Middlewares/Third_Party/wolfSSL_wolfSSL_wolfSSL/wolfssl/src/wolfio.c **** 
 725:Middlewares/Third_Party/wolfSSL_wolfSSL_wolfSSL/wolfssl/src/wolfio.c ****     #ifndef DEFAULT_TIMEOUT_SEC
 726:Middlewares/Third_Party/wolfSSL_wolfSSL_wolfSSL/wolfssl/src/wolfio.c ****         #define DEFAULT_TIMEOUT_SEC 0 /* no timeout */
 727:Middlewares/Third_Party/wolfSSL_wolfSSL_wolfSSL/wolfssl/src/wolfio.c ****     #endif
 728:Middlewares/Third_Party/wolfSSL_wolfSSL_wolfSSL/wolfssl/src/wolfio.c **** 
 729:Middlewares/Third_Party/wolfSSL_wolfSSL_wolfSSL/wolfssl/src/wolfio.c ****     static int io_timeout_sec = DEFAULT_TIMEOUT_SEC;
 730:Middlewares/Third_Party/wolfSSL_wolfSSL_wolfSSL/wolfssl/src/wolfio.c **** 
 731:Middlewares/Third_Party/wolfSSL_wolfSSL_wolfSSL/wolfssl/src/wolfio.c ****     void wolfIO_SetTimeout(int to_sec)
 732:Middlewares/Third_Party/wolfSSL_wolfSSL_wolfSSL/wolfssl/src/wolfio.c ****     {
 733:Middlewares/Third_Party/wolfSSL_wolfSSL_wolfSSL/wolfssl/src/wolfio.c ****         io_timeout_sec = to_sec;
 734:Middlewares/Third_Party/wolfSSL_wolfSSL_wolfSSL/wolfssl/src/wolfio.c ****     }
 735:Middlewares/Third_Party/wolfSSL_wolfSSL_wolfSSL/wolfssl/src/wolfio.c **** 
 736:Middlewares/Third_Party/wolfSSL_wolfSSL_wolfSSL/wolfssl/src/wolfio.c ****     int wolfIO_SetBlockingMode(SOCKET_T sockfd, int non_blocking)
 737:Middlewares/Third_Party/wolfSSL_wolfSSL_wolfSSL/wolfssl/src/wolfio.c ****     {
 738:Middlewares/Third_Party/wolfSSL_wolfSSL_wolfSSL/wolfssl/src/wolfio.c ****         int ret = 0;
 739:Middlewares/Third_Party/wolfSSL_wolfSSL_wolfSSL/wolfssl/src/wolfio.c **** 
 740:Middlewares/Third_Party/wolfSSL_wolfSSL_wolfSSL/wolfssl/src/wolfio.c ****     #ifdef USE_WINDOWS_API
 741:Middlewares/Third_Party/wolfSSL_wolfSSL_wolfSSL/wolfssl/src/wolfio.c ****         unsigned long blocking = non_blocking;
 742:Middlewares/Third_Party/wolfSSL_wolfSSL_wolfSSL/wolfssl/src/wolfio.c ****         ret = ioctlsocket(sockfd, FIONBIO, &blocking);
 743:Middlewares/Third_Party/wolfSSL_wolfSSL_wolfSSL/wolfssl/src/wolfio.c ****         if (ret == SOCKET_ERROR)
 744:Middlewares/Third_Party/wolfSSL_wolfSSL_wolfSSL/wolfssl/src/wolfio.c ****             ret = -1;
 745:Middlewares/Third_Party/wolfSSL_wolfSSL_wolfSSL/wolfssl/src/wolfio.c ****     #else
 746:Middlewares/Third_Party/wolfSSL_wolfSSL_wolfSSL/wolfssl/src/wolfio.c ****         ret = fcntl(sockfd, F_GETFL, 0);
 747:Middlewares/Third_Party/wolfSSL_wolfSSL_wolfSSL/wolfssl/src/wolfio.c ****         if (ret >= 0) {
 748:Middlewares/Third_Party/wolfSSL_wolfSSL_wolfSSL/wolfssl/src/wolfio.c ****             if (non_blocking)
 749:Middlewares/Third_Party/wolfSSL_wolfSSL_wolfSSL/wolfssl/src/wolfio.c ****                 ret |= O_NONBLOCK;
 750:Middlewares/Third_Party/wolfSSL_wolfSSL_wolfSSL/wolfssl/src/wolfio.c ****             else
 751:Middlewares/Third_Party/wolfSSL_wolfSSL_wolfSSL/wolfssl/src/wolfio.c ****                 ret &= ~O_NONBLOCK;
 752:Middlewares/Third_Party/wolfSSL_wolfSSL_wolfSSL/wolfssl/src/wolfio.c ****             ret = fcntl(sockfd, F_SETFL, ret);
 753:Middlewares/Third_Party/wolfSSL_wolfSSL_wolfSSL/wolfssl/src/wolfio.c ****         }
 754:Middlewares/Third_Party/wolfSSL_wolfSSL_wolfSSL/wolfssl/src/wolfio.c ****     #endif
 755:Middlewares/Third_Party/wolfSSL_wolfSSL_wolfSSL/wolfssl/src/wolfio.c ****         if (ret < 0) {
 756:Middlewares/Third_Party/wolfSSL_wolfSSL_wolfSSL/wolfssl/src/wolfio.c ****             WOLFSSL_MSG("wolfIO_SetBlockingMode failed");
 757:Middlewares/Third_Party/wolfSSL_wolfSSL_wolfSSL/wolfssl/src/wolfio.c ****         }
 758:Middlewares/Third_Party/wolfSSL_wolfSSL_wolfSSL/wolfssl/src/wolfio.c **** 
 759:Middlewares/Third_Party/wolfSSL_wolfSSL_wolfSSL/wolfssl/src/wolfio.c ****         return ret;
 760:Middlewares/Third_Party/wolfSSL_wolfSSL_wolfSSL/wolfssl/src/wolfio.c ****     }
 761:Middlewares/Third_Party/wolfSSL_wolfSSL_wolfSSL/wolfssl/src/wolfio.c **** 
 762:Middlewares/Third_Party/wolfSSL_wolfSSL_wolfSSL/wolfssl/src/wolfio.c ****     int wolfIO_Select(SOCKET_T sockfd, int to_sec)
 763:Middlewares/Third_Party/wolfSSL_wolfSSL_wolfSSL/wolfssl/src/wolfio.c ****     {
 764:Middlewares/Third_Party/wolfSSL_wolfSSL_wolfSSL/wolfssl/src/wolfio.c ****         fd_set rfds, wfds;
 765:Middlewares/Third_Party/wolfSSL_wolfSSL_wolfSSL/wolfssl/src/wolfio.c ****         int nfds = 0;
 766:Middlewares/Third_Party/wolfSSL_wolfSSL_wolfSSL/wolfssl/src/wolfio.c ****         struct timeval timeout = { (to_sec > 0) ? to_sec : 0, 0};
 767:Middlewares/Third_Party/wolfSSL_wolfSSL_wolfSSL/wolfssl/src/wolfio.c ****         int ret;
 768:Middlewares/Third_Party/wolfSSL_wolfSSL_wolfSSL/wolfssl/src/wolfio.c **** 
 769:Middlewares/Third_Party/wolfSSL_wolfSSL_wolfSSL/wolfssl/src/wolfio.c ****     #ifndef USE_WINDOWS_API
 770:Middlewares/Third_Party/wolfSSL_wolfSSL_wolfSSL/wolfssl/src/wolfio.c ****         nfds = (int)sockfd + 1;
ARM GAS  /tmp/ccACAaom.s 			page 15


 771:Middlewares/Third_Party/wolfSSL_wolfSSL_wolfSSL/wolfssl/src/wolfio.c ****     #endif
 772:Middlewares/Third_Party/wolfSSL_wolfSSL_wolfSSL/wolfssl/src/wolfio.c **** 
 773:Middlewares/Third_Party/wolfSSL_wolfSSL_wolfSSL/wolfssl/src/wolfio.c ****         FD_ZERO(&rfds);
 774:Middlewares/Third_Party/wolfSSL_wolfSSL_wolfSSL/wolfssl/src/wolfio.c ****         FD_SET(sockfd, &rfds);
 775:Middlewares/Third_Party/wolfSSL_wolfSSL_wolfSSL/wolfssl/src/wolfio.c ****         wfds = rfds;
 776:Middlewares/Third_Party/wolfSSL_wolfSSL_wolfSSL/wolfssl/src/wolfio.c **** 
 777:Middlewares/Third_Party/wolfSSL_wolfSSL_wolfSSL/wolfssl/src/wolfio.c ****         ret = select(nfds, &rfds, &wfds, NULL, &timeout);
 778:Middlewares/Third_Party/wolfSSL_wolfSSL_wolfSSL/wolfssl/src/wolfio.c ****         if (ret == 0) {
 779:Middlewares/Third_Party/wolfSSL_wolfSSL_wolfSSL/wolfssl/src/wolfio.c ****         #ifdef DEBUG_HTTP
 780:Middlewares/Third_Party/wolfSSL_wolfSSL_wolfSSL/wolfssl/src/wolfio.c ****             printf("Timeout: %d\n", ret);
 781:Middlewares/Third_Party/wolfSSL_wolfSSL_wolfSSL/wolfssl/src/wolfio.c ****         #endif
 782:Middlewares/Third_Party/wolfSSL_wolfSSL_wolfSSL/wolfssl/src/wolfio.c ****             return HTTP_TIMEOUT;
 783:Middlewares/Third_Party/wolfSSL_wolfSSL_wolfSSL/wolfssl/src/wolfio.c ****         }
 784:Middlewares/Third_Party/wolfSSL_wolfSSL_wolfSSL/wolfssl/src/wolfio.c ****         else if (ret > 0) {
 785:Middlewares/Third_Party/wolfSSL_wolfSSL_wolfSSL/wolfssl/src/wolfio.c ****             if (FD_ISSET(sockfd, &wfds)) {
 786:Middlewares/Third_Party/wolfSSL_wolfSSL_wolfSSL/wolfssl/src/wolfio.c ****                 if (!FD_ISSET(sockfd, &rfds)) {
 787:Middlewares/Third_Party/wolfSSL_wolfSSL_wolfSSL/wolfssl/src/wolfio.c ****                     return 0;
 788:Middlewares/Third_Party/wolfSSL_wolfSSL_wolfSSL/wolfssl/src/wolfio.c ****                 }
 789:Middlewares/Third_Party/wolfSSL_wolfSSL_wolfSSL/wolfssl/src/wolfio.c ****             }
 790:Middlewares/Third_Party/wolfSSL_wolfSSL_wolfSSL/wolfssl/src/wolfio.c ****         }
 791:Middlewares/Third_Party/wolfSSL_wolfSSL_wolfSSL/wolfssl/src/wolfio.c **** 
 792:Middlewares/Third_Party/wolfSSL_wolfSSL_wolfSSL/wolfssl/src/wolfio.c ****         WOLFSSL_MSG("Select error");
 793:Middlewares/Third_Party/wolfSSL_wolfSSL_wolfSSL/wolfssl/src/wolfio.c ****         return SOCKET_ERROR_E;
 794:Middlewares/Third_Party/wolfSSL_wolfSSL_wolfSSL/wolfssl/src/wolfio.c ****     }
 795:Middlewares/Third_Party/wolfSSL_wolfSSL_wolfSSL/wolfssl/src/wolfio.c **** #endif /* HAVE_IO_TIMEOUT */
 796:Middlewares/Third_Party/wolfSSL_wolfSSL_wolfSSL/wolfssl/src/wolfio.c **** 
 797:Middlewares/Third_Party/wolfSSL_wolfSSL_wolfSSL/wolfssl/src/wolfio.c **** static int wolfIO_Word16ToString(char* d, word16 number)
 798:Middlewares/Third_Party/wolfSSL_wolfSSL_wolfSSL/wolfssl/src/wolfio.c **** {
 799:Middlewares/Third_Party/wolfSSL_wolfSSL_wolfSSL/wolfssl/src/wolfio.c ****     int i = 0;
 800:Middlewares/Third_Party/wolfSSL_wolfSSL_wolfSSL/wolfssl/src/wolfio.c ****     word16 order = 10000;
 801:Middlewares/Third_Party/wolfSSL_wolfSSL_wolfSSL/wolfssl/src/wolfio.c ****     word16 digit;
 802:Middlewares/Third_Party/wolfSSL_wolfSSL_wolfSSL/wolfssl/src/wolfio.c **** 
 803:Middlewares/Third_Party/wolfSSL_wolfSSL_wolfSSL/wolfssl/src/wolfio.c ****     if (d == NULL)
 804:Middlewares/Third_Party/wolfSSL_wolfSSL_wolfSSL/wolfssl/src/wolfio.c ****         return i;
 805:Middlewares/Third_Party/wolfSSL_wolfSSL_wolfSSL/wolfssl/src/wolfio.c **** 
 806:Middlewares/Third_Party/wolfSSL_wolfSSL_wolfSSL/wolfssl/src/wolfio.c ****     if (number == 0)
 807:Middlewares/Third_Party/wolfSSL_wolfSSL_wolfSSL/wolfssl/src/wolfio.c ****         d[i++] = '0';
 808:Middlewares/Third_Party/wolfSSL_wolfSSL_wolfSSL/wolfssl/src/wolfio.c ****     else {
 809:Middlewares/Third_Party/wolfSSL_wolfSSL_wolfSSL/wolfssl/src/wolfio.c ****         while (order) {
 810:Middlewares/Third_Party/wolfSSL_wolfSSL_wolfSSL/wolfssl/src/wolfio.c ****             digit = number / order;
 811:Middlewares/Third_Party/wolfSSL_wolfSSL_wolfSSL/wolfssl/src/wolfio.c ****             if (i > 0 || digit != 0)
 812:Middlewares/Third_Party/wolfSSL_wolfSSL_wolfSSL/wolfssl/src/wolfio.c ****                 d[i++] = (char)digit + '0';
 813:Middlewares/Third_Party/wolfSSL_wolfSSL_wolfSSL/wolfssl/src/wolfio.c ****             if (digit != 0)
 814:Middlewares/Third_Party/wolfSSL_wolfSSL_wolfSSL/wolfssl/src/wolfio.c ****                 number %= digit * order;
 815:Middlewares/Third_Party/wolfSSL_wolfSSL_wolfSSL/wolfssl/src/wolfio.c **** 
 816:Middlewares/Third_Party/wolfSSL_wolfSSL_wolfSSL/wolfssl/src/wolfio.c ****             order = (order > 1) ? order / 10 : 0;
 817:Middlewares/Third_Party/wolfSSL_wolfSSL_wolfSSL/wolfssl/src/wolfio.c ****         }
 818:Middlewares/Third_Party/wolfSSL_wolfSSL_wolfSSL/wolfssl/src/wolfio.c ****     }
 819:Middlewares/Third_Party/wolfSSL_wolfSSL_wolfSSL/wolfssl/src/wolfio.c ****     d[i] = 0; /* null terminate */
 820:Middlewares/Third_Party/wolfSSL_wolfSSL_wolfSSL/wolfssl/src/wolfio.c **** 
 821:Middlewares/Third_Party/wolfSSL_wolfSSL_wolfSSL/wolfssl/src/wolfio.c ****     return i;
 822:Middlewares/Third_Party/wolfSSL_wolfSSL_wolfSSL/wolfssl/src/wolfio.c **** }
 823:Middlewares/Third_Party/wolfSSL_wolfSSL_wolfSSL/wolfssl/src/wolfio.c **** 
 824:Middlewares/Third_Party/wolfSSL_wolfSSL_wolfSSL/wolfssl/src/wolfio.c **** int wolfIO_TcpConnect(SOCKET_T* sockfd, const char* ip, word16 port, int to_sec)
 825:Middlewares/Third_Party/wolfSSL_wolfSSL_wolfSSL/wolfssl/src/wolfio.c **** {
 826:Middlewares/Third_Party/wolfSSL_wolfSSL_wolfSSL/wolfssl/src/wolfio.c **** #ifdef HAVE_SOCKADDR
 827:Middlewares/Third_Party/wolfSSL_wolfSSL_wolfSSL/wolfssl/src/wolfio.c ****     int ret = 0;
ARM GAS  /tmp/ccACAaom.s 			page 16


 828:Middlewares/Third_Party/wolfSSL_wolfSSL_wolfSSL/wolfssl/src/wolfio.c ****     SOCKADDR_S addr;
 829:Middlewares/Third_Party/wolfSSL_wolfSSL_wolfSSL/wolfssl/src/wolfio.c ****     int sockaddr_len = sizeof(SOCKADDR_IN);
 830:Middlewares/Third_Party/wolfSSL_wolfSSL_wolfSSL/wolfssl/src/wolfio.c ****     /* use gethostbyname for c99 */
 831:Middlewares/Third_Party/wolfSSL_wolfSSL_wolfSSL/wolfssl/src/wolfio.c **** #if defined(HAVE_GETADDRINFO) && !defined(WOLF_C99)
 832:Middlewares/Third_Party/wolfSSL_wolfSSL_wolfSSL/wolfssl/src/wolfio.c ****     ADDRINFO hints;
 833:Middlewares/Third_Party/wolfSSL_wolfSSL_wolfSSL/wolfssl/src/wolfio.c ****     ADDRINFO* answer = NULL;
 834:Middlewares/Third_Party/wolfSSL_wolfSSL_wolfSSL/wolfssl/src/wolfio.c ****     char strPort[6];
 835:Middlewares/Third_Party/wolfSSL_wolfSSL_wolfSSL/wolfssl/src/wolfio.c **** #else
 836:Middlewares/Third_Party/wolfSSL_wolfSSL_wolfSSL/wolfssl/src/wolfio.c ****     HOSTENT* entry;
 837:Middlewares/Third_Party/wolfSSL_wolfSSL_wolfSSL/wolfssl/src/wolfio.c ****     SOCKADDR_IN *sin;
 838:Middlewares/Third_Party/wolfSSL_wolfSSL_wolfSSL/wolfssl/src/wolfio.c **** #endif
 839:Middlewares/Third_Party/wolfSSL_wolfSSL_wolfSSL/wolfssl/src/wolfio.c **** 
 840:Middlewares/Third_Party/wolfSSL_wolfSSL_wolfSSL/wolfssl/src/wolfio.c ****     if (sockfd == NULL || ip == NULL) {
 841:Middlewares/Third_Party/wolfSSL_wolfSSL_wolfSSL/wolfssl/src/wolfio.c ****         return -1;
 842:Middlewares/Third_Party/wolfSSL_wolfSSL_wolfSSL/wolfssl/src/wolfio.c ****     }
 843:Middlewares/Third_Party/wolfSSL_wolfSSL_wolfSSL/wolfssl/src/wolfio.c **** 
 844:Middlewares/Third_Party/wolfSSL_wolfSSL_wolfSSL/wolfssl/src/wolfio.c ****     XMEMSET(&addr, 0, sizeof(addr));
 845:Middlewares/Third_Party/wolfSSL_wolfSSL_wolfSSL/wolfssl/src/wolfio.c **** 
 846:Middlewares/Third_Party/wolfSSL_wolfSSL_wolfSSL/wolfssl/src/wolfio.c **** #ifdef WOLFIO_DEBUG
 847:Middlewares/Third_Party/wolfSSL_wolfSSL_wolfSSL/wolfssl/src/wolfio.c ****     printf("TCP Connect: %s:%d\n", ip, port);
 848:Middlewares/Third_Party/wolfSSL_wolfSSL_wolfSSL/wolfssl/src/wolfio.c **** #endif
 849:Middlewares/Third_Party/wolfSSL_wolfSSL_wolfSSL/wolfssl/src/wolfio.c **** 
 850:Middlewares/Third_Party/wolfSSL_wolfSSL_wolfSSL/wolfssl/src/wolfio.c ****     /* use gethostbyname for c99 */
 851:Middlewares/Third_Party/wolfSSL_wolfSSL_wolfSSL/wolfssl/src/wolfio.c **** #if defined(HAVE_GETADDRINFO) && !defined(WOLF_C99)
 852:Middlewares/Third_Party/wolfSSL_wolfSSL_wolfSSL/wolfssl/src/wolfio.c ****     XMEMSET(&hints, 0, sizeof(hints));
 853:Middlewares/Third_Party/wolfSSL_wolfSSL_wolfSSL/wolfssl/src/wolfio.c ****     hints.ai_family = AF_UNSPEC;
 854:Middlewares/Third_Party/wolfSSL_wolfSSL_wolfSSL/wolfssl/src/wolfio.c ****     hints.ai_socktype = SOCK_STREAM;
 855:Middlewares/Third_Party/wolfSSL_wolfSSL_wolfSSL/wolfssl/src/wolfio.c ****     hints.ai_protocol = IPPROTO_TCP;
 856:Middlewares/Third_Party/wolfSSL_wolfSSL_wolfSSL/wolfssl/src/wolfio.c **** 
 857:Middlewares/Third_Party/wolfSSL_wolfSSL_wolfSSL/wolfssl/src/wolfio.c ****     if (wolfIO_Word16ToString(strPort, port) == 0) {
 858:Middlewares/Third_Party/wolfSSL_wolfSSL_wolfSSL/wolfssl/src/wolfio.c ****         WOLFSSL_MSG("invalid port number for responder");
 859:Middlewares/Third_Party/wolfSSL_wolfSSL_wolfSSL/wolfssl/src/wolfio.c ****         return -1;
 860:Middlewares/Third_Party/wolfSSL_wolfSSL_wolfSSL/wolfssl/src/wolfio.c ****     }
 861:Middlewares/Third_Party/wolfSSL_wolfSSL_wolfSSL/wolfssl/src/wolfio.c **** 
 862:Middlewares/Third_Party/wolfSSL_wolfSSL_wolfSSL/wolfssl/src/wolfio.c ****     if (getaddrinfo(ip, strPort, &hints, &answer) < 0 || answer == NULL) {
 863:Middlewares/Third_Party/wolfSSL_wolfSSL_wolfSSL/wolfssl/src/wolfio.c ****         WOLFSSL_MSG("no addr info for responder");
 864:Middlewares/Third_Party/wolfSSL_wolfSSL_wolfSSL/wolfssl/src/wolfio.c ****         return -1;
 865:Middlewares/Third_Party/wolfSSL_wolfSSL_wolfSSL/wolfssl/src/wolfio.c ****     }
 866:Middlewares/Third_Party/wolfSSL_wolfSSL_wolfSSL/wolfssl/src/wolfio.c **** 
 867:Middlewares/Third_Party/wolfSSL_wolfSSL_wolfSSL/wolfssl/src/wolfio.c ****     sockaddr_len = answer->ai_addrlen;
 868:Middlewares/Third_Party/wolfSSL_wolfSSL_wolfSSL/wolfssl/src/wolfio.c ****     XMEMCPY(&addr, answer->ai_addr, sockaddr_len);
 869:Middlewares/Third_Party/wolfSSL_wolfSSL_wolfSSL/wolfssl/src/wolfio.c ****     freeaddrinfo(answer);
 870:Middlewares/Third_Party/wolfSSL_wolfSSL_wolfSSL/wolfssl/src/wolfio.c **** #else
 871:Middlewares/Third_Party/wolfSSL_wolfSSL_wolfSSL/wolfssl/src/wolfio.c ****     entry = gethostbyname(ip);
 872:Middlewares/Third_Party/wolfSSL_wolfSSL_wolfSSL/wolfssl/src/wolfio.c ****     sin = (SOCKADDR_IN *)&addr;
 873:Middlewares/Third_Party/wolfSSL_wolfSSL_wolfSSL/wolfssl/src/wolfio.c **** 
 874:Middlewares/Third_Party/wolfSSL_wolfSSL_wolfSSL/wolfssl/src/wolfio.c ****     if (entry) {
 875:Middlewares/Third_Party/wolfSSL_wolfSSL_wolfSSL/wolfssl/src/wolfio.c ****         sin->sin_family = AF_INET;
 876:Middlewares/Third_Party/wolfSSL_wolfSSL_wolfSSL/wolfssl/src/wolfio.c ****         sin->sin_port = XHTONS(port);
 877:Middlewares/Third_Party/wolfSSL_wolfSSL_wolfSSL/wolfssl/src/wolfio.c ****         XMEMCPY(&sin->sin_addr.s_addr, entry->h_addr_list[0], entry->h_length);
 878:Middlewares/Third_Party/wolfSSL_wolfSSL_wolfSSL/wolfssl/src/wolfio.c ****     }
 879:Middlewares/Third_Party/wolfSSL_wolfSSL_wolfSSL/wolfssl/src/wolfio.c ****     else {
 880:Middlewares/Third_Party/wolfSSL_wolfSSL_wolfSSL/wolfssl/src/wolfio.c ****         WOLFSSL_MSG("no addr info for responder");
 881:Middlewares/Third_Party/wolfSSL_wolfSSL_wolfSSL/wolfssl/src/wolfio.c ****         return -1;
 882:Middlewares/Third_Party/wolfSSL_wolfSSL_wolfSSL/wolfssl/src/wolfio.c ****     }
 883:Middlewares/Third_Party/wolfSSL_wolfSSL_wolfSSL/wolfssl/src/wolfio.c **** #endif
 884:Middlewares/Third_Party/wolfSSL_wolfSSL_wolfSSL/wolfssl/src/wolfio.c **** 
ARM GAS  /tmp/ccACAaom.s 			page 17


 885:Middlewares/Third_Party/wolfSSL_wolfSSL_wolfSSL/wolfssl/src/wolfio.c ****     *sockfd = (SOCKET_T)socket(addr.ss_family, SOCK_STREAM, 0);
 886:Middlewares/Third_Party/wolfSSL_wolfSSL_wolfSSL/wolfssl/src/wolfio.c **** #ifdef USE_WINDOWS_API
 887:Middlewares/Third_Party/wolfSSL_wolfSSL_wolfSSL/wolfssl/src/wolfio.c ****     if (*sockfd == SOCKET_INVALID)
 888:Middlewares/Third_Party/wolfSSL_wolfSSL_wolfSSL/wolfssl/src/wolfio.c **** #else
 889:Middlewares/Third_Party/wolfSSL_wolfSSL_wolfSSL/wolfssl/src/wolfio.c ****     if (*sockfd <= SOCKET_INVALID)
 890:Middlewares/Third_Party/wolfSSL_wolfSSL_wolfSSL/wolfssl/src/wolfio.c **** #endif
 891:Middlewares/Third_Party/wolfSSL_wolfSSL_wolfSSL/wolfssl/src/wolfio.c ****     {
 892:Middlewares/Third_Party/wolfSSL_wolfSSL_wolfSSL/wolfssl/src/wolfio.c ****         WOLFSSL_MSG("bad socket fd, out of fds?");
 893:Middlewares/Third_Party/wolfSSL_wolfSSL_wolfSSL/wolfssl/src/wolfio.c ****         return -1;
 894:Middlewares/Third_Party/wolfSSL_wolfSSL_wolfSSL/wolfssl/src/wolfio.c ****     }
 895:Middlewares/Third_Party/wolfSSL_wolfSSL_wolfSSL/wolfssl/src/wolfio.c **** 
 896:Middlewares/Third_Party/wolfSSL_wolfSSL_wolfSSL/wolfssl/src/wolfio.c **** #ifdef HAVE_IO_TIMEOUT
 897:Middlewares/Third_Party/wolfSSL_wolfSSL_wolfSSL/wolfssl/src/wolfio.c ****     /* if timeout value provided then set socket non-blocking */
 898:Middlewares/Third_Party/wolfSSL_wolfSSL_wolfSSL/wolfssl/src/wolfio.c ****     if (to_sec > 0) {
 899:Middlewares/Third_Party/wolfSSL_wolfSSL_wolfSSL/wolfssl/src/wolfio.c ****         wolfIO_SetBlockingMode(*sockfd, 1);
 900:Middlewares/Third_Party/wolfSSL_wolfSSL_wolfSSL/wolfssl/src/wolfio.c ****     }
 901:Middlewares/Third_Party/wolfSSL_wolfSSL_wolfSSL/wolfssl/src/wolfio.c **** #else
 902:Middlewares/Third_Party/wolfSSL_wolfSSL_wolfSSL/wolfssl/src/wolfio.c ****     (void)to_sec;
 903:Middlewares/Third_Party/wolfSSL_wolfSSL_wolfSSL/wolfssl/src/wolfio.c **** #endif
 904:Middlewares/Third_Party/wolfSSL_wolfSSL_wolfSSL/wolfssl/src/wolfio.c **** 
 905:Middlewares/Third_Party/wolfSSL_wolfSSL_wolfSSL/wolfssl/src/wolfio.c ****     ret = connect(*sockfd, (SOCKADDR *)&addr, sockaddr_len);
 906:Middlewares/Third_Party/wolfSSL_wolfSSL_wolfSSL/wolfssl/src/wolfio.c **** #ifdef HAVE_IO_TIMEOUT
 907:Middlewares/Third_Party/wolfSSL_wolfSSL_wolfSSL/wolfssl/src/wolfio.c ****     if (ret != 0) {
 908:Middlewares/Third_Party/wolfSSL_wolfSSL_wolfSSL/wolfssl/src/wolfio.c ****         if ((errno == EINPROGRESS) && (to_sec > 0)) {
 909:Middlewares/Third_Party/wolfSSL_wolfSSL_wolfSSL/wolfssl/src/wolfio.c ****             /* wait for connect to complete */
 910:Middlewares/Third_Party/wolfSSL_wolfSSL_wolfSSL/wolfssl/src/wolfio.c ****             ret = wolfIO_Select(*sockfd, to_sec);
 911:Middlewares/Third_Party/wolfSSL_wolfSSL_wolfSSL/wolfssl/src/wolfio.c **** 
 912:Middlewares/Third_Party/wolfSSL_wolfSSL_wolfSSL/wolfssl/src/wolfio.c ****             /* restore blocking mode */
 913:Middlewares/Third_Party/wolfSSL_wolfSSL_wolfSSL/wolfssl/src/wolfio.c ****             wolfIO_SetBlockingMode(*sockfd, 0);
 914:Middlewares/Third_Party/wolfSSL_wolfSSL_wolfSSL/wolfssl/src/wolfio.c ****         }
 915:Middlewares/Third_Party/wolfSSL_wolfSSL_wolfSSL/wolfssl/src/wolfio.c ****     }
 916:Middlewares/Third_Party/wolfSSL_wolfSSL_wolfSSL/wolfssl/src/wolfio.c **** #endif
 917:Middlewares/Third_Party/wolfSSL_wolfSSL_wolfSSL/wolfssl/src/wolfio.c ****     if (ret != 0) {
 918:Middlewares/Third_Party/wolfSSL_wolfSSL_wolfSSL/wolfssl/src/wolfio.c ****         WOLFSSL_MSG("Responder tcp connect failed");
 919:Middlewares/Third_Party/wolfSSL_wolfSSL_wolfSSL/wolfssl/src/wolfio.c ****         CloseSocket(*sockfd);
 920:Middlewares/Third_Party/wolfSSL_wolfSSL_wolfSSL/wolfssl/src/wolfio.c ****         *sockfd = SOCKET_INVALID;
 921:Middlewares/Third_Party/wolfSSL_wolfSSL_wolfSSL/wolfssl/src/wolfio.c ****         return -1;
 922:Middlewares/Third_Party/wolfSSL_wolfSSL_wolfSSL/wolfssl/src/wolfio.c ****     }
 923:Middlewares/Third_Party/wolfSSL_wolfSSL_wolfSSL/wolfssl/src/wolfio.c ****     return ret;
 924:Middlewares/Third_Party/wolfSSL_wolfSSL_wolfSSL/wolfssl/src/wolfio.c **** #else
 925:Middlewares/Third_Party/wolfSSL_wolfSSL_wolfSSL/wolfssl/src/wolfio.c ****     (void)sockfd;
 926:Middlewares/Third_Party/wolfSSL_wolfSSL_wolfSSL/wolfssl/src/wolfio.c ****     (void)ip;
 927:Middlewares/Third_Party/wolfSSL_wolfSSL_wolfSSL/wolfssl/src/wolfio.c ****     (void)port;
 928:Middlewares/Third_Party/wolfSSL_wolfSSL_wolfSSL/wolfssl/src/wolfio.c ****     (void)to_sec;
 929:Middlewares/Third_Party/wolfSSL_wolfSSL_wolfSSL/wolfssl/src/wolfio.c ****     return -1;
 930:Middlewares/Third_Party/wolfSSL_wolfSSL_wolfSSL/wolfssl/src/wolfio.c **** #endif /* HAVE_SOCKADDR */
 931:Middlewares/Third_Party/wolfSSL_wolfSSL_wolfSSL/wolfssl/src/wolfio.c **** }
 932:Middlewares/Third_Party/wolfSSL_wolfSSL_wolfSSL/wolfssl/src/wolfio.c **** 
 933:Middlewares/Third_Party/wolfSSL_wolfSSL_wolfSSL/wolfssl/src/wolfio.c **** #ifndef HTTP_SCRATCH_BUFFER_SIZE
 934:Middlewares/Third_Party/wolfSSL_wolfSSL_wolfSSL/wolfssl/src/wolfio.c ****     #define HTTP_SCRATCH_BUFFER_SIZE 512
 935:Middlewares/Third_Party/wolfSSL_wolfSSL_wolfSSL/wolfssl/src/wolfio.c **** #endif
 936:Middlewares/Third_Party/wolfSSL_wolfSSL_wolfSSL/wolfssl/src/wolfio.c **** #ifndef MAX_URL_ITEM_SIZE
 937:Middlewares/Third_Party/wolfSSL_wolfSSL_wolfSSL/wolfssl/src/wolfio.c ****     #define MAX_URL_ITEM_SIZE   80
 938:Middlewares/Third_Party/wolfSSL_wolfSSL_wolfSSL/wolfssl/src/wolfio.c **** #endif
 939:Middlewares/Third_Party/wolfSSL_wolfSSL_wolfSSL/wolfssl/src/wolfio.c **** 
 940:Middlewares/Third_Party/wolfSSL_wolfSSL_wolfSSL/wolfssl/src/wolfio.c **** int wolfIO_DecodeUrl(const char* url, int urlSz, char* outName, char* outPath,
 941:Middlewares/Third_Party/wolfSSL_wolfSSL_wolfSSL/wolfssl/src/wolfio.c ****     word16* outPort)
ARM GAS  /tmp/ccACAaom.s 			page 18


 942:Middlewares/Third_Party/wolfSSL_wolfSSL_wolfSSL/wolfssl/src/wolfio.c **** {
 943:Middlewares/Third_Party/wolfSSL_wolfSSL_wolfSSL/wolfssl/src/wolfio.c ****     int result = -1;
 944:Middlewares/Third_Party/wolfSSL_wolfSSL_wolfSSL/wolfssl/src/wolfio.c **** 
 945:Middlewares/Third_Party/wolfSSL_wolfSSL_wolfSSL/wolfssl/src/wolfio.c ****     if (url == NULL || urlSz == 0) {
 946:Middlewares/Third_Party/wolfSSL_wolfSSL_wolfSSL/wolfssl/src/wolfio.c ****         if (outName)
 947:Middlewares/Third_Party/wolfSSL_wolfSSL_wolfSSL/wolfssl/src/wolfio.c ****             *outName = 0;
 948:Middlewares/Third_Party/wolfSSL_wolfSSL_wolfSSL/wolfssl/src/wolfio.c ****         if (outPath)
 949:Middlewares/Third_Party/wolfSSL_wolfSSL_wolfSSL/wolfssl/src/wolfio.c ****             *outPath = 0;
 950:Middlewares/Third_Party/wolfSSL_wolfSSL_wolfSSL/wolfssl/src/wolfio.c ****         if (outPort)
 951:Middlewares/Third_Party/wolfSSL_wolfSSL_wolfSSL/wolfssl/src/wolfio.c ****             *outPort = 0;
 952:Middlewares/Third_Party/wolfSSL_wolfSSL_wolfSSL/wolfssl/src/wolfio.c ****     }
 953:Middlewares/Third_Party/wolfSSL_wolfSSL_wolfSSL/wolfssl/src/wolfio.c ****     else {
 954:Middlewares/Third_Party/wolfSSL_wolfSSL_wolfSSL/wolfssl/src/wolfio.c ****         int i, cur;
 955:Middlewares/Third_Party/wolfSSL_wolfSSL_wolfSSL/wolfssl/src/wolfio.c **** 
 956:Middlewares/Third_Party/wolfSSL_wolfSSL_wolfSSL/wolfssl/src/wolfio.c ****         /* need to break the url down into scheme, address, and port */
 957:Middlewares/Third_Party/wolfSSL_wolfSSL_wolfSSL/wolfssl/src/wolfio.c ****         /*     "http://example.com:8080/" */
 958:Middlewares/Third_Party/wolfSSL_wolfSSL_wolfSSL/wolfssl/src/wolfio.c ****         /*     "http://[::1]:443/"        */
 959:Middlewares/Third_Party/wolfSSL_wolfSSL_wolfSSL/wolfssl/src/wolfio.c ****         if (XSTRNCMP(url, "http://", 7) == 0) {
 960:Middlewares/Third_Party/wolfSSL_wolfSSL_wolfSSL/wolfssl/src/wolfio.c ****             cur = 7;
 961:Middlewares/Third_Party/wolfSSL_wolfSSL_wolfSSL/wolfssl/src/wolfio.c ****         } else cur = 0;
 962:Middlewares/Third_Party/wolfSSL_wolfSSL_wolfSSL/wolfssl/src/wolfio.c **** 
 963:Middlewares/Third_Party/wolfSSL_wolfSSL_wolfSSL/wolfssl/src/wolfio.c ****         i = 0;
 964:Middlewares/Third_Party/wolfSSL_wolfSSL_wolfSSL/wolfssl/src/wolfio.c ****         if (url[cur] == '[') {
 965:Middlewares/Third_Party/wolfSSL_wolfSSL_wolfSSL/wolfssl/src/wolfio.c ****             cur++;
 966:Middlewares/Third_Party/wolfSSL_wolfSSL_wolfSSL/wolfssl/src/wolfio.c ****             /* copy until ']' */
 967:Middlewares/Third_Party/wolfSSL_wolfSSL_wolfSSL/wolfssl/src/wolfio.c ****             while (i < MAX_URL_ITEM_SIZE-1 && cur < urlSz && url[cur] != 0 &&
 968:Middlewares/Third_Party/wolfSSL_wolfSSL_wolfSSL/wolfssl/src/wolfio.c ****                     url[cur] != ']') {
 969:Middlewares/Third_Party/wolfSSL_wolfSSL_wolfSSL/wolfssl/src/wolfio.c ****                 if (outName)
 970:Middlewares/Third_Party/wolfSSL_wolfSSL_wolfSSL/wolfssl/src/wolfio.c ****                     outName[i] = url[cur];
 971:Middlewares/Third_Party/wolfSSL_wolfSSL_wolfSSL/wolfssl/src/wolfio.c ****                 i++; cur++;
 972:Middlewares/Third_Party/wolfSSL_wolfSSL_wolfSSL/wolfssl/src/wolfio.c ****             }
 973:Middlewares/Third_Party/wolfSSL_wolfSSL_wolfSSL/wolfssl/src/wolfio.c ****             cur++; /* skip ']' */
 974:Middlewares/Third_Party/wolfSSL_wolfSSL_wolfSSL/wolfssl/src/wolfio.c ****         }
 975:Middlewares/Third_Party/wolfSSL_wolfSSL_wolfSSL/wolfssl/src/wolfio.c ****         else {
 976:Middlewares/Third_Party/wolfSSL_wolfSSL_wolfSSL/wolfssl/src/wolfio.c ****             while (i < MAX_URL_ITEM_SIZE-1 && cur < urlSz && url[cur] != 0 &&
 977:Middlewares/Third_Party/wolfSSL_wolfSSL_wolfSSL/wolfssl/src/wolfio.c ****                     url[cur] != ':' && url[cur] != '/') {
 978:Middlewares/Third_Party/wolfSSL_wolfSSL_wolfSSL/wolfssl/src/wolfio.c ****                 if (outName)
 979:Middlewares/Third_Party/wolfSSL_wolfSSL_wolfSSL/wolfssl/src/wolfio.c ****                     outName[i] = url[cur];
 980:Middlewares/Third_Party/wolfSSL_wolfSSL_wolfSSL/wolfssl/src/wolfio.c ****                 i++; cur++;
 981:Middlewares/Third_Party/wolfSSL_wolfSSL_wolfSSL/wolfssl/src/wolfio.c ****             }
 982:Middlewares/Third_Party/wolfSSL_wolfSSL_wolfSSL/wolfssl/src/wolfio.c ****         }
 983:Middlewares/Third_Party/wolfSSL_wolfSSL_wolfSSL/wolfssl/src/wolfio.c ****         if (outName)
 984:Middlewares/Third_Party/wolfSSL_wolfSSL_wolfSSL/wolfssl/src/wolfio.c ****             outName[i] = 0;
 985:Middlewares/Third_Party/wolfSSL_wolfSSL_wolfSSL/wolfssl/src/wolfio.c ****         /* Need to pick out the path after the domain name */
 986:Middlewares/Third_Party/wolfSSL_wolfSSL_wolfSSL/wolfssl/src/wolfio.c **** 
 987:Middlewares/Third_Party/wolfSSL_wolfSSL_wolfSSL/wolfssl/src/wolfio.c ****         if (cur < urlSz && url[cur] == ':') {
 988:Middlewares/Third_Party/wolfSSL_wolfSSL_wolfSSL/wolfssl/src/wolfio.c ****             char port[6];
 989:Middlewares/Third_Party/wolfSSL_wolfSSL_wolfSSL/wolfssl/src/wolfio.c ****             int j;
 990:Middlewares/Third_Party/wolfSSL_wolfSSL_wolfSSL/wolfssl/src/wolfio.c ****             word32 bigPort = 0;
 991:Middlewares/Third_Party/wolfSSL_wolfSSL_wolfSSL/wolfssl/src/wolfio.c ****             i = 0;
 992:Middlewares/Third_Party/wolfSSL_wolfSSL_wolfSSL/wolfssl/src/wolfio.c ****             cur++;
 993:Middlewares/Third_Party/wolfSSL_wolfSSL_wolfSSL/wolfssl/src/wolfio.c ****             while (i < 6 && cur < urlSz && url[cur] != 0 && url[cur] != '/') {
 994:Middlewares/Third_Party/wolfSSL_wolfSSL_wolfSSL/wolfssl/src/wolfio.c ****                 port[i] = url[cur];
 995:Middlewares/Third_Party/wolfSSL_wolfSSL_wolfSSL/wolfssl/src/wolfio.c ****                 i++; cur++;
 996:Middlewares/Third_Party/wolfSSL_wolfSSL_wolfSSL/wolfssl/src/wolfio.c ****             }
 997:Middlewares/Third_Party/wolfSSL_wolfSSL_wolfSSL/wolfssl/src/wolfio.c **** 
 998:Middlewares/Third_Party/wolfSSL_wolfSSL_wolfSSL/wolfssl/src/wolfio.c ****             for (j = 0; j < i; j++) {
ARM GAS  /tmp/ccACAaom.s 			page 19


 999:Middlewares/Third_Party/wolfSSL_wolfSSL_wolfSSL/wolfssl/src/wolfio.c ****                 if (port[j] < '0' || port[j] > '9') return -1;
1000:Middlewares/Third_Party/wolfSSL_wolfSSL_wolfSSL/wolfssl/src/wolfio.c ****                 bigPort = (bigPort * 10) + (port[j] - '0');
1001:Middlewares/Third_Party/wolfSSL_wolfSSL_wolfSSL/wolfssl/src/wolfio.c ****             }
1002:Middlewares/Third_Party/wolfSSL_wolfSSL_wolfSSL/wolfssl/src/wolfio.c ****             if (outPort)
1003:Middlewares/Third_Party/wolfSSL_wolfSSL_wolfSSL/wolfssl/src/wolfio.c ****                 *outPort = (word16)bigPort;
1004:Middlewares/Third_Party/wolfSSL_wolfSSL_wolfSSL/wolfssl/src/wolfio.c ****         }
1005:Middlewares/Third_Party/wolfSSL_wolfSSL_wolfSSL/wolfssl/src/wolfio.c ****         else if (outPort)
1006:Middlewares/Third_Party/wolfSSL_wolfSSL_wolfSSL/wolfssl/src/wolfio.c ****             *outPort = 80;
1007:Middlewares/Third_Party/wolfSSL_wolfSSL_wolfSSL/wolfssl/src/wolfio.c **** 
1008:Middlewares/Third_Party/wolfSSL_wolfSSL_wolfSSL/wolfssl/src/wolfio.c **** 
1009:Middlewares/Third_Party/wolfSSL_wolfSSL_wolfSSL/wolfssl/src/wolfio.c ****         if (cur < urlSz && url[cur] == '/') {
1010:Middlewares/Third_Party/wolfSSL_wolfSSL_wolfSSL/wolfssl/src/wolfio.c ****             i = 0;
1011:Middlewares/Third_Party/wolfSSL_wolfSSL_wolfSSL/wolfssl/src/wolfio.c ****             while (i < MAX_URL_ITEM_SIZE-1 && cur < urlSz && url[cur] != 0) {
1012:Middlewares/Third_Party/wolfSSL_wolfSSL_wolfSSL/wolfssl/src/wolfio.c ****                 if (outPath)
1013:Middlewares/Third_Party/wolfSSL_wolfSSL_wolfSSL/wolfssl/src/wolfio.c ****                     outPath[i] = url[cur];
1014:Middlewares/Third_Party/wolfSSL_wolfSSL_wolfSSL/wolfssl/src/wolfio.c ****                 i++; cur++;
1015:Middlewares/Third_Party/wolfSSL_wolfSSL_wolfSSL/wolfssl/src/wolfio.c ****             }
1016:Middlewares/Third_Party/wolfSSL_wolfSSL_wolfSSL/wolfssl/src/wolfio.c ****             if (outPath)
1017:Middlewares/Third_Party/wolfSSL_wolfSSL_wolfSSL/wolfssl/src/wolfio.c ****                 outPath[i] = 0;
1018:Middlewares/Third_Party/wolfSSL_wolfSSL_wolfSSL/wolfssl/src/wolfio.c ****         }
1019:Middlewares/Third_Party/wolfSSL_wolfSSL_wolfSSL/wolfssl/src/wolfio.c ****         else if (outPath) {
1020:Middlewares/Third_Party/wolfSSL_wolfSSL_wolfSSL/wolfssl/src/wolfio.c ****             outPath[0] = '/';
1021:Middlewares/Third_Party/wolfSSL_wolfSSL_wolfSSL/wolfssl/src/wolfio.c ****             outPath[1] = 0;
1022:Middlewares/Third_Party/wolfSSL_wolfSSL_wolfSSL/wolfssl/src/wolfio.c ****         }
1023:Middlewares/Third_Party/wolfSSL_wolfSSL_wolfSSL/wolfssl/src/wolfio.c **** 
1024:Middlewares/Third_Party/wolfSSL_wolfSSL_wolfSSL/wolfssl/src/wolfio.c ****         result = 0;
1025:Middlewares/Third_Party/wolfSSL_wolfSSL_wolfSSL/wolfssl/src/wolfio.c ****     }
1026:Middlewares/Third_Party/wolfSSL_wolfSSL_wolfSSL/wolfssl/src/wolfio.c **** 
1027:Middlewares/Third_Party/wolfSSL_wolfSSL_wolfSSL/wolfssl/src/wolfio.c ****     return result;
1028:Middlewares/Third_Party/wolfSSL_wolfSSL_wolfSSL/wolfssl/src/wolfio.c **** }
1029:Middlewares/Third_Party/wolfSSL_wolfSSL_wolfSSL/wolfssl/src/wolfio.c **** 
1030:Middlewares/Third_Party/wolfSSL_wolfSSL_wolfSSL/wolfssl/src/wolfio.c **** static int wolfIO_HttpProcessResponseBuf(int sfd, byte **recvBuf,
1031:Middlewares/Third_Party/wolfSSL_wolfSSL_wolfSSL/wolfssl/src/wolfio.c ****     int* recvBufSz, int chunkSz, char* start, int len, int dynType, void* heap)
1032:Middlewares/Third_Party/wolfSSL_wolfSSL_wolfSSL/wolfssl/src/wolfio.c **** {
1033:Middlewares/Third_Party/wolfSSL_wolfSSL_wolfSSL/wolfssl/src/wolfio.c ****     byte* newRecvBuf = NULL;
1034:Middlewares/Third_Party/wolfSSL_wolfSSL_wolfSSL/wolfssl/src/wolfio.c ****     int newRecvSz = *recvBufSz + chunkSz;
1035:Middlewares/Third_Party/wolfSSL_wolfSSL_wolfSSL/wolfssl/src/wolfio.c ****     int pos = 0;
1036:Middlewares/Third_Party/wolfSSL_wolfSSL_wolfSSL/wolfssl/src/wolfio.c **** 
1037:Middlewares/Third_Party/wolfSSL_wolfSSL_wolfSSL/wolfssl/src/wolfio.c ****     WOLFSSL_MSG("Processing HTTP response");
1038:Middlewares/Third_Party/wolfSSL_wolfSSL_wolfSSL/wolfssl/src/wolfio.c **** #ifdef WOLFIO_DEBUG
1039:Middlewares/Third_Party/wolfSSL_wolfSSL_wolfSSL/wolfssl/src/wolfio.c ****     printf("HTTP Chunk %d->%d\n", *recvBufSz, chunkSz);
1040:Middlewares/Third_Party/wolfSSL_wolfSSL_wolfSSL/wolfssl/src/wolfio.c **** #endif
1041:Middlewares/Third_Party/wolfSSL_wolfSSL_wolfSSL/wolfssl/src/wolfio.c **** 
1042:Middlewares/Third_Party/wolfSSL_wolfSSL_wolfSSL/wolfssl/src/wolfio.c ****     (void)heap;
1043:Middlewares/Third_Party/wolfSSL_wolfSSL_wolfSSL/wolfssl/src/wolfio.c ****     (void)dynType;
1044:Middlewares/Third_Party/wolfSSL_wolfSSL_wolfSSL/wolfssl/src/wolfio.c **** 
1045:Middlewares/Third_Party/wolfSSL_wolfSSL_wolfSSL/wolfssl/src/wolfio.c ****     if (chunkSz < 0 || len < 0) {
1046:Middlewares/Third_Party/wolfSSL_wolfSSL_wolfSSL/wolfssl/src/wolfio.c ****         WOLFSSL_MSG("wolfIO_HttpProcessResponseBuf invalid chunk or length size");
1047:Middlewares/Third_Party/wolfSSL_wolfSSL_wolfSSL/wolfssl/src/wolfio.c ****         return MEMORY_E;
1048:Middlewares/Third_Party/wolfSSL_wolfSSL_wolfSSL/wolfssl/src/wolfio.c ****     }
1049:Middlewares/Third_Party/wolfSSL_wolfSSL_wolfSSL/wolfssl/src/wolfio.c **** 
1050:Middlewares/Third_Party/wolfSSL_wolfSSL_wolfSSL/wolfssl/src/wolfio.c ****     if (newRecvSz <= 0) {
1051:Middlewares/Third_Party/wolfSSL_wolfSSL_wolfSSL/wolfssl/src/wolfio.c ****         WOLFSSL_MSG("wolfIO_HttpProcessResponseBuf new receive size overflow");
1052:Middlewares/Third_Party/wolfSSL_wolfSSL_wolfSSL/wolfssl/src/wolfio.c ****         return MEMORY_E;
1053:Middlewares/Third_Party/wolfSSL_wolfSSL_wolfSSL/wolfssl/src/wolfio.c ****     }
1054:Middlewares/Third_Party/wolfSSL_wolfSSL_wolfSSL/wolfssl/src/wolfio.c **** 
1055:Middlewares/Third_Party/wolfSSL_wolfSSL_wolfSSL/wolfssl/src/wolfio.c ****     newRecvBuf = (byte*)XMALLOC(newRecvSz, heap, dynType);
ARM GAS  /tmp/ccACAaom.s 			page 20


1056:Middlewares/Third_Party/wolfSSL_wolfSSL_wolfSSL/wolfssl/src/wolfio.c ****     if (newRecvBuf == NULL) {
1057:Middlewares/Third_Party/wolfSSL_wolfSSL_wolfSSL/wolfssl/src/wolfio.c ****         WOLFSSL_MSG("wolfIO_HttpProcessResponseBuf malloc failed");
1058:Middlewares/Third_Party/wolfSSL_wolfSSL_wolfSSL/wolfssl/src/wolfio.c ****         return MEMORY_E;
1059:Middlewares/Third_Party/wolfSSL_wolfSSL_wolfSSL/wolfssl/src/wolfio.c ****     }
1060:Middlewares/Third_Party/wolfSSL_wolfSSL_wolfSSL/wolfssl/src/wolfio.c **** 
1061:Middlewares/Third_Party/wolfSSL_wolfSSL_wolfSSL/wolfssl/src/wolfio.c ****     /* if buffer already exists, then we are growing it */
1062:Middlewares/Third_Party/wolfSSL_wolfSSL_wolfSSL/wolfssl/src/wolfio.c ****     if (*recvBuf) {
1063:Middlewares/Third_Party/wolfSSL_wolfSSL_wolfSSL/wolfssl/src/wolfio.c ****         XMEMCPY(&newRecvBuf[pos], *recvBuf, *recvBufSz);
1064:Middlewares/Third_Party/wolfSSL_wolfSSL_wolfSSL/wolfssl/src/wolfio.c ****         XFREE(*recvBuf, heap, dynType);
1065:Middlewares/Third_Party/wolfSSL_wolfSSL_wolfSSL/wolfssl/src/wolfio.c ****         pos += *recvBufSz;
1066:Middlewares/Third_Party/wolfSSL_wolfSSL_wolfSSL/wolfssl/src/wolfio.c ****         *recvBuf = NULL;
1067:Middlewares/Third_Party/wolfSSL_wolfSSL_wolfSSL/wolfssl/src/wolfio.c ****     }
1068:Middlewares/Third_Party/wolfSSL_wolfSSL_wolfSSL/wolfssl/src/wolfio.c **** 
1069:Middlewares/Third_Party/wolfSSL_wolfSSL_wolfSSL/wolfssl/src/wolfio.c ****     /* copy the remainder of the httpBuf into the respBuf */
1070:Middlewares/Third_Party/wolfSSL_wolfSSL_wolfSSL/wolfssl/src/wolfio.c ****     if (len != 0) {
1071:Middlewares/Third_Party/wolfSSL_wolfSSL_wolfSSL/wolfssl/src/wolfio.c ****         if (pos + len <= newRecvSz) {
1072:Middlewares/Third_Party/wolfSSL_wolfSSL_wolfSSL/wolfssl/src/wolfio.c ****             XMEMCPY(&newRecvBuf[pos], start, len);
1073:Middlewares/Third_Party/wolfSSL_wolfSSL_wolfSSL/wolfssl/src/wolfio.c ****             pos += len;
1074:Middlewares/Third_Party/wolfSSL_wolfSSL_wolfSSL/wolfssl/src/wolfio.c ****         }
1075:Middlewares/Third_Party/wolfSSL_wolfSSL_wolfSSL/wolfssl/src/wolfio.c ****         else {
1076:Middlewares/Third_Party/wolfSSL_wolfSSL_wolfSSL/wolfssl/src/wolfio.c ****             WOLFSSL_MSG("wolfIO_HttpProcessResponseBuf bad size");
1077:Middlewares/Third_Party/wolfSSL_wolfSSL_wolfSSL/wolfssl/src/wolfio.c ****             XFREE(newRecvBuf, heap, dynType);
1078:Middlewares/Third_Party/wolfSSL_wolfSSL_wolfSSL/wolfssl/src/wolfio.c ****             return -1;
1079:Middlewares/Third_Party/wolfSSL_wolfSSL_wolfSSL/wolfssl/src/wolfio.c ****         }
1080:Middlewares/Third_Party/wolfSSL_wolfSSL_wolfSSL/wolfssl/src/wolfio.c ****     }
1081:Middlewares/Third_Party/wolfSSL_wolfSSL_wolfSSL/wolfssl/src/wolfio.c **** 
1082:Middlewares/Third_Party/wolfSSL_wolfSSL_wolfSSL/wolfssl/src/wolfio.c ****     /* receive the remainder of chunk */
1083:Middlewares/Third_Party/wolfSSL_wolfSSL_wolfSSL/wolfssl/src/wolfio.c ****     while (len < chunkSz) {
1084:Middlewares/Third_Party/wolfSSL_wolfSSL_wolfSSL/wolfssl/src/wolfio.c ****         int rxSz = wolfIO_Recv(sfd, (char*)&newRecvBuf[pos], chunkSz-len, 0);
1085:Middlewares/Third_Party/wolfSSL_wolfSSL_wolfSSL/wolfssl/src/wolfio.c ****         if (rxSz > 0) {
1086:Middlewares/Third_Party/wolfSSL_wolfSSL_wolfSSL/wolfssl/src/wolfio.c ****             len += rxSz;
1087:Middlewares/Third_Party/wolfSSL_wolfSSL_wolfSSL/wolfssl/src/wolfio.c ****             pos += rxSz;
1088:Middlewares/Third_Party/wolfSSL_wolfSSL_wolfSSL/wolfssl/src/wolfio.c ****         }
1089:Middlewares/Third_Party/wolfSSL_wolfSSL_wolfSSL/wolfssl/src/wolfio.c ****         else {
1090:Middlewares/Third_Party/wolfSSL_wolfSSL_wolfSSL/wolfssl/src/wolfio.c ****             WOLFSSL_MSG("wolfIO_HttpProcessResponseBuf recv failed");
1091:Middlewares/Third_Party/wolfSSL_wolfSSL_wolfSSL/wolfssl/src/wolfio.c ****             XFREE(newRecvBuf, heap, dynType);
1092:Middlewares/Third_Party/wolfSSL_wolfSSL_wolfSSL/wolfssl/src/wolfio.c ****             return -1;
1093:Middlewares/Third_Party/wolfSSL_wolfSSL_wolfSSL/wolfssl/src/wolfio.c ****         }
1094:Middlewares/Third_Party/wolfSSL_wolfSSL_wolfSSL/wolfssl/src/wolfio.c ****     }
1095:Middlewares/Third_Party/wolfSSL_wolfSSL_wolfSSL/wolfssl/src/wolfio.c **** 
1096:Middlewares/Third_Party/wolfSSL_wolfSSL_wolfSSL/wolfssl/src/wolfio.c ****     *recvBuf = newRecvBuf;
1097:Middlewares/Third_Party/wolfSSL_wolfSSL_wolfSSL/wolfssl/src/wolfio.c ****     *recvBufSz = newRecvSz;
1098:Middlewares/Third_Party/wolfSSL_wolfSSL_wolfSSL/wolfssl/src/wolfio.c **** 
1099:Middlewares/Third_Party/wolfSSL_wolfSSL_wolfSSL/wolfssl/src/wolfio.c ****     return 0;
1100:Middlewares/Third_Party/wolfSSL_wolfSSL_wolfSSL/wolfssl/src/wolfio.c **** }
1101:Middlewares/Third_Party/wolfSSL_wolfSSL_wolfSSL/wolfssl/src/wolfio.c **** 
1102:Middlewares/Third_Party/wolfSSL_wolfSSL_wolfSSL/wolfssl/src/wolfio.c **** int wolfIO_HttpProcessResponse(int sfd, const char** appStrList,
1103:Middlewares/Third_Party/wolfSSL_wolfSSL_wolfSSL/wolfssl/src/wolfio.c ****     byte** respBuf, byte* httpBuf, int httpBufSz, int dynType, void* heap)
1104:Middlewares/Third_Party/wolfSSL_wolfSSL_wolfSSL/wolfssl/src/wolfio.c **** {
1105:Middlewares/Third_Party/wolfSSL_wolfSSL_wolfSSL/wolfssl/src/wolfio.c ****     int result = 0;
1106:Middlewares/Third_Party/wolfSSL_wolfSSL_wolfSSL/wolfssl/src/wolfio.c ****     int len = 0;
1107:Middlewares/Third_Party/wolfSSL_wolfSSL_wolfSSL/wolfssl/src/wolfio.c ****     char *start, *end;
1108:Middlewares/Third_Party/wolfSSL_wolfSSL_wolfSSL/wolfssl/src/wolfio.c ****     int respBufSz = 0;
1109:Middlewares/Third_Party/wolfSSL_wolfSSL_wolfSSL/wolfssl/src/wolfio.c ****     int isChunked = 0, chunkSz = 0;
1110:Middlewares/Third_Party/wolfSSL_wolfSSL_wolfSSL/wolfssl/src/wolfio.c ****     enum phr_state { phr_init, phr_http_start, phr_have_length, phr_have_type,
1111:Middlewares/Third_Party/wolfSSL_wolfSSL_wolfSSL/wolfssl/src/wolfio.c ****                      phr_wait_end, phr_get_chunk_len, phr_get_chunk_data,
1112:Middlewares/Third_Party/wolfSSL_wolfSSL_wolfSSL/wolfssl/src/wolfio.c ****                      phr_http_end
ARM GAS  /tmp/ccACAaom.s 			page 21


1113:Middlewares/Third_Party/wolfSSL_wolfSSL_wolfSSL/wolfssl/src/wolfio.c ****     } state = phr_init;
1114:Middlewares/Third_Party/wolfSSL_wolfSSL_wolfSSL/wolfssl/src/wolfio.c **** 
1115:Middlewares/Third_Party/wolfSSL_wolfSSL_wolfSSL/wolfssl/src/wolfio.c ****     *respBuf = NULL;
1116:Middlewares/Third_Party/wolfSSL_wolfSSL_wolfSSL/wolfssl/src/wolfio.c ****     start = end = NULL;
1117:Middlewares/Third_Party/wolfSSL_wolfSSL_wolfSSL/wolfssl/src/wolfio.c ****     do {
1118:Middlewares/Third_Party/wolfSSL_wolfSSL_wolfSSL/wolfssl/src/wolfio.c ****         if (state == phr_get_chunk_data) {
1119:Middlewares/Third_Party/wolfSSL_wolfSSL_wolfSSL/wolfssl/src/wolfio.c ****             /* get chunk of data */
1120:Middlewares/Third_Party/wolfSSL_wolfSSL_wolfSSL/wolfssl/src/wolfio.c ****             result = wolfIO_HttpProcessResponseBuf(sfd, respBuf, &respBufSz,
1121:Middlewares/Third_Party/wolfSSL_wolfSSL_wolfSSL/wolfssl/src/wolfio.c ****                 chunkSz, start, len, dynType, heap);
1122:Middlewares/Third_Party/wolfSSL_wolfSSL_wolfSSL/wolfssl/src/wolfio.c **** 
1123:Middlewares/Third_Party/wolfSSL_wolfSSL_wolfSSL/wolfssl/src/wolfio.c ****             state = (result != 0) ? phr_http_end : phr_get_chunk_len;
1124:Middlewares/Third_Party/wolfSSL_wolfSSL_wolfSSL/wolfssl/src/wolfio.c ****             end = NULL;
1125:Middlewares/Third_Party/wolfSSL_wolfSSL_wolfSSL/wolfssl/src/wolfio.c ****             len = 0;
1126:Middlewares/Third_Party/wolfSSL_wolfSSL_wolfSSL/wolfssl/src/wolfio.c ****         }
1127:Middlewares/Third_Party/wolfSSL_wolfSSL_wolfSSL/wolfssl/src/wolfio.c **** 
1128:Middlewares/Third_Party/wolfSSL_wolfSSL_wolfSSL/wolfssl/src/wolfio.c ****         /* read data if no \r\n or first time */
1129:Middlewares/Third_Party/wolfSSL_wolfSSL_wolfSSL/wolfssl/src/wolfio.c ****         if (end == NULL) {
1130:Middlewares/Third_Party/wolfSSL_wolfSSL_wolfSSL/wolfssl/src/wolfio.c ****             result = wolfIO_Recv(sfd, (char*)httpBuf+len, httpBufSz-len-1, 0);
1131:Middlewares/Third_Party/wolfSSL_wolfSSL_wolfSSL/wolfssl/src/wolfio.c ****             if (result > 0) {
1132:Middlewares/Third_Party/wolfSSL_wolfSSL_wolfSSL/wolfssl/src/wolfio.c ****                 len += result;
1133:Middlewares/Third_Party/wolfSSL_wolfSSL_wolfSSL/wolfssl/src/wolfio.c ****                 start = (char*)httpBuf;
1134:Middlewares/Third_Party/wolfSSL_wolfSSL_wolfSSL/wolfssl/src/wolfio.c ****                 start[len] = 0;
1135:Middlewares/Third_Party/wolfSSL_wolfSSL_wolfSSL/wolfssl/src/wolfio.c ****             }
1136:Middlewares/Third_Party/wolfSSL_wolfSSL_wolfSSL/wolfssl/src/wolfio.c ****             else {
1137:Middlewares/Third_Party/wolfSSL_wolfSSL_wolfSSL/wolfssl/src/wolfio.c ****                 result = TranslateReturnCode(result, sfd);
1138:Middlewares/Third_Party/wolfSSL_wolfSSL_wolfSSL/wolfssl/src/wolfio.c ****                 result = wolfSSL_LastError(result);
1139:Middlewares/Third_Party/wolfSSL_wolfSSL_wolfSSL/wolfssl/src/wolfio.c ****                 if (result == SOCKET_EWOULDBLOCK || result == SOCKET_EAGAIN) {
1140:Middlewares/Third_Party/wolfSSL_wolfSSL_wolfSSL/wolfssl/src/wolfio.c ****                     return OCSP_WANT_READ;
1141:Middlewares/Third_Party/wolfSSL_wolfSSL_wolfSSL/wolfssl/src/wolfio.c ****                 }
1142:Middlewares/Third_Party/wolfSSL_wolfSSL_wolfSSL/wolfssl/src/wolfio.c **** 
1143:Middlewares/Third_Party/wolfSSL_wolfSSL_wolfSSL/wolfssl/src/wolfio.c ****                 WOLFSSL_MSG("wolfIO_HttpProcessResponse recv http from peer failed");
1144:Middlewares/Third_Party/wolfSSL_wolfSSL_wolfSSL/wolfssl/src/wolfio.c ****                 return -1;
1145:Middlewares/Third_Party/wolfSSL_wolfSSL_wolfSSL/wolfssl/src/wolfio.c ****             }
1146:Middlewares/Third_Party/wolfSSL_wolfSSL_wolfSSL/wolfssl/src/wolfio.c ****         }
1147:Middlewares/Third_Party/wolfSSL_wolfSSL_wolfSSL/wolfssl/src/wolfio.c ****         end = XSTRSTR(start, "\r\n"); /* locate end */
1148:Middlewares/Third_Party/wolfSSL_wolfSSL_wolfSSL/wolfssl/src/wolfio.c **** 
1149:Middlewares/Third_Party/wolfSSL_wolfSSL_wolfSSL/wolfssl/src/wolfio.c ****         /* handle incomplete rx */
1150:Middlewares/Third_Party/wolfSSL_wolfSSL_wolfSSL/wolfssl/src/wolfio.c ****         if (end == NULL) {
1151:Middlewares/Third_Party/wolfSSL_wolfSSL_wolfSSL/wolfssl/src/wolfio.c ****             if (len != 0)
1152:Middlewares/Third_Party/wolfSSL_wolfSSL_wolfSSL/wolfssl/src/wolfio.c ****                 XMEMMOVE(httpBuf, start, len);
1153:Middlewares/Third_Party/wolfSSL_wolfSSL_wolfSSL/wolfssl/src/wolfio.c ****             start = end = NULL;
1154:Middlewares/Third_Party/wolfSSL_wolfSSL_wolfSSL/wolfssl/src/wolfio.c ****         }
1155:Middlewares/Third_Party/wolfSSL_wolfSSL_wolfSSL/wolfssl/src/wolfio.c ****         /* when start is "\r\n" */
1156:Middlewares/Third_Party/wolfSSL_wolfSSL_wolfSSL/wolfssl/src/wolfio.c ****         else if (end == start) {
1157:Middlewares/Third_Party/wolfSSL_wolfSSL_wolfSSL/wolfssl/src/wolfio.c ****             /* if waiting for end or need chunk len */
1158:Middlewares/Third_Party/wolfSSL_wolfSSL_wolfSSL/wolfssl/src/wolfio.c ****             if (state == phr_wait_end || state == phr_get_chunk_len) {
1159:Middlewares/Third_Party/wolfSSL_wolfSSL_wolfSSL/wolfssl/src/wolfio.c ****                 state = (isChunked) ? phr_get_chunk_len : phr_http_end;
1160:Middlewares/Third_Party/wolfSSL_wolfSSL_wolfSSL/wolfssl/src/wolfio.c ****                 len -= 2; start += 2; /* skip \r\n */
1161:Middlewares/Third_Party/wolfSSL_wolfSSL_wolfSSL/wolfssl/src/wolfio.c ****              }
1162:Middlewares/Third_Party/wolfSSL_wolfSSL_wolfSSL/wolfssl/src/wolfio.c ****              else {
1163:Middlewares/Third_Party/wolfSSL_wolfSSL_wolfSSL/wolfssl/src/wolfio.c ****                 WOLFSSL_MSG("wolfIO_HttpProcessResponse header ended early");
1164:Middlewares/Third_Party/wolfSSL_wolfSSL_wolfSSL/wolfssl/src/wolfio.c ****                 return -1;
1165:Middlewares/Third_Party/wolfSSL_wolfSSL_wolfSSL/wolfssl/src/wolfio.c ****              }
1166:Middlewares/Third_Party/wolfSSL_wolfSSL_wolfSSL/wolfssl/src/wolfio.c ****         }
1167:Middlewares/Third_Party/wolfSSL_wolfSSL_wolfSSL/wolfssl/src/wolfio.c ****         else {
1168:Middlewares/Third_Party/wolfSSL_wolfSSL_wolfSSL/wolfssl/src/wolfio.c ****             *end = 0; /* null terminate */
1169:Middlewares/Third_Party/wolfSSL_wolfSSL_wolfSSL/wolfssl/src/wolfio.c ****             len -= (int)(end - start) + 2;
ARM GAS  /tmp/ccACAaom.s 			page 22


1170:Middlewares/Third_Party/wolfSSL_wolfSSL_wolfSSL/wolfssl/src/wolfio.c ****                 /* adjust len to remove the first line including the /r/n */
1171:Middlewares/Third_Party/wolfSSL_wolfSSL_wolfSSL/wolfssl/src/wolfio.c **** 
1172:Middlewares/Third_Party/wolfSSL_wolfSSL_wolfSSL/wolfssl/src/wolfio.c ****         #ifdef WOLFIO_DEBUG
1173:Middlewares/Third_Party/wolfSSL_wolfSSL_wolfSSL/wolfssl/src/wolfio.c ****             printf("HTTP Resp: %s\n", start);
1174:Middlewares/Third_Party/wolfSSL_wolfSSL_wolfSSL/wolfssl/src/wolfio.c ****         #endif
1175:Middlewares/Third_Party/wolfSSL_wolfSSL_wolfSSL/wolfssl/src/wolfio.c **** 
1176:Middlewares/Third_Party/wolfSSL_wolfSSL_wolfSSL/wolfssl/src/wolfio.c ****             switch (state) {
1177:Middlewares/Third_Party/wolfSSL_wolfSSL_wolfSSL/wolfssl/src/wolfio.c ****                 case phr_init:
1178:Middlewares/Third_Party/wolfSSL_wolfSSL_wolfSSL/wolfssl/src/wolfio.c ****                     if (XSTRLEN(start) < 15) { /* 15 is the length of the two
1179:Middlewares/Third_Party/wolfSSL_wolfSSL_wolfSSL/wolfssl/src/wolfio.c ****                                           constant strings we're about to
1180:Middlewares/Third_Party/wolfSSL_wolfSSL_wolfSSL/wolfssl/src/wolfio.c ****                                           compare against. */
1181:Middlewares/Third_Party/wolfSSL_wolfSSL_wolfSSL/wolfssl/src/wolfio.c ****                         WOLFSSL_MSG("wolfIO_HttpProcessResponse HTTP header too short.");
1182:Middlewares/Third_Party/wolfSSL_wolfSSL_wolfSSL/wolfssl/src/wolfio.c ****                         return -1;
1183:Middlewares/Third_Party/wolfSSL_wolfSSL_wolfSSL/wolfssl/src/wolfio.c ****                     }
1184:Middlewares/Third_Party/wolfSSL_wolfSSL_wolfSSL/wolfssl/src/wolfio.c ****                     if (XSTRNCASECMP(start, "HTTP/1", 6) == 0) {
1185:Middlewares/Third_Party/wolfSSL_wolfSSL_wolfSSL/wolfssl/src/wolfio.c ****                         start += 9;
1186:Middlewares/Third_Party/wolfSSL_wolfSSL_wolfSSL/wolfssl/src/wolfio.c ****                         if (XSTRNCASECMP(start, "200 OK", 6) != 0) {
1187:Middlewares/Third_Party/wolfSSL_wolfSSL_wolfSSL/wolfssl/src/wolfio.c ****                             WOLFSSL_MSG("wolfIO_HttpProcessResponse not OK");
1188:Middlewares/Third_Party/wolfSSL_wolfSSL_wolfSSL/wolfssl/src/wolfio.c ****                             return -1;
1189:Middlewares/Third_Party/wolfSSL_wolfSSL_wolfSSL/wolfssl/src/wolfio.c ****                         }
1190:Middlewares/Third_Party/wolfSSL_wolfSSL_wolfSSL/wolfssl/src/wolfio.c ****                         state = phr_http_start;
1191:Middlewares/Third_Party/wolfSSL_wolfSSL_wolfSSL/wolfssl/src/wolfio.c ****                     }
1192:Middlewares/Third_Party/wolfSSL_wolfSSL_wolfSSL/wolfssl/src/wolfio.c ****                     break;
1193:Middlewares/Third_Party/wolfSSL_wolfSSL_wolfSSL/wolfssl/src/wolfio.c ****                 case phr_http_start:
1194:Middlewares/Third_Party/wolfSSL_wolfSSL_wolfSSL/wolfssl/src/wolfio.c ****                 case phr_have_length:
1195:Middlewares/Third_Party/wolfSSL_wolfSSL_wolfSSL/wolfssl/src/wolfio.c ****                 case phr_have_type:
1196:Middlewares/Third_Party/wolfSSL_wolfSSL_wolfSSL/wolfssl/src/wolfio.c ****                     if (XSTRLEN(start) < 13) { /* 13 is the shortest of the following
1197:Middlewares/Third_Party/wolfSSL_wolfSSL_wolfSSL/wolfssl/src/wolfio.c ****                                           next lines we're checking for. */
1198:Middlewares/Third_Party/wolfSSL_wolfSSL_wolfSSL/wolfssl/src/wolfio.c ****                         WOLFSSL_MSG("wolfIO_HttpProcessResponse content type is too short.");
1199:Middlewares/Third_Party/wolfSSL_wolfSSL_wolfSSL/wolfssl/src/wolfio.c ****                         return -1;
1200:Middlewares/Third_Party/wolfSSL_wolfSSL_wolfSSL/wolfssl/src/wolfio.c ****                     }
1201:Middlewares/Third_Party/wolfSSL_wolfSSL_wolfSSL/wolfssl/src/wolfio.c **** 
1202:Middlewares/Third_Party/wolfSSL_wolfSSL_wolfSSL/wolfssl/src/wolfio.c ****                     if (XSTRNCASECMP(start, "Content-Type:", 13) == 0) {
1203:Middlewares/Third_Party/wolfSSL_wolfSSL_wolfSSL/wolfssl/src/wolfio.c ****                         int i;
1204:Middlewares/Third_Party/wolfSSL_wolfSSL_wolfSSL/wolfssl/src/wolfio.c **** 
1205:Middlewares/Third_Party/wolfSSL_wolfSSL_wolfSSL/wolfssl/src/wolfio.c ****                         start += 13;
1206:Middlewares/Third_Party/wolfSSL_wolfSSL_wolfSSL/wolfssl/src/wolfio.c ****                         while (*start == ' ') start++;
1207:Middlewares/Third_Party/wolfSSL_wolfSSL_wolfSSL/wolfssl/src/wolfio.c **** 
1208:Middlewares/Third_Party/wolfSSL_wolfSSL_wolfSSL/wolfssl/src/wolfio.c ****                         /* try and match against appStrList */
1209:Middlewares/Third_Party/wolfSSL_wolfSSL_wolfSSL/wolfssl/src/wolfio.c ****                         i = 0;
1210:Middlewares/Third_Party/wolfSSL_wolfSSL_wolfSSL/wolfssl/src/wolfio.c ****                         while (appStrList[i] != NULL) {
1211:Middlewares/Third_Party/wolfSSL_wolfSSL_wolfSSL/wolfssl/src/wolfio.c ****                             if (XSTRNCASECMP(start, appStrList[i],
1212:Middlewares/Third_Party/wolfSSL_wolfSSL_wolfSSL/wolfssl/src/wolfio.c ****                                                 XSTRLEN(appStrList[i])) == 0) {
1213:Middlewares/Third_Party/wolfSSL_wolfSSL_wolfSSL/wolfssl/src/wolfio.c ****                                 break;
1214:Middlewares/Third_Party/wolfSSL_wolfSSL_wolfSSL/wolfssl/src/wolfio.c ****                             }
1215:Middlewares/Third_Party/wolfSSL_wolfSSL_wolfSSL/wolfssl/src/wolfio.c ****                             i++;
1216:Middlewares/Third_Party/wolfSSL_wolfSSL_wolfSSL/wolfssl/src/wolfio.c ****                         }
1217:Middlewares/Third_Party/wolfSSL_wolfSSL_wolfSSL/wolfssl/src/wolfio.c ****                         if (appStrList[i] == NULL) {
1218:Middlewares/Third_Party/wolfSSL_wolfSSL_wolfSSL/wolfssl/src/wolfio.c ****                             WOLFSSL_MSG("wolfIO_HttpProcessResponse appstr mismatch");
1219:Middlewares/Third_Party/wolfSSL_wolfSSL_wolfSSL/wolfssl/src/wolfio.c ****                             return -1;
1220:Middlewares/Third_Party/wolfSSL_wolfSSL_wolfSSL/wolfssl/src/wolfio.c ****                         }
1221:Middlewares/Third_Party/wolfSSL_wolfSSL_wolfSSL/wolfssl/src/wolfio.c ****                         state = (state == phr_http_start) ? phr_have_type : phr_wait_end;
1222:Middlewares/Third_Party/wolfSSL_wolfSSL_wolfSSL/wolfssl/src/wolfio.c ****                     }
1223:Middlewares/Third_Party/wolfSSL_wolfSSL_wolfSSL/wolfssl/src/wolfio.c ****                     else if (XSTRNCASECMP(start, "Content-Length:", 15) == 0) {
1224:Middlewares/Third_Party/wolfSSL_wolfSSL_wolfSSL/wolfssl/src/wolfio.c ****                         start += 15;
1225:Middlewares/Third_Party/wolfSSL_wolfSSL_wolfSSL/wolfssl/src/wolfio.c ****                         while (*start == ' ') start++;
1226:Middlewares/Third_Party/wolfSSL_wolfSSL_wolfSSL/wolfssl/src/wolfio.c ****                         chunkSz = XATOI(start);
ARM GAS  /tmp/ccACAaom.s 			page 23


1227:Middlewares/Third_Party/wolfSSL_wolfSSL_wolfSSL/wolfssl/src/wolfio.c ****                         state = (state == phr_http_start) ? phr_have_length : phr_wait_end;
1228:Middlewares/Third_Party/wolfSSL_wolfSSL_wolfSSL/wolfssl/src/wolfio.c ****                     }
1229:Middlewares/Third_Party/wolfSSL_wolfSSL_wolfSSL/wolfssl/src/wolfio.c ****                     else if (XSTRNCASECMP(start, "Transfer-Encoding:", 18) == 0) {
1230:Middlewares/Third_Party/wolfSSL_wolfSSL_wolfSSL/wolfssl/src/wolfio.c ****                         start += 18;
1231:Middlewares/Third_Party/wolfSSL_wolfSSL_wolfSSL/wolfssl/src/wolfio.c ****                         while (*start == ' ') start++;
1232:Middlewares/Third_Party/wolfSSL_wolfSSL_wolfSSL/wolfssl/src/wolfio.c ****                         if (XSTRNCASECMP(start, "chunked", 7) == 0) {
1233:Middlewares/Third_Party/wolfSSL_wolfSSL_wolfSSL/wolfssl/src/wolfio.c ****                             isChunked = 1;
1234:Middlewares/Third_Party/wolfSSL_wolfSSL_wolfSSL/wolfssl/src/wolfio.c ****                             state = (state == phr_http_start) ? phr_have_length : phr_wait_end;
1235:Middlewares/Third_Party/wolfSSL_wolfSSL_wolfSSL/wolfssl/src/wolfio.c ****                         }
1236:Middlewares/Third_Party/wolfSSL_wolfSSL_wolfSSL/wolfssl/src/wolfio.c ****                     }
1237:Middlewares/Third_Party/wolfSSL_wolfSSL_wolfSSL/wolfssl/src/wolfio.c ****                     break;
1238:Middlewares/Third_Party/wolfSSL_wolfSSL_wolfSSL/wolfssl/src/wolfio.c ****                 case phr_get_chunk_len:
1239:Middlewares/Third_Party/wolfSSL_wolfSSL_wolfSSL/wolfssl/src/wolfio.c ****                     chunkSz = (int)strtol(start, NULL, 16); /* hex format */
1240:Middlewares/Third_Party/wolfSSL_wolfSSL_wolfSSL/wolfssl/src/wolfio.c ****                     state = (chunkSz == 0) ? phr_http_end : phr_get_chunk_data;
1241:Middlewares/Third_Party/wolfSSL_wolfSSL_wolfSSL/wolfssl/src/wolfio.c ****                     break;
1242:Middlewares/Third_Party/wolfSSL_wolfSSL_wolfSSL/wolfssl/src/wolfio.c ****                 case phr_get_chunk_data:
1243:Middlewares/Third_Party/wolfSSL_wolfSSL_wolfSSL/wolfssl/src/wolfio.c ****                     /* processing for chunk data done above, since \r\n isn't required */
1244:Middlewares/Third_Party/wolfSSL_wolfSSL_wolfSSL/wolfssl/src/wolfio.c ****                 case phr_wait_end:
1245:Middlewares/Third_Party/wolfSSL_wolfSSL_wolfSSL/wolfssl/src/wolfio.c ****                 case phr_http_end:
1246:Middlewares/Third_Party/wolfSSL_wolfSSL_wolfSSL/wolfssl/src/wolfio.c ****                     /* do nothing */
1247:Middlewares/Third_Party/wolfSSL_wolfSSL_wolfSSL/wolfssl/src/wolfio.c ****                     break;
1248:Middlewares/Third_Party/wolfSSL_wolfSSL_wolfSSL/wolfssl/src/wolfio.c ****             } /* switch (state) */
1249:Middlewares/Third_Party/wolfSSL_wolfSSL_wolfSSL/wolfssl/src/wolfio.c **** 
1250:Middlewares/Third_Party/wolfSSL_wolfSSL_wolfSSL/wolfssl/src/wolfio.c ****             /* skip to end plus \r\n */
1251:Middlewares/Third_Party/wolfSSL_wolfSSL_wolfSSL/wolfssl/src/wolfio.c ****             start = end + 2;
1252:Middlewares/Third_Party/wolfSSL_wolfSSL_wolfSSL/wolfssl/src/wolfio.c ****         }
1253:Middlewares/Third_Party/wolfSSL_wolfSSL_wolfSSL/wolfssl/src/wolfio.c ****     } while (state != phr_http_end);
1254:Middlewares/Third_Party/wolfSSL_wolfSSL_wolfSSL/wolfssl/src/wolfio.c **** 
1255:Middlewares/Third_Party/wolfSSL_wolfSSL_wolfSSL/wolfssl/src/wolfio.c ****     if (!isChunked) {
1256:Middlewares/Third_Party/wolfSSL_wolfSSL_wolfSSL/wolfssl/src/wolfio.c ****         result = wolfIO_HttpProcessResponseBuf(sfd, respBuf, &respBufSz, chunkSz,
1257:Middlewares/Third_Party/wolfSSL_wolfSSL_wolfSSL/wolfssl/src/wolfio.c ****                                                     start, len, dynType, heap);
1258:Middlewares/Third_Party/wolfSSL_wolfSSL_wolfSSL/wolfssl/src/wolfio.c ****     }
1259:Middlewares/Third_Party/wolfSSL_wolfSSL_wolfSSL/wolfssl/src/wolfio.c **** 
1260:Middlewares/Third_Party/wolfSSL_wolfSSL_wolfSSL/wolfssl/src/wolfio.c ****     if (result >= 0) {
1261:Middlewares/Third_Party/wolfSSL_wolfSSL_wolfSSL/wolfssl/src/wolfio.c ****         result = respBufSz;
1262:Middlewares/Third_Party/wolfSSL_wolfSSL_wolfSSL/wolfssl/src/wolfio.c ****     }
1263:Middlewares/Third_Party/wolfSSL_wolfSSL_wolfSSL/wolfssl/src/wolfio.c ****     else {
1264:Middlewares/Third_Party/wolfSSL_wolfSSL_wolfSSL/wolfssl/src/wolfio.c ****         WOLFSSL_ERROR(result);
1265:Middlewares/Third_Party/wolfSSL_wolfSSL_wolfSSL/wolfssl/src/wolfio.c ****     }
1266:Middlewares/Third_Party/wolfSSL_wolfSSL_wolfSSL/wolfssl/src/wolfio.c **** 
1267:Middlewares/Third_Party/wolfSSL_wolfSSL_wolfSSL/wolfssl/src/wolfio.c ****     return result;
1268:Middlewares/Third_Party/wolfSSL_wolfSSL_wolfSSL/wolfssl/src/wolfio.c **** }
1269:Middlewares/Third_Party/wolfSSL_wolfSSL_wolfSSL/wolfssl/src/wolfio.c **** int wolfIO_HttpBuildRequest(const char *reqType, const char *domainName,
1270:Middlewares/Third_Party/wolfSSL_wolfSSL_wolfSSL/wolfssl/src/wolfio.c ****                                const char *path, int pathLen, int reqSz, const char *contentType,
1271:Middlewares/Third_Party/wolfSSL_wolfSSL_wolfSSL/wolfssl/src/wolfio.c ****                                byte *buf, int bufSize)
1272:Middlewares/Third_Party/wolfSSL_wolfSSL_wolfSSL/wolfssl/src/wolfio.c **** {
1273:Middlewares/Third_Party/wolfSSL_wolfSSL_wolfSSL/wolfssl/src/wolfio.c ****     return wolfIO_HttpBuildRequest_ex(reqType, domainName, path, pathLen, reqSz, contentType, "", b
1274:Middlewares/Third_Party/wolfSSL_wolfSSL_wolfSSL/wolfssl/src/wolfio.c **** }
1275:Middlewares/Third_Party/wolfSSL_wolfSSL_wolfSSL/wolfssl/src/wolfio.c **** 
1276:Middlewares/Third_Party/wolfSSL_wolfSSL_wolfSSL/wolfssl/src/wolfio.c ****     int wolfIO_HttpBuildRequest_ex(const char *reqType, const char *domainName,
1277:Middlewares/Third_Party/wolfSSL_wolfSSL_wolfSSL/wolfssl/src/wolfio.c ****                                 const char *path, int pathLen, int reqSz, const char *contentType,
1278:Middlewares/Third_Party/wolfSSL_wolfSSL_wolfSSL/wolfssl/src/wolfio.c ****                                 const char *exHdrs, byte *buf, int bufSize)
1279:Middlewares/Third_Party/wolfSSL_wolfSSL_wolfSSL/wolfssl/src/wolfio.c ****     {
1280:Middlewares/Third_Party/wolfSSL_wolfSSL_wolfSSL/wolfssl/src/wolfio.c ****     word32 reqTypeLen, domainNameLen, reqSzStrLen, contentTypeLen, exHdrsLen, maxLen;
1281:Middlewares/Third_Party/wolfSSL_wolfSSL_wolfSSL/wolfssl/src/wolfio.c ****     char reqSzStr[6];
1282:Middlewares/Third_Party/wolfSSL_wolfSSL_wolfSSL/wolfssl/src/wolfio.c ****     char* req = (char*)buf;
1283:Middlewares/Third_Party/wolfSSL_wolfSSL_wolfSSL/wolfssl/src/wolfio.c ****     const char* blankStr = " ";
ARM GAS  /tmp/ccACAaom.s 			page 24


1284:Middlewares/Third_Party/wolfSSL_wolfSSL_wolfSSL/wolfssl/src/wolfio.c ****     const char* http11Str = " HTTP/1.1";
1285:Middlewares/Third_Party/wolfSSL_wolfSSL_wolfSSL/wolfssl/src/wolfio.c ****     const char* hostStr = "\r\nHost: ";
1286:Middlewares/Third_Party/wolfSSL_wolfSSL_wolfSSL/wolfssl/src/wolfio.c ****     const char* contentLenStr = "\r\nContent-Length: ";
1287:Middlewares/Third_Party/wolfSSL_wolfSSL_wolfSSL/wolfssl/src/wolfio.c ****     const char* contentTypeStr = "\r\nContent-Type: ";
1288:Middlewares/Third_Party/wolfSSL_wolfSSL_wolfSSL/wolfssl/src/wolfio.c ****     const char* singleCrLfStr = "\r\n";
1289:Middlewares/Third_Party/wolfSSL_wolfSSL_wolfSSL/wolfssl/src/wolfio.c ****     const char* doubleCrLfStr = "\r\n\r\n";
1290:Middlewares/Third_Party/wolfSSL_wolfSSL_wolfSSL/wolfssl/src/wolfio.c ****     word32 blankStrLen, http11StrLen, hostStrLen, contentLenStrLen,
1291:Middlewares/Third_Party/wolfSSL_wolfSSL_wolfSSL/wolfssl/src/wolfio.c ****         contentTypeStrLen, singleCrLfStrLen, doubleCrLfStrLen;
1292:Middlewares/Third_Party/wolfSSL_wolfSSL_wolfSSL/wolfssl/src/wolfio.c **** 
1293:Middlewares/Third_Party/wolfSSL_wolfSSL_wolfSSL/wolfssl/src/wolfio.c ****     reqTypeLen = (word32)XSTRLEN(reqType);
1294:Middlewares/Third_Party/wolfSSL_wolfSSL_wolfSSL/wolfssl/src/wolfio.c ****     domainNameLen = (word32)XSTRLEN(domainName);
1295:Middlewares/Third_Party/wolfSSL_wolfSSL_wolfSSL/wolfssl/src/wolfio.c ****     reqSzStrLen = wolfIO_Word16ToString(reqSzStr, (word16)reqSz);
1296:Middlewares/Third_Party/wolfSSL_wolfSSL_wolfSSL/wolfssl/src/wolfio.c ****     contentTypeLen = (word32)XSTRLEN(contentType);
1297:Middlewares/Third_Party/wolfSSL_wolfSSL_wolfSSL/wolfssl/src/wolfio.c **** 
1298:Middlewares/Third_Party/wolfSSL_wolfSSL_wolfSSL/wolfssl/src/wolfio.c ****     blankStrLen = (word32)XSTRLEN(blankStr);
1299:Middlewares/Third_Party/wolfSSL_wolfSSL_wolfSSL/wolfssl/src/wolfio.c ****     http11StrLen = (word32)XSTRLEN(http11Str);
1300:Middlewares/Third_Party/wolfSSL_wolfSSL_wolfSSL/wolfssl/src/wolfio.c ****     hostStrLen = (word32)XSTRLEN(hostStr);
1301:Middlewares/Third_Party/wolfSSL_wolfSSL_wolfSSL/wolfssl/src/wolfio.c ****     contentLenStrLen = (word32)XSTRLEN(contentLenStr);
1302:Middlewares/Third_Party/wolfSSL_wolfSSL_wolfSSL/wolfssl/src/wolfio.c ****     contentTypeStrLen = (word32)XSTRLEN(contentTypeStr);
1303:Middlewares/Third_Party/wolfSSL_wolfSSL_wolfSSL/wolfssl/src/wolfio.c **** 
1304:Middlewares/Third_Party/wolfSSL_wolfSSL_wolfSSL/wolfssl/src/wolfio.c ****     if(exHdrs){
1305:Middlewares/Third_Party/wolfSSL_wolfSSL_wolfSSL/wolfssl/src/wolfio.c ****         singleCrLfStrLen = (word32)XSTRLEN(singleCrLfStr);
1306:Middlewares/Third_Party/wolfSSL_wolfSSL_wolfSSL/wolfssl/src/wolfio.c ****         exHdrsLen = (word32)XSTRLEN(exHdrs);
1307:Middlewares/Third_Party/wolfSSL_wolfSSL_wolfSSL/wolfssl/src/wolfio.c ****     } else {
1308:Middlewares/Third_Party/wolfSSL_wolfSSL_wolfSSL/wolfssl/src/wolfio.c ****         singleCrLfStrLen = 0;
1309:Middlewares/Third_Party/wolfSSL_wolfSSL_wolfSSL/wolfssl/src/wolfio.c ****         exHdrsLen = 0;
1310:Middlewares/Third_Party/wolfSSL_wolfSSL_wolfSSL/wolfssl/src/wolfio.c ****     }
1311:Middlewares/Third_Party/wolfSSL_wolfSSL_wolfSSL/wolfssl/src/wolfio.c **** 
1312:Middlewares/Third_Party/wolfSSL_wolfSSL_wolfSSL/wolfssl/src/wolfio.c ****     doubleCrLfStrLen = (word32)XSTRLEN(doubleCrLfStr);
1313:Middlewares/Third_Party/wolfSSL_wolfSSL_wolfSSL/wolfssl/src/wolfio.c **** 
1314:Middlewares/Third_Party/wolfSSL_wolfSSL_wolfSSL/wolfssl/src/wolfio.c ****     /* determine max length and check it */
1315:Middlewares/Third_Party/wolfSSL_wolfSSL_wolfSSL/wolfssl/src/wolfio.c ****     maxLen =
1316:Middlewares/Third_Party/wolfSSL_wolfSSL_wolfSSL/wolfssl/src/wolfio.c ****         reqTypeLen +
1317:Middlewares/Third_Party/wolfSSL_wolfSSL_wolfSSL/wolfssl/src/wolfio.c ****         blankStrLen +
1318:Middlewares/Third_Party/wolfSSL_wolfSSL_wolfSSL/wolfssl/src/wolfio.c ****         pathLen +
1319:Middlewares/Third_Party/wolfSSL_wolfSSL_wolfSSL/wolfssl/src/wolfio.c ****         http11StrLen +
1320:Middlewares/Third_Party/wolfSSL_wolfSSL_wolfSSL/wolfssl/src/wolfio.c ****         hostStrLen +
1321:Middlewares/Third_Party/wolfSSL_wolfSSL_wolfSSL/wolfssl/src/wolfio.c ****         domainNameLen +
1322:Middlewares/Third_Party/wolfSSL_wolfSSL_wolfSSL/wolfssl/src/wolfio.c ****         contentLenStrLen +
1323:Middlewares/Third_Party/wolfSSL_wolfSSL_wolfSSL/wolfssl/src/wolfio.c ****         reqSzStrLen +
1324:Middlewares/Third_Party/wolfSSL_wolfSSL_wolfSSL/wolfssl/src/wolfio.c ****         contentTypeStrLen +
1325:Middlewares/Third_Party/wolfSSL_wolfSSL_wolfSSL/wolfssl/src/wolfio.c ****         contentTypeLen +
1326:Middlewares/Third_Party/wolfSSL_wolfSSL_wolfSSL/wolfssl/src/wolfio.c ****         singleCrLfStrLen +
1327:Middlewares/Third_Party/wolfSSL_wolfSSL_wolfSSL/wolfssl/src/wolfio.c ****         exHdrsLen +
1328:Middlewares/Third_Party/wolfSSL_wolfSSL_wolfSSL/wolfssl/src/wolfio.c ****         doubleCrLfStrLen +
1329:Middlewares/Third_Party/wolfSSL_wolfSSL_wolfSSL/wolfssl/src/wolfio.c ****         1 /* null term */;
1330:Middlewares/Third_Party/wolfSSL_wolfSSL_wolfSSL/wolfssl/src/wolfio.c ****     if (maxLen > (word32)bufSize)
1331:Middlewares/Third_Party/wolfSSL_wolfSSL_wolfSSL/wolfssl/src/wolfio.c ****         return 0;
1332:Middlewares/Third_Party/wolfSSL_wolfSSL_wolfSSL/wolfssl/src/wolfio.c **** 
1333:Middlewares/Third_Party/wolfSSL_wolfSSL_wolfSSL/wolfssl/src/wolfio.c ****     XSTRNCPY((char*)buf, reqType, bufSize);
1334:Middlewares/Third_Party/wolfSSL_wolfSSL_wolfSSL/wolfssl/src/wolfio.c ****     buf += reqTypeLen; bufSize -= reqTypeLen;
1335:Middlewares/Third_Party/wolfSSL_wolfSSL_wolfSSL/wolfssl/src/wolfio.c ****     XSTRNCPY((char*)buf, blankStr, bufSize);
1336:Middlewares/Third_Party/wolfSSL_wolfSSL_wolfSSL/wolfssl/src/wolfio.c ****     buf += blankStrLen; bufSize -= blankStrLen;
1337:Middlewares/Third_Party/wolfSSL_wolfSSL_wolfSSL/wolfssl/src/wolfio.c ****     XSTRNCPY((char*)buf, path, bufSize);
1338:Middlewares/Third_Party/wolfSSL_wolfSSL_wolfSSL/wolfssl/src/wolfio.c ****     buf += pathLen; bufSize -= pathLen;
1339:Middlewares/Third_Party/wolfSSL_wolfSSL_wolfSSL/wolfssl/src/wolfio.c ****     XSTRNCPY((char*)buf, http11Str, bufSize);
1340:Middlewares/Third_Party/wolfSSL_wolfSSL_wolfSSL/wolfssl/src/wolfio.c ****     buf += http11StrLen; bufSize -= http11StrLen;
ARM GAS  /tmp/ccACAaom.s 			page 25


1341:Middlewares/Third_Party/wolfSSL_wolfSSL_wolfSSL/wolfssl/src/wolfio.c ****     if (domainNameLen > 0) {
1342:Middlewares/Third_Party/wolfSSL_wolfSSL_wolfSSL/wolfssl/src/wolfio.c ****         XSTRNCPY((char*)buf, hostStr, bufSize);
1343:Middlewares/Third_Party/wolfSSL_wolfSSL_wolfSSL/wolfssl/src/wolfio.c ****         buf += hostStrLen; bufSize -= hostStrLen;
1344:Middlewares/Third_Party/wolfSSL_wolfSSL_wolfSSL/wolfssl/src/wolfio.c ****         XSTRNCPY((char*)buf, domainName, bufSize);
1345:Middlewares/Third_Party/wolfSSL_wolfSSL_wolfSSL/wolfssl/src/wolfio.c ****         buf += domainNameLen; bufSize -= domainNameLen;
1346:Middlewares/Third_Party/wolfSSL_wolfSSL_wolfSSL/wolfssl/src/wolfio.c ****     }
1347:Middlewares/Third_Party/wolfSSL_wolfSSL_wolfSSL/wolfssl/src/wolfio.c ****     if (reqSz > 0 && reqSzStrLen > 0) {
1348:Middlewares/Third_Party/wolfSSL_wolfSSL_wolfSSL/wolfssl/src/wolfio.c ****         XSTRNCPY((char*)buf, contentLenStr, bufSize);
1349:Middlewares/Third_Party/wolfSSL_wolfSSL_wolfSSL/wolfssl/src/wolfio.c ****         buf += contentLenStrLen; bufSize -= contentLenStrLen;
1350:Middlewares/Third_Party/wolfSSL_wolfSSL_wolfSSL/wolfssl/src/wolfio.c ****         XSTRNCPY((char*)buf, reqSzStr, bufSize);
1351:Middlewares/Third_Party/wolfSSL_wolfSSL_wolfSSL/wolfssl/src/wolfio.c ****         buf += reqSzStrLen; bufSize -= reqSzStrLen;
1352:Middlewares/Third_Party/wolfSSL_wolfSSL_wolfSSL/wolfssl/src/wolfio.c ****     }
1353:Middlewares/Third_Party/wolfSSL_wolfSSL_wolfSSL/wolfssl/src/wolfio.c ****     if (contentTypeLen > 0) {
1354:Middlewares/Third_Party/wolfSSL_wolfSSL_wolfSSL/wolfssl/src/wolfio.c ****         XSTRNCPY((char*)buf, contentTypeStr, bufSize);
1355:Middlewares/Third_Party/wolfSSL_wolfSSL_wolfSSL/wolfssl/src/wolfio.c ****         buf += contentTypeStrLen; bufSize -= contentTypeStrLen;
1356:Middlewares/Third_Party/wolfSSL_wolfSSL_wolfSSL/wolfssl/src/wolfio.c ****         XSTRNCPY((char*)buf, contentType, bufSize);
1357:Middlewares/Third_Party/wolfSSL_wolfSSL_wolfSSL/wolfssl/src/wolfio.c ****         buf += contentTypeLen; bufSize -= contentTypeLen;
1358:Middlewares/Third_Party/wolfSSL_wolfSSL_wolfSSL/wolfssl/src/wolfio.c ****     }
1359:Middlewares/Third_Party/wolfSSL_wolfSSL_wolfSSL/wolfssl/src/wolfio.c ****     if (exHdrsLen > 0)
1360:Middlewares/Third_Party/wolfSSL_wolfSSL_wolfSSL/wolfssl/src/wolfio.c ****     {
1361:Middlewares/Third_Party/wolfSSL_wolfSSL_wolfSSL/wolfssl/src/wolfio.c ****         XSTRNCPY((char *)buf, singleCrLfStr, bufSize);
1362:Middlewares/Third_Party/wolfSSL_wolfSSL_wolfSSL/wolfssl/src/wolfio.c ****         buf += singleCrLfStrLen;
1363:Middlewares/Third_Party/wolfSSL_wolfSSL_wolfSSL/wolfssl/src/wolfio.c ****         bufSize -= singleCrLfStrLen;
1364:Middlewares/Third_Party/wolfSSL_wolfSSL_wolfSSL/wolfssl/src/wolfio.c ****         XSTRNCPY((char *)buf, exHdrs, bufSize);
1365:Middlewares/Third_Party/wolfSSL_wolfSSL_wolfSSL/wolfssl/src/wolfio.c ****         buf += exHdrsLen;
1366:Middlewares/Third_Party/wolfSSL_wolfSSL_wolfSSL/wolfssl/src/wolfio.c ****         bufSize -= exHdrsLen;
1367:Middlewares/Third_Party/wolfSSL_wolfSSL_wolfSSL/wolfssl/src/wolfio.c ****     }
1368:Middlewares/Third_Party/wolfSSL_wolfSSL_wolfSSL/wolfssl/src/wolfio.c ****     XSTRNCPY((char*)buf, doubleCrLfStr, bufSize);
1369:Middlewares/Third_Party/wolfSSL_wolfSSL_wolfSSL/wolfssl/src/wolfio.c ****     buf += doubleCrLfStrLen;
1370:Middlewares/Third_Party/wolfSSL_wolfSSL_wolfSSL/wolfssl/src/wolfio.c **** 
1371:Middlewares/Third_Party/wolfSSL_wolfSSL_wolfSSL/wolfssl/src/wolfio.c **** #ifdef WOLFIO_DEBUG
1372:Middlewares/Third_Party/wolfSSL_wolfSSL_wolfSSL/wolfssl/src/wolfio.c ****     printf("HTTP %s: %s", reqType, req);
1373:Middlewares/Third_Party/wolfSSL_wolfSSL_wolfSSL/wolfssl/src/wolfio.c **** #endif
1374:Middlewares/Third_Party/wolfSSL_wolfSSL_wolfSSL/wolfssl/src/wolfio.c **** 
1375:Middlewares/Third_Party/wolfSSL_wolfSSL_wolfSSL/wolfssl/src/wolfio.c ****     /* calculate actual length based on original and new pointer */
1376:Middlewares/Third_Party/wolfSSL_wolfSSL_wolfSSL/wolfssl/src/wolfio.c ****     return (int)((char*)buf - req);
1377:Middlewares/Third_Party/wolfSSL_wolfSSL_wolfSSL/wolfssl/src/wolfio.c **** }
1378:Middlewares/Third_Party/wolfSSL_wolfSSL_wolfSSL/wolfssl/src/wolfio.c **** 
1379:Middlewares/Third_Party/wolfSSL_wolfSSL_wolfSSL/wolfssl/src/wolfio.c **** 
1380:Middlewares/Third_Party/wolfSSL_wolfSSL_wolfSSL/wolfssl/src/wolfio.c **** #ifdef HAVE_OCSP
1381:Middlewares/Third_Party/wolfSSL_wolfSSL_wolfSSL/wolfssl/src/wolfio.c **** 
1382:Middlewares/Third_Party/wolfSSL_wolfSSL_wolfSSL/wolfssl/src/wolfio.c **** int wolfIO_HttpBuildRequestOcsp(const char* domainName, const char* path,
1383:Middlewares/Third_Party/wolfSSL_wolfSSL_wolfSSL/wolfssl/src/wolfio.c ****                                     int ocspReqSz, byte* buf, int bufSize)
1384:Middlewares/Third_Party/wolfSSL_wolfSSL_wolfSSL/wolfssl/src/wolfio.c **** {
1385:Middlewares/Third_Party/wolfSSL_wolfSSL_wolfSSL/wolfssl/src/wolfio.c ****     const char *cacheCtl = "Cache-Control: no-cache";
1386:Middlewares/Third_Party/wolfSSL_wolfSSL_wolfSSL/wolfssl/src/wolfio.c ****     return wolfIO_HttpBuildRequest_ex("POST", domainName, path, (int)XSTRLEN(path),
1387:Middlewares/Third_Party/wolfSSL_wolfSSL_wolfSSL/wolfssl/src/wolfio.c ****         ocspReqSz, "application/ocsp-request", cacheCtl, buf, bufSize);
1388:Middlewares/Third_Party/wolfSSL_wolfSSL_wolfSSL/wolfssl/src/wolfio.c **** }
1389:Middlewares/Third_Party/wolfSSL_wolfSSL_wolfSSL/wolfssl/src/wolfio.c **** 
1390:Middlewares/Third_Party/wolfSSL_wolfSSL_wolfSSL/wolfssl/src/wolfio.c **** /* return: >0 OCSP Response Size
1391:Middlewares/Third_Party/wolfSSL_wolfSSL_wolfSSL/wolfssl/src/wolfio.c ****  *         -1 error */
1392:Middlewares/Third_Party/wolfSSL_wolfSSL_wolfSSL/wolfssl/src/wolfio.c **** int wolfIO_HttpProcessResponseOcsp(int sfd, byte** respBuf,
1393:Middlewares/Third_Party/wolfSSL_wolfSSL_wolfSSL/wolfssl/src/wolfio.c ****                                        byte* httpBuf, int httpBufSz, void* heap)
1394:Middlewares/Third_Party/wolfSSL_wolfSSL_wolfSSL/wolfssl/src/wolfio.c **** {
1395:Middlewares/Third_Party/wolfSSL_wolfSSL_wolfSSL/wolfssl/src/wolfio.c ****     const char* appStrList[] = {
1396:Middlewares/Third_Party/wolfSSL_wolfSSL_wolfSSL/wolfssl/src/wolfio.c ****         "application/ocsp-response",
1397:Middlewares/Third_Party/wolfSSL_wolfSSL_wolfSSL/wolfssl/src/wolfio.c ****         NULL
ARM GAS  /tmp/ccACAaom.s 			page 26


1398:Middlewares/Third_Party/wolfSSL_wolfSSL_wolfSSL/wolfssl/src/wolfio.c ****     };
1399:Middlewares/Third_Party/wolfSSL_wolfSSL_wolfSSL/wolfssl/src/wolfio.c **** 
1400:Middlewares/Third_Party/wolfSSL_wolfSSL_wolfSSL/wolfssl/src/wolfio.c ****     return wolfIO_HttpProcessResponse(sfd, appStrList,
1401:Middlewares/Third_Party/wolfSSL_wolfSSL_wolfSSL/wolfssl/src/wolfio.c ****         respBuf, httpBuf, httpBufSz, DYNAMIC_TYPE_OCSP, heap);
1402:Middlewares/Third_Party/wolfSSL_wolfSSL_wolfSSL/wolfssl/src/wolfio.c **** }
1403:Middlewares/Third_Party/wolfSSL_wolfSSL_wolfSSL/wolfssl/src/wolfio.c **** 
1404:Middlewares/Third_Party/wolfSSL_wolfSSL_wolfSSL/wolfssl/src/wolfio.c **** /* in default wolfSSL callback ctx is the heap pointer */
1405:Middlewares/Third_Party/wolfSSL_wolfSSL_wolfSSL/wolfssl/src/wolfio.c **** int EmbedOcspLookup(void* ctx, const char* url, int urlSz,
1406:Middlewares/Third_Party/wolfSSL_wolfSSL_wolfSSL/wolfssl/src/wolfio.c ****                         byte* ocspReqBuf, int ocspReqSz, byte** ocspRespBuf)
1407:Middlewares/Third_Party/wolfSSL_wolfSSL_wolfSSL/wolfssl/src/wolfio.c **** {
1408:Middlewares/Third_Party/wolfSSL_wolfSSL_wolfSSL/wolfssl/src/wolfio.c ****     SOCKET_T sfd = SOCKET_INVALID;
1409:Middlewares/Third_Party/wolfSSL_wolfSSL_wolfSSL/wolfssl/src/wolfio.c ****     word16   port;
1410:Middlewares/Third_Party/wolfSSL_wolfSSL_wolfSSL/wolfssl/src/wolfio.c ****     int      ret = -1;
1411:Middlewares/Third_Party/wolfSSL_wolfSSL_wolfSSL/wolfssl/src/wolfio.c **** #ifdef WOLFSSL_SMALL_STACK
1412:Middlewares/Third_Party/wolfSSL_wolfSSL_wolfSSL/wolfssl/src/wolfio.c ****     char*    path;
1413:Middlewares/Third_Party/wolfSSL_wolfSSL_wolfSSL/wolfssl/src/wolfio.c ****     char*    domainName;
1414:Middlewares/Third_Party/wolfSSL_wolfSSL_wolfSSL/wolfssl/src/wolfio.c **** #else
1415:Middlewares/Third_Party/wolfSSL_wolfSSL_wolfSSL/wolfssl/src/wolfio.c ****     char     path[MAX_URL_ITEM_SIZE];
1416:Middlewares/Third_Party/wolfSSL_wolfSSL_wolfSSL/wolfssl/src/wolfio.c ****     char     domainName[MAX_URL_ITEM_SIZE];
1417:Middlewares/Third_Party/wolfSSL_wolfSSL_wolfSSL/wolfssl/src/wolfio.c **** #endif
1418:Middlewares/Third_Party/wolfSSL_wolfSSL_wolfSSL/wolfssl/src/wolfio.c **** 
1419:Middlewares/Third_Party/wolfSSL_wolfSSL_wolfSSL/wolfssl/src/wolfio.c **** #ifdef WOLFSSL_SMALL_STACK
1420:Middlewares/Third_Party/wolfSSL_wolfSSL_wolfSSL/wolfssl/src/wolfio.c ****     path = (char*)XMALLOC(MAX_URL_ITEM_SIZE, NULL, DYNAMIC_TYPE_TMP_BUFFER);
1421:Middlewares/Third_Party/wolfSSL_wolfSSL_wolfSSL/wolfssl/src/wolfio.c ****     if (path == NULL)
1422:Middlewares/Third_Party/wolfSSL_wolfSSL_wolfSSL/wolfssl/src/wolfio.c ****         return MEMORY_E;
1423:Middlewares/Third_Party/wolfSSL_wolfSSL_wolfSSL/wolfssl/src/wolfio.c **** 
1424:Middlewares/Third_Party/wolfSSL_wolfSSL_wolfSSL/wolfssl/src/wolfio.c ****     domainName = (char*)XMALLOC(MAX_URL_ITEM_SIZE, NULL,
1425:Middlewares/Third_Party/wolfSSL_wolfSSL_wolfSSL/wolfssl/src/wolfio.c ****             DYNAMIC_TYPE_TMP_BUFFER);
1426:Middlewares/Third_Party/wolfSSL_wolfSSL_wolfSSL/wolfssl/src/wolfio.c ****     if (domainName == NULL) {
1427:Middlewares/Third_Party/wolfSSL_wolfSSL_wolfSSL/wolfssl/src/wolfio.c ****         XFREE(path, NULL, DYNAMIC_TYPE_TMP_BUFFER);
1428:Middlewares/Third_Party/wolfSSL_wolfSSL_wolfSSL/wolfssl/src/wolfio.c ****         return MEMORY_E;
1429:Middlewares/Third_Party/wolfSSL_wolfSSL_wolfSSL/wolfssl/src/wolfio.c ****     }
1430:Middlewares/Third_Party/wolfSSL_wolfSSL_wolfSSL/wolfssl/src/wolfio.c **** #endif
1431:Middlewares/Third_Party/wolfSSL_wolfSSL_wolfSSL/wolfssl/src/wolfio.c **** 
1432:Middlewares/Third_Party/wolfSSL_wolfSSL_wolfSSL/wolfssl/src/wolfio.c ****     if (ocspReqBuf == NULL || ocspReqSz == 0) {
1433:Middlewares/Third_Party/wolfSSL_wolfSSL_wolfSSL/wolfssl/src/wolfio.c ****         WOLFSSL_MSG("OCSP request is required for lookup");
1434:Middlewares/Third_Party/wolfSSL_wolfSSL_wolfSSL/wolfssl/src/wolfio.c ****     }
1435:Middlewares/Third_Party/wolfSSL_wolfSSL_wolfSSL/wolfssl/src/wolfio.c ****     else if (ocspRespBuf == NULL) {
1436:Middlewares/Third_Party/wolfSSL_wolfSSL_wolfSSL/wolfssl/src/wolfio.c ****         WOLFSSL_MSG("Cannot save OCSP response");
1437:Middlewares/Third_Party/wolfSSL_wolfSSL_wolfSSL/wolfssl/src/wolfio.c ****     }
1438:Middlewares/Third_Party/wolfSSL_wolfSSL_wolfSSL/wolfssl/src/wolfio.c ****     else if (wolfIO_DecodeUrl(url, urlSz, domainName, path, &port) < 0) {
1439:Middlewares/Third_Party/wolfSSL_wolfSSL_wolfSSL/wolfssl/src/wolfio.c ****         WOLFSSL_MSG("Unable to decode OCSP URL");
1440:Middlewares/Third_Party/wolfSSL_wolfSSL_wolfSSL/wolfssl/src/wolfio.c ****     }
1441:Middlewares/Third_Party/wolfSSL_wolfSSL_wolfSSL/wolfssl/src/wolfio.c ****     else {
1442:Middlewares/Third_Party/wolfSSL_wolfSSL_wolfSSL/wolfssl/src/wolfio.c ****         /* Note, the library uses the EmbedOcspRespFree() callback to
1443:Middlewares/Third_Party/wolfSSL_wolfSSL_wolfSSL/wolfssl/src/wolfio.c ****          * free this buffer. */
1444:Middlewares/Third_Party/wolfSSL_wolfSSL_wolfSSL/wolfssl/src/wolfio.c ****         int   httpBufSz = HTTP_SCRATCH_BUFFER_SIZE;
1445:Middlewares/Third_Party/wolfSSL_wolfSSL_wolfSSL/wolfssl/src/wolfio.c ****         byte* httpBuf   = (byte*)XMALLOC(httpBufSz, ctx, DYNAMIC_TYPE_OCSP);
1446:Middlewares/Third_Party/wolfSSL_wolfSSL_wolfSSL/wolfssl/src/wolfio.c **** 
1447:Middlewares/Third_Party/wolfSSL_wolfSSL_wolfSSL/wolfssl/src/wolfio.c ****         if (httpBuf == NULL) {
1448:Middlewares/Third_Party/wolfSSL_wolfSSL_wolfSSL/wolfssl/src/wolfio.c ****             WOLFSSL_MSG("Unable to create OCSP response buffer");
1449:Middlewares/Third_Party/wolfSSL_wolfSSL_wolfSSL/wolfssl/src/wolfio.c ****         }
1450:Middlewares/Third_Party/wolfSSL_wolfSSL_wolfSSL/wolfssl/src/wolfio.c ****         else {
1451:Middlewares/Third_Party/wolfSSL_wolfSSL_wolfSSL/wolfssl/src/wolfio.c ****             httpBufSz = wolfIO_HttpBuildRequestOcsp(domainName, path, ocspReqSz,
1452:Middlewares/Third_Party/wolfSSL_wolfSSL_wolfSSL/wolfssl/src/wolfio.c ****                                                             httpBuf, httpBufSz);
1453:Middlewares/Third_Party/wolfSSL_wolfSSL_wolfSSL/wolfssl/src/wolfio.c **** 
1454:Middlewares/Third_Party/wolfSSL_wolfSSL_wolfSSL/wolfssl/src/wolfio.c ****             ret = wolfIO_TcpConnect(&sfd, domainName, port, io_timeout_sec);
ARM GAS  /tmp/ccACAaom.s 			page 27


1455:Middlewares/Third_Party/wolfSSL_wolfSSL_wolfSSL/wolfssl/src/wolfio.c ****             if (ret != 0) {
1456:Middlewares/Third_Party/wolfSSL_wolfSSL_wolfSSL/wolfssl/src/wolfio.c ****                 WOLFSSL_MSG("OCSP Responder connection failed");
1457:Middlewares/Third_Party/wolfSSL_wolfSSL_wolfSSL/wolfssl/src/wolfio.c ****             }
1458:Middlewares/Third_Party/wolfSSL_wolfSSL_wolfSSL/wolfssl/src/wolfio.c ****             else if (wolfIO_Send(sfd, (char*)httpBuf, httpBufSz, 0) !=
1459:Middlewares/Third_Party/wolfSSL_wolfSSL_wolfSSL/wolfssl/src/wolfio.c ****                                                                     httpBufSz) {
1460:Middlewares/Third_Party/wolfSSL_wolfSSL_wolfSSL/wolfssl/src/wolfio.c ****                 WOLFSSL_MSG("OCSP http request failed");
1461:Middlewares/Third_Party/wolfSSL_wolfSSL_wolfSSL/wolfssl/src/wolfio.c ****             }
1462:Middlewares/Third_Party/wolfSSL_wolfSSL_wolfSSL/wolfssl/src/wolfio.c ****             else if (wolfIO_Send(sfd, (char*)ocspReqBuf, ocspReqSz, 0) !=
1463:Middlewares/Third_Party/wolfSSL_wolfSSL_wolfSSL/wolfssl/src/wolfio.c ****                                                                     ocspReqSz) {
1464:Middlewares/Third_Party/wolfSSL_wolfSSL_wolfSSL/wolfssl/src/wolfio.c ****                 WOLFSSL_MSG("OCSP ocsp request failed");
1465:Middlewares/Third_Party/wolfSSL_wolfSSL_wolfSSL/wolfssl/src/wolfio.c ****             }
1466:Middlewares/Third_Party/wolfSSL_wolfSSL_wolfSSL/wolfssl/src/wolfio.c ****             else {
1467:Middlewares/Third_Party/wolfSSL_wolfSSL_wolfSSL/wolfssl/src/wolfio.c ****                 ret = wolfIO_HttpProcessResponseOcsp(sfd, ocspRespBuf, httpBuf,
1468:Middlewares/Third_Party/wolfSSL_wolfSSL_wolfSSL/wolfssl/src/wolfio.c ****                                                  HTTP_SCRATCH_BUFFER_SIZE, ctx);
1469:Middlewares/Third_Party/wolfSSL_wolfSSL_wolfSSL/wolfssl/src/wolfio.c ****             }
1470:Middlewares/Third_Party/wolfSSL_wolfSSL_wolfSSL/wolfssl/src/wolfio.c ****             if (sfd != SOCKET_INVALID)
1471:Middlewares/Third_Party/wolfSSL_wolfSSL_wolfSSL/wolfssl/src/wolfio.c ****                 CloseSocket(sfd);
1472:Middlewares/Third_Party/wolfSSL_wolfSSL_wolfSSL/wolfssl/src/wolfio.c ****             XFREE(httpBuf, ctx, DYNAMIC_TYPE_OCSP);
1473:Middlewares/Third_Party/wolfSSL_wolfSSL_wolfSSL/wolfssl/src/wolfio.c ****         }
1474:Middlewares/Third_Party/wolfSSL_wolfSSL_wolfSSL/wolfssl/src/wolfio.c ****     }
1475:Middlewares/Third_Party/wolfSSL_wolfSSL_wolfSSL/wolfssl/src/wolfio.c **** 
1476:Middlewares/Third_Party/wolfSSL_wolfSSL_wolfSSL/wolfssl/src/wolfio.c **** #ifdef WOLFSSL_SMALL_STACK
1477:Middlewares/Third_Party/wolfSSL_wolfSSL_wolfSSL/wolfssl/src/wolfio.c ****     XFREE(path,       NULL, DYNAMIC_TYPE_TMP_BUFFER);
1478:Middlewares/Third_Party/wolfSSL_wolfSSL_wolfSSL/wolfssl/src/wolfio.c ****     XFREE(domainName, NULL, DYNAMIC_TYPE_TMP_BUFFER);
1479:Middlewares/Third_Party/wolfSSL_wolfSSL_wolfSSL/wolfssl/src/wolfio.c **** #endif
1480:Middlewares/Third_Party/wolfSSL_wolfSSL_wolfSSL/wolfssl/src/wolfio.c **** 
1481:Middlewares/Third_Party/wolfSSL_wolfSSL_wolfSSL/wolfssl/src/wolfio.c ****     return ret;
1482:Middlewares/Third_Party/wolfSSL_wolfSSL_wolfSSL/wolfssl/src/wolfio.c **** }
1483:Middlewares/Third_Party/wolfSSL_wolfSSL_wolfSSL/wolfssl/src/wolfio.c **** 
1484:Middlewares/Third_Party/wolfSSL_wolfSSL_wolfSSL/wolfssl/src/wolfio.c **** /* in default callback ctx is heap hint */
1485:Middlewares/Third_Party/wolfSSL_wolfSSL_wolfSSL/wolfssl/src/wolfio.c **** void EmbedOcspRespFree(void* ctx, byte *resp)
1486:Middlewares/Third_Party/wolfSSL_wolfSSL_wolfSSL/wolfssl/src/wolfio.c **** {
1487:Middlewares/Third_Party/wolfSSL_wolfSSL_wolfSSL/wolfssl/src/wolfio.c ****     if (resp)
1488:Middlewares/Third_Party/wolfSSL_wolfSSL_wolfSSL/wolfssl/src/wolfio.c ****         XFREE(resp, ctx, DYNAMIC_TYPE_OCSP);
1489:Middlewares/Third_Party/wolfSSL_wolfSSL_wolfSSL/wolfssl/src/wolfio.c **** 
1490:Middlewares/Third_Party/wolfSSL_wolfSSL_wolfSSL/wolfssl/src/wolfio.c ****     (void)ctx;
1491:Middlewares/Third_Party/wolfSSL_wolfSSL_wolfSSL/wolfssl/src/wolfio.c **** }
1492:Middlewares/Third_Party/wolfSSL_wolfSSL_wolfSSL/wolfssl/src/wolfio.c **** #endif /* HAVE_OCSP */
1493:Middlewares/Third_Party/wolfSSL_wolfSSL_wolfSSL/wolfssl/src/wolfio.c **** 
1494:Middlewares/Third_Party/wolfSSL_wolfSSL_wolfSSL/wolfssl/src/wolfio.c **** 
1495:Middlewares/Third_Party/wolfSSL_wolfSSL_wolfSSL/wolfssl/src/wolfio.c **** #if defined(HAVE_CRL) && defined(HAVE_CRL_IO)
1496:Middlewares/Third_Party/wolfSSL_wolfSSL_wolfSSL/wolfssl/src/wolfio.c **** 
1497:Middlewares/Third_Party/wolfSSL_wolfSSL_wolfSSL/wolfssl/src/wolfio.c **** int wolfIO_HttpBuildRequestCrl(const char* url, int urlSz,
1498:Middlewares/Third_Party/wolfSSL_wolfSSL_wolfSSL/wolfssl/src/wolfio.c ****     const char* domainName, byte* buf, int bufSize)
1499:Middlewares/Third_Party/wolfSSL_wolfSSL_wolfSSL/wolfssl/src/wolfio.c **** {
1500:Middlewares/Third_Party/wolfSSL_wolfSSL_wolfSSL/wolfssl/src/wolfio.c ****     const char *cacheCtl = "Cache-Control: no-cache";
1501:Middlewares/Third_Party/wolfSSL_wolfSSL_wolfSSL/wolfssl/src/wolfio.c ****     return wolfIO_HttpBuildRequest_ex("GET", domainName, url, urlSz, 0, "",
1502:Middlewares/Third_Party/wolfSSL_wolfSSL_wolfSSL/wolfssl/src/wolfio.c ****                                    cacheCtl, buf, bufSize);
1503:Middlewares/Third_Party/wolfSSL_wolfSSL_wolfSSL/wolfssl/src/wolfio.c **** }
1504:Middlewares/Third_Party/wolfSSL_wolfSSL_wolfSSL/wolfssl/src/wolfio.c **** 
1505:Middlewares/Third_Party/wolfSSL_wolfSSL_wolfSSL/wolfssl/src/wolfio.c **** int wolfIO_HttpProcessResponseCrl(WOLFSSL_CRL* crl, int sfd, byte* httpBuf,
1506:Middlewares/Third_Party/wolfSSL_wolfSSL_wolfSSL/wolfssl/src/wolfio.c ****     int httpBufSz)
1507:Middlewares/Third_Party/wolfSSL_wolfSSL_wolfSSL/wolfssl/src/wolfio.c **** {
1508:Middlewares/Third_Party/wolfSSL_wolfSSL_wolfSSL/wolfssl/src/wolfio.c ****     int result;
1509:Middlewares/Third_Party/wolfSSL_wolfSSL_wolfSSL/wolfssl/src/wolfio.c ****     byte *respBuf = NULL;
1510:Middlewares/Third_Party/wolfSSL_wolfSSL_wolfSSL/wolfssl/src/wolfio.c **** 
1511:Middlewares/Third_Party/wolfSSL_wolfSSL_wolfSSL/wolfssl/src/wolfio.c ****     const char* appStrList[] = {
ARM GAS  /tmp/ccACAaom.s 			page 28


1512:Middlewares/Third_Party/wolfSSL_wolfSSL_wolfSSL/wolfssl/src/wolfio.c ****         "application/pkix-crl",
1513:Middlewares/Third_Party/wolfSSL_wolfSSL_wolfSSL/wolfssl/src/wolfio.c ****         "application/x-pkcs7-crl",
1514:Middlewares/Third_Party/wolfSSL_wolfSSL_wolfSSL/wolfssl/src/wolfio.c ****         NULL
1515:Middlewares/Third_Party/wolfSSL_wolfSSL_wolfSSL/wolfssl/src/wolfio.c ****     };
1516:Middlewares/Third_Party/wolfSSL_wolfSSL_wolfSSL/wolfssl/src/wolfio.c **** 
1517:Middlewares/Third_Party/wolfSSL_wolfSSL_wolfSSL/wolfssl/src/wolfio.c ****     result = wolfIO_HttpProcessResponse(sfd, appStrList,
1518:Middlewares/Third_Party/wolfSSL_wolfSSL_wolfSSL/wolfssl/src/wolfio.c ****         &respBuf, httpBuf, httpBufSz, DYNAMIC_TYPE_CRL, crl->heap);
1519:Middlewares/Third_Party/wolfSSL_wolfSSL_wolfSSL/wolfssl/src/wolfio.c ****     if (result >= 0) {
1520:Middlewares/Third_Party/wolfSSL_wolfSSL_wolfSSL/wolfssl/src/wolfio.c ****         result = BufferLoadCRL(crl, respBuf, result, WOLFSSL_FILETYPE_ASN1, 0);
1521:Middlewares/Third_Party/wolfSSL_wolfSSL_wolfSSL/wolfssl/src/wolfio.c ****     }
1522:Middlewares/Third_Party/wolfSSL_wolfSSL_wolfSSL/wolfssl/src/wolfio.c ****     XFREE(respBuf, crl->heap, DYNAMIC_TYPE_CRL);
1523:Middlewares/Third_Party/wolfSSL_wolfSSL_wolfSSL/wolfssl/src/wolfio.c **** 
1524:Middlewares/Third_Party/wolfSSL_wolfSSL_wolfSSL/wolfssl/src/wolfio.c ****     return result;
1525:Middlewares/Third_Party/wolfSSL_wolfSSL_wolfSSL/wolfssl/src/wolfio.c **** }
1526:Middlewares/Third_Party/wolfSSL_wolfSSL_wolfSSL/wolfssl/src/wolfio.c **** 
1527:Middlewares/Third_Party/wolfSSL_wolfSSL_wolfSSL/wolfssl/src/wolfio.c **** int EmbedCrlLookup(WOLFSSL_CRL* crl, const char* url, int urlSz)
1528:Middlewares/Third_Party/wolfSSL_wolfSSL_wolfSSL/wolfssl/src/wolfio.c **** {
1529:Middlewares/Third_Party/wolfSSL_wolfSSL_wolfSSL/wolfssl/src/wolfio.c ****     SOCKET_T sfd = SOCKET_INVALID;
1530:Middlewares/Third_Party/wolfSSL_wolfSSL_wolfSSL/wolfssl/src/wolfio.c ****     word16   port;
1531:Middlewares/Third_Party/wolfSSL_wolfSSL_wolfSSL/wolfssl/src/wolfio.c ****     int      ret = -1;
1532:Middlewares/Third_Party/wolfSSL_wolfSSL_wolfSSL/wolfssl/src/wolfio.c **** #ifdef WOLFSSL_SMALL_STACK
1533:Middlewares/Third_Party/wolfSSL_wolfSSL_wolfSSL/wolfssl/src/wolfio.c ****     char*    domainName;
1534:Middlewares/Third_Party/wolfSSL_wolfSSL_wolfSSL/wolfssl/src/wolfio.c **** #else
1535:Middlewares/Third_Party/wolfSSL_wolfSSL_wolfSSL/wolfssl/src/wolfio.c ****     char     domainName[MAX_URL_ITEM_SIZE];
1536:Middlewares/Third_Party/wolfSSL_wolfSSL_wolfSSL/wolfssl/src/wolfio.c **** #endif
1537:Middlewares/Third_Party/wolfSSL_wolfSSL_wolfSSL/wolfssl/src/wolfio.c **** 
1538:Middlewares/Third_Party/wolfSSL_wolfSSL_wolfSSL/wolfssl/src/wolfio.c **** #ifdef WOLFSSL_SMALL_STACK
1539:Middlewares/Third_Party/wolfSSL_wolfSSL_wolfSSL/wolfssl/src/wolfio.c ****     domainName = (char*)XMALLOC(MAX_URL_ITEM_SIZE, crl->heap,
1540:Middlewares/Third_Party/wolfSSL_wolfSSL_wolfSSL/wolfssl/src/wolfio.c ****                                                        DYNAMIC_TYPE_TMP_BUFFER);
1541:Middlewares/Third_Party/wolfSSL_wolfSSL_wolfSSL/wolfssl/src/wolfio.c ****     if (domainName == NULL) {
1542:Middlewares/Third_Party/wolfSSL_wolfSSL_wolfSSL/wolfssl/src/wolfio.c ****         return MEMORY_E;
1543:Middlewares/Third_Party/wolfSSL_wolfSSL_wolfSSL/wolfssl/src/wolfio.c ****     }
1544:Middlewares/Third_Party/wolfSSL_wolfSSL_wolfSSL/wolfssl/src/wolfio.c **** #endif
1545:Middlewares/Third_Party/wolfSSL_wolfSSL_wolfSSL/wolfssl/src/wolfio.c **** 
1546:Middlewares/Third_Party/wolfSSL_wolfSSL_wolfSSL/wolfssl/src/wolfio.c ****     if (wolfIO_DecodeUrl(url, urlSz, domainName, NULL, &port) < 0) {
1547:Middlewares/Third_Party/wolfSSL_wolfSSL_wolfSSL/wolfssl/src/wolfio.c ****         WOLFSSL_MSG("Unable to decode CRL URL");
1548:Middlewares/Third_Party/wolfSSL_wolfSSL_wolfSSL/wolfssl/src/wolfio.c ****     }
1549:Middlewares/Third_Party/wolfSSL_wolfSSL_wolfSSL/wolfssl/src/wolfio.c ****     else {
1550:Middlewares/Third_Party/wolfSSL_wolfSSL_wolfSSL/wolfssl/src/wolfio.c ****         int   httpBufSz = HTTP_SCRATCH_BUFFER_SIZE;
1551:Middlewares/Third_Party/wolfSSL_wolfSSL_wolfSSL/wolfssl/src/wolfio.c ****         byte* httpBuf   = (byte*)XMALLOC(httpBufSz, crl->heap,
1552:Middlewares/Third_Party/wolfSSL_wolfSSL_wolfSSL/wolfssl/src/wolfio.c ****                                                               DYNAMIC_TYPE_CRL);
1553:Middlewares/Third_Party/wolfSSL_wolfSSL_wolfSSL/wolfssl/src/wolfio.c ****         if (httpBuf == NULL) {
1554:Middlewares/Third_Party/wolfSSL_wolfSSL_wolfSSL/wolfssl/src/wolfio.c ****             WOLFSSL_MSG("Unable to create CRL response buffer");
1555:Middlewares/Third_Party/wolfSSL_wolfSSL_wolfSSL/wolfssl/src/wolfio.c ****         }
1556:Middlewares/Third_Party/wolfSSL_wolfSSL_wolfSSL/wolfssl/src/wolfio.c ****         else {
1557:Middlewares/Third_Party/wolfSSL_wolfSSL_wolfSSL/wolfssl/src/wolfio.c ****             httpBufSz = wolfIO_HttpBuildRequestCrl(url, urlSz, domainName,
1558:Middlewares/Third_Party/wolfSSL_wolfSSL_wolfSSL/wolfssl/src/wolfio.c ****                 httpBuf, httpBufSz);
1559:Middlewares/Third_Party/wolfSSL_wolfSSL_wolfSSL/wolfssl/src/wolfio.c **** 
1560:Middlewares/Third_Party/wolfSSL_wolfSSL_wolfSSL/wolfssl/src/wolfio.c ****             ret = wolfIO_TcpConnect(&sfd, domainName, port, io_timeout_sec);
1561:Middlewares/Third_Party/wolfSSL_wolfSSL_wolfSSL/wolfssl/src/wolfio.c ****             if (ret != 0) {
1562:Middlewares/Third_Party/wolfSSL_wolfSSL_wolfSSL/wolfssl/src/wolfio.c ****                 WOLFSSL_MSG("CRL connection failed");
1563:Middlewares/Third_Party/wolfSSL_wolfSSL_wolfSSL/wolfssl/src/wolfio.c ****             }
1564:Middlewares/Third_Party/wolfSSL_wolfSSL_wolfSSL/wolfssl/src/wolfio.c ****             else if (wolfIO_Send(sfd, (char*)httpBuf, httpBufSz, 0)
1565:Middlewares/Third_Party/wolfSSL_wolfSSL_wolfSSL/wolfssl/src/wolfio.c ****                                                                  != httpBufSz) {
1566:Middlewares/Third_Party/wolfSSL_wolfSSL_wolfSSL/wolfssl/src/wolfio.c ****                 WOLFSSL_MSG("CRL http get failed");
1567:Middlewares/Third_Party/wolfSSL_wolfSSL_wolfSSL/wolfssl/src/wolfio.c ****             }
1568:Middlewares/Third_Party/wolfSSL_wolfSSL_wolfSSL/wolfssl/src/wolfio.c ****             else {
ARM GAS  /tmp/ccACAaom.s 			page 29


1569:Middlewares/Third_Party/wolfSSL_wolfSSL_wolfSSL/wolfssl/src/wolfio.c ****                 ret = wolfIO_HttpProcessResponseCrl(crl, sfd, httpBuf,
1570:Middlewares/Third_Party/wolfSSL_wolfSSL_wolfSSL/wolfssl/src/wolfio.c ****                                                       HTTP_SCRATCH_BUFFER_SIZE);
1571:Middlewares/Third_Party/wolfSSL_wolfSSL_wolfSSL/wolfssl/src/wolfio.c ****             }
1572:Middlewares/Third_Party/wolfSSL_wolfSSL_wolfSSL/wolfssl/src/wolfio.c ****             if (sfd != SOCKET_INVALID)
1573:Middlewares/Third_Party/wolfSSL_wolfSSL_wolfSSL/wolfssl/src/wolfio.c ****                 CloseSocket(sfd);
1574:Middlewares/Third_Party/wolfSSL_wolfSSL_wolfSSL/wolfssl/src/wolfio.c ****             XFREE(httpBuf, crl->heap, DYNAMIC_TYPE_CRL);
1575:Middlewares/Third_Party/wolfSSL_wolfSSL_wolfSSL/wolfssl/src/wolfio.c ****         }
1576:Middlewares/Third_Party/wolfSSL_wolfSSL_wolfSSL/wolfssl/src/wolfio.c ****     }
1577:Middlewares/Third_Party/wolfSSL_wolfSSL_wolfSSL/wolfssl/src/wolfio.c **** 
1578:Middlewares/Third_Party/wolfSSL_wolfSSL_wolfSSL/wolfssl/src/wolfio.c **** #ifdef WOLFSSL_SMALL_STACK
1579:Middlewares/Third_Party/wolfSSL_wolfSSL_wolfSSL/wolfssl/src/wolfio.c ****     XFREE(domainName, crl->heap, DYNAMIC_TYPE_TMP_BUFFER);
1580:Middlewares/Third_Party/wolfSSL_wolfSSL_wolfSSL/wolfssl/src/wolfio.c **** #endif
1581:Middlewares/Third_Party/wolfSSL_wolfSSL_wolfSSL/wolfssl/src/wolfio.c **** 
1582:Middlewares/Third_Party/wolfSSL_wolfSSL_wolfSSL/wolfssl/src/wolfio.c ****     return ret;
1583:Middlewares/Third_Party/wolfSSL_wolfSSL_wolfSSL/wolfssl/src/wolfio.c **** }
1584:Middlewares/Third_Party/wolfSSL_wolfSSL_wolfSSL/wolfssl/src/wolfio.c **** #endif /* HAVE_CRL && HAVE_CRL_IO */
1585:Middlewares/Third_Party/wolfSSL_wolfSSL_wolfSSL/wolfssl/src/wolfio.c **** 
1586:Middlewares/Third_Party/wolfSSL_wolfSSL_wolfSSL/wolfssl/src/wolfio.c **** #endif /* HAVE_HTTP_CLIENT */
1587:Middlewares/Third_Party/wolfSSL_wolfSSL_wolfSSL/wolfssl/src/wolfio.c **** 
1588:Middlewares/Third_Party/wolfSSL_wolfSSL_wolfSSL/wolfssl/src/wolfio.c **** 
1589:Middlewares/Third_Party/wolfSSL_wolfSSL_wolfSSL/wolfssl/src/wolfio.c **** 
1590:Middlewares/Third_Party/wolfSSL_wolfSSL_wolfSSL/wolfssl/src/wolfio.c **** void wolfSSL_CTX_SetIORecv(WOLFSSL_CTX *ctx, CallbackIORecv CBIORecv)
1591:Middlewares/Third_Party/wolfSSL_wolfSSL_wolfSSL/wolfssl/src/wolfio.c **** {
  30              		.loc 1 1591 1 view -0
  31              		.cfi_startproc
  32              		@ args = 0, pretend = 0, frame = 0
  33              		@ frame_needed = 0, uses_anonymous_args = 0
  34              		@ link register save eliminated.
1592:Middlewares/Third_Party/wolfSSL_wolfSSL_wolfSSL/wolfssl/src/wolfio.c ****     if (ctx) {
  35              		.loc 1 1592 5 view .LVU1
  36              		.loc 1 1592 8 is_stmt 0 view .LVU2
  37 0000 00B1     		cbz	r0, .L1
1593:Middlewares/Third_Party/wolfSSL_wolfSSL_wolfSSL/wolfssl/src/wolfio.c ****         ctx->CBIORecv = CBIORecv;
  38              		.loc 1 1593 9 is_stmt 1 view .LVU3
  39              		.loc 1 1593 23 is_stmt 0 view .LVU4
  40 0002 C165     		str	r1, [r0, #92]
  41              	.L1:
1594:Middlewares/Third_Party/wolfSSL_wolfSSL_wolfSSL/wolfssl/src/wolfio.c ****     #ifdef OPENSSL_EXTRA
1595:Middlewares/Third_Party/wolfSSL_wolfSSL_wolfSSL/wolfssl/src/wolfio.c ****         ctx->cbioFlag |= WOLFSSL_CBIO_RECV;
1596:Middlewares/Third_Party/wolfSSL_wolfSSL_wolfSSL/wolfssl/src/wolfio.c ****     #endif
1597:Middlewares/Third_Party/wolfSSL_wolfSSL_wolfSSL/wolfssl/src/wolfio.c ****     }
1598:Middlewares/Third_Party/wolfSSL_wolfSSL_wolfSSL/wolfssl/src/wolfio.c **** }
  42              		.loc 1 1598 1 view .LVU5
  43 0004 7047     		bx	lr
  44              		.cfi_endproc
  45              	.LFE136:
  47              		.section	.text.wolfSSL_CTX_SetIOSend,"ax",%progbits
  48              		.align	1
  49              		.global	wolfSSL_CTX_SetIOSend
  50              		.syntax unified
  51              		.thumb
  52              		.thumb_func
  53              		.fpu fpv4-sp-d16
  55              	wolfSSL_CTX_SetIOSend:
  56              	.LVL1:
  57              	.LFB137:
1599:Middlewares/Third_Party/wolfSSL_wolfSSL_wolfSSL/wolfssl/src/wolfio.c **** 
ARM GAS  /tmp/ccACAaom.s 			page 30


1600:Middlewares/Third_Party/wolfSSL_wolfSSL_wolfSSL/wolfssl/src/wolfio.c **** 
1601:Middlewares/Third_Party/wolfSSL_wolfSSL_wolfSSL/wolfssl/src/wolfio.c **** void wolfSSL_CTX_SetIOSend(WOLFSSL_CTX *ctx, CallbackIOSend CBIOSend)
1602:Middlewares/Third_Party/wolfSSL_wolfSSL_wolfSSL/wolfssl/src/wolfio.c **** {
  58              		.loc 1 1602 1 is_stmt 1 view -0
  59              		.cfi_startproc
  60              		@ args = 0, pretend = 0, frame = 0
  61              		@ frame_needed = 0, uses_anonymous_args = 0
  62              		@ link register save eliminated.
1603:Middlewares/Third_Party/wolfSSL_wolfSSL_wolfSSL/wolfssl/src/wolfio.c ****     if (ctx) {
  63              		.loc 1 1603 5 view .LVU7
  64              		.loc 1 1603 8 is_stmt 0 view .LVU8
  65 0000 00B1     		cbz	r0, .L3
1604:Middlewares/Third_Party/wolfSSL_wolfSSL_wolfSSL/wolfssl/src/wolfio.c ****         ctx->CBIOSend = CBIOSend;
  66              		.loc 1 1604 9 is_stmt 1 view .LVU9
  67              		.loc 1 1604 23 is_stmt 0 view .LVU10
  68 0002 0166     		str	r1, [r0, #96]
  69              	.L3:
1605:Middlewares/Third_Party/wolfSSL_wolfSSL_wolfSSL/wolfssl/src/wolfio.c ****     #ifdef OPENSSL_EXTRA
1606:Middlewares/Third_Party/wolfSSL_wolfSSL_wolfSSL/wolfssl/src/wolfio.c ****         ctx->cbioFlag |= WOLFSSL_CBIO_SEND;
1607:Middlewares/Third_Party/wolfSSL_wolfSSL_wolfSSL/wolfssl/src/wolfio.c ****     #endif
1608:Middlewares/Third_Party/wolfSSL_wolfSSL_wolfSSL/wolfssl/src/wolfio.c ****     }
1609:Middlewares/Third_Party/wolfSSL_wolfSSL_wolfSSL/wolfssl/src/wolfio.c **** }
  70              		.loc 1 1609 1 view .LVU11
  71 0004 7047     		bx	lr
  72              		.cfi_endproc
  73              	.LFE137:
  75              		.section	.text.wolfSSL_SSLSetIORecv,"ax",%progbits
  76              		.align	1
  77              		.global	wolfSSL_SSLSetIORecv
  78              		.syntax unified
  79              		.thumb
  80              		.thumb_func
  81              		.fpu fpv4-sp-d16
  83              	wolfSSL_SSLSetIORecv:
  84              	.LVL2:
  85              	.LFB138:
1610:Middlewares/Third_Party/wolfSSL_wolfSSL_wolfSSL/wolfssl/src/wolfio.c **** 
1611:Middlewares/Third_Party/wolfSSL_wolfSSL_wolfSSL/wolfssl/src/wolfio.c **** 
1612:Middlewares/Third_Party/wolfSSL_wolfSSL_wolfSSL/wolfssl/src/wolfio.c **** /* sets the IO callback to use for receives at WOLFSSL level */
1613:Middlewares/Third_Party/wolfSSL_wolfSSL_wolfSSL/wolfssl/src/wolfio.c **** void wolfSSL_SSLSetIORecv(WOLFSSL *ssl, CallbackIORecv CBIORecv)
1614:Middlewares/Third_Party/wolfSSL_wolfSSL_wolfSSL/wolfssl/src/wolfio.c **** {
  86              		.loc 1 1614 1 is_stmt 1 view -0
  87              		.cfi_startproc
  88              		@ args = 0, pretend = 0, frame = 0
  89              		@ frame_needed = 0, uses_anonymous_args = 0
  90              		@ link register save eliminated.
1615:Middlewares/Third_Party/wolfSSL_wolfSSL_wolfSSL/wolfssl/src/wolfio.c ****     if (ssl) {
  91              		.loc 1 1615 5 view .LVU13
  92              		.loc 1 1615 8 is_stmt 0 view .LVU14
  93 0000 08B1     		cbz	r0, .L5
1616:Middlewares/Third_Party/wolfSSL_wolfSSL_wolfSSL/wolfssl/src/wolfio.c ****         ssl->CBIORecv = CBIORecv;
  94              		.loc 1 1616 9 is_stmt 1 view .LVU15
  95              		.loc 1 1616 23 is_stmt 0 view .LVU16
  96 0002 C0F88810 		str	r1, [r0, #136]
  97              	.L5:
1617:Middlewares/Third_Party/wolfSSL_wolfSSL_wolfSSL/wolfssl/src/wolfio.c ****     #ifdef OPENSSL_EXTRA
1618:Middlewares/Third_Party/wolfSSL_wolfSSL_wolfSSL/wolfssl/src/wolfio.c ****         ssl->cbioFlag |= WOLFSSL_CBIO_RECV;
ARM GAS  /tmp/ccACAaom.s 			page 31


1619:Middlewares/Third_Party/wolfSSL_wolfSSL_wolfSSL/wolfssl/src/wolfio.c ****     #endif
1620:Middlewares/Third_Party/wolfSSL_wolfSSL_wolfSSL/wolfssl/src/wolfio.c ****     }
1621:Middlewares/Third_Party/wolfSSL_wolfSSL_wolfSSL/wolfssl/src/wolfio.c **** }
  98              		.loc 1 1621 1 view .LVU17
  99 0006 7047     		bx	lr
 100              		.cfi_endproc
 101              	.LFE138:
 103              		.section	.text.wolfSSL_SSLSetIOSend,"ax",%progbits
 104              		.align	1
 105              		.global	wolfSSL_SSLSetIOSend
 106              		.syntax unified
 107              		.thumb
 108              		.thumb_func
 109              		.fpu fpv4-sp-d16
 111              	wolfSSL_SSLSetIOSend:
 112              	.LVL3:
 113              	.LFB139:
1622:Middlewares/Third_Party/wolfSSL_wolfSSL_wolfSSL/wolfssl/src/wolfio.c **** 
1623:Middlewares/Third_Party/wolfSSL_wolfSSL_wolfSSL/wolfssl/src/wolfio.c **** 
1624:Middlewares/Third_Party/wolfSSL_wolfSSL_wolfSSL/wolfssl/src/wolfio.c **** /* sets the IO callback to use for sends at WOLFSSL level */
1625:Middlewares/Third_Party/wolfSSL_wolfSSL_wolfSSL/wolfssl/src/wolfio.c **** void wolfSSL_SSLSetIOSend(WOLFSSL *ssl, CallbackIOSend CBIOSend)
1626:Middlewares/Third_Party/wolfSSL_wolfSSL_wolfSSL/wolfssl/src/wolfio.c **** {
 114              		.loc 1 1626 1 is_stmt 1 view -0
 115              		.cfi_startproc
 116              		@ args = 0, pretend = 0, frame = 0
 117              		@ frame_needed = 0, uses_anonymous_args = 0
 118              		@ link register save eliminated.
1627:Middlewares/Third_Party/wolfSSL_wolfSSL_wolfSSL/wolfssl/src/wolfio.c ****     if (ssl) {
 119              		.loc 1 1627 5 view .LVU19
 120              		.loc 1 1627 8 is_stmt 0 view .LVU20
 121 0000 08B1     		cbz	r0, .L7
1628:Middlewares/Third_Party/wolfSSL_wolfSSL_wolfSSL/wolfssl/src/wolfio.c ****         ssl->CBIOSend = CBIOSend;
 122              		.loc 1 1628 9 is_stmt 1 view .LVU21
 123              		.loc 1 1628 23 is_stmt 0 view .LVU22
 124 0002 C0F88C10 		str	r1, [r0, #140]
 125              	.L7:
1629:Middlewares/Third_Party/wolfSSL_wolfSSL_wolfSSL/wolfssl/src/wolfio.c ****     #ifdef OPENSSL_EXTRA
1630:Middlewares/Third_Party/wolfSSL_wolfSSL_wolfSSL/wolfssl/src/wolfio.c ****         ssl->cbioFlag |= WOLFSSL_CBIO_SEND;
1631:Middlewares/Third_Party/wolfSSL_wolfSSL_wolfSSL/wolfssl/src/wolfio.c ****     #endif
1632:Middlewares/Third_Party/wolfSSL_wolfSSL_wolfSSL/wolfssl/src/wolfio.c ****     }
1633:Middlewares/Third_Party/wolfSSL_wolfSSL_wolfSSL/wolfssl/src/wolfio.c **** }
 126              		.loc 1 1633 1 view .LVU23
 127 0006 7047     		bx	lr
 128              		.cfi_endproc
 129              	.LFE139:
 131              		.section	.text.wolfSSL_SetIOReadCtx,"ax",%progbits
 132              		.align	1
 133              		.global	wolfSSL_SetIOReadCtx
 134              		.syntax unified
 135              		.thumb
 136              		.thumb_func
 137              		.fpu fpv4-sp-d16
 139              	wolfSSL_SetIOReadCtx:
 140              	.LVL4:
 141              	.LFB140:
1634:Middlewares/Third_Party/wolfSSL_wolfSSL_wolfSSL/wolfssl/src/wolfio.c **** 
1635:Middlewares/Third_Party/wolfSSL_wolfSSL_wolfSSL/wolfssl/src/wolfio.c **** 
ARM GAS  /tmp/ccACAaom.s 			page 32


1636:Middlewares/Third_Party/wolfSSL_wolfSSL_wolfSSL/wolfssl/src/wolfio.c **** void wolfSSL_SetIOReadCtx(WOLFSSL* ssl, void *rctx)
1637:Middlewares/Third_Party/wolfSSL_wolfSSL_wolfSSL/wolfssl/src/wolfio.c **** {
 142              		.loc 1 1637 1 is_stmt 1 view -0
 143              		.cfi_startproc
 144              		@ args = 0, pretend = 0, frame = 0
 145              		@ frame_needed = 0, uses_anonymous_args = 0
 146              		@ link register save eliminated.
1638:Middlewares/Third_Party/wolfSSL_wolfSSL_wolfSSL/wolfssl/src/wolfio.c ****     if (ssl)
 147              		.loc 1 1638 5 view .LVU25
 148              		.loc 1 1638 8 is_stmt 0 view .LVU26
 149 0000 00B1     		cbz	r0, .L9
1639:Middlewares/Third_Party/wolfSSL_wolfSSL_wolfSSL/wolfssl/src/wolfio.c ****         ssl->IOCB_ReadCtx = rctx;
 150              		.loc 1 1639 9 is_stmt 1 view .LVU27
 151              		.loc 1 1639 27 is_stmt 0 view .LVU28
 152 0002 0167     		str	r1, [r0, #112]
 153              	.L9:
1640:Middlewares/Third_Party/wolfSSL_wolfSSL_wolfSSL/wolfssl/src/wolfio.c **** }
 154              		.loc 1 1640 1 view .LVU29
 155 0004 7047     		bx	lr
 156              		.cfi_endproc
 157              	.LFE140:
 159              		.section	.text.wolfSSL_SetIOWriteCtx,"ax",%progbits
 160              		.align	1
 161              		.global	wolfSSL_SetIOWriteCtx
 162              		.syntax unified
 163              		.thumb
 164              		.thumb_func
 165              		.fpu fpv4-sp-d16
 167              	wolfSSL_SetIOWriteCtx:
 168              	.LVL5:
 169              	.LFB141:
1641:Middlewares/Third_Party/wolfSSL_wolfSSL_wolfSSL/wolfssl/src/wolfio.c **** 
1642:Middlewares/Third_Party/wolfSSL_wolfSSL_wolfSSL/wolfssl/src/wolfio.c **** 
1643:Middlewares/Third_Party/wolfSSL_wolfSSL_wolfSSL/wolfssl/src/wolfio.c **** void wolfSSL_SetIOWriteCtx(WOLFSSL* ssl, void *wctx)
1644:Middlewares/Third_Party/wolfSSL_wolfSSL_wolfSSL/wolfssl/src/wolfio.c **** {
 170              		.loc 1 1644 1 is_stmt 1 view -0
 171              		.cfi_startproc
 172              		@ args = 0, pretend = 0, frame = 0
 173              		@ frame_needed = 0, uses_anonymous_args = 0
 174              		@ link register save eliminated.
1645:Middlewares/Third_Party/wolfSSL_wolfSSL_wolfSSL/wolfssl/src/wolfio.c ****     if (ssl)
 175              		.loc 1 1645 5 view .LVU31
 176              		.loc 1 1645 8 is_stmt 0 view .LVU32
 177 0000 00B1     		cbz	r0, .L11
1646:Middlewares/Third_Party/wolfSSL_wolfSSL_wolfSSL/wolfssl/src/wolfio.c ****         ssl->IOCB_WriteCtx = wctx;
 178              		.loc 1 1646 9 is_stmt 1 view .LVU33
 179              		.loc 1 1646 28 is_stmt 0 view .LVU34
 180 0002 4167     		str	r1, [r0, #116]
 181              	.L11:
1647:Middlewares/Third_Party/wolfSSL_wolfSSL_wolfSSL/wolfssl/src/wolfio.c **** }
 182              		.loc 1 1647 1 view .LVU35
 183 0004 7047     		bx	lr
 184              		.cfi_endproc
 185              	.LFE141:
 187              		.section	.text.wolfSSL_GetIOReadCtx,"ax",%progbits
 188              		.align	1
 189              		.global	wolfSSL_GetIOReadCtx
ARM GAS  /tmp/ccACAaom.s 			page 33


 190              		.syntax unified
 191              		.thumb
 192              		.thumb_func
 193              		.fpu fpv4-sp-d16
 195              	wolfSSL_GetIOReadCtx:
 196              	.LVL6:
 197              	.LFB142:
1648:Middlewares/Third_Party/wolfSSL_wolfSSL_wolfSSL/wolfssl/src/wolfio.c **** 
1649:Middlewares/Third_Party/wolfSSL_wolfSSL_wolfSSL/wolfssl/src/wolfio.c **** 
1650:Middlewares/Third_Party/wolfSSL_wolfSSL_wolfSSL/wolfssl/src/wolfio.c **** void* wolfSSL_GetIOReadCtx(WOLFSSL* ssl)
1651:Middlewares/Third_Party/wolfSSL_wolfSSL_wolfSSL/wolfssl/src/wolfio.c **** {
 198              		.loc 1 1651 1 is_stmt 1 view -0
 199              		.cfi_startproc
 200              		@ args = 0, pretend = 0, frame = 0
 201              		@ frame_needed = 0, uses_anonymous_args = 0
 202              		@ link register save eliminated.
1652:Middlewares/Third_Party/wolfSSL_wolfSSL_wolfSSL/wolfssl/src/wolfio.c ****     if (ssl)
 203              		.loc 1 1652 5 view .LVU37
 204              		.loc 1 1652 8 is_stmt 0 view .LVU38
 205 0000 08B1     		cbz	r0, .L15
1653:Middlewares/Third_Party/wolfSSL_wolfSSL_wolfSSL/wolfssl/src/wolfio.c ****         return ssl->IOCB_ReadCtx;
 206              		.loc 1 1653 9 is_stmt 1 view .LVU39
 207              		.loc 1 1653 19 is_stmt 0 view .LVU40
 208 0002 006F     		ldr	r0, [r0, #112]
 209              	.LVL7:
 210              		.loc 1 1653 19 view .LVU41
 211 0004 7047     		bx	lr
 212              	.LVL8:
 213              	.L15:
1654:Middlewares/Third_Party/wolfSSL_wolfSSL_wolfSSL/wolfssl/src/wolfio.c **** 
1655:Middlewares/Third_Party/wolfSSL_wolfSSL_wolfSSL/wolfssl/src/wolfio.c ****     return NULL;
1656:Middlewares/Third_Party/wolfSSL_wolfSSL_wolfSSL/wolfssl/src/wolfio.c **** }
 214              		.loc 1 1656 1 view .LVU42
 215 0006 7047     		bx	lr
 216              		.cfi_endproc
 217              	.LFE142:
 219              		.section	.text.wolfSSL_GetIOWriteCtx,"ax",%progbits
 220              		.align	1
 221              		.global	wolfSSL_GetIOWriteCtx
 222              		.syntax unified
 223              		.thumb
 224              		.thumb_func
 225              		.fpu fpv4-sp-d16
 227              	wolfSSL_GetIOWriteCtx:
 228              	.LVL9:
 229              	.LFB143:
1657:Middlewares/Third_Party/wolfSSL_wolfSSL_wolfSSL/wolfssl/src/wolfio.c **** 
1658:Middlewares/Third_Party/wolfSSL_wolfSSL_wolfSSL/wolfssl/src/wolfio.c **** 
1659:Middlewares/Third_Party/wolfSSL_wolfSSL_wolfSSL/wolfssl/src/wolfio.c **** void* wolfSSL_GetIOWriteCtx(WOLFSSL* ssl)
1660:Middlewares/Third_Party/wolfSSL_wolfSSL_wolfSSL/wolfssl/src/wolfio.c **** {
 230              		.loc 1 1660 1 is_stmt 1 view -0
 231              		.cfi_startproc
 232              		@ args = 0, pretend = 0, frame = 0
 233              		@ frame_needed = 0, uses_anonymous_args = 0
 234              		@ link register save eliminated.
1661:Middlewares/Third_Party/wolfSSL_wolfSSL_wolfSSL/wolfssl/src/wolfio.c ****     if (ssl)
 235              		.loc 1 1661 5 view .LVU44
ARM GAS  /tmp/ccACAaom.s 			page 34


 236              		.loc 1 1661 8 is_stmt 0 view .LVU45
 237 0000 08B1     		cbz	r0, .L18
1662:Middlewares/Third_Party/wolfSSL_wolfSSL_wolfSSL/wolfssl/src/wolfio.c ****         return ssl->IOCB_WriteCtx;
 238              		.loc 1 1662 9 is_stmt 1 view .LVU46
 239              		.loc 1 1662 19 is_stmt 0 view .LVU47
 240 0002 406F     		ldr	r0, [r0, #116]
 241              	.LVL10:
 242              		.loc 1 1662 19 view .LVU48
 243 0004 7047     		bx	lr
 244              	.LVL11:
 245              	.L18:
1663:Middlewares/Third_Party/wolfSSL_wolfSSL_wolfSSL/wolfssl/src/wolfio.c **** 
1664:Middlewares/Third_Party/wolfSSL_wolfSSL_wolfSSL/wolfssl/src/wolfio.c ****     return NULL;
1665:Middlewares/Third_Party/wolfSSL_wolfSSL_wolfSSL/wolfssl/src/wolfio.c **** }
 246              		.loc 1 1665 1 view .LVU49
 247 0006 7047     		bx	lr
 248              		.cfi_endproc
 249              	.LFE143:
 251              		.section	.text.wolfSSL_SetIOReadFlags,"ax",%progbits
 252              		.align	1
 253              		.global	wolfSSL_SetIOReadFlags
 254              		.syntax unified
 255              		.thumb
 256              		.thumb_func
 257              		.fpu fpv4-sp-d16
 259              	wolfSSL_SetIOReadFlags:
 260              	.LVL12:
 261              	.LFB144:
1666:Middlewares/Third_Party/wolfSSL_wolfSSL_wolfSSL/wolfssl/src/wolfio.c **** 
1667:Middlewares/Third_Party/wolfSSL_wolfSSL_wolfSSL/wolfssl/src/wolfio.c **** 
1668:Middlewares/Third_Party/wolfSSL_wolfSSL_wolfSSL/wolfssl/src/wolfio.c **** void wolfSSL_SetIOReadFlags(WOLFSSL* ssl, int flags)
1669:Middlewares/Third_Party/wolfSSL_wolfSSL_wolfSSL/wolfssl/src/wolfio.c **** {
 262              		.loc 1 1669 1 is_stmt 1 view -0
 263              		.cfi_startproc
 264              		@ args = 0, pretend = 0, frame = 0
 265              		@ frame_needed = 0, uses_anonymous_args = 0
 266              		@ link register save eliminated.
1670:Middlewares/Third_Party/wolfSSL_wolfSSL_wolfSSL/wolfssl/src/wolfio.c ****     if (ssl)
 267              		.loc 1 1670 5 view .LVU51
 268              		.loc 1 1670 8 is_stmt 0 view .LVU52
 269 0000 08B1     		cbz	r0, .L19
1671:Middlewares/Third_Party/wolfSSL_wolfSSL_wolfSSL/wolfssl/src/wolfio.c ****         ssl->rflags = flags;
 270              		.loc 1 1671 9 is_stmt 1 view .LVU53
 271              		.loc 1 1671 21 is_stmt 0 view .LVU54
 272 0002 C0F81012 		str	r1, [r0, #528]
 273              	.L19:
1672:Middlewares/Third_Party/wolfSSL_wolfSSL_wolfSSL/wolfssl/src/wolfio.c **** }
 274              		.loc 1 1672 1 view .LVU55
 275 0006 7047     		bx	lr
 276              		.cfi_endproc
 277              	.LFE144:
 279              		.section	.text.wolfSSL_SetIOWriteFlags,"ax",%progbits
 280              		.align	1
 281              		.global	wolfSSL_SetIOWriteFlags
 282              		.syntax unified
 283              		.thumb
 284              		.thumb_func
ARM GAS  /tmp/ccACAaom.s 			page 35


 285              		.fpu fpv4-sp-d16
 287              	wolfSSL_SetIOWriteFlags:
 288              	.LVL13:
 289              	.LFB145:
1673:Middlewares/Third_Party/wolfSSL_wolfSSL_wolfSSL/wolfssl/src/wolfio.c **** 
1674:Middlewares/Third_Party/wolfSSL_wolfSSL_wolfSSL/wolfssl/src/wolfio.c **** 
1675:Middlewares/Third_Party/wolfSSL_wolfSSL_wolfSSL/wolfssl/src/wolfio.c **** void wolfSSL_SetIOWriteFlags(WOLFSSL* ssl, int flags)
1676:Middlewares/Third_Party/wolfSSL_wolfSSL_wolfSSL/wolfssl/src/wolfio.c **** {
 290              		.loc 1 1676 1 is_stmt 1 view -0
 291              		.cfi_startproc
 292              		@ args = 0, pretend = 0, frame = 0
 293              		@ frame_needed = 0, uses_anonymous_args = 0
 294              		@ link register save eliminated.
1677:Middlewares/Third_Party/wolfSSL_wolfSSL_wolfSSL/wolfssl/src/wolfio.c ****     if (ssl)
 295              		.loc 1 1677 5 view .LVU57
 296              		.loc 1 1677 8 is_stmt 0 view .LVU58
 297 0000 08B1     		cbz	r0, .L21
1678:Middlewares/Third_Party/wolfSSL_wolfSSL_wolfSSL/wolfssl/src/wolfio.c ****         ssl->wflags = flags;
 298              		.loc 1 1678 9 is_stmt 1 view .LVU59
 299              		.loc 1 1678 21 is_stmt 0 view .LVU60
 300 0002 C0F81412 		str	r1, [r0, #532]
 301              	.L21:
1679:Middlewares/Third_Party/wolfSSL_wolfSSL_wolfSSL/wolfssl/src/wolfio.c **** }
 302              		.loc 1 1679 1 view .LVU61
 303 0006 7047     		bx	lr
 304              		.cfi_endproc
 305              	.LFE145:
 307              		.text
 308              	.Letext0:
 309              		.file 2 "/usr/lib/gcc/arm-none-eabi/10.2.0/include/stddef.h"
 310              		.file 3 "Middlewares/Third_Party/FreeRTOS/Source/include/queue.h"
 311              		.file 4 "Middlewares/Third_Party/FreeRTOS/Source/include/semphr.h"
 312              		.file 5 "Middlewares/Third_Party/wolfSSL_wolfSSL_wolfSSL/wolfssl/wolfssl/wolfcrypt/wc_port.h"
 313              		.file 6 "Middlewares/Third_Party/wolfSSL_wolfSSL_wolfSSL/wolfssl/wolfssl/wolfcrypt/types.h"
 314              		.file 7 "Middlewares/Third_Party/wolfSSL_wolfSSL_wolfSSL/wolfssl/wolfssl/wolfcrypt/asn_public.h"
 315              		.file 8 "Middlewares/Third_Party/wolfSSL_wolfSSL_wolfSSL/wolfssl/wolfssl/wolfcrypt/ecc.h"
 316              		.file 9 "Middlewares/Third_Party/wolfSSL_wolfSSL_wolfSSL/wolfssl/wolfssl/wolfcrypt/rsa.h"
 317              		.file 10 "Middlewares/Third_Party/wolfSSL_wolfSSL_wolfSSL/wolfssl/wolfssl/wolfcrypt/random.h"
 318              		.file 11 "Middlewares/Third_Party/wolfSSL_wolfSSL_wolfSSL/wolfssl/wolfssl/internal.h"
 319              		.file 12 "Middlewares/Third_Party/wolfSSL_wolfSSL_wolfSSL/wolfssl/wolfssl/ssl.h"
 320              		.file 13 "Middlewares/Third_Party/wolfSSL_wolfSSL_wolfSSL/wolfssl/wolfssl/wolfio.h"
 321              		.file 14 "Middlewares/Third_Party/wolfSSL_wolfSSL_wolfSSL/wolfssl/wolfssl/wolfcrypt/sha256.h"
 322              		.file 15 "Middlewares/Third_Party/wolfSSL_wolfSSL_wolfSSL/wolfssl/wolfssl/wolfcrypt/chacha.h"
 323              		.file 16 "Middlewares/Third_Party/wolfSSL_wolfSSL_wolfSSL/wolfssl/wolfssl/wolfcrypt/sp_int.h"
 324              		.file 17 "Middlewares/Third_Party/wolfSSL_wolfSSL_wolfSSL/wolfssl/wolfssl/wolfcrypt/dh.h"
 325              		.file 18 "Middlewares/Third_Party/wolfSSL_wolfSSL_wolfSSL/wolfssl/wolfssl/wolfcrypt/asn.h"
 326              		.file 19 "Middlewares/Third_Party/wolfSSL_wolfSSL_wolfSSL/wolfssl/wolfssl/wolfcrypt/aes.h"
 327              		.file 20 "Middlewares/Third_Party/wolfSSL_wolfSSL_wolfSSL/wolfssl/wolfssl/wolfcrypt/poly1305.h"
ARM GAS  /tmp/ccACAaom.s 			page 36


DEFINED SYMBOLS
                            *ABS*:0000000000000000 wolfio.c
     /tmp/ccACAaom.s:18     .text.wolfSSL_CTX_SetIORecv:0000000000000000 $t
     /tmp/ccACAaom.s:26     .text.wolfSSL_CTX_SetIORecv:0000000000000000 wolfSSL_CTX_SetIORecv
     /tmp/ccACAaom.s:48     .text.wolfSSL_CTX_SetIOSend:0000000000000000 $t
     /tmp/ccACAaom.s:55     .text.wolfSSL_CTX_SetIOSend:0000000000000000 wolfSSL_CTX_SetIOSend
     /tmp/ccACAaom.s:76     .text.wolfSSL_SSLSetIORecv:0000000000000000 $t
     /tmp/ccACAaom.s:83     .text.wolfSSL_SSLSetIORecv:0000000000000000 wolfSSL_SSLSetIORecv
     /tmp/ccACAaom.s:104    .text.wolfSSL_SSLSetIOSend:0000000000000000 $t
     /tmp/ccACAaom.s:111    .text.wolfSSL_SSLSetIOSend:0000000000000000 wolfSSL_SSLSetIOSend
     /tmp/ccACAaom.s:132    .text.wolfSSL_SetIOReadCtx:0000000000000000 $t
     /tmp/ccACAaom.s:139    .text.wolfSSL_SetIOReadCtx:0000000000000000 wolfSSL_SetIOReadCtx
     /tmp/ccACAaom.s:160    .text.wolfSSL_SetIOWriteCtx:0000000000000000 $t
     /tmp/ccACAaom.s:167    .text.wolfSSL_SetIOWriteCtx:0000000000000000 wolfSSL_SetIOWriteCtx
     /tmp/ccACAaom.s:188    .text.wolfSSL_GetIOReadCtx:0000000000000000 $t
     /tmp/ccACAaom.s:195    .text.wolfSSL_GetIOReadCtx:0000000000000000 wolfSSL_GetIOReadCtx
     /tmp/ccACAaom.s:220    .text.wolfSSL_GetIOWriteCtx:0000000000000000 $t
     /tmp/ccACAaom.s:227    .text.wolfSSL_GetIOWriteCtx:0000000000000000 wolfSSL_GetIOWriteCtx
     /tmp/ccACAaom.s:252    .text.wolfSSL_SetIOReadFlags:0000000000000000 $t
     /tmp/ccACAaom.s:259    .text.wolfSSL_SetIOReadFlags:0000000000000000 wolfSSL_SetIOReadFlags
     /tmp/ccACAaom.s:280    .text.wolfSSL_SetIOWriteFlags:0000000000000000 $t
     /tmp/ccACAaom.s:287    .text.wolfSSL_SetIOWriteFlags:0000000000000000 wolfSSL_SetIOWriteFlags

NO UNDEFINED SYMBOLS
